ARM GAS  /tmp/ccYcJizL.s 			page 1


   1              		.cpu cortex-m7
   2              		.eabi_attribute 27, 1
   3              		.eabi_attribute 28, 1
   4              		.eabi_attribute 20, 1
   5              		.eabi_attribute 21, 1
   6              		.eabi_attribute 23, 3
   7              		.eabi_attribute 24, 1
   8              		.eabi_attribute 25, 1
   9              		.eabi_attribute 26, 1
  10              		.eabi_attribute 30, 1
  11              		.eabi_attribute 34, 1
  12              		.eabi_attribute 18, 4
  13              		.file	"stm32h7xx_hal_flash_ex.c"
  14              		.text
  15              	.Ltext0:
  16              		.cfi_sections	.debug_frame
  17              		.section	.text.FLASH_MassErase,"ax",%progbits
  18              		.align	1
  19              		.arch armv7e-m
  20              		.syntax unified
  21              		.thumb
  22              		.thumb_func
  23              		.fpu fpv4-sp-d16
  25              	FLASH_MassErase:
  26              	.LVL0:
  27              	.LFB141:
  28              		.file 1 "../../Drivers/STM32H7xx_HAL_Driver/Src/stm32h7xx_hal_flash_ex.c"
   1:../../Drivers/STM32H7xx_HAL_Driver/Src/stm32h7xx_hal_flash_ex.c **** /**
   2:../../Drivers/STM32H7xx_HAL_Driver/Src/stm32h7xx_hal_flash_ex.c ****   ******************************************************************************
   3:../../Drivers/STM32H7xx_HAL_Driver/Src/stm32h7xx_hal_flash_ex.c ****   * @file    stm32h7xx_hal_flash_ex.c
   4:../../Drivers/STM32H7xx_HAL_Driver/Src/stm32h7xx_hal_flash_ex.c ****   * @author  MCD Application Team
   5:../../Drivers/STM32H7xx_HAL_Driver/Src/stm32h7xx_hal_flash_ex.c ****   * @brief   Extended FLASH HAL module driver.
   6:../../Drivers/STM32H7xx_HAL_Driver/Src/stm32h7xx_hal_flash_ex.c ****   *          This file provides firmware functions to manage the following
   7:../../Drivers/STM32H7xx_HAL_Driver/Src/stm32h7xx_hal_flash_ex.c ****   *          functionalities of the FLASH extension peripheral:
   8:../../Drivers/STM32H7xx_HAL_Driver/Src/stm32h7xx_hal_flash_ex.c ****   *           + Extended programming operations functions
   9:../../Drivers/STM32H7xx_HAL_Driver/Src/stm32h7xx_hal_flash_ex.c ****   *
  10:../../Drivers/STM32H7xx_HAL_Driver/Src/stm32h7xx_hal_flash_ex.c ****  @verbatim
  11:../../Drivers/STM32H7xx_HAL_Driver/Src/stm32h7xx_hal_flash_ex.c ****  ==============================================================================
  12:../../Drivers/STM32H7xx_HAL_Driver/Src/stm32h7xx_hal_flash_ex.c ****                    ##### Flash Extension features #####
  13:../../Drivers/STM32H7xx_HAL_Driver/Src/stm32h7xx_hal_flash_ex.c ****   ==============================================================================
  14:../../Drivers/STM32H7xx_HAL_Driver/Src/stm32h7xx_hal_flash_ex.c **** 
  15:../../Drivers/STM32H7xx_HAL_Driver/Src/stm32h7xx_hal_flash_ex.c ****   [..] Comparing to other previous devices, the FLASH interface for STM32H7xx
  16:../../Drivers/STM32H7xx_HAL_Driver/Src/stm32h7xx_hal_flash_ex.c ****        devices contains the following additional features
  17:../../Drivers/STM32H7xx_HAL_Driver/Src/stm32h7xx_hal_flash_ex.c **** 
  18:../../Drivers/STM32H7xx_HAL_Driver/Src/stm32h7xx_hal_flash_ex.c ****        (+) Capacity up to 2 Mbyte with dual bank architecture supporting read-while-write
  19:../../Drivers/STM32H7xx_HAL_Driver/Src/stm32h7xx_hal_flash_ex.c ****            capability (RWW)
  20:../../Drivers/STM32H7xx_HAL_Driver/Src/stm32h7xx_hal_flash_ex.c ****        (+) Dual bank memory organization
  21:../../Drivers/STM32H7xx_HAL_Driver/Src/stm32h7xx_hal_flash_ex.c ****        (+) PCROP protection for all banks
  22:../../Drivers/STM32H7xx_HAL_Driver/Src/stm32h7xx_hal_flash_ex.c ****        (+) Global readout protection (RDP)
  23:../../Drivers/STM32H7xx_HAL_Driver/Src/stm32h7xx_hal_flash_ex.c ****        (+) Write protection
  24:../../Drivers/STM32H7xx_HAL_Driver/Src/stm32h7xx_hal_flash_ex.c ****        (+) Secure access only protection
  25:../../Drivers/STM32H7xx_HAL_Driver/Src/stm32h7xx_hal_flash_ex.c ****        (+) Bank / register swapping (when Dual-Bank)
  26:../../Drivers/STM32H7xx_HAL_Driver/Src/stm32h7xx_hal_flash_ex.c ****        (+) Cyclic Redundancy Check (CRC)
  27:../../Drivers/STM32H7xx_HAL_Driver/Src/stm32h7xx_hal_flash_ex.c **** 
  28:../../Drivers/STM32H7xx_HAL_Driver/Src/stm32h7xx_hal_flash_ex.c ****                         ##### How to use this driver #####
  29:../../Drivers/STM32H7xx_HAL_Driver/Src/stm32h7xx_hal_flash_ex.c ****  ==============================================================================
  30:../../Drivers/STM32H7xx_HAL_Driver/Src/stm32h7xx_hal_flash_ex.c ****   [..] This driver provides functions to configure and program the FLASH memory
ARM GAS  /tmp/ccYcJizL.s 			page 2


  31:../../Drivers/STM32H7xx_HAL_Driver/Src/stm32h7xx_hal_flash_ex.c ****        of all STM32H7xx devices. It includes
  32:../../Drivers/STM32H7xx_HAL_Driver/Src/stm32h7xx_hal_flash_ex.c ****       (#) FLASH Memory Erase functions:
  33:../../Drivers/STM32H7xx_HAL_Driver/Src/stm32h7xx_hal_flash_ex.c ****            (++) Lock and Unlock the FLASH interface using HAL_FLASH_Unlock() and
  34:../../Drivers/STM32H7xx_HAL_Driver/Src/stm32h7xx_hal_flash_ex.c ****                 HAL_FLASH_Lock() functions
  35:../../Drivers/STM32H7xx_HAL_Driver/Src/stm32h7xx_hal_flash_ex.c ****            (++) Erase function: Sector erase, bank erase and dual-bank mass erase
  36:../../Drivers/STM32H7xx_HAL_Driver/Src/stm32h7xx_hal_flash_ex.c ****            (++) There are two modes of erase :
  37:../../Drivers/STM32H7xx_HAL_Driver/Src/stm32h7xx_hal_flash_ex.c ****              (+++) Polling Mode using HAL_FLASHEx_Erase()
  38:../../Drivers/STM32H7xx_HAL_Driver/Src/stm32h7xx_hal_flash_ex.c ****              (+++) Interrupt Mode using HAL_FLASHEx_Erase_IT()
  39:../../Drivers/STM32H7xx_HAL_Driver/Src/stm32h7xx_hal_flash_ex.c **** 
  40:../../Drivers/STM32H7xx_HAL_Driver/Src/stm32h7xx_hal_flash_ex.c ****       (#) Option Bytes Programming functions: Use HAL_FLASHEx_OBProgram() to:
  41:../../Drivers/STM32H7xx_HAL_Driver/Src/stm32h7xx_hal_flash_ex.c ****         (++) Set/Reset the write protection per bank
  42:../../Drivers/STM32H7xx_HAL_Driver/Src/stm32h7xx_hal_flash_ex.c ****         (++) Set the Read protection Level
  43:../../Drivers/STM32H7xx_HAL_Driver/Src/stm32h7xx_hal_flash_ex.c ****         (++) Set the BOR level
  44:../../Drivers/STM32H7xx_HAL_Driver/Src/stm32h7xx_hal_flash_ex.c ****         (++) Program the user Option Bytes
  45:../../Drivers/STM32H7xx_HAL_Driver/Src/stm32h7xx_hal_flash_ex.c ****         (++) PCROP protection configuration and control per bank
  46:../../Drivers/STM32H7xx_HAL_Driver/Src/stm32h7xx_hal_flash_ex.c ****         (++) Secure area configuration and control per bank
  47:../../Drivers/STM32H7xx_HAL_Driver/Src/stm32h7xx_hal_flash_ex.c ****         (++) Core Boot address configuration
  48:../../Drivers/STM32H7xx_HAL_Driver/Src/stm32h7xx_hal_flash_ex.c ****         (++) TCM / AXI shared RAM configuration
  49:../../Drivers/STM32H7xx_HAL_Driver/Src/stm32h7xx_hal_flash_ex.c ****         (++) CPU Frequency Boost configuration
  50:../../Drivers/STM32H7xx_HAL_Driver/Src/stm32h7xx_hal_flash_ex.c **** 
  51:../../Drivers/STM32H7xx_HAL_Driver/Src/stm32h7xx_hal_flash_ex.c ****       (#) FLASH Memory Lock and unlock per Bank: HAL_FLASHEx_Lock_Bank1(), HAL_FLASHEx_Unlock_Bank1
  52:../../Drivers/STM32H7xx_HAL_Driver/Src/stm32h7xx_hal_flash_ex.c ****           HAL_FLASHEx_Lock_Bank2() and HAL_FLASHEx_Unlock_Bank2() functions
  53:../../Drivers/STM32H7xx_HAL_Driver/Src/stm32h7xx_hal_flash_ex.c **** 
  54:../../Drivers/STM32H7xx_HAL_Driver/Src/stm32h7xx_hal_flash_ex.c ****       (#) FLASH CRC computation function: Use HAL_FLASHEx_ComputeCRC() to:
  55:../../Drivers/STM32H7xx_HAL_Driver/Src/stm32h7xx_hal_flash_ex.c ****           (++) Enable CRC feature
  56:../../Drivers/STM32H7xx_HAL_Driver/Src/stm32h7xx_hal_flash_ex.c ****           (++) Program the desired burst size
  57:../../Drivers/STM32H7xx_HAL_Driver/Src/stm32h7xx_hal_flash_ex.c ****           (++) Define the user Flash Area on which the CRC has be computed
  58:../../Drivers/STM32H7xx_HAL_Driver/Src/stm32h7xx_hal_flash_ex.c ****           (++) Perform the CRC computation
  59:../../Drivers/STM32H7xx_HAL_Driver/Src/stm32h7xx_hal_flash_ex.c ****           (++) Disable CRC feature
  60:../../Drivers/STM32H7xx_HAL_Driver/Src/stm32h7xx_hal_flash_ex.c **** 
  61:../../Drivers/STM32H7xx_HAL_Driver/Src/stm32h7xx_hal_flash_ex.c ****  @endverbatim
  62:../../Drivers/STM32H7xx_HAL_Driver/Src/stm32h7xx_hal_flash_ex.c ****   ******************************************************************************
  63:../../Drivers/STM32H7xx_HAL_Driver/Src/stm32h7xx_hal_flash_ex.c ****   * @attention
  64:../../Drivers/STM32H7xx_HAL_Driver/Src/stm32h7xx_hal_flash_ex.c ****   *
  65:../../Drivers/STM32H7xx_HAL_Driver/Src/stm32h7xx_hal_flash_ex.c ****   * Copyright (c) 2017 STMicroelectronics.
  66:../../Drivers/STM32H7xx_HAL_Driver/Src/stm32h7xx_hal_flash_ex.c ****   * All rights reserved.
  67:../../Drivers/STM32H7xx_HAL_Driver/Src/stm32h7xx_hal_flash_ex.c ****   *
  68:../../Drivers/STM32H7xx_HAL_Driver/Src/stm32h7xx_hal_flash_ex.c ****   * This software is licensed under terms that can be found in the LICENSE file in
  69:../../Drivers/STM32H7xx_HAL_Driver/Src/stm32h7xx_hal_flash_ex.c ****   * the root directory of this software component.
  70:../../Drivers/STM32H7xx_HAL_Driver/Src/stm32h7xx_hal_flash_ex.c ****   * If no LICENSE file comes with this software, it is provided AS-IS.
  71:../../Drivers/STM32H7xx_HAL_Driver/Src/stm32h7xx_hal_flash_ex.c ****   ******************************************************************************
  72:../../Drivers/STM32H7xx_HAL_Driver/Src/stm32h7xx_hal_flash_ex.c ****   */
  73:../../Drivers/STM32H7xx_HAL_Driver/Src/stm32h7xx_hal_flash_ex.c **** 
  74:../../Drivers/STM32H7xx_HAL_Driver/Src/stm32h7xx_hal_flash_ex.c **** /* Includes ------------------------------------------------------------------*/
  75:../../Drivers/STM32H7xx_HAL_Driver/Src/stm32h7xx_hal_flash_ex.c **** #include "stm32h7xx_hal.h"
  76:../../Drivers/STM32H7xx_HAL_Driver/Src/stm32h7xx_hal_flash_ex.c **** 
  77:../../Drivers/STM32H7xx_HAL_Driver/Src/stm32h7xx_hal_flash_ex.c **** /** @addtogroup STM32H7xx_HAL_Driver
  78:../../Drivers/STM32H7xx_HAL_Driver/Src/stm32h7xx_hal_flash_ex.c ****   * @{
  79:../../Drivers/STM32H7xx_HAL_Driver/Src/stm32h7xx_hal_flash_ex.c ****   */
  80:../../Drivers/STM32H7xx_HAL_Driver/Src/stm32h7xx_hal_flash_ex.c **** 
  81:../../Drivers/STM32H7xx_HAL_Driver/Src/stm32h7xx_hal_flash_ex.c **** /** @defgroup FLASHEx  FLASHEx
  82:../../Drivers/STM32H7xx_HAL_Driver/Src/stm32h7xx_hal_flash_ex.c ****   * @brief FLASH HAL Extension module driver
  83:../../Drivers/STM32H7xx_HAL_Driver/Src/stm32h7xx_hal_flash_ex.c ****   * @{
  84:../../Drivers/STM32H7xx_HAL_Driver/Src/stm32h7xx_hal_flash_ex.c ****   */
  85:../../Drivers/STM32H7xx_HAL_Driver/Src/stm32h7xx_hal_flash_ex.c **** 
  86:../../Drivers/STM32H7xx_HAL_Driver/Src/stm32h7xx_hal_flash_ex.c **** #ifdef HAL_FLASH_MODULE_ENABLED
  87:../../Drivers/STM32H7xx_HAL_Driver/Src/stm32h7xx_hal_flash_ex.c **** 
ARM GAS  /tmp/ccYcJizL.s 			page 3


  88:../../Drivers/STM32H7xx_HAL_Driver/Src/stm32h7xx_hal_flash_ex.c **** /* Private typedef -----------------------------------------------------------*/
  89:../../Drivers/STM32H7xx_HAL_Driver/Src/stm32h7xx_hal_flash_ex.c **** /* Private define ------------------------------------------------------------*/
  90:../../Drivers/STM32H7xx_HAL_Driver/Src/stm32h7xx_hal_flash_ex.c **** /** @addtogroup FLASHEx_Private_Constants
  91:../../Drivers/STM32H7xx_HAL_Driver/Src/stm32h7xx_hal_flash_ex.c ****   * @{
  92:../../Drivers/STM32H7xx_HAL_Driver/Src/stm32h7xx_hal_flash_ex.c ****   */
  93:../../Drivers/STM32H7xx_HAL_Driver/Src/stm32h7xx_hal_flash_ex.c **** #define FLASH_TIMEOUT_VALUE       50000U /* 50 s */
  94:../../Drivers/STM32H7xx_HAL_Driver/Src/stm32h7xx_hal_flash_ex.c **** 
  95:../../Drivers/STM32H7xx_HAL_Driver/Src/stm32h7xx_hal_flash_ex.c **** /**
  96:../../Drivers/STM32H7xx_HAL_Driver/Src/stm32h7xx_hal_flash_ex.c ****   * @}
  97:../../Drivers/STM32H7xx_HAL_Driver/Src/stm32h7xx_hal_flash_ex.c ****   */
  98:../../Drivers/STM32H7xx_HAL_Driver/Src/stm32h7xx_hal_flash_ex.c **** /* Private macro -------------------------------------------------------------*/
  99:../../Drivers/STM32H7xx_HAL_Driver/Src/stm32h7xx_hal_flash_ex.c **** /* Private variables ---------------------------------------------------------*/
 100:../../Drivers/STM32H7xx_HAL_Driver/Src/stm32h7xx_hal_flash_ex.c **** /* Private function prototypes -----------------------------------------------*/
 101:../../Drivers/STM32H7xx_HAL_Driver/Src/stm32h7xx_hal_flash_ex.c **** /** @defgroup FLASHEx_Private_Functions FLASHEx Private Functions
 102:../../Drivers/STM32H7xx_HAL_Driver/Src/stm32h7xx_hal_flash_ex.c ****   * @{
 103:../../Drivers/STM32H7xx_HAL_Driver/Src/stm32h7xx_hal_flash_ex.c ****   */
 104:../../Drivers/STM32H7xx_HAL_Driver/Src/stm32h7xx_hal_flash_ex.c **** static void FLASH_MassErase(uint32_t VoltageRange, uint32_t Banks);
 105:../../Drivers/STM32H7xx_HAL_Driver/Src/stm32h7xx_hal_flash_ex.c **** static void FLASH_OB_EnableWRP(uint32_t WRPSector, uint32_t Banks);
 106:../../Drivers/STM32H7xx_HAL_Driver/Src/stm32h7xx_hal_flash_ex.c **** static void FLASH_OB_DisableWRP(uint32_t WRPSector, uint32_t Bank);
 107:../../Drivers/STM32H7xx_HAL_Driver/Src/stm32h7xx_hal_flash_ex.c **** static void FLASH_OB_GetWRP(uint32_t *WRPState, uint32_t *WRPSector, uint32_t Bank);
 108:../../Drivers/STM32H7xx_HAL_Driver/Src/stm32h7xx_hal_flash_ex.c **** static void FLASH_OB_RDPConfig(uint32_t RDPLevel);
 109:../../Drivers/STM32H7xx_HAL_Driver/Src/stm32h7xx_hal_flash_ex.c **** static uint32_t FLASH_OB_GetRDP(void);
 110:../../Drivers/STM32H7xx_HAL_Driver/Src/stm32h7xx_hal_flash_ex.c **** static void FLASH_OB_PCROPConfig(uint32_t PCROConfigRDP, uint32_t PCROPStartAddr, uint32_t PCROPEnd
 111:../../Drivers/STM32H7xx_HAL_Driver/Src/stm32h7xx_hal_flash_ex.c **** static void FLASH_OB_GetPCROP(uint32_t *PCROPConfig, uint32_t *PCROPStartAddr,uint32_t *PCROPEndAdd
 112:../../Drivers/STM32H7xx_HAL_Driver/Src/stm32h7xx_hal_flash_ex.c **** static void FLASH_OB_BOR_LevelConfig(uint32_t Level);
 113:../../Drivers/STM32H7xx_HAL_Driver/Src/stm32h7xx_hal_flash_ex.c **** static uint32_t FLASH_OB_GetBOR(void);
 114:../../Drivers/STM32H7xx_HAL_Driver/Src/stm32h7xx_hal_flash_ex.c **** static void FLASH_OB_UserConfig(uint32_t UserType, uint32_t UserConfig);
 115:../../Drivers/STM32H7xx_HAL_Driver/Src/stm32h7xx_hal_flash_ex.c **** static uint32_t FLASH_OB_GetUser(void);
 116:../../Drivers/STM32H7xx_HAL_Driver/Src/stm32h7xx_hal_flash_ex.c **** static void FLASH_OB_BootAddConfig(uint32_t BootOption, uint32_t BootAddress0, uint32_t BootAddress
 117:../../Drivers/STM32H7xx_HAL_Driver/Src/stm32h7xx_hal_flash_ex.c **** static void FLASH_OB_GetBootAdd(uint32_t *BootAddress0, uint32_t *BootAddress1);
 118:../../Drivers/STM32H7xx_HAL_Driver/Src/stm32h7xx_hal_flash_ex.c **** static void FLASH_OB_SecureAreaConfig(uint32_t SecureAreaConfig, uint32_t SecureAreaStartAddr, uint
 119:../../Drivers/STM32H7xx_HAL_Driver/Src/stm32h7xx_hal_flash_ex.c **** static void FLASH_OB_GetSecureArea(uint32_t *SecureAreaConfig, uint32_t *SecureAreaStartAddr, uint3
 120:../../Drivers/STM32H7xx_HAL_Driver/Src/stm32h7xx_hal_flash_ex.c **** static void FLASH_CRC_AddSector(uint32_t Sector, uint32_t Bank);
 121:../../Drivers/STM32H7xx_HAL_Driver/Src/stm32h7xx_hal_flash_ex.c **** static void FLASH_CRC_SelectAddress(uint32_t CRCStartAddr, uint32_t CRCEndAddr, uint32_t Bank);
 122:../../Drivers/STM32H7xx_HAL_Driver/Src/stm32h7xx_hal_flash_ex.c **** 
 123:../../Drivers/STM32H7xx_HAL_Driver/Src/stm32h7xx_hal_flash_ex.c **** #if defined (DUAL_CORE)
 124:../../Drivers/STM32H7xx_HAL_Driver/Src/stm32h7xx_hal_flash_ex.c **** static void FLASH_OB_CM4BootAddConfig(uint32_t BootOption, uint32_t BootAddress0, uint32_t BootAddr
 125:../../Drivers/STM32H7xx_HAL_Driver/Src/stm32h7xx_hal_flash_ex.c **** static void FLASH_OB_GetCM4BootAdd(uint32_t *BootAddress0, uint32_t *BootAddress1);
 126:../../Drivers/STM32H7xx_HAL_Driver/Src/stm32h7xx_hal_flash_ex.c **** #endif /*DUAL_CORE*/
 127:../../Drivers/STM32H7xx_HAL_Driver/Src/stm32h7xx_hal_flash_ex.c **** 
 128:../../Drivers/STM32H7xx_HAL_Driver/Src/stm32h7xx_hal_flash_ex.c **** #if defined (FLASH_OTPBL_LOCKBL)
 129:../../Drivers/STM32H7xx_HAL_Driver/Src/stm32h7xx_hal_flash_ex.c **** static void FLASH_OB_OTP_LockConfig(uint32_t OTP_Block);
 130:../../Drivers/STM32H7xx_HAL_Driver/Src/stm32h7xx_hal_flash_ex.c **** static uint32_t FLASH_OB_OTP_GetLock(void);
 131:../../Drivers/STM32H7xx_HAL_Driver/Src/stm32h7xx_hal_flash_ex.c **** #endif /* FLASH_OTPBL_LOCKBL */
 132:../../Drivers/STM32H7xx_HAL_Driver/Src/stm32h7xx_hal_flash_ex.c **** 
 133:../../Drivers/STM32H7xx_HAL_Driver/Src/stm32h7xx_hal_flash_ex.c **** #if defined (FLASH_OPTSR2_TCM_AXI_SHARED)
 134:../../Drivers/STM32H7xx_HAL_Driver/Src/stm32h7xx_hal_flash_ex.c **** static void FLASH_OB_SharedRAM_Config(uint32_t SharedRamConfig);
 135:../../Drivers/STM32H7xx_HAL_Driver/Src/stm32h7xx_hal_flash_ex.c **** static uint32_t FLASH_OB_SharedRAM_GetConfig(void);
 136:../../Drivers/STM32H7xx_HAL_Driver/Src/stm32h7xx_hal_flash_ex.c **** #endif /* FLASH_OPTSR2_TCM_AXI_SHARED */
 137:../../Drivers/STM32H7xx_HAL_Driver/Src/stm32h7xx_hal_flash_ex.c **** 
 138:../../Drivers/STM32H7xx_HAL_Driver/Src/stm32h7xx_hal_flash_ex.c **** #if defined (FLASH_OPTSR2_CPUFREQ_BOOST)
 139:../../Drivers/STM32H7xx_HAL_Driver/Src/stm32h7xx_hal_flash_ex.c **** static void FLASH_OB_CPUFreq_BoostConfig(uint32_t FreqBoost);
 140:../../Drivers/STM32H7xx_HAL_Driver/Src/stm32h7xx_hal_flash_ex.c **** static uint32_t FLASH_OB_CPUFreq_GetBoost(void);
 141:../../Drivers/STM32H7xx_HAL_Driver/Src/stm32h7xx_hal_flash_ex.c **** #endif /* FLASH_OPTSR2_CPUFREQ_BOOST */
 142:../../Drivers/STM32H7xx_HAL_Driver/Src/stm32h7xx_hal_flash_ex.c **** /**
 143:../../Drivers/STM32H7xx_HAL_Driver/Src/stm32h7xx_hal_flash_ex.c ****   * @}
 144:../../Drivers/STM32H7xx_HAL_Driver/Src/stm32h7xx_hal_flash_ex.c ****   */
ARM GAS  /tmp/ccYcJizL.s 			page 4


 145:../../Drivers/STM32H7xx_HAL_Driver/Src/stm32h7xx_hal_flash_ex.c **** 
 146:../../Drivers/STM32H7xx_HAL_Driver/Src/stm32h7xx_hal_flash_ex.c **** /* Exported functions ---------------------------------------------------------*/
 147:../../Drivers/STM32H7xx_HAL_Driver/Src/stm32h7xx_hal_flash_ex.c **** /** @defgroup FLASHEx_Exported_Functions FLASHEx Exported Functions
 148:../../Drivers/STM32H7xx_HAL_Driver/Src/stm32h7xx_hal_flash_ex.c ****   * @{
 149:../../Drivers/STM32H7xx_HAL_Driver/Src/stm32h7xx_hal_flash_ex.c ****   */
 150:../../Drivers/STM32H7xx_HAL_Driver/Src/stm32h7xx_hal_flash_ex.c **** 
 151:../../Drivers/STM32H7xx_HAL_Driver/Src/stm32h7xx_hal_flash_ex.c **** /** @defgroup FLASHEx_Exported_Functions_Group1 Extended IO operation functions
 152:../../Drivers/STM32H7xx_HAL_Driver/Src/stm32h7xx_hal_flash_ex.c ****  *  @brief   Extended IO operation functions
 153:../../Drivers/STM32H7xx_HAL_Driver/Src/stm32h7xx_hal_flash_ex.c ****  *
 154:../../Drivers/STM32H7xx_HAL_Driver/Src/stm32h7xx_hal_flash_ex.c **** @verbatim
 155:../../Drivers/STM32H7xx_HAL_Driver/Src/stm32h7xx_hal_flash_ex.c ****  ===============================================================================
 156:../../Drivers/STM32H7xx_HAL_Driver/Src/stm32h7xx_hal_flash_ex.c ****                 ##### Extended programming operation functions #####
 157:../../Drivers/STM32H7xx_HAL_Driver/Src/stm32h7xx_hal_flash_ex.c ****  ===============================================================================
 158:../../Drivers/STM32H7xx_HAL_Driver/Src/stm32h7xx_hal_flash_ex.c ****     [..]
 159:../../Drivers/STM32H7xx_HAL_Driver/Src/stm32h7xx_hal_flash_ex.c ****     This subsection provides a set of functions allowing to manage the Extension FLASH
 160:../../Drivers/STM32H7xx_HAL_Driver/Src/stm32h7xx_hal_flash_ex.c ****     programming operations Operations.
 161:../../Drivers/STM32H7xx_HAL_Driver/Src/stm32h7xx_hal_flash_ex.c **** 
 162:../../Drivers/STM32H7xx_HAL_Driver/Src/stm32h7xx_hal_flash_ex.c **** @endverbatim
 163:../../Drivers/STM32H7xx_HAL_Driver/Src/stm32h7xx_hal_flash_ex.c ****   * @{
 164:../../Drivers/STM32H7xx_HAL_Driver/Src/stm32h7xx_hal_flash_ex.c ****   */
 165:../../Drivers/STM32H7xx_HAL_Driver/Src/stm32h7xx_hal_flash_ex.c **** /**
 166:../../Drivers/STM32H7xx_HAL_Driver/Src/stm32h7xx_hal_flash_ex.c ****   * @brief  Perform a mass erase or erase the specified FLASH memory sectors
 167:../../Drivers/STM32H7xx_HAL_Driver/Src/stm32h7xx_hal_flash_ex.c ****   * @param[in]  pEraseInit pointer to an FLASH_EraseInitTypeDef structure that
 168:../../Drivers/STM32H7xx_HAL_Driver/Src/stm32h7xx_hal_flash_ex.c ****   *         contains the configuration information for the erasing.
 169:../../Drivers/STM32H7xx_HAL_Driver/Src/stm32h7xx_hal_flash_ex.c ****   *
 170:../../Drivers/STM32H7xx_HAL_Driver/Src/stm32h7xx_hal_flash_ex.c ****   * @param[out]  SectorError pointer to variable  that contains the configuration
 171:../../Drivers/STM32H7xx_HAL_Driver/Src/stm32h7xx_hal_flash_ex.c ****   *          information on faulty sector in case of error (0xFFFFFFFF means that all
 172:../../Drivers/STM32H7xx_HAL_Driver/Src/stm32h7xx_hal_flash_ex.c ****   *          the sectors have been correctly erased)
 173:../../Drivers/STM32H7xx_HAL_Driver/Src/stm32h7xx_hal_flash_ex.c ****   *
 174:../../Drivers/STM32H7xx_HAL_Driver/Src/stm32h7xx_hal_flash_ex.c ****   * @retval HAL Status
 175:../../Drivers/STM32H7xx_HAL_Driver/Src/stm32h7xx_hal_flash_ex.c ****   */
 176:../../Drivers/STM32H7xx_HAL_Driver/Src/stm32h7xx_hal_flash_ex.c **** HAL_StatusTypeDef HAL_FLASHEx_Erase(FLASH_EraseInitTypeDef *pEraseInit, uint32_t *SectorError)
 177:../../Drivers/STM32H7xx_HAL_Driver/Src/stm32h7xx_hal_flash_ex.c **** {
 178:../../Drivers/STM32H7xx_HAL_Driver/Src/stm32h7xx_hal_flash_ex.c ****   HAL_StatusTypeDef status = HAL_OK;
 179:../../Drivers/STM32H7xx_HAL_Driver/Src/stm32h7xx_hal_flash_ex.c ****   uint32_t sector_index;
 180:../../Drivers/STM32H7xx_HAL_Driver/Src/stm32h7xx_hal_flash_ex.c **** 
 181:../../Drivers/STM32H7xx_HAL_Driver/Src/stm32h7xx_hal_flash_ex.c ****   /* Check the parameters */
 182:../../Drivers/STM32H7xx_HAL_Driver/Src/stm32h7xx_hal_flash_ex.c ****   assert_param(IS_FLASH_TYPEERASE(pEraseInit->TypeErase));
 183:../../Drivers/STM32H7xx_HAL_Driver/Src/stm32h7xx_hal_flash_ex.c ****   assert_param(IS_FLASH_BANK(pEraseInit->Banks));
 184:../../Drivers/STM32H7xx_HAL_Driver/Src/stm32h7xx_hal_flash_ex.c **** 
 185:../../Drivers/STM32H7xx_HAL_Driver/Src/stm32h7xx_hal_flash_ex.c ****   /* Process Locked */
 186:../../Drivers/STM32H7xx_HAL_Driver/Src/stm32h7xx_hal_flash_ex.c ****   __HAL_LOCK(&pFlash);
 187:../../Drivers/STM32H7xx_HAL_Driver/Src/stm32h7xx_hal_flash_ex.c **** 
 188:../../Drivers/STM32H7xx_HAL_Driver/Src/stm32h7xx_hal_flash_ex.c ****   /* Reset error code */
 189:../../Drivers/STM32H7xx_HAL_Driver/Src/stm32h7xx_hal_flash_ex.c ****   pFlash.ErrorCode = HAL_FLASH_ERROR_NONE;
 190:../../Drivers/STM32H7xx_HAL_Driver/Src/stm32h7xx_hal_flash_ex.c **** 
 191:../../Drivers/STM32H7xx_HAL_Driver/Src/stm32h7xx_hal_flash_ex.c ****   /* Wait for last operation to be completed on Bank1 */
 192:../../Drivers/STM32H7xx_HAL_Driver/Src/stm32h7xx_hal_flash_ex.c ****   if((pEraseInit->Banks & FLASH_BANK_1) == FLASH_BANK_1)
 193:../../Drivers/STM32H7xx_HAL_Driver/Src/stm32h7xx_hal_flash_ex.c ****   {
 194:../../Drivers/STM32H7xx_HAL_Driver/Src/stm32h7xx_hal_flash_ex.c ****     if(FLASH_WaitForLastOperation((uint32_t)FLASH_TIMEOUT_VALUE, FLASH_BANK_1) != HAL_OK)
 195:../../Drivers/STM32H7xx_HAL_Driver/Src/stm32h7xx_hal_flash_ex.c ****     {
 196:../../Drivers/STM32H7xx_HAL_Driver/Src/stm32h7xx_hal_flash_ex.c ****       status = HAL_ERROR;
 197:../../Drivers/STM32H7xx_HAL_Driver/Src/stm32h7xx_hal_flash_ex.c ****     }
 198:../../Drivers/STM32H7xx_HAL_Driver/Src/stm32h7xx_hal_flash_ex.c ****   }
 199:../../Drivers/STM32H7xx_HAL_Driver/Src/stm32h7xx_hal_flash_ex.c **** 
 200:../../Drivers/STM32H7xx_HAL_Driver/Src/stm32h7xx_hal_flash_ex.c **** #if defined (DUAL_BANK)
 201:../../Drivers/STM32H7xx_HAL_Driver/Src/stm32h7xx_hal_flash_ex.c ****   /* Wait for last operation to be completed on Bank2 */
ARM GAS  /tmp/ccYcJizL.s 			page 5


 202:../../Drivers/STM32H7xx_HAL_Driver/Src/stm32h7xx_hal_flash_ex.c ****   if((pEraseInit->Banks & FLASH_BANK_2) == FLASH_BANK_2)
 203:../../Drivers/STM32H7xx_HAL_Driver/Src/stm32h7xx_hal_flash_ex.c ****   {
 204:../../Drivers/STM32H7xx_HAL_Driver/Src/stm32h7xx_hal_flash_ex.c ****     if(FLASH_WaitForLastOperation((uint32_t)FLASH_TIMEOUT_VALUE, FLASH_BANK_2) != HAL_OK)
 205:../../Drivers/STM32H7xx_HAL_Driver/Src/stm32h7xx_hal_flash_ex.c ****     {
 206:../../Drivers/STM32H7xx_HAL_Driver/Src/stm32h7xx_hal_flash_ex.c ****       status = HAL_ERROR;
 207:../../Drivers/STM32H7xx_HAL_Driver/Src/stm32h7xx_hal_flash_ex.c ****     }
 208:../../Drivers/STM32H7xx_HAL_Driver/Src/stm32h7xx_hal_flash_ex.c ****   }
 209:../../Drivers/STM32H7xx_HAL_Driver/Src/stm32h7xx_hal_flash_ex.c **** #endif /* DUAL_BANK */
 210:../../Drivers/STM32H7xx_HAL_Driver/Src/stm32h7xx_hal_flash_ex.c **** 
 211:../../Drivers/STM32H7xx_HAL_Driver/Src/stm32h7xx_hal_flash_ex.c ****   if(status == HAL_OK)
 212:../../Drivers/STM32H7xx_HAL_Driver/Src/stm32h7xx_hal_flash_ex.c ****   {
 213:../../Drivers/STM32H7xx_HAL_Driver/Src/stm32h7xx_hal_flash_ex.c ****     if(pEraseInit->TypeErase == FLASH_TYPEERASE_MASSERASE)
 214:../../Drivers/STM32H7xx_HAL_Driver/Src/stm32h7xx_hal_flash_ex.c ****     {
 215:../../Drivers/STM32H7xx_HAL_Driver/Src/stm32h7xx_hal_flash_ex.c ****       /* Mass erase to be done */
 216:../../Drivers/STM32H7xx_HAL_Driver/Src/stm32h7xx_hal_flash_ex.c ****       FLASH_MassErase(pEraseInit->VoltageRange, pEraseInit->Banks);
 217:../../Drivers/STM32H7xx_HAL_Driver/Src/stm32h7xx_hal_flash_ex.c **** 
 218:../../Drivers/STM32H7xx_HAL_Driver/Src/stm32h7xx_hal_flash_ex.c ****       /* Wait for last operation to be completed on Bank 1 */
 219:../../Drivers/STM32H7xx_HAL_Driver/Src/stm32h7xx_hal_flash_ex.c ****       if((pEraseInit->Banks & FLASH_BANK_1) == FLASH_BANK_1)
 220:../../Drivers/STM32H7xx_HAL_Driver/Src/stm32h7xx_hal_flash_ex.c ****       {
 221:../../Drivers/STM32H7xx_HAL_Driver/Src/stm32h7xx_hal_flash_ex.c ****         if(FLASH_WaitForLastOperation((uint32_t)FLASH_TIMEOUT_VALUE, FLASH_BANK_1) != HAL_OK)
 222:../../Drivers/STM32H7xx_HAL_Driver/Src/stm32h7xx_hal_flash_ex.c ****         {
 223:../../Drivers/STM32H7xx_HAL_Driver/Src/stm32h7xx_hal_flash_ex.c ****           status = HAL_ERROR;
 224:../../Drivers/STM32H7xx_HAL_Driver/Src/stm32h7xx_hal_flash_ex.c ****         }
 225:../../Drivers/STM32H7xx_HAL_Driver/Src/stm32h7xx_hal_flash_ex.c ****         /* if the erase operation is completed, disable the Bank1 BER Bit */
 226:../../Drivers/STM32H7xx_HAL_Driver/Src/stm32h7xx_hal_flash_ex.c ****         FLASH->CR1 &= (~FLASH_CR_BER);
 227:../../Drivers/STM32H7xx_HAL_Driver/Src/stm32h7xx_hal_flash_ex.c ****       }
 228:../../Drivers/STM32H7xx_HAL_Driver/Src/stm32h7xx_hal_flash_ex.c **** #if defined (DUAL_BANK)
 229:../../Drivers/STM32H7xx_HAL_Driver/Src/stm32h7xx_hal_flash_ex.c ****       /* Wait for last operation to be completed on Bank 2 */
 230:../../Drivers/STM32H7xx_HAL_Driver/Src/stm32h7xx_hal_flash_ex.c ****       if((pEraseInit->Banks & FLASH_BANK_2) == FLASH_BANK_2)
 231:../../Drivers/STM32H7xx_HAL_Driver/Src/stm32h7xx_hal_flash_ex.c ****       {
 232:../../Drivers/STM32H7xx_HAL_Driver/Src/stm32h7xx_hal_flash_ex.c ****         if(FLASH_WaitForLastOperation((uint32_t)FLASH_TIMEOUT_VALUE, FLASH_BANK_2) != HAL_OK)
 233:../../Drivers/STM32H7xx_HAL_Driver/Src/stm32h7xx_hal_flash_ex.c ****         {
 234:../../Drivers/STM32H7xx_HAL_Driver/Src/stm32h7xx_hal_flash_ex.c ****           status = HAL_ERROR;
 235:../../Drivers/STM32H7xx_HAL_Driver/Src/stm32h7xx_hal_flash_ex.c ****         }
 236:../../Drivers/STM32H7xx_HAL_Driver/Src/stm32h7xx_hal_flash_ex.c ****         /* if the erase operation is completed, disable the Bank2 BER Bit */
 237:../../Drivers/STM32H7xx_HAL_Driver/Src/stm32h7xx_hal_flash_ex.c ****         FLASH->CR2 &= (~FLASH_CR_BER);
 238:../../Drivers/STM32H7xx_HAL_Driver/Src/stm32h7xx_hal_flash_ex.c ****       }
 239:../../Drivers/STM32H7xx_HAL_Driver/Src/stm32h7xx_hal_flash_ex.c **** #endif /* DUAL_BANK */
 240:../../Drivers/STM32H7xx_HAL_Driver/Src/stm32h7xx_hal_flash_ex.c ****     }
 241:../../Drivers/STM32H7xx_HAL_Driver/Src/stm32h7xx_hal_flash_ex.c ****     else
 242:../../Drivers/STM32H7xx_HAL_Driver/Src/stm32h7xx_hal_flash_ex.c ****     {
 243:../../Drivers/STM32H7xx_HAL_Driver/Src/stm32h7xx_hal_flash_ex.c ****       /*Initialization of SectorError variable*/
 244:../../Drivers/STM32H7xx_HAL_Driver/Src/stm32h7xx_hal_flash_ex.c ****       *SectorError = 0xFFFFFFFFU;
 245:../../Drivers/STM32H7xx_HAL_Driver/Src/stm32h7xx_hal_flash_ex.c **** 
 246:../../Drivers/STM32H7xx_HAL_Driver/Src/stm32h7xx_hal_flash_ex.c ****       /* Erase by sector by sector to be done*/
 247:../../Drivers/STM32H7xx_HAL_Driver/Src/stm32h7xx_hal_flash_ex.c ****       for(sector_index = pEraseInit->Sector; sector_index < (pEraseInit->NbSectors + pEraseInit->Se
 248:../../Drivers/STM32H7xx_HAL_Driver/Src/stm32h7xx_hal_flash_ex.c ****       {
 249:../../Drivers/STM32H7xx_HAL_Driver/Src/stm32h7xx_hal_flash_ex.c ****         FLASH_Erase_Sector(sector_index, pEraseInit->Banks, pEraseInit->VoltageRange);
 250:../../Drivers/STM32H7xx_HAL_Driver/Src/stm32h7xx_hal_flash_ex.c **** 
 251:../../Drivers/STM32H7xx_HAL_Driver/Src/stm32h7xx_hal_flash_ex.c ****         if((pEraseInit->Banks & FLASH_BANK_1) == FLASH_BANK_1)
 252:../../Drivers/STM32H7xx_HAL_Driver/Src/stm32h7xx_hal_flash_ex.c ****         {
 253:../../Drivers/STM32H7xx_HAL_Driver/Src/stm32h7xx_hal_flash_ex.c ****           /* Wait for last operation to be completed */
 254:../../Drivers/STM32H7xx_HAL_Driver/Src/stm32h7xx_hal_flash_ex.c ****           status = FLASH_WaitForLastOperation((uint32_t)FLASH_TIMEOUT_VALUE, FLASH_BANK_1);
 255:../../Drivers/STM32H7xx_HAL_Driver/Src/stm32h7xx_hal_flash_ex.c **** 
 256:../../Drivers/STM32H7xx_HAL_Driver/Src/stm32h7xx_hal_flash_ex.c ****           /* If the erase operation is completed, disable the SER Bit */
 257:../../Drivers/STM32H7xx_HAL_Driver/Src/stm32h7xx_hal_flash_ex.c ****           FLASH->CR1 &= (~(FLASH_CR_SER | FLASH_CR_SNB));
 258:../../Drivers/STM32H7xx_HAL_Driver/Src/stm32h7xx_hal_flash_ex.c ****         }
ARM GAS  /tmp/ccYcJizL.s 			page 6


 259:../../Drivers/STM32H7xx_HAL_Driver/Src/stm32h7xx_hal_flash_ex.c **** #if defined (DUAL_BANK)
 260:../../Drivers/STM32H7xx_HAL_Driver/Src/stm32h7xx_hal_flash_ex.c ****         if((pEraseInit->Banks & FLASH_BANK_2) == FLASH_BANK_2)
 261:../../Drivers/STM32H7xx_HAL_Driver/Src/stm32h7xx_hal_flash_ex.c ****         {
 262:../../Drivers/STM32H7xx_HAL_Driver/Src/stm32h7xx_hal_flash_ex.c ****           /* Wait for last operation to be completed */
 263:../../Drivers/STM32H7xx_HAL_Driver/Src/stm32h7xx_hal_flash_ex.c ****           status = FLASH_WaitForLastOperation((uint32_t)FLASH_TIMEOUT_VALUE, FLASH_BANK_2);
 264:../../Drivers/STM32H7xx_HAL_Driver/Src/stm32h7xx_hal_flash_ex.c **** 
 265:../../Drivers/STM32H7xx_HAL_Driver/Src/stm32h7xx_hal_flash_ex.c ****           /* If the erase operation is completed, disable the SER Bit */
 266:../../Drivers/STM32H7xx_HAL_Driver/Src/stm32h7xx_hal_flash_ex.c ****           FLASH->CR2 &= (~(FLASH_CR_SER | FLASH_CR_SNB));
 267:../../Drivers/STM32H7xx_HAL_Driver/Src/stm32h7xx_hal_flash_ex.c ****         }
 268:../../Drivers/STM32H7xx_HAL_Driver/Src/stm32h7xx_hal_flash_ex.c **** #endif /* DUAL_BANK */
 269:../../Drivers/STM32H7xx_HAL_Driver/Src/stm32h7xx_hal_flash_ex.c **** 
 270:../../Drivers/STM32H7xx_HAL_Driver/Src/stm32h7xx_hal_flash_ex.c ****         if(status != HAL_OK)
 271:../../Drivers/STM32H7xx_HAL_Driver/Src/stm32h7xx_hal_flash_ex.c ****         {
 272:../../Drivers/STM32H7xx_HAL_Driver/Src/stm32h7xx_hal_flash_ex.c ****           /* In case of error, stop erase procedure and return the faulty sector */
 273:../../Drivers/STM32H7xx_HAL_Driver/Src/stm32h7xx_hal_flash_ex.c ****           *SectorError = sector_index;
 274:../../Drivers/STM32H7xx_HAL_Driver/Src/stm32h7xx_hal_flash_ex.c ****           break;
 275:../../Drivers/STM32H7xx_HAL_Driver/Src/stm32h7xx_hal_flash_ex.c ****         }
 276:../../Drivers/STM32H7xx_HAL_Driver/Src/stm32h7xx_hal_flash_ex.c ****       }
 277:../../Drivers/STM32H7xx_HAL_Driver/Src/stm32h7xx_hal_flash_ex.c ****     }
 278:../../Drivers/STM32H7xx_HAL_Driver/Src/stm32h7xx_hal_flash_ex.c ****   }
 279:../../Drivers/STM32H7xx_HAL_Driver/Src/stm32h7xx_hal_flash_ex.c **** 
 280:../../Drivers/STM32H7xx_HAL_Driver/Src/stm32h7xx_hal_flash_ex.c ****   /* Process Unlocked */
 281:../../Drivers/STM32H7xx_HAL_Driver/Src/stm32h7xx_hal_flash_ex.c ****   __HAL_UNLOCK(&pFlash);
 282:../../Drivers/STM32H7xx_HAL_Driver/Src/stm32h7xx_hal_flash_ex.c **** 
 283:../../Drivers/STM32H7xx_HAL_Driver/Src/stm32h7xx_hal_flash_ex.c ****   return status;
 284:../../Drivers/STM32H7xx_HAL_Driver/Src/stm32h7xx_hal_flash_ex.c **** }
 285:../../Drivers/STM32H7xx_HAL_Driver/Src/stm32h7xx_hal_flash_ex.c **** 
 286:../../Drivers/STM32H7xx_HAL_Driver/Src/stm32h7xx_hal_flash_ex.c **** /**
 287:../../Drivers/STM32H7xx_HAL_Driver/Src/stm32h7xx_hal_flash_ex.c ****   * @brief  Perform a mass erase or erase the specified FLASH memory sectors with interrupt enabled
 288:../../Drivers/STM32H7xx_HAL_Driver/Src/stm32h7xx_hal_flash_ex.c ****   * @param  pEraseInit pointer to an FLASH_EraseInitTypeDef structure that
 289:../../Drivers/STM32H7xx_HAL_Driver/Src/stm32h7xx_hal_flash_ex.c ****   *         contains the configuration information for the erasing.
 290:../../Drivers/STM32H7xx_HAL_Driver/Src/stm32h7xx_hal_flash_ex.c ****   *
 291:../../Drivers/STM32H7xx_HAL_Driver/Src/stm32h7xx_hal_flash_ex.c ****   * @retval HAL Status
 292:../../Drivers/STM32H7xx_HAL_Driver/Src/stm32h7xx_hal_flash_ex.c ****   */
 293:../../Drivers/STM32H7xx_HAL_Driver/Src/stm32h7xx_hal_flash_ex.c **** HAL_StatusTypeDef HAL_FLASHEx_Erase_IT(FLASH_EraseInitTypeDef *pEraseInit)
 294:../../Drivers/STM32H7xx_HAL_Driver/Src/stm32h7xx_hal_flash_ex.c **** {
 295:../../Drivers/STM32H7xx_HAL_Driver/Src/stm32h7xx_hal_flash_ex.c ****   HAL_StatusTypeDef status = HAL_OK;
 296:../../Drivers/STM32H7xx_HAL_Driver/Src/stm32h7xx_hal_flash_ex.c **** 
 297:../../Drivers/STM32H7xx_HAL_Driver/Src/stm32h7xx_hal_flash_ex.c ****   /* Check the parameters */
 298:../../Drivers/STM32H7xx_HAL_Driver/Src/stm32h7xx_hal_flash_ex.c ****   assert_param(IS_FLASH_TYPEERASE(pEraseInit->TypeErase));
 299:../../Drivers/STM32H7xx_HAL_Driver/Src/stm32h7xx_hal_flash_ex.c ****   assert_param(IS_FLASH_BANK(pEraseInit->Banks));
 300:../../Drivers/STM32H7xx_HAL_Driver/Src/stm32h7xx_hal_flash_ex.c **** 
 301:../../Drivers/STM32H7xx_HAL_Driver/Src/stm32h7xx_hal_flash_ex.c ****   /* Process Locked */
 302:../../Drivers/STM32H7xx_HAL_Driver/Src/stm32h7xx_hal_flash_ex.c ****   __HAL_LOCK(&pFlash);
 303:../../Drivers/STM32H7xx_HAL_Driver/Src/stm32h7xx_hal_flash_ex.c **** 
 304:../../Drivers/STM32H7xx_HAL_Driver/Src/stm32h7xx_hal_flash_ex.c ****   /* Reset error code */
 305:../../Drivers/STM32H7xx_HAL_Driver/Src/stm32h7xx_hal_flash_ex.c ****   pFlash.ErrorCode = HAL_FLASH_ERROR_NONE;
 306:../../Drivers/STM32H7xx_HAL_Driver/Src/stm32h7xx_hal_flash_ex.c **** 
 307:../../Drivers/STM32H7xx_HAL_Driver/Src/stm32h7xx_hal_flash_ex.c ****   /* Wait for last operation to be completed on Bank 1 */
 308:../../Drivers/STM32H7xx_HAL_Driver/Src/stm32h7xx_hal_flash_ex.c ****   if((pEraseInit->Banks & FLASH_BANK_1) == FLASH_BANK_1)
 309:../../Drivers/STM32H7xx_HAL_Driver/Src/stm32h7xx_hal_flash_ex.c ****   {
 310:../../Drivers/STM32H7xx_HAL_Driver/Src/stm32h7xx_hal_flash_ex.c ****     if(FLASH_WaitForLastOperation((uint32_t)FLASH_TIMEOUT_VALUE, FLASH_BANK_1) != HAL_OK)
 311:../../Drivers/STM32H7xx_HAL_Driver/Src/stm32h7xx_hal_flash_ex.c ****     {
 312:../../Drivers/STM32H7xx_HAL_Driver/Src/stm32h7xx_hal_flash_ex.c ****       status = HAL_ERROR;
 313:../../Drivers/STM32H7xx_HAL_Driver/Src/stm32h7xx_hal_flash_ex.c ****     }
 314:../../Drivers/STM32H7xx_HAL_Driver/Src/stm32h7xx_hal_flash_ex.c ****   }
 315:../../Drivers/STM32H7xx_HAL_Driver/Src/stm32h7xx_hal_flash_ex.c **** 
ARM GAS  /tmp/ccYcJizL.s 			page 7


 316:../../Drivers/STM32H7xx_HAL_Driver/Src/stm32h7xx_hal_flash_ex.c **** #if defined (DUAL_BANK)
 317:../../Drivers/STM32H7xx_HAL_Driver/Src/stm32h7xx_hal_flash_ex.c ****   /* Wait for last operation to be completed on Bank 2 */
 318:../../Drivers/STM32H7xx_HAL_Driver/Src/stm32h7xx_hal_flash_ex.c ****   if((pEraseInit->Banks & FLASH_BANK_2) == FLASH_BANK_2)
 319:../../Drivers/STM32H7xx_HAL_Driver/Src/stm32h7xx_hal_flash_ex.c ****   {
 320:../../Drivers/STM32H7xx_HAL_Driver/Src/stm32h7xx_hal_flash_ex.c ****     if(FLASH_WaitForLastOperation((uint32_t)FLASH_TIMEOUT_VALUE, FLASH_BANK_2) != HAL_OK)
 321:../../Drivers/STM32H7xx_HAL_Driver/Src/stm32h7xx_hal_flash_ex.c ****     {
 322:../../Drivers/STM32H7xx_HAL_Driver/Src/stm32h7xx_hal_flash_ex.c ****       status = HAL_ERROR;
 323:../../Drivers/STM32H7xx_HAL_Driver/Src/stm32h7xx_hal_flash_ex.c ****     }
 324:../../Drivers/STM32H7xx_HAL_Driver/Src/stm32h7xx_hal_flash_ex.c ****   }
 325:../../Drivers/STM32H7xx_HAL_Driver/Src/stm32h7xx_hal_flash_ex.c **** #endif /* DUAL_BANK */
 326:../../Drivers/STM32H7xx_HAL_Driver/Src/stm32h7xx_hal_flash_ex.c **** 
 327:../../Drivers/STM32H7xx_HAL_Driver/Src/stm32h7xx_hal_flash_ex.c ****   if (status != HAL_OK)
 328:../../Drivers/STM32H7xx_HAL_Driver/Src/stm32h7xx_hal_flash_ex.c ****   {
 329:../../Drivers/STM32H7xx_HAL_Driver/Src/stm32h7xx_hal_flash_ex.c ****     /* Process Unlocked */
 330:../../Drivers/STM32H7xx_HAL_Driver/Src/stm32h7xx_hal_flash_ex.c ****     __HAL_UNLOCK(&pFlash);
 331:../../Drivers/STM32H7xx_HAL_Driver/Src/stm32h7xx_hal_flash_ex.c ****   }
 332:../../Drivers/STM32H7xx_HAL_Driver/Src/stm32h7xx_hal_flash_ex.c ****   else
 333:../../Drivers/STM32H7xx_HAL_Driver/Src/stm32h7xx_hal_flash_ex.c ****   {
 334:../../Drivers/STM32H7xx_HAL_Driver/Src/stm32h7xx_hal_flash_ex.c ****     if((pEraseInit->Banks & FLASH_BANK_1) == FLASH_BANK_1)
 335:../../Drivers/STM32H7xx_HAL_Driver/Src/stm32h7xx_hal_flash_ex.c ****     {
 336:../../Drivers/STM32H7xx_HAL_Driver/Src/stm32h7xx_hal_flash_ex.c ****       /* Enable End of Operation and Error interrupts for Bank 1 */
 337:../../Drivers/STM32H7xx_HAL_Driver/Src/stm32h7xx_hal_flash_ex.c **** #if defined (FLASH_CR_OPERRIE)
 338:../../Drivers/STM32H7xx_HAL_Driver/Src/stm32h7xx_hal_flash_ex.c ****       __HAL_FLASH_ENABLE_IT_BANK1(FLASH_IT_EOP_BANK1     | FLASH_IT_WRPERR_BANK1 | FLASH_IT_PGSERR_
 339:../../Drivers/STM32H7xx_HAL_Driver/Src/stm32h7xx_hal_flash_ex.c ****                                   FLASH_IT_STRBERR_BANK1 | FLASH_IT_INCERR_BANK1 | FLASH_IT_OPERR_B
 340:../../Drivers/STM32H7xx_HAL_Driver/Src/stm32h7xx_hal_flash_ex.c **** #else
 341:../../Drivers/STM32H7xx_HAL_Driver/Src/stm32h7xx_hal_flash_ex.c ****       __HAL_FLASH_ENABLE_IT_BANK1(FLASH_IT_EOP_BANK1     | FLASH_IT_WRPERR_BANK1 | FLASH_IT_PGSERR_
 342:../../Drivers/STM32H7xx_HAL_Driver/Src/stm32h7xx_hal_flash_ex.c ****                                   FLASH_IT_STRBERR_BANK1 | FLASH_IT_INCERR_BANK1);
 343:../../Drivers/STM32H7xx_HAL_Driver/Src/stm32h7xx_hal_flash_ex.c **** #endif /* FLASH_CR_OPERRIE */
 344:../../Drivers/STM32H7xx_HAL_Driver/Src/stm32h7xx_hal_flash_ex.c ****     }
 345:../../Drivers/STM32H7xx_HAL_Driver/Src/stm32h7xx_hal_flash_ex.c **** #if defined (DUAL_BANK)
 346:../../Drivers/STM32H7xx_HAL_Driver/Src/stm32h7xx_hal_flash_ex.c ****     if((pEraseInit->Banks & FLASH_BANK_2) == FLASH_BANK_2)
 347:../../Drivers/STM32H7xx_HAL_Driver/Src/stm32h7xx_hal_flash_ex.c ****     {
 348:../../Drivers/STM32H7xx_HAL_Driver/Src/stm32h7xx_hal_flash_ex.c ****       /* Enable End of Operation and Error interrupts for Bank 2 */
 349:../../Drivers/STM32H7xx_HAL_Driver/Src/stm32h7xx_hal_flash_ex.c **** #if defined (FLASH_CR_OPERRIE)
 350:../../Drivers/STM32H7xx_HAL_Driver/Src/stm32h7xx_hal_flash_ex.c ****       __HAL_FLASH_ENABLE_IT_BANK2(FLASH_IT_EOP_BANK2     | FLASH_IT_WRPERR_BANK2 | FLASH_IT_PGSERR_
 351:../../Drivers/STM32H7xx_HAL_Driver/Src/stm32h7xx_hal_flash_ex.c ****                                   FLASH_IT_STRBERR_BANK2 | FLASH_IT_INCERR_BANK2 | FLASH_IT_OPERR_B
 352:../../Drivers/STM32H7xx_HAL_Driver/Src/stm32h7xx_hal_flash_ex.c **** #else
 353:../../Drivers/STM32H7xx_HAL_Driver/Src/stm32h7xx_hal_flash_ex.c ****       __HAL_FLASH_ENABLE_IT_BANK2(FLASH_IT_EOP_BANK2     | FLASH_IT_WRPERR_BANK2 | FLASH_IT_PGSERR_
 354:../../Drivers/STM32H7xx_HAL_Driver/Src/stm32h7xx_hal_flash_ex.c ****                                   FLASH_IT_STRBERR_BANK2 | FLASH_IT_INCERR_BANK2);
 355:../../Drivers/STM32H7xx_HAL_Driver/Src/stm32h7xx_hal_flash_ex.c **** #endif /* FLASH_CR_OPERRIE */
 356:../../Drivers/STM32H7xx_HAL_Driver/Src/stm32h7xx_hal_flash_ex.c ****     }
 357:../../Drivers/STM32H7xx_HAL_Driver/Src/stm32h7xx_hal_flash_ex.c **** #endif /* DUAL_BANK */
 358:../../Drivers/STM32H7xx_HAL_Driver/Src/stm32h7xx_hal_flash_ex.c **** 
 359:../../Drivers/STM32H7xx_HAL_Driver/Src/stm32h7xx_hal_flash_ex.c ****     if(pEraseInit->TypeErase == FLASH_TYPEERASE_MASSERASE)
 360:../../Drivers/STM32H7xx_HAL_Driver/Src/stm32h7xx_hal_flash_ex.c ****     {
 361:../../Drivers/STM32H7xx_HAL_Driver/Src/stm32h7xx_hal_flash_ex.c ****       /*Mass erase to be done*/
 362:../../Drivers/STM32H7xx_HAL_Driver/Src/stm32h7xx_hal_flash_ex.c ****       if(pEraseInit->Banks == FLASH_BANK_1)
 363:../../Drivers/STM32H7xx_HAL_Driver/Src/stm32h7xx_hal_flash_ex.c ****       {
 364:../../Drivers/STM32H7xx_HAL_Driver/Src/stm32h7xx_hal_flash_ex.c ****         pFlash.ProcedureOnGoing = FLASH_PROC_MASSERASE_BANK1;
 365:../../Drivers/STM32H7xx_HAL_Driver/Src/stm32h7xx_hal_flash_ex.c ****       }
 366:../../Drivers/STM32H7xx_HAL_Driver/Src/stm32h7xx_hal_flash_ex.c **** #if defined (DUAL_BANK)
 367:../../Drivers/STM32H7xx_HAL_Driver/Src/stm32h7xx_hal_flash_ex.c ****       else if(pEraseInit->Banks == FLASH_BANK_2)
 368:../../Drivers/STM32H7xx_HAL_Driver/Src/stm32h7xx_hal_flash_ex.c ****       {
 369:../../Drivers/STM32H7xx_HAL_Driver/Src/stm32h7xx_hal_flash_ex.c ****         pFlash.ProcedureOnGoing = FLASH_PROC_MASSERASE_BANK2;
 370:../../Drivers/STM32H7xx_HAL_Driver/Src/stm32h7xx_hal_flash_ex.c ****       }
 371:../../Drivers/STM32H7xx_HAL_Driver/Src/stm32h7xx_hal_flash_ex.c **** #endif /* DUAL_BANK */
 372:../../Drivers/STM32H7xx_HAL_Driver/Src/stm32h7xx_hal_flash_ex.c ****       else
ARM GAS  /tmp/ccYcJizL.s 			page 8


 373:../../Drivers/STM32H7xx_HAL_Driver/Src/stm32h7xx_hal_flash_ex.c ****       {
 374:../../Drivers/STM32H7xx_HAL_Driver/Src/stm32h7xx_hal_flash_ex.c ****         pFlash.ProcedureOnGoing = FLASH_PROC_ALLBANK_MASSERASE;
 375:../../Drivers/STM32H7xx_HAL_Driver/Src/stm32h7xx_hal_flash_ex.c ****       }
 376:../../Drivers/STM32H7xx_HAL_Driver/Src/stm32h7xx_hal_flash_ex.c **** 
 377:../../Drivers/STM32H7xx_HAL_Driver/Src/stm32h7xx_hal_flash_ex.c ****       FLASH_MassErase(pEraseInit->VoltageRange, pEraseInit->Banks);
 378:../../Drivers/STM32H7xx_HAL_Driver/Src/stm32h7xx_hal_flash_ex.c ****     }
 379:../../Drivers/STM32H7xx_HAL_Driver/Src/stm32h7xx_hal_flash_ex.c ****     else
 380:../../Drivers/STM32H7xx_HAL_Driver/Src/stm32h7xx_hal_flash_ex.c ****     {
 381:../../Drivers/STM32H7xx_HAL_Driver/Src/stm32h7xx_hal_flash_ex.c ****       /* Erase by sector to be done */
 382:../../Drivers/STM32H7xx_HAL_Driver/Src/stm32h7xx_hal_flash_ex.c **** #if defined (DUAL_BANK)
 383:../../Drivers/STM32H7xx_HAL_Driver/Src/stm32h7xx_hal_flash_ex.c ****       if(pEraseInit->Banks == FLASH_BANK_1)
 384:../../Drivers/STM32H7xx_HAL_Driver/Src/stm32h7xx_hal_flash_ex.c ****       {
 385:../../Drivers/STM32H7xx_HAL_Driver/Src/stm32h7xx_hal_flash_ex.c ****         pFlash.ProcedureOnGoing = FLASH_PROC_SECTERASE_BANK1;
 386:../../Drivers/STM32H7xx_HAL_Driver/Src/stm32h7xx_hal_flash_ex.c ****       }
 387:../../Drivers/STM32H7xx_HAL_Driver/Src/stm32h7xx_hal_flash_ex.c ****       else
 388:../../Drivers/STM32H7xx_HAL_Driver/Src/stm32h7xx_hal_flash_ex.c ****       {
 389:../../Drivers/STM32H7xx_HAL_Driver/Src/stm32h7xx_hal_flash_ex.c ****         pFlash.ProcedureOnGoing = FLASH_PROC_SECTERASE_BANK2;
 390:../../Drivers/STM32H7xx_HAL_Driver/Src/stm32h7xx_hal_flash_ex.c ****       }
 391:../../Drivers/STM32H7xx_HAL_Driver/Src/stm32h7xx_hal_flash_ex.c **** #else
 392:../../Drivers/STM32H7xx_HAL_Driver/Src/stm32h7xx_hal_flash_ex.c ****       pFlash.ProcedureOnGoing = FLASH_PROC_SECTERASE_BANK1;
 393:../../Drivers/STM32H7xx_HAL_Driver/Src/stm32h7xx_hal_flash_ex.c **** #endif /* DUAL_BANK */
 394:../../Drivers/STM32H7xx_HAL_Driver/Src/stm32h7xx_hal_flash_ex.c **** 
 395:../../Drivers/STM32H7xx_HAL_Driver/Src/stm32h7xx_hal_flash_ex.c ****       pFlash.NbSectorsToErase = pEraseInit->NbSectors;
 396:../../Drivers/STM32H7xx_HAL_Driver/Src/stm32h7xx_hal_flash_ex.c ****       pFlash.Sector = pEraseInit->Sector;
 397:../../Drivers/STM32H7xx_HAL_Driver/Src/stm32h7xx_hal_flash_ex.c ****       pFlash.VoltageForErase = pEraseInit->VoltageRange;
 398:../../Drivers/STM32H7xx_HAL_Driver/Src/stm32h7xx_hal_flash_ex.c **** 
 399:../../Drivers/STM32H7xx_HAL_Driver/Src/stm32h7xx_hal_flash_ex.c ****       /* Erase first sector and wait for IT */
 400:../../Drivers/STM32H7xx_HAL_Driver/Src/stm32h7xx_hal_flash_ex.c ****       FLASH_Erase_Sector(pEraseInit->Sector, pEraseInit->Banks, pEraseInit->VoltageRange);
 401:../../Drivers/STM32H7xx_HAL_Driver/Src/stm32h7xx_hal_flash_ex.c ****     }
 402:../../Drivers/STM32H7xx_HAL_Driver/Src/stm32h7xx_hal_flash_ex.c ****   }
 403:../../Drivers/STM32H7xx_HAL_Driver/Src/stm32h7xx_hal_flash_ex.c **** 
 404:../../Drivers/STM32H7xx_HAL_Driver/Src/stm32h7xx_hal_flash_ex.c ****   return status;
 405:../../Drivers/STM32H7xx_HAL_Driver/Src/stm32h7xx_hal_flash_ex.c **** }
 406:../../Drivers/STM32H7xx_HAL_Driver/Src/stm32h7xx_hal_flash_ex.c **** 
 407:../../Drivers/STM32H7xx_HAL_Driver/Src/stm32h7xx_hal_flash_ex.c **** /**
 408:../../Drivers/STM32H7xx_HAL_Driver/Src/stm32h7xx_hal_flash_ex.c ****   * @brief  Program option bytes
 409:../../Drivers/STM32H7xx_HAL_Driver/Src/stm32h7xx_hal_flash_ex.c ****   * @param  pOBInit pointer to an FLASH_OBProgramInitTypeDef structure that
 410:../../Drivers/STM32H7xx_HAL_Driver/Src/stm32h7xx_hal_flash_ex.c ****   *         contains the configuration information for the programming.
 411:../../Drivers/STM32H7xx_HAL_Driver/Src/stm32h7xx_hal_flash_ex.c ****   *
 412:../../Drivers/STM32H7xx_HAL_Driver/Src/stm32h7xx_hal_flash_ex.c ****   * @retval HAL Status
 413:../../Drivers/STM32H7xx_HAL_Driver/Src/stm32h7xx_hal_flash_ex.c ****   */
 414:../../Drivers/STM32H7xx_HAL_Driver/Src/stm32h7xx_hal_flash_ex.c **** HAL_StatusTypeDef HAL_FLASHEx_OBProgram(FLASH_OBProgramInitTypeDef *pOBInit)
 415:../../Drivers/STM32H7xx_HAL_Driver/Src/stm32h7xx_hal_flash_ex.c **** {
 416:../../Drivers/STM32H7xx_HAL_Driver/Src/stm32h7xx_hal_flash_ex.c ****   HAL_StatusTypeDef status;
 417:../../Drivers/STM32H7xx_HAL_Driver/Src/stm32h7xx_hal_flash_ex.c **** 
 418:../../Drivers/STM32H7xx_HAL_Driver/Src/stm32h7xx_hal_flash_ex.c ****   /* Check the parameters */
 419:../../Drivers/STM32H7xx_HAL_Driver/Src/stm32h7xx_hal_flash_ex.c ****   assert_param(IS_OPTIONBYTE(pOBInit->OptionType));
 420:../../Drivers/STM32H7xx_HAL_Driver/Src/stm32h7xx_hal_flash_ex.c **** 
 421:../../Drivers/STM32H7xx_HAL_Driver/Src/stm32h7xx_hal_flash_ex.c ****   /* Process Locked */
 422:../../Drivers/STM32H7xx_HAL_Driver/Src/stm32h7xx_hal_flash_ex.c ****   __HAL_LOCK(&pFlash);
 423:../../Drivers/STM32H7xx_HAL_Driver/Src/stm32h7xx_hal_flash_ex.c **** 
 424:../../Drivers/STM32H7xx_HAL_Driver/Src/stm32h7xx_hal_flash_ex.c ****   /* Reset Error Code */
 425:../../Drivers/STM32H7xx_HAL_Driver/Src/stm32h7xx_hal_flash_ex.c ****   pFlash.ErrorCode = HAL_FLASH_ERROR_NONE;
 426:../../Drivers/STM32H7xx_HAL_Driver/Src/stm32h7xx_hal_flash_ex.c **** 
 427:../../Drivers/STM32H7xx_HAL_Driver/Src/stm32h7xx_hal_flash_ex.c ****   /* Wait for last operation to be completed */
 428:../../Drivers/STM32H7xx_HAL_Driver/Src/stm32h7xx_hal_flash_ex.c ****   if(FLASH_WaitForLastOperation((uint32_t)FLASH_TIMEOUT_VALUE, FLASH_BANK_1) != HAL_OK)
 429:../../Drivers/STM32H7xx_HAL_Driver/Src/stm32h7xx_hal_flash_ex.c ****   {
ARM GAS  /tmp/ccYcJizL.s 			page 9


 430:../../Drivers/STM32H7xx_HAL_Driver/Src/stm32h7xx_hal_flash_ex.c ****     status = HAL_ERROR;
 431:../../Drivers/STM32H7xx_HAL_Driver/Src/stm32h7xx_hal_flash_ex.c ****   }
 432:../../Drivers/STM32H7xx_HAL_Driver/Src/stm32h7xx_hal_flash_ex.c **** #if defined (DUAL_BANK)
 433:../../Drivers/STM32H7xx_HAL_Driver/Src/stm32h7xx_hal_flash_ex.c ****   else if(FLASH_WaitForLastOperation((uint32_t)FLASH_TIMEOUT_VALUE, FLASH_BANK_2) != HAL_OK)
 434:../../Drivers/STM32H7xx_HAL_Driver/Src/stm32h7xx_hal_flash_ex.c ****   {
 435:../../Drivers/STM32H7xx_HAL_Driver/Src/stm32h7xx_hal_flash_ex.c ****     status = HAL_ERROR;
 436:../../Drivers/STM32H7xx_HAL_Driver/Src/stm32h7xx_hal_flash_ex.c ****   }
 437:../../Drivers/STM32H7xx_HAL_Driver/Src/stm32h7xx_hal_flash_ex.c **** #endif /* DUAL_BANK */
 438:../../Drivers/STM32H7xx_HAL_Driver/Src/stm32h7xx_hal_flash_ex.c ****   else
 439:../../Drivers/STM32H7xx_HAL_Driver/Src/stm32h7xx_hal_flash_ex.c ****   {
 440:../../Drivers/STM32H7xx_HAL_Driver/Src/stm32h7xx_hal_flash_ex.c ****     status = HAL_OK;
 441:../../Drivers/STM32H7xx_HAL_Driver/Src/stm32h7xx_hal_flash_ex.c ****   }
 442:../../Drivers/STM32H7xx_HAL_Driver/Src/stm32h7xx_hal_flash_ex.c **** 
 443:../../Drivers/STM32H7xx_HAL_Driver/Src/stm32h7xx_hal_flash_ex.c ****   if(status == HAL_OK)
 444:../../Drivers/STM32H7xx_HAL_Driver/Src/stm32h7xx_hal_flash_ex.c ****   {
 445:../../Drivers/STM32H7xx_HAL_Driver/Src/stm32h7xx_hal_flash_ex.c ****     /*Write protection configuration*/
 446:../../Drivers/STM32H7xx_HAL_Driver/Src/stm32h7xx_hal_flash_ex.c ****     if((pOBInit->OptionType & OPTIONBYTE_WRP) == OPTIONBYTE_WRP)
 447:../../Drivers/STM32H7xx_HAL_Driver/Src/stm32h7xx_hal_flash_ex.c ****     {
 448:../../Drivers/STM32H7xx_HAL_Driver/Src/stm32h7xx_hal_flash_ex.c ****       assert_param(IS_WRPSTATE(pOBInit->WRPState));
 449:../../Drivers/STM32H7xx_HAL_Driver/Src/stm32h7xx_hal_flash_ex.c **** 
 450:../../Drivers/STM32H7xx_HAL_Driver/Src/stm32h7xx_hal_flash_ex.c ****       if(pOBInit->WRPState == OB_WRPSTATE_ENABLE)
 451:../../Drivers/STM32H7xx_HAL_Driver/Src/stm32h7xx_hal_flash_ex.c ****       {
 452:../../Drivers/STM32H7xx_HAL_Driver/Src/stm32h7xx_hal_flash_ex.c ****         /*Enable of Write protection on the selected Sector*/
 453:../../Drivers/STM32H7xx_HAL_Driver/Src/stm32h7xx_hal_flash_ex.c ****         FLASH_OB_EnableWRP(pOBInit->WRPSector,pOBInit->Banks);
 454:../../Drivers/STM32H7xx_HAL_Driver/Src/stm32h7xx_hal_flash_ex.c ****       }
 455:../../Drivers/STM32H7xx_HAL_Driver/Src/stm32h7xx_hal_flash_ex.c ****       else
 456:../../Drivers/STM32H7xx_HAL_Driver/Src/stm32h7xx_hal_flash_ex.c ****       {
 457:../../Drivers/STM32H7xx_HAL_Driver/Src/stm32h7xx_hal_flash_ex.c ****         /*Disable of Write protection on the selected Sector*/
 458:../../Drivers/STM32H7xx_HAL_Driver/Src/stm32h7xx_hal_flash_ex.c ****         FLASH_OB_DisableWRP(pOBInit->WRPSector, pOBInit->Banks);
 459:../../Drivers/STM32H7xx_HAL_Driver/Src/stm32h7xx_hal_flash_ex.c ****       }
 460:../../Drivers/STM32H7xx_HAL_Driver/Src/stm32h7xx_hal_flash_ex.c ****     }
 461:../../Drivers/STM32H7xx_HAL_Driver/Src/stm32h7xx_hal_flash_ex.c **** 
 462:../../Drivers/STM32H7xx_HAL_Driver/Src/stm32h7xx_hal_flash_ex.c ****     /* Read protection configuration */
 463:../../Drivers/STM32H7xx_HAL_Driver/Src/stm32h7xx_hal_flash_ex.c ****     if((pOBInit->OptionType & OPTIONBYTE_RDP) != 0U)
 464:../../Drivers/STM32H7xx_HAL_Driver/Src/stm32h7xx_hal_flash_ex.c ****     {
 465:../../Drivers/STM32H7xx_HAL_Driver/Src/stm32h7xx_hal_flash_ex.c ****       /* Configure the Read protection level */
 466:../../Drivers/STM32H7xx_HAL_Driver/Src/stm32h7xx_hal_flash_ex.c ****       FLASH_OB_RDPConfig(pOBInit->RDPLevel);
 467:../../Drivers/STM32H7xx_HAL_Driver/Src/stm32h7xx_hal_flash_ex.c ****     }
 468:../../Drivers/STM32H7xx_HAL_Driver/Src/stm32h7xx_hal_flash_ex.c **** 
 469:../../Drivers/STM32H7xx_HAL_Driver/Src/stm32h7xx_hal_flash_ex.c ****     /* User Configuration */
 470:../../Drivers/STM32H7xx_HAL_Driver/Src/stm32h7xx_hal_flash_ex.c ****     if((pOBInit->OptionType & OPTIONBYTE_USER) != 0U)
 471:../../Drivers/STM32H7xx_HAL_Driver/Src/stm32h7xx_hal_flash_ex.c ****     {
 472:../../Drivers/STM32H7xx_HAL_Driver/Src/stm32h7xx_hal_flash_ex.c ****       /* Configure the user option bytes */
 473:../../Drivers/STM32H7xx_HAL_Driver/Src/stm32h7xx_hal_flash_ex.c ****       FLASH_OB_UserConfig(pOBInit->USERType, pOBInit->USERConfig);
 474:../../Drivers/STM32H7xx_HAL_Driver/Src/stm32h7xx_hal_flash_ex.c ****     }
 475:../../Drivers/STM32H7xx_HAL_Driver/Src/stm32h7xx_hal_flash_ex.c **** 
 476:../../Drivers/STM32H7xx_HAL_Driver/Src/stm32h7xx_hal_flash_ex.c ****     /* PCROP Configuration */
 477:../../Drivers/STM32H7xx_HAL_Driver/Src/stm32h7xx_hal_flash_ex.c ****     if((pOBInit->OptionType & OPTIONBYTE_PCROP) != 0U)
 478:../../Drivers/STM32H7xx_HAL_Driver/Src/stm32h7xx_hal_flash_ex.c ****     {
 479:../../Drivers/STM32H7xx_HAL_Driver/Src/stm32h7xx_hal_flash_ex.c ****       assert_param(IS_FLASH_BANK(pOBInit->Banks));
 480:../../Drivers/STM32H7xx_HAL_Driver/Src/stm32h7xx_hal_flash_ex.c **** 
 481:../../Drivers/STM32H7xx_HAL_Driver/Src/stm32h7xx_hal_flash_ex.c ****       /*Configure the Proprietary code readout protection */
 482:../../Drivers/STM32H7xx_HAL_Driver/Src/stm32h7xx_hal_flash_ex.c ****       FLASH_OB_PCROPConfig(pOBInit->PCROPConfig, pOBInit->PCROPStartAddr, pOBInit->PCROPEndAddr, pO
 483:../../Drivers/STM32H7xx_HAL_Driver/Src/stm32h7xx_hal_flash_ex.c ****     }
 484:../../Drivers/STM32H7xx_HAL_Driver/Src/stm32h7xx_hal_flash_ex.c **** 
 485:../../Drivers/STM32H7xx_HAL_Driver/Src/stm32h7xx_hal_flash_ex.c ****     /* BOR Level configuration */
 486:../../Drivers/STM32H7xx_HAL_Driver/Src/stm32h7xx_hal_flash_ex.c ****     if((pOBInit->OptionType & OPTIONBYTE_BOR) == OPTIONBYTE_BOR)
ARM GAS  /tmp/ccYcJizL.s 			page 10


 487:../../Drivers/STM32H7xx_HAL_Driver/Src/stm32h7xx_hal_flash_ex.c ****     {
 488:../../Drivers/STM32H7xx_HAL_Driver/Src/stm32h7xx_hal_flash_ex.c ****       FLASH_OB_BOR_LevelConfig(pOBInit->BORLevel);
 489:../../Drivers/STM32H7xx_HAL_Driver/Src/stm32h7xx_hal_flash_ex.c ****     }
 490:../../Drivers/STM32H7xx_HAL_Driver/Src/stm32h7xx_hal_flash_ex.c **** 
 491:../../Drivers/STM32H7xx_HAL_Driver/Src/stm32h7xx_hal_flash_ex.c **** #if defined(DUAL_CORE)
 492:../../Drivers/STM32H7xx_HAL_Driver/Src/stm32h7xx_hal_flash_ex.c ****     /* CM7 Boot Address  configuration */
 493:../../Drivers/STM32H7xx_HAL_Driver/Src/stm32h7xx_hal_flash_ex.c ****     if((pOBInit->OptionType & OPTIONBYTE_CM7_BOOTADD) == OPTIONBYTE_CM7_BOOTADD)
 494:../../Drivers/STM32H7xx_HAL_Driver/Src/stm32h7xx_hal_flash_ex.c ****     {
 495:../../Drivers/STM32H7xx_HAL_Driver/Src/stm32h7xx_hal_flash_ex.c ****       FLASH_OB_BootAddConfig(pOBInit->BootConfig, pOBInit->BootAddr0, pOBInit->BootAddr1);
 496:../../Drivers/STM32H7xx_HAL_Driver/Src/stm32h7xx_hal_flash_ex.c ****     }
 497:../../Drivers/STM32H7xx_HAL_Driver/Src/stm32h7xx_hal_flash_ex.c **** 
 498:../../Drivers/STM32H7xx_HAL_Driver/Src/stm32h7xx_hal_flash_ex.c ****     /* CM4 Boot Address  configuration */
 499:../../Drivers/STM32H7xx_HAL_Driver/Src/stm32h7xx_hal_flash_ex.c ****     if((pOBInit->OptionType & OPTIONBYTE_CM4_BOOTADD) == OPTIONBYTE_CM4_BOOTADD)
 500:../../Drivers/STM32H7xx_HAL_Driver/Src/stm32h7xx_hal_flash_ex.c ****     {
 501:../../Drivers/STM32H7xx_HAL_Driver/Src/stm32h7xx_hal_flash_ex.c ****       FLASH_OB_CM4BootAddConfig(pOBInit->CM4BootConfig, pOBInit->CM4BootAddr0, pOBInit->CM4BootAddr
 502:../../Drivers/STM32H7xx_HAL_Driver/Src/stm32h7xx_hal_flash_ex.c ****     }
 503:../../Drivers/STM32H7xx_HAL_Driver/Src/stm32h7xx_hal_flash_ex.c **** #else /* Single Core*/
 504:../../Drivers/STM32H7xx_HAL_Driver/Src/stm32h7xx_hal_flash_ex.c ****     /* Boot Address  configuration */
 505:../../Drivers/STM32H7xx_HAL_Driver/Src/stm32h7xx_hal_flash_ex.c ****     if((pOBInit->OptionType & OPTIONBYTE_BOOTADD) == OPTIONBYTE_BOOTADD)
 506:../../Drivers/STM32H7xx_HAL_Driver/Src/stm32h7xx_hal_flash_ex.c ****     {
 507:../../Drivers/STM32H7xx_HAL_Driver/Src/stm32h7xx_hal_flash_ex.c ****       FLASH_OB_BootAddConfig(pOBInit->BootConfig, pOBInit->BootAddr0, pOBInit->BootAddr1);
 508:../../Drivers/STM32H7xx_HAL_Driver/Src/stm32h7xx_hal_flash_ex.c ****     }
 509:../../Drivers/STM32H7xx_HAL_Driver/Src/stm32h7xx_hal_flash_ex.c **** #endif /*DUAL_CORE*/
 510:../../Drivers/STM32H7xx_HAL_Driver/Src/stm32h7xx_hal_flash_ex.c **** 
 511:../../Drivers/STM32H7xx_HAL_Driver/Src/stm32h7xx_hal_flash_ex.c ****     /* Secure area configuration */
 512:../../Drivers/STM32H7xx_HAL_Driver/Src/stm32h7xx_hal_flash_ex.c ****     if((pOBInit->OptionType & OPTIONBYTE_SECURE_AREA) == OPTIONBYTE_SECURE_AREA)
 513:../../Drivers/STM32H7xx_HAL_Driver/Src/stm32h7xx_hal_flash_ex.c ****     {
 514:../../Drivers/STM32H7xx_HAL_Driver/Src/stm32h7xx_hal_flash_ex.c ****       FLASH_OB_SecureAreaConfig(pOBInit->SecureAreaConfig, pOBInit->SecureAreaStartAddr, pOBInit->S
 515:../../Drivers/STM32H7xx_HAL_Driver/Src/stm32h7xx_hal_flash_ex.c ****     }
 516:../../Drivers/STM32H7xx_HAL_Driver/Src/stm32h7xx_hal_flash_ex.c **** 
 517:../../Drivers/STM32H7xx_HAL_Driver/Src/stm32h7xx_hal_flash_ex.c **** #if defined(FLASH_OTPBL_LOCKBL)
 518:../../Drivers/STM32H7xx_HAL_Driver/Src/stm32h7xx_hal_flash_ex.c ****     /* OTP Block Lock configuration */
 519:../../Drivers/STM32H7xx_HAL_Driver/Src/stm32h7xx_hal_flash_ex.c ****     if((pOBInit->OptionType & OPTIONBYTE_OTP_LOCK) == OPTIONBYTE_OTP_LOCK)
 520:../../Drivers/STM32H7xx_HAL_Driver/Src/stm32h7xx_hal_flash_ex.c ****     {
 521:../../Drivers/STM32H7xx_HAL_Driver/Src/stm32h7xx_hal_flash_ex.c ****       FLASH_OB_OTP_LockConfig(pOBInit->OTPBlockLock);
 522:../../Drivers/STM32H7xx_HAL_Driver/Src/stm32h7xx_hal_flash_ex.c ****     }
 523:../../Drivers/STM32H7xx_HAL_Driver/Src/stm32h7xx_hal_flash_ex.c **** #endif /* FLASH_OTPBL_LOCKBL */
 524:../../Drivers/STM32H7xx_HAL_Driver/Src/stm32h7xx_hal_flash_ex.c **** 
 525:../../Drivers/STM32H7xx_HAL_Driver/Src/stm32h7xx_hal_flash_ex.c **** #if defined(FLASH_OPTSR2_TCM_AXI_SHARED)
 526:../../Drivers/STM32H7xx_HAL_Driver/Src/stm32h7xx_hal_flash_ex.c ****     /* TCM / AXI Shared RAM configuration */
 527:../../Drivers/STM32H7xx_HAL_Driver/Src/stm32h7xx_hal_flash_ex.c ****     if((pOBInit->OptionType & OPTIONBYTE_SHARED_RAM) == OPTIONBYTE_SHARED_RAM)
 528:../../Drivers/STM32H7xx_HAL_Driver/Src/stm32h7xx_hal_flash_ex.c ****     {
 529:../../Drivers/STM32H7xx_HAL_Driver/Src/stm32h7xx_hal_flash_ex.c ****       FLASH_OB_SharedRAM_Config(pOBInit->SharedRamConfig);
 530:../../Drivers/STM32H7xx_HAL_Driver/Src/stm32h7xx_hal_flash_ex.c ****     }
 531:../../Drivers/STM32H7xx_HAL_Driver/Src/stm32h7xx_hal_flash_ex.c **** #endif /* FLASH_OPTSR2_TCM_AXI_SHARED */
 532:../../Drivers/STM32H7xx_HAL_Driver/Src/stm32h7xx_hal_flash_ex.c **** 
 533:../../Drivers/STM32H7xx_HAL_Driver/Src/stm32h7xx_hal_flash_ex.c **** #if defined(FLASH_OPTSR2_CPUFREQ_BOOST)
 534:../../Drivers/STM32H7xx_HAL_Driver/Src/stm32h7xx_hal_flash_ex.c ****     /* CPU Frequency Boost configuration */
 535:../../Drivers/STM32H7xx_HAL_Driver/Src/stm32h7xx_hal_flash_ex.c ****     if((pOBInit->OptionType & OPTIONBYTE_FREQ_BOOST) == OPTIONBYTE_FREQ_BOOST)
 536:../../Drivers/STM32H7xx_HAL_Driver/Src/stm32h7xx_hal_flash_ex.c ****     {
 537:../../Drivers/STM32H7xx_HAL_Driver/Src/stm32h7xx_hal_flash_ex.c ****       FLASH_OB_CPUFreq_BoostConfig(pOBInit->FreqBoostState);
 538:../../Drivers/STM32H7xx_HAL_Driver/Src/stm32h7xx_hal_flash_ex.c ****     }
 539:../../Drivers/STM32H7xx_HAL_Driver/Src/stm32h7xx_hal_flash_ex.c **** #endif /* FLASH_OPTSR2_CPUFREQ_BOOST */
 540:../../Drivers/STM32H7xx_HAL_Driver/Src/stm32h7xx_hal_flash_ex.c ****   }
 541:../../Drivers/STM32H7xx_HAL_Driver/Src/stm32h7xx_hal_flash_ex.c **** 
 542:../../Drivers/STM32H7xx_HAL_Driver/Src/stm32h7xx_hal_flash_ex.c ****   /* Process Unlocked */
 543:../../Drivers/STM32H7xx_HAL_Driver/Src/stm32h7xx_hal_flash_ex.c ****   __HAL_UNLOCK(&pFlash);
ARM GAS  /tmp/ccYcJizL.s 			page 11


 544:../../Drivers/STM32H7xx_HAL_Driver/Src/stm32h7xx_hal_flash_ex.c **** 
 545:../../Drivers/STM32H7xx_HAL_Driver/Src/stm32h7xx_hal_flash_ex.c ****   return status;
 546:../../Drivers/STM32H7xx_HAL_Driver/Src/stm32h7xx_hal_flash_ex.c **** }
 547:../../Drivers/STM32H7xx_HAL_Driver/Src/stm32h7xx_hal_flash_ex.c **** 
 548:../../Drivers/STM32H7xx_HAL_Driver/Src/stm32h7xx_hal_flash_ex.c **** /**
 549:../../Drivers/STM32H7xx_HAL_Driver/Src/stm32h7xx_hal_flash_ex.c ****   * @brief Get the Option byte configuration
 550:../../Drivers/STM32H7xx_HAL_Driver/Src/stm32h7xx_hal_flash_ex.c ****   * @param  pOBInit pointer to an FLASH_OBProgramInitTypeDef structure that
 551:../../Drivers/STM32H7xx_HAL_Driver/Src/stm32h7xx_hal_flash_ex.c ****   *         contains the configuration information for the programming.
 552:../../Drivers/STM32H7xx_HAL_Driver/Src/stm32h7xx_hal_flash_ex.c ****   * @note   The parameter Banks of the pOBInit structure must be set exclusively to FLASH_BANK_1 or
 553:../../Drivers/STM32H7xx_HAL_Driver/Src/stm32h7xx_hal_flash_ex.c ****   *         as this parameter is use to get the given Bank WRP, PCROP and secured area configuratio
 554:../../Drivers/STM32H7xx_HAL_Driver/Src/stm32h7xx_hal_flash_ex.c ****   *
 555:../../Drivers/STM32H7xx_HAL_Driver/Src/stm32h7xx_hal_flash_ex.c ****   * @retval None
 556:../../Drivers/STM32H7xx_HAL_Driver/Src/stm32h7xx_hal_flash_ex.c ****   */
 557:../../Drivers/STM32H7xx_HAL_Driver/Src/stm32h7xx_hal_flash_ex.c **** void HAL_FLASHEx_OBGetConfig(FLASH_OBProgramInitTypeDef *pOBInit)
 558:../../Drivers/STM32H7xx_HAL_Driver/Src/stm32h7xx_hal_flash_ex.c **** {
 559:../../Drivers/STM32H7xx_HAL_Driver/Src/stm32h7xx_hal_flash_ex.c ****   pOBInit->OptionType = (OPTIONBYTE_USER | OPTIONBYTE_RDP | OPTIONBYTE_BOR);
 560:../../Drivers/STM32H7xx_HAL_Driver/Src/stm32h7xx_hal_flash_ex.c **** 
 561:../../Drivers/STM32H7xx_HAL_Driver/Src/stm32h7xx_hal_flash_ex.c ****   /* Get Read protection level */
 562:../../Drivers/STM32H7xx_HAL_Driver/Src/stm32h7xx_hal_flash_ex.c ****   pOBInit->RDPLevel = FLASH_OB_GetRDP();
 563:../../Drivers/STM32H7xx_HAL_Driver/Src/stm32h7xx_hal_flash_ex.c **** 
 564:../../Drivers/STM32H7xx_HAL_Driver/Src/stm32h7xx_hal_flash_ex.c ****   /* Get the user option bytes */
 565:../../Drivers/STM32H7xx_HAL_Driver/Src/stm32h7xx_hal_flash_ex.c ****   pOBInit->USERConfig = FLASH_OB_GetUser();
 566:../../Drivers/STM32H7xx_HAL_Driver/Src/stm32h7xx_hal_flash_ex.c **** 
 567:../../Drivers/STM32H7xx_HAL_Driver/Src/stm32h7xx_hal_flash_ex.c ****   /*Get BOR Level*/
 568:../../Drivers/STM32H7xx_HAL_Driver/Src/stm32h7xx_hal_flash_ex.c ****   pOBInit->BORLevel = FLASH_OB_GetBOR();
 569:../../Drivers/STM32H7xx_HAL_Driver/Src/stm32h7xx_hal_flash_ex.c **** 
 570:../../Drivers/STM32H7xx_HAL_Driver/Src/stm32h7xx_hal_flash_ex.c **** #if defined (DUAL_BANK)
 571:../../Drivers/STM32H7xx_HAL_Driver/Src/stm32h7xx_hal_flash_ex.c ****   if ((pOBInit->Banks == FLASH_BANK_1) || (pOBInit->Banks == FLASH_BANK_2))
 572:../../Drivers/STM32H7xx_HAL_Driver/Src/stm32h7xx_hal_flash_ex.c **** #else
 573:../../Drivers/STM32H7xx_HAL_Driver/Src/stm32h7xx_hal_flash_ex.c ****   if (pOBInit->Banks == FLASH_BANK_1)
 574:../../Drivers/STM32H7xx_HAL_Driver/Src/stm32h7xx_hal_flash_ex.c **** #endif /* DUAL_BANK */
 575:../../Drivers/STM32H7xx_HAL_Driver/Src/stm32h7xx_hal_flash_ex.c ****   {
 576:../../Drivers/STM32H7xx_HAL_Driver/Src/stm32h7xx_hal_flash_ex.c ****     pOBInit->OptionType |= (OPTIONBYTE_WRP | OPTIONBYTE_PCROP | OPTIONBYTE_SECURE_AREA);
 577:../../Drivers/STM32H7xx_HAL_Driver/Src/stm32h7xx_hal_flash_ex.c **** 
 578:../../Drivers/STM32H7xx_HAL_Driver/Src/stm32h7xx_hal_flash_ex.c ****     /* Get write protection on the selected area */
 579:../../Drivers/STM32H7xx_HAL_Driver/Src/stm32h7xx_hal_flash_ex.c ****     FLASH_OB_GetWRP(&(pOBInit->WRPState), &(pOBInit->WRPSector), pOBInit->Banks);
 580:../../Drivers/STM32H7xx_HAL_Driver/Src/stm32h7xx_hal_flash_ex.c **** 
 581:../../Drivers/STM32H7xx_HAL_Driver/Src/stm32h7xx_hal_flash_ex.c ****     /* Get the Proprietary code readout protection */
 582:../../Drivers/STM32H7xx_HAL_Driver/Src/stm32h7xx_hal_flash_ex.c ****     FLASH_OB_GetPCROP(&(pOBInit->PCROPConfig), &(pOBInit->PCROPStartAddr), &(pOBInit->PCROPEndAddr)
 583:../../Drivers/STM32H7xx_HAL_Driver/Src/stm32h7xx_hal_flash_ex.c **** 
 584:../../Drivers/STM32H7xx_HAL_Driver/Src/stm32h7xx_hal_flash_ex.c ****     /*Get Bank Secure area*/
 585:../../Drivers/STM32H7xx_HAL_Driver/Src/stm32h7xx_hal_flash_ex.c ****     FLASH_OB_GetSecureArea(&(pOBInit->SecureAreaConfig), &(pOBInit->SecureAreaStartAddr), &(pOBInit
 586:../../Drivers/STM32H7xx_HAL_Driver/Src/stm32h7xx_hal_flash_ex.c ****   }
 587:../../Drivers/STM32H7xx_HAL_Driver/Src/stm32h7xx_hal_flash_ex.c **** 
 588:../../Drivers/STM32H7xx_HAL_Driver/Src/stm32h7xx_hal_flash_ex.c ****   /*Get Boot Address*/
 589:../../Drivers/STM32H7xx_HAL_Driver/Src/stm32h7xx_hal_flash_ex.c ****   FLASH_OB_GetBootAdd(&(pOBInit->BootAddr0), &(pOBInit->BootAddr1));
 590:../../Drivers/STM32H7xx_HAL_Driver/Src/stm32h7xx_hal_flash_ex.c **** #if defined(DUAL_CORE)
 591:../../Drivers/STM32H7xx_HAL_Driver/Src/stm32h7xx_hal_flash_ex.c ****   pOBInit->OptionType |= OPTIONBYTE_CM7_BOOTADD | OPTIONBYTE_CM4_BOOTADD;
 592:../../Drivers/STM32H7xx_HAL_Driver/Src/stm32h7xx_hal_flash_ex.c **** 
 593:../../Drivers/STM32H7xx_HAL_Driver/Src/stm32h7xx_hal_flash_ex.c ****   /*Get CM4 Boot Address*/
 594:../../Drivers/STM32H7xx_HAL_Driver/Src/stm32h7xx_hal_flash_ex.c ****   FLASH_OB_GetCM4BootAdd(&(pOBInit->CM4BootAddr0), &(pOBInit->CM4BootAddr1));
 595:../../Drivers/STM32H7xx_HAL_Driver/Src/stm32h7xx_hal_flash_ex.c **** #else
 596:../../Drivers/STM32H7xx_HAL_Driver/Src/stm32h7xx_hal_flash_ex.c ****   pOBInit->OptionType |= OPTIONBYTE_BOOTADD;
 597:../../Drivers/STM32H7xx_HAL_Driver/Src/stm32h7xx_hal_flash_ex.c **** #endif /*DUAL_CORE*/
 598:../../Drivers/STM32H7xx_HAL_Driver/Src/stm32h7xx_hal_flash_ex.c **** 
 599:../../Drivers/STM32H7xx_HAL_Driver/Src/stm32h7xx_hal_flash_ex.c **** #if defined (FLASH_OTPBL_LOCKBL)
 600:../../Drivers/STM32H7xx_HAL_Driver/Src/stm32h7xx_hal_flash_ex.c ****   pOBInit->OptionType |= OPTIONBYTE_OTP_LOCK;
ARM GAS  /tmp/ccYcJizL.s 			page 12


 601:../../Drivers/STM32H7xx_HAL_Driver/Src/stm32h7xx_hal_flash_ex.c **** 
 602:../../Drivers/STM32H7xx_HAL_Driver/Src/stm32h7xx_hal_flash_ex.c ****   /* Get OTP Block Lock */
 603:../../Drivers/STM32H7xx_HAL_Driver/Src/stm32h7xx_hal_flash_ex.c ****   pOBInit->OTPBlockLock = FLASH_OB_OTP_GetLock();
 604:../../Drivers/STM32H7xx_HAL_Driver/Src/stm32h7xx_hal_flash_ex.c **** #endif /* FLASH_OTPBL_LOCKBL */
 605:../../Drivers/STM32H7xx_HAL_Driver/Src/stm32h7xx_hal_flash_ex.c **** 
 606:../../Drivers/STM32H7xx_HAL_Driver/Src/stm32h7xx_hal_flash_ex.c **** #if defined (FLASH_OPTSR2_TCM_AXI_SHARED)
 607:../../Drivers/STM32H7xx_HAL_Driver/Src/stm32h7xx_hal_flash_ex.c ****   pOBInit->OptionType |= OPTIONBYTE_SHARED_RAM;
 608:../../Drivers/STM32H7xx_HAL_Driver/Src/stm32h7xx_hal_flash_ex.c **** 
 609:../../Drivers/STM32H7xx_HAL_Driver/Src/stm32h7xx_hal_flash_ex.c ****   /* Get TCM / AXI Shared RAM */
 610:../../Drivers/STM32H7xx_HAL_Driver/Src/stm32h7xx_hal_flash_ex.c ****   pOBInit->SharedRamConfig = FLASH_OB_SharedRAM_GetConfig();
 611:../../Drivers/STM32H7xx_HAL_Driver/Src/stm32h7xx_hal_flash_ex.c **** #endif /* FLASH_OPTSR2_TCM_AXI_SHARED */
 612:../../Drivers/STM32H7xx_HAL_Driver/Src/stm32h7xx_hal_flash_ex.c **** 
 613:../../Drivers/STM32H7xx_HAL_Driver/Src/stm32h7xx_hal_flash_ex.c **** #if defined (FLASH_OPTSR2_CPUFREQ_BOOST)
 614:../../Drivers/STM32H7xx_HAL_Driver/Src/stm32h7xx_hal_flash_ex.c ****   pOBInit->OptionType |= OPTIONBYTE_FREQ_BOOST;
 615:../../Drivers/STM32H7xx_HAL_Driver/Src/stm32h7xx_hal_flash_ex.c **** 
 616:../../Drivers/STM32H7xx_HAL_Driver/Src/stm32h7xx_hal_flash_ex.c ****   /* Get CPU Frequency Boost */
 617:../../Drivers/STM32H7xx_HAL_Driver/Src/stm32h7xx_hal_flash_ex.c ****   pOBInit->FreqBoostState = FLASH_OB_CPUFreq_GetBoost();
 618:../../Drivers/STM32H7xx_HAL_Driver/Src/stm32h7xx_hal_flash_ex.c **** #endif /* FLASH_OPTSR2_CPUFREQ_BOOST */
 619:../../Drivers/STM32H7xx_HAL_Driver/Src/stm32h7xx_hal_flash_ex.c **** }
 620:../../Drivers/STM32H7xx_HAL_Driver/Src/stm32h7xx_hal_flash_ex.c **** 
 621:../../Drivers/STM32H7xx_HAL_Driver/Src/stm32h7xx_hal_flash_ex.c **** /**
 622:../../Drivers/STM32H7xx_HAL_Driver/Src/stm32h7xx_hal_flash_ex.c ****   * @brief  Unlock the FLASH Bank1 control registers access
 623:../../Drivers/STM32H7xx_HAL_Driver/Src/stm32h7xx_hal_flash_ex.c ****   * @retval HAL Status
 624:../../Drivers/STM32H7xx_HAL_Driver/Src/stm32h7xx_hal_flash_ex.c ****   */
 625:../../Drivers/STM32H7xx_HAL_Driver/Src/stm32h7xx_hal_flash_ex.c **** HAL_StatusTypeDef HAL_FLASHEx_Unlock_Bank1(void)
 626:../../Drivers/STM32H7xx_HAL_Driver/Src/stm32h7xx_hal_flash_ex.c **** {
 627:../../Drivers/STM32H7xx_HAL_Driver/Src/stm32h7xx_hal_flash_ex.c ****   if(READ_BIT(FLASH->CR1, FLASH_CR_LOCK) != 0U)
 628:../../Drivers/STM32H7xx_HAL_Driver/Src/stm32h7xx_hal_flash_ex.c ****   {
 629:../../Drivers/STM32H7xx_HAL_Driver/Src/stm32h7xx_hal_flash_ex.c ****     /* Authorize the FLASH Bank1 Registers access */
 630:../../Drivers/STM32H7xx_HAL_Driver/Src/stm32h7xx_hal_flash_ex.c ****     WRITE_REG(FLASH->KEYR1, FLASH_KEY1);
 631:../../Drivers/STM32H7xx_HAL_Driver/Src/stm32h7xx_hal_flash_ex.c ****     WRITE_REG(FLASH->KEYR1, FLASH_KEY2);
 632:../../Drivers/STM32H7xx_HAL_Driver/Src/stm32h7xx_hal_flash_ex.c **** 
 633:../../Drivers/STM32H7xx_HAL_Driver/Src/stm32h7xx_hal_flash_ex.c ****     /* Verify Flash Bank1 is unlocked */
 634:../../Drivers/STM32H7xx_HAL_Driver/Src/stm32h7xx_hal_flash_ex.c ****     if (READ_BIT(FLASH->CR1, FLASH_CR_LOCK) != 0U)
 635:../../Drivers/STM32H7xx_HAL_Driver/Src/stm32h7xx_hal_flash_ex.c ****     {
 636:../../Drivers/STM32H7xx_HAL_Driver/Src/stm32h7xx_hal_flash_ex.c ****       return HAL_ERROR;
 637:../../Drivers/STM32H7xx_HAL_Driver/Src/stm32h7xx_hal_flash_ex.c ****     }
 638:../../Drivers/STM32H7xx_HAL_Driver/Src/stm32h7xx_hal_flash_ex.c ****   }
 639:../../Drivers/STM32H7xx_HAL_Driver/Src/stm32h7xx_hal_flash_ex.c **** 
 640:../../Drivers/STM32H7xx_HAL_Driver/Src/stm32h7xx_hal_flash_ex.c ****   return HAL_OK;
 641:../../Drivers/STM32H7xx_HAL_Driver/Src/stm32h7xx_hal_flash_ex.c **** }
 642:../../Drivers/STM32H7xx_HAL_Driver/Src/stm32h7xx_hal_flash_ex.c **** 
 643:../../Drivers/STM32H7xx_HAL_Driver/Src/stm32h7xx_hal_flash_ex.c **** /**
 644:../../Drivers/STM32H7xx_HAL_Driver/Src/stm32h7xx_hal_flash_ex.c ****   * @brief  Locks the FLASH Bank1 control registers access
 645:../../Drivers/STM32H7xx_HAL_Driver/Src/stm32h7xx_hal_flash_ex.c ****   * @retval HAL Status
 646:../../Drivers/STM32H7xx_HAL_Driver/Src/stm32h7xx_hal_flash_ex.c ****   */
 647:../../Drivers/STM32H7xx_HAL_Driver/Src/stm32h7xx_hal_flash_ex.c **** HAL_StatusTypeDef HAL_FLASHEx_Lock_Bank1(void)
 648:../../Drivers/STM32H7xx_HAL_Driver/Src/stm32h7xx_hal_flash_ex.c **** {
 649:../../Drivers/STM32H7xx_HAL_Driver/Src/stm32h7xx_hal_flash_ex.c ****   /* Set the LOCK Bit to lock the FLASH Bank1 Registers access */
 650:../../Drivers/STM32H7xx_HAL_Driver/Src/stm32h7xx_hal_flash_ex.c ****   SET_BIT(FLASH->CR1, FLASH_CR_LOCK);
 651:../../Drivers/STM32H7xx_HAL_Driver/Src/stm32h7xx_hal_flash_ex.c ****   return HAL_OK;
 652:../../Drivers/STM32H7xx_HAL_Driver/Src/stm32h7xx_hal_flash_ex.c **** }
 653:../../Drivers/STM32H7xx_HAL_Driver/Src/stm32h7xx_hal_flash_ex.c **** 
 654:../../Drivers/STM32H7xx_HAL_Driver/Src/stm32h7xx_hal_flash_ex.c **** #if defined (DUAL_BANK)
 655:../../Drivers/STM32H7xx_HAL_Driver/Src/stm32h7xx_hal_flash_ex.c **** /**
 656:../../Drivers/STM32H7xx_HAL_Driver/Src/stm32h7xx_hal_flash_ex.c ****   * @brief  Unlock the FLASH Bank2 control registers access
 657:../../Drivers/STM32H7xx_HAL_Driver/Src/stm32h7xx_hal_flash_ex.c ****   * @retval HAL Status
ARM GAS  /tmp/ccYcJizL.s 			page 13


 658:../../Drivers/STM32H7xx_HAL_Driver/Src/stm32h7xx_hal_flash_ex.c ****   */
 659:../../Drivers/STM32H7xx_HAL_Driver/Src/stm32h7xx_hal_flash_ex.c **** HAL_StatusTypeDef HAL_FLASHEx_Unlock_Bank2(void)
 660:../../Drivers/STM32H7xx_HAL_Driver/Src/stm32h7xx_hal_flash_ex.c **** {
 661:../../Drivers/STM32H7xx_HAL_Driver/Src/stm32h7xx_hal_flash_ex.c ****   if(READ_BIT(FLASH->CR2, FLASH_CR_LOCK) != 0U)
 662:../../Drivers/STM32H7xx_HAL_Driver/Src/stm32h7xx_hal_flash_ex.c ****   {
 663:../../Drivers/STM32H7xx_HAL_Driver/Src/stm32h7xx_hal_flash_ex.c ****     /* Authorize the FLASH Bank2 Registers access */
 664:../../Drivers/STM32H7xx_HAL_Driver/Src/stm32h7xx_hal_flash_ex.c ****     WRITE_REG(FLASH->KEYR2, FLASH_KEY1);
 665:../../Drivers/STM32H7xx_HAL_Driver/Src/stm32h7xx_hal_flash_ex.c ****     WRITE_REG(FLASH->KEYR2, FLASH_KEY2);
 666:../../Drivers/STM32H7xx_HAL_Driver/Src/stm32h7xx_hal_flash_ex.c **** 
 667:../../Drivers/STM32H7xx_HAL_Driver/Src/stm32h7xx_hal_flash_ex.c ****     /* Verify Flash Bank1 is unlocked */
 668:../../Drivers/STM32H7xx_HAL_Driver/Src/stm32h7xx_hal_flash_ex.c ****     if (READ_BIT(FLASH->CR2, FLASH_CR_LOCK) != 0U)
 669:../../Drivers/STM32H7xx_HAL_Driver/Src/stm32h7xx_hal_flash_ex.c ****     {
 670:../../Drivers/STM32H7xx_HAL_Driver/Src/stm32h7xx_hal_flash_ex.c ****       return HAL_ERROR;
 671:../../Drivers/STM32H7xx_HAL_Driver/Src/stm32h7xx_hal_flash_ex.c ****     }
 672:../../Drivers/STM32H7xx_HAL_Driver/Src/stm32h7xx_hal_flash_ex.c ****   }
 673:../../Drivers/STM32H7xx_HAL_Driver/Src/stm32h7xx_hal_flash_ex.c **** 
 674:../../Drivers/STM32H7xx_HAL_Driver/Src/stm32h7xx_hal_flash_ex.c ****   return HAL_OK;
 675:../../Drivers/STM32H7xx_HAL_Driver/Src/stm32h7xx_hal_flash_ex.c **** }
 676:../../Drivers/STM32H7xx_HAL_Driver/Src/stm32h7xx_hal_flash_ex.c **** 
 677:../../Drivers/STM32H7xx_HAL_Driver/Src/stm32h7xx_hal_flash_ex.c **** /**
 678:../../Drivers/STM32H7xx_HAL_Driver/Src/stm32h7xx_hal_flash_ex.c ****   * @brief  Locks the FLASH Bank2 control registers access
 679:../../Drivers/STM32H7xx_HAL_Driver/Src/stm32h7xx_hal_flash_ex.c ****   * @retval HAL Status
 680:../../Drivers/STM32H7xx_HAL_Driver/Src/stm32h7xx_hal_flash_ex.c ****   */
 681:../../Drivers/STM32H7xx_HAL_Driver/Src/stm32h7xx_hal_flash_ex.c **** HAL_StatusTypeDef HAL_FLASHEx_Lock_Bank2(void)
 682:../../Drivers/STM32H7xx_HAL_Driver/Src/stm32h7xx_hal_flash_ex.c **** {
 683:../../Drivers/STM32H7xx_HAL_Driver/Src/stm32h7xx_hal_flash_ex.c ****   /* Set the LOCK Bit to lock the FLASH Bank2 Registers access */
 684:../../Drivers/STM32H7xx_HAL_Driver/Src/stm32h7xx_hal_flash_ex.c ****   SET_BIT(FLASH->CR2, FLASH_CR_LOCK);
 685:../../Drivers/STM32H7xx_HAL_Driver/Src/stm32h7xx_hal_flash_ex.c ****   return HAL_OK;
 686:../../Drivers/STM32H7xx_HAL_Driver/Src/stm32h7xx_hal_flash_ex.c **** }
 687:../../Drivers/STM32H7xx_HAL_Driver/Src/stm32h7xx_hal_flash_ex.c **** #endif /* DUAL_BANK */
 688:../../Drivers/STM32H7xx_HAL_Driver/Src/stm32h7xx_hal_flash_ex.c **** 
 689:../../Drivers/STM32H7xx_HAL_Driver/Src/stm32h7xx_hal_flash_ex.c **** /*
 690:../../Drivers/STM32H7xx_HAL_Driver/Src/stm32h7xx_hal_flash_ex.c ****   * @brief  Perform a CRC computation on the specified FLASH memory area
 691:../../Drivers/STM32H7xx_HAL_Driver/Src/stm32h7xx_hal_flash_ex.c ****   * @param  pCRCInit pointer to an FLASH_CRCInitTypeDef structure that
 692:../../Drivers/STM32H7xx_HAL_Driver/Src/stm32h7xx_hal_flash_ex.c ****   *         contains the configuration information for the CRC computation.
 693:../../Drivers/STM32H7xx_HAL_Driver/Src/stm32h7xx_hal_flash_ex.c ****   * @note   CRC computation uses CRC-32 (Ethernet) polynomial 0x4C11DB7
 694:../../Drivers/STM32H7xx_HAL_Driver/Src/stm32h7xx_hal_flash_ex.c ****   * @note   The application should avoid running a CRC on PCROP or secure-only
 695:../../Drivers/STM32H7xx_HAL_Driver/Src/stm32h7xx_hal_flash_ex.c ****   *         user Flash memory area since it may alter the expected CRC value.
 696:../../Drivers/STM32H7xx_HAL_Driver/Src/stm32h7xx_hal_flash_ex.c ****   *         A special error flag (CRC read error: CRCRDERR) can be used to
 697:../../Drivers/STM32H7xx_HAL_Driver/Src/stm32h7xx_hal_flash_ex.c ****   *         detect such a case.
 698:../../Drivers/STM32H7xx_HAL_Driver/Src/stm32h7xx_hal_flash_ex.c ****   * @retval HAL Status
 699:../../Drivers/STM32H7xx_HAL_Driver/Src/stm32h7xx_hal_flash_ex.c **** */
 700:../../Drivers/STM32H7xx_HAL_Driver/Src/stm32h7xx_hal_flash_ex.c **** HAL_StatusTypeDef HAL_FLASHEx_ComputeCRC(FLASH_CRCInitTypeDef *pCRCInit, uint32_t *CRC_Result)
 701:../../Drivers/STM32H7xx_HAL_Driver/Src/stm32h7xx_hal_flash_ex.c **** {
 702:../../Drivers/STM32H7xx_HAL_Driver/Src/stm32h7xx_hal_flash_ex.c ****   HAL_StatusTypeDef status;
 703:../../Drivers/STM32H7xx_HAL_Driver/Src/stm32h7xx_hal_flash_ex.c ****   uint32_t sector_index;
 704:../../Drivers/STM32H7xx_HAL_Driver/Src/stm32h7xx_hal_flash_ex.c **** 
 705:../../Drivers/STM32H7xx_HAL_Driver/Src/stm32h7xx_hal_flash_ex.c ****   /* Check the parameters */
 706:../../Drivers/STM32H7xx_HAL_Driver/Src/stm32h7xx_hal_flash_ex.c ****   assert_param(IS_FLASH_BANK_EXCLUSIVE(pCRCInit->Bank));
 707:../../Drivers/STM32H7xx_HAL_Driver/Src/stm32h7xx_hal_flash_ex.c ****   assert_param(IS_FLASH_TYPECRC(pCRCInit->TypeCRC));
 708:../../Drivers/STM32H7xx_HAL_Driver/Src/stm32h7xx_hal_flash_ex.c **** 
 709:../../Drivers/STM32H7xx_HAL_Driver/Src/stm32h7xx_hal_flash_ex.c ****   /* Wait for OB change operation to be completed */
 710:../../Drivers/STM32H7xx_HAL_Driver/Src/stm32h7xx_hal_flash_ex.c ****   status = FLASH_OB_WaitForLastOperation((uint32_t)FLASH_TIMEOUT_VALUE);
 711:../../Drivers/STM32H7xx_HAL_Driver/Src/stm32h7xx_hal_flash_ex.c **** 
 712:../../Drivers/STM32H7xx_HAL_Driver/Src/stm32h7xx_hal_flash_ex.c ****   if (status == HAL_OK)
 713:../../Drivers/STM32H7xx_HAL_Driver/Src/stm32h7xx_hal_flash_ex.c ****   {
 714:../../Drivers/STM32H7xx_HAL_Driver/Src/stm32h7xx_hal_flash_ex.c ****     if (pCRCInit->Bank == FLASH_BANK_1)
ARM GAS  /tmp/ccYcJizL.s 			page 14


 715:../../Drivers/STM32H7xx_HAL_Driver/Src/stm32h7xx_hal_flash_ex.c ****     {
 716:../../Drivers/STM32H7xx_HAL_Driver/Src/stm32h7xx_hal_flash_ex.c ****       /* Enable CRC feature */
 717:../../Drivers/STM32H7xx_HAL_Driver/Src/stm32h7xx_hal_flash_ex.c ****       FLASH->CR1 |= FLASH_CR_CRC_EN;
 718:../../Drivers/STM32H7xx_HAL_Driver/Src/stm32h7xx_hal_flash_ex.c **** 
 719:../../Drivers/STM32H7xx_HAL_Driver/Src/stm32h7xx_hal_flash_ex.c ****       /* Clear CRC flags in Status Register: CRC end of calculation and CRC read error */
 720:../../Drivers/STM32H7xx_HAL_Driver/Src/stm32h7xx_hal_flash_ex.c ****       FLASH->CCR1 |= (FLASH_CCR_CLR_CRCEND | FLASH_CCR_CLR_CRCRDERR);
 721:../../Drivers/STM32H7xx_HAL_Driver/Src/stm32h7xx_hal_flash_ex.c **** 
 722:../../Drivers/STM32H7xx_HAL_Driver/Src/stm32h7xx_hal_flash_ex.c ****       /* Clear current CRC result, program burst size and define memory area on which CRC has to be
 723:../../Drivers/STM32H7xx_HAL_Driver/Src/stm32h7xx_hal_flash_ex.c ****       FLASH->CRCCR1 |= FLASH_CRCCR_CLEAN_CRC | pCRCInit->BurstSize | pCRCInit->TypeCRC;
 724:../../Drivers/STM32H7xx_HAL_Driver/Src/stm32h7xx_hal_flash_ex.c **** 
 725:../../Drivers/STM32H7xx_HAL_Driver/Src/stm32h7xx_hal_flash_ex.c ****       if (pCRCInit->TypeCRC == FLASH_CRC_SECTORS)
 726:../../Drivers/STM32H7xx_HAL_Driver/Src/stm32h7xx_hal_flash_ex.c ****       {
 727:../../Drivers/STM32H7xx_HAL_Driver/Src/stm32h7xx_hal_flash_ex.c ****         /* Clear sectors list */
 728:../../Drivers/STM32H7xx_HAL_Driver/Src/stm32h7xx_hal_flash_ex.c ****         FLASH->CRCCR1 |= FLASH_CRCCR_CLEAN_SECT;
 729:../../Drivers/STM32H7xx_HAL_Driver/Src/stm32h7xx_hal_flash_ex.c **** 
 730:../../Drivers/STM32H7xx_HAL_Driver/Src/stm32h7xx_hal_flash_ex.c ****         /* Select CRC sectors */
 731:../../Drivers/STM32H7xx_HAL_Driver/Src/stm32h7xx_hal_flash_ex.c ****         for(sector_index = pCRCInit->Sector; sector_index < (pCRCInit->NbSectors + pCRCInit->Sector
 732:../../Drivers/STM32H7xx_HAL_Driver/Src/stm32h7xx_hal_flash_ex.c ****         {
 733:../../Drivers/STM32H7xx_HAL_Driver/Src/stm32h7xx_hal_flash_ex.c ****           FLASH_CRC_AddSector(sector_index, FLASH_BANK_1);
 734:../../Drivers/STM32H7xx_HAL_Driver/Src/stm32h7xx_hal_flash_ex.c ****         }
 735:../../Drivers/STM32H7xx_HAL_Driver/Src/stm32h7xx_hal_flash_ex.c ****       }
 736:../../Drivers/STM32H7xx_HAL_Driver/Src/stm32h7xx_hal_flash_ex.c ****       else if (pCRCInit->TypeCRC == FLASH_CRC_BANK)
 737:../../Drivers/STM32H7xx_HAL_Driver/Src/stm32h7xx_hal_flash_ex.c ****       {
 738:../../Drivers/STM32H7xx_HAL_Driver/Src/stm32h7xx_hal_flash_ex.c ****         /* Enable Bank 1 CRC select bit */
 739:../../Drivers/STM32H7xx_HAL_Driver/Src/stm32h7xx_hal_flash_ex.c ****         FLASH->CRCCR1 |= FLASH_CRCCR_ALL_BANK;
 740:../../Drivers/STM32H7xx_HAL_Driver/Src/stm32h7xx_hal_flash_ex.c ****       }
 741:../../Drivers/STM32H7xx_HAL_Driver/Src/stm32h7xx_hal_flash_ex.c ****       else
 742:../../Drivers/STM32H7xx_HAL_Driver/Src/stm32h7xx_hal_flash_ex.c ****       {
 743:../../Drivers/STM32H7xx_HAL_Driver/Src/stm32h7xx_hal_flash_ex.c ****         /* Select CRC start and end addresses */
 744:../../Drivers/STM32H7xx_HAL_Driver/Src/stm32h7xx_hal_flash_ex.c ****         FLASH_CRC_SelectAddress(pCRCInit->CRCStartAddr, pCRCInit->CRCEndAddr, FLASH_BANK_1);
 745:../../Drivers/STM32H7xx_HAL_Driver/Src/stm32h7xx_hal_flash_ex.c ****       }
 746:../../Drivers/STM32H7xx_HAL_Driver/Src/stm32h7xx_hal_flash_ex.c **** 
 747:../../Drivers/STM32H7xx_HAL_Driver/Src/stm32h7xx_hal_flash_ex.c ****       /* Start the CRC calculation */
 748:../../Drivers/STM32H7xx_HAL_Driver/Src/stm32h7xx_hal_flash_ex.c ****       FLASH->CRCCR1 |= FLASH_CRCCR_START_CRC;
 749:../../Drivers/STM32H7xx_HAL_Driver/Src/stm32h7xx_hal_flash_ex.c **** 
 750:../../Drivers/STM32H7xx_HAL_Driver/Src/stm32h7xx_hal_flash_ex.c ****       /* Wait on CRC busy flag */
 751:../../Drivers/STM32H7xx_HAL_Driver/Src/stm32h7xx_hal_flash_ex.c ****       status = FLASH_CRC_WaitForLastOperation((uint32_t)FLASH_TIMEOUT_VALUE, FLASH_BANK_1);
 752:../../Drivers/STM32H7xx_HAL_Driver/Src/stm32h7xx_hal_flash_ex.c **** 
 753:../../Drivers/STM32H7xx_HAL_Driver/Src/stm32h7xx_hal_flash_ex.c ****       /* Return CRC result */
 754:../../Drivers/STM32H7xx_HAL_Driver/Src/stm32h7xx_hal_flash_ex.c ****       (*CRC_Result) = FLASH->CRCDATA;
 755:../../Drivers/STM32H7xx_HAL_Driver/Src/stm32h7xx_hal_flash_ex.c **** 
 756:../../Drivers/STM32H7xx_HAL_Driver/Src/stm32h7xx_hal_flash_ex.c ****       /* Disable CRC feature */
 757:../../Drivers/STM32H7xx_HAL_Driver/Src/stm32h7xx_hal_flash_ex.c ****       FLASH->CR1 &= (~FLASH_CR_CRC_EN);
 758:../../Drivers/STM32H7xx_HAL_Driver/Src/stm32h7xx_hal_flash_ex.c **** 
 759:../../Drivers/STM32H7xx_HAL_Driver/Src/stm32h7xx_hal_flash_ex.c ****       /* Clear CRC flags */
 760:../../Drivers/STM32H7xx_HAL_Driver/Src/stm32h7xx_hal_flash_ex.c ****       __HAL_FLASH_CLEAR_FLAG_BANK1(FLASH_FLAG_CRCEND_BANK1 | FLASH_FLAG_CRCRDERR_BANK1);
 761:../../Drivers/STM32H7xx_HAL_Driver/Src/stm32h7xx_hal_flash_ex.c ****     }
 762:../../Drivers/STM32H7xx_HAL_Driver/Src/stm32h7xx_hal_flash_ex.c **** #if defined (DUAL_BANK)
 763:../../Drivers/STM32H7xx_HAL_Driver/Src/stm32h7xx_hal_flash_ex.c ****     else
 764:../../Drivers/STM32H7xx_HAL_Driver/Src/stm32h7xx_hal_flash_ex.c ****     {
 765:../../Drivers/STM32H7xx_HAL_Driver/Src/stm32h7xx_hal_flash_ex.c ****       /* Enable CRC feature */
 766:../../Drivers/STM32H7xx_HAL_Driver/Src/stm32h7xx_hal_flash_ex.c ****       FLASH->CR2 |= FLASH_CR_CRC_EN;
 767:../../Drivers/STM32H7xx_HAL_Driver/Src/stm32h7xx_hal_flash_ex.c **** 
 768:../../Drivers/STM32H7xx_HAL_Driver/Src/stm32h7xx_hal_flash_ex.c ****       /* Clear CRC flags in Status Register: CRC end of calculation and CRC read error */
 769:../../Drivers/STM32H7xx_HAL_Driver/Src/stm32h7xx_hal_flash_ex.c ****       FLASH->CCR2 |= (FLASH_CCR_CLR_CRCEND | FLASH_CCR_CLR_CRCRDERR);
 770:../../Drivers/STM32H7xx_HAL_Driver/Src/stm32h7xx_hal_flash_ex.c **** 
 771:../../Drivers/STM32H7xx_HAL_Driver/Src/stm32h7xx_hal_flash_ex.c ****       /* Clear current CRC result, program burst size and define memory area on which CRC has to be
ARM GAS  /tmp/ccYcJizL.s 			page 15


 772:../../Drivers/STM32H7xx_HAL_Driver/Src/stm32h7xx_hal_flash_ex.c ****       FLASH->CRCCR2 |= FLASH_CRCCR_CLEAN_CRC | pCRCInit->BurstSize | pCRCInit->TypeCRC;
 773:../../Drivers/STM32H7xx_HAL_Driver/Src/stm32h7xx_hal_flash_ex.c **** 
 774:../../Drivers/STM32H7xx_HAL_Driver/Src/stm32h7xx_hal_flash_ex.c ****       if (pCRCInit->TypeCRC == FLASH_CRC_SECTORS)
 775:../../Drivers/STM32H7xx_HAL_Driver/Src/stm32h7xx_hal_flash_ex.c ****       {
 776:../../Drivers/STM32H7xx_HAL_Driver/Src/stm32h7xx_hal_flash_ex.c ****         /* Clear sectors list */
 777:../../Drivers/STM32H7xx_HAL_Driver/Src/stm32h7xx_hal_flash_ex.c ****         FLASH->CRCCR2 |= FLASH_CRCCR_CLEAN_SECT;
 778:../../Drivers/STM32H7xx_HAL_Driver/Src/stm32h7xx_hal_flash_ex.c **** 
 779:../../Drivers/STM32H7xx_HAL_Driver/Src/stm32h7xx_hal_flash_ex.c ****         /* Add CRC sectors */
 780:../../Drivers/STM32H7xx_HAL_Driver/Src/stm32h7xx_hal_flash_ex.c ****         for(sector_index = pCRCInit->Sector; sector_index < (pCRCInit->NbSectors + pCRCInit->Sector
 781:../../Drivers/STM32H7xx_HAL_Driver/Src/stm32h7xx_hal_flash_ex.c ****         {
 782:../../Drivers/STM32H7xx_HAL_Driver/Src/stm32h7xx_hal_flash_ex.c ****           FLASH_CRC_AddSector(sector_index, FLASH_BANK_2);
 783:../../Drivers/STM32H7xx_HAL_Driver/Src/stm32h7xx_hal_flash_ex.c ****         }
 784:../../Drivers/STM32H7xx_HAL_Driver/Src/stm32h7xx_hal_flash_ex.c ****       }
 785:../../Drivers/STM32H7xx_HAL_Driver/Src/stm32h7xx_hal_flash_ex.c ****       else if (pCRCInit->TypeCRC == FLASH_CRC_BANK)
 786:../../Drivers/STM32H7xx_HAL_Driver/Src/stm32h7xx_hal_flash_ex.c ****       {
 787:../../Drivers/STM32H7xx_HAL_Driver/Src/stm32h7xx_hal_flash_ex.c ****         /* Enable Bank 2 CRC select bit */
 788:../../Drivers/STM32H7xx_HAL_Driver/Src/stm32h7xx_hal_flash_ex.c ****         FLASH->CRCCR2 |= FLASH_CRCCR_ALL_BANK;
 789:../../Drivers/STM32H7xx_HAL_Driver/Src/stm32h7xx_hal_flash_ex.c ****       }
 790:../../Drivers/STM32H7xx_HAL_Driver/Src/stm32h7xx_hal_flash_ex.c ****       else
 791:../../Drivers/STM32H7xx_HAL_Driver/Src/stm32h7xx_hal_flash_ex.c ****       {
 792:../../Drivers/STM32H7xx_HAL_Driver/Src/stm32h7xx_hal_flash_ex.c ****         /* Select CRC start and end addresses */
 793:../../Drivers/STM32H7xx_HAL_Driver/Src/stm32h7xx_hal_flash_ex.c ****         FLASH_CRC_SelectAddress(pCRCInit->CRCStartAddr, pCRCInit->CRCEndAddr, FLASH_BANK_2);
 794:../../Drivers/STM32H7xx_HAL_Driver/Src/stm32h7xx_hal_flash_ex.c ****       }
 795:../../Drivers/STM32H7xx_HAL_Driver/Src/stm32h7xx_hal_flash_ex.c **** 
 796:../../Drivers/STM32H7xx_HAL_Driver/Src/stm32h7xx_hal_flash_ex.c ****       /* Start the CRC calculation */
 797:../../Drivers/STM32H7xx_HAL_Driver/Src/stm32h7xx_hal_flash_ex.c ****       FLASH->CRCCR2 |= FLASH_CRCCR_START_CRC;
 798:../../Drivers/STM32H7xx_HAL_Driver/Src/stm32h7xx_hal_flash_ex.c **** 
 799:../../Drivers/STM32H7xx_HAL_Driver/Src/stm32h7xx_hal_flash_ex.c ****       /* Wait on CRC busy flag */
 800:../../Drivers/STM32H7xx_HAL_Driver/Src/stm32h7xx_hal_flash_ex.c ****       status = FLASH_CRC_WaitForLastOperation((uint32_t)FLASH_TIMEOUT_VALUE, FLASH_BANK_2);
 801:../../Drivers/STM32H7xx_HAL_Driver/Src/stm32h7xx_hal_flash_ex.c **** 
 802:../../Drivers/STM32H7xx_HAL_Driver/Src/stm32h7xx_hal_flash_ex.c ****       /* Return CRC result */
 803:../../Drivers/STM32H7xx_HAL_Driver/Src/stm32h7xx_hal_flash_ex.c ****       (*CRC_Result) = FLASH->CRCDATA;
 804:../../Drivers/STM32H7xx_HAL_Driver/Src/stm32h7xx_hal_flash_ex.c **** 
 805:../../Drivers/STM32H7xx_HAL_Driver/Src/stm32h7xx_hal_flash_ex.c ****       /* Disable CRC feature */
 806:../../Drivers/STM32H7xx_HAL_Driver/Src/stm32h7xx_hal_flash_ex.c ****       FLASH->CR2 &= (~FLASH_CR_CRC_EN);
 807:../../Drivers/STM32H7xx_HAL_Driver/Src/stm32h7xx_hal_flash_ex.c **** 
 808:../../Drivers/STM32H7xx_HAL_Driver/Src/stm32h7xx_hal_flash_ex.c ****       /* Clear CRC flags */
 809:../../Drivers/STM32H7xx_HAL_Driver/Src/stm32h7xx_hal_flash_ex.c ****       __HAL_FLASH_CLEAR_FLAG_BANK2(FLASH_FLAG_CRCEND_BANK2 | FLASH_FLAG_CRCRDERR_BANK2);
 810:../../Drivers/STM32H7xx_HAL_Driver/Src/stm32h7xx_hal_flash_ex.c ****     }
 811:../../Drivers/STM32H7xx_HAL_Driver/Src/stm32h7xx_hal_flash_ex.c **** #endif /* DUAL_BANK */
 812:../../Drivers/STM32H7xx_HAL_Driver/Src/stm32h7xx_hal_flash_ex.c ****   }
 813:../../Drivers/STM32H7xx_HAL_Driver/Src/stm32h7xx_hal_flash_ex.c **** 
 814:../../Drivers/STM32H7xx_HAL_Driver/Src/stm32h7xx_hal_flash_ex.c ****   return status;
 815:../../Drivers/STM32H7xx_HAL_Driver/Src/stm32h7xx_hal_flash_ex.c **** }
 816:../../Drivers/STM32H7xx_HAL_Driver/Src/stm32h7xx_hal_flash_ex.c **** 
 817:../../Drivers/STM32H7xx_HAL_Driver/Src/stm32h7xx_hal_flash_ex.c **** /**
 818:../../Drivers/STM32H7xx_HAL_Driver/Src/stm32h7xx_hal_flash_ex.c ****   * @}
 819:../../Drivers/STM32H7xx_HAL_Driver/Src/stm32h7xx_hal_flash_ex.c ****   */
 820:../../Drivers/STM32H7xx_HAL_Driver/Src/stm32h7xx_hal_flash_ex.c **** 
 821:../../Drivers/STM32H7xx_HAL_Driver/Src/stm32h7xx_hal_flash_ex.c **** /**
 822:../../Drivers/STM32H7xx_HAL_Driver/Src/stm32h7xx_hal_flash_ex.c ****   * @}
 823:../../Drivers/STM32H7xx_HAL_Driver/Src/stm32h7xx_hal_flash_ex.c ****   */
 824:../../Drivers/STM32H7xx_HAL_Driver/Src/stm32h7xx_hal_flash_ex.c **** 
 825:../../Drivers/STM32H7xx_HAL_Driver/Src/stm32h7xx_hal_flash_ex.c **** /* Private functions ---------------------------------------------------------*/
 826:../../Drivers/STM32H7xx_HAL_Driver/Src/stm32h7xx_hal_flash_ex.c **** 
 827:../../Drivers/STM32H7xx_HAL_Driver/Src/stm32h7xx_hal_flash_ex.c **** /** @addtogroup FLASHEx_Private_Functions
 828:../../Drivers/STM32H7xx_HAL_Driver/Src/stm32h7xx_hal_flash_ex.c ****   * @{
ARM GAS  /tmp/ccYcJizL.s 			page 16


 829:../../Drivers/STM32H7xx_HAL_Driver/Src/stm32h7xx_hal_flash_ex.c ****   */
 830:../../Drivers/STM32H7xx_HAL_Driver/Src/stm32h7xx_hal_flash_ex.c **** 
 831:../../Drivers/STM32H7xx_HAL_Driver/Src/stm32h7xx_hal_flash_ex.c **** /**
 832:../../Drivers/STM32H7xx_HAL_Driver/Src/stm32h7xx_hal_flash_ex.c ****   * @brief  Mass erase of FLASH memory
 833:../../Drivers/STM32H7xx_HAL_Driver/Src/stm32h7xx_hal_flash_ex.c ****   * @param  VoltageRange The device program/erase parallelism.
 834:../../Drivers/STM32H7xx_HAL_Driver/Src/stm32h7xx_hal_flash_ex.c ****   *          This parameter can be one of the following values:
 835:../../Drivers/STM32H7xx_HAL_Driver/Src/stm32h7xx_hal_flash_ex.c ****   *            @arg FLASH_VOLTAGE_RANGE_1 : Flash program/erase by 8 bits
 836:../../Drivers/STM32H7xx_HAL_Driver/Src/stm32h7xx_hal_flash_ex.c ****   *            @arg FLASH_VOLTAGE_RANGE_2 : Flash program/erase by 16 bits
 837:../../Drivers/STM32H7xx_HAL_Driver/Src/stm32h7xx_hal_flash_ex.c ****   *            @arg FLASH_VOLTAGE_RANGE_3 : Flash program/erase by 32 bits
 838:../../Drivers/STM32H7xx_HAL_Driver/Src/stm32h7xx_hal_flash_ex.c ****   *            @arg FLASH_VOLTAGE_RANGE_4 : Flash program/erase by 64 bits
 839:../../Drivers/STM32H7xx_HAL_Driver/Src/stm32h7xx_hal_flash_ex.c ****   *
 840:../../Drivers/STM32H7xx_HAL_Driver/Src/stm32h7xx_hal_flash_ex.c ****   * @param  Banks Banks to be erased
 841:../../Drivers/STM32H7xx_HAL_Driver/Src/stm32h7xx_hal_flash_ex.c ****   *          This parameter can be one of the following values:
 842:../../Drivers/STM32H7xx_HAL_Driver/Src/stm32h7xx_hal_flash_ex.c ****   *            @arg FLASH_BANK_1: Bank1 to be erased
 843:../../Drivers/STM32H7xx_HAL_Driver/Src/stm32h7xx_hal_flash_ex.c ****   *            @arg FLASH_BANK_2: Bank2 to be erased
 844:../../Drivers/STM32H7xx_HAL_Driver/Src/stm32h7xx_hal_flash_ex.c ****   *            @arg FLASH_BANK_BOTH: Bank1 and Bank2 to be erased
 845:../../Drivers/STM32H7xx_HAL_Driver/Src/stm32h7xx_hal_flash_ex.c ****   *
 846:../../Drivers/STM32H7xx_HAL_Driver/Src/stm32h7xx_hal_flash_ex.c ****   * @retval HAL Status
 847:../../Drivers/STM32H7xx_HAL_Driver/Src/stm32h7xx_hal_flash_ex.c ****   */
 848:../../Drivers/STM32H7xx_HAL_Driver/Src/stm32h7xx_hal_flash_ex.c **** static void FLASH_MassErase(uint32_t VoltageRange, uint32_t Banks)
 849:../../Drivers/STM32H7xx_HAL_Driver/Src/stm32h7xx_hal_flash_ex.c **** {
  29              		.loc 1 849 1 view -0
  30              		.cfi_startproc
  31              		@ args = 0, pretend = 0, frame = 0
  32              		@ frame_needed = 0, uses_anonymous_args = 0
  33              		@ link register save eliminated.
 850:../../Drivers/STM32H7xx_HAL_Driver/Src/stm32h7xx_hal_flash_ex.c ****   /* Check the parameters */
 851:../../Drivers/STM32H7xx_HAL_Driver/Src/stm32h7xx_hal_flash_ex.c **** #if defined (FLASH_CR_PSIZE)
 852:../../Drivers/STM32H7xx_HAL_Driver/Src/stm32h7xx_hal_flash_ex.c ****   assert_param(IS_VOLTAGERANGE(VoltageRange));
  34              		.loc 1 852 3 view .LVU1
 853:../../Drivers/STM32H7xx_HAL_Driver/Src/stm32h7xx_hal_flash_ex.c **** #else
 854:../../Drivers/STM32H7xx_HAL_Driver/Src/stm32h7xx_hal_flash_ex.c ****   UNUSED(VoltageRange);
 855:../../Drivers/STM32H7xx_HAL_Driver/Src/stm32h7xx_hal_flash_ex.c **** #endif /* FLASH_CR_PSIZE */
 856:../../Drivers/STM32H7xx_HAL_Driver/Src/stm32h7xx_hal_flash_ex.c ****   assert_param(IS_FLASH_BANK(Banks));
  35              		.loc 1 856 3 view .LVU2
 857:../../Drivers/STM32H7xx_HAL_Driver/Src/stm32h7xx_hal_flash_ex.c **** 
 858:../../Drivers/STM32H7xx_HAL_Driver/Src/stm32h7xx_hal_flash_ex.c **** #if defined (DUAL_BANK)
 859:../../Drivers/STM32H7xx_HAL_Driver/Src/stm32h7xx_hal_flash_ex.c ****   /* Flash Mass Erase */
 860:../../Drivers/STM32H7xx_HAL_Driver/Src/stm32h7xx_hal_flash_ex.c ****   if((Banks & FLASH_BANK_BOTH) == FLASH_BANK_BOTH)
  36              		.loc 1 860 3 view .LVU3
  37              		.loc 1 860 13 is_stmt 0 view .LVU4
  38 0000 01F00303 		and	r3, r1, #3
  39              		.loc 1 860 5 view .LVU5
  40 0004 032B     		cmp	r3, #3
  41 0006 24D0     		beq	.L5
 861:../../Drivers/STM32H7xx_HAL_Driver/Src/stm32h7xx_hal_flash_ex.c ****   {
 862:../../Drivers/STM32H7xx_HAL_Driver/Src/stm32h7xx_hal_flash_ex.c **** #if defined (FLASH_CR_PSIZE)
 863:../../Drivers/STM32H7xx_HAL_Driver/Src/stm32h7xx_hal_flash_ex.c ****     /* Reset Program/erase VoltageRange for Bank1 and Bank2 */
 864:../../Drivers/STM32H7xx_HAL_Driver/Src/stm32h7xx_hal_flash_ex.c ****     FLASH->CR1 &= (~FLASH_CR_PSIZE);
 865:../../Drivers/STM32H7xx_HAL_Driver/Src/stm32h7xx_hal_flash_ex.c ****     FLASH->CR2 &= (~FLASH_CR_PSIZE);
 866:../../Drivers/STM32H7xx_HAL_Driver/Src/stm32h7xx_hal_flash_ex.c **** 
 867:../../Drivers/STM32H7xx_HAL_Driver/Src/stm32h7xx_hal_flash_ex.c ****     /* Set voltage range */
 868:../../Drivers/STM32H7xx_HAL_Driver/Src/stm32h7xx_hal_flash_ex.c ****     FLASH->CR1 |= VoltageRange;
 869:../../Drivers/STM32H7xx_HAL_Driver/Src/stm32h7xx_hal_flash_ex.c ****     FLASH->CR2 |= VoltageRange;
 870:../../Drivers/STM32H7xx_HAL_Driver/Src/stm32h7xx_hal_flash_ex.c **** #endif /* FLASH_CR_PSIZE */
 871:../../Drivers/STM32H7xx_HAL_Driver/Src/stm32h7xx_hal_flash_ex.c **** 
 872:../../Drivers/STM32H7xx_HAL_Driver/Src/stm32h7xx_hal_flash_ex.c ****     /* Set Mass Erase Bit */
ARM GAS  /tmp/ccYcJizL.s 			page 17


 873:../../Drivers/STM32H7xx_HAL_Driver/Src/stm32h7xx_hal_flash_ex.c ****     FLASH->OPTCR |= FLASH_OPTCR_MER;
 874:../../Drivers/STM32H7xx_HAL_Driver/Src/stm32h7xx_hal_flash_ex.c ****   }
 875:../../Drivers/STM32H7xx_HAL_Driver/Src/stm32h7xx_hal_flash_ex.c ****   else
 876:../../Drivers/STM32H7xx_HAL_Driver/Src/stm32h7xx_hal_flash_ex.c **** #endif /* DUAL_BANK */
 877:../../Drivers/STM32H7xx_HAL_Driver/Src/stm32h7xx_hal_flash_ex.c ****   {
 878:../../Drivers/STM32H7xx_HAL_Driver/Src/stm32h7xx_hal_flash_ex.c ****     /* Proceed to erase Flash Bank  */
 879:../../Drivers/STM32H7xx_HAL_Driver/Src/stm32h7xx_hal_flash_ex.c ****     if((Banks & FLASH_BANK_1) == FLASH_BANK_1)
  42              		.loc 1 879 5 is_stmt 1 view .LVU6
  43              		.loc 1 879 7 is_stmt 0 view .LVU7
  44 0008 11F0010F 		tst	r1, #1
  45 000c 0BD0     		beq	.L4
 880:../../Drivers/STM32H7xx_HAL_Driver/Src/stm32h7xx_hal_flash_ex.c ****     {
 881:../../Drivers/STM32H7xx_HAL_Driver/Src/stm32h7xx_hal_flash_ex.c **** #if defined (FLASH_CR_PSIZE)
 882:../../Drivers/STM32H7xx_HAL_Driver/Src/stm32h7xx_hal_flash_ex.c ****       /* Set Program/erase VoltageRange for Bank1 */
 883:../../Drivers/STM32H7xx_HAL_Driver/Src/stm32h7xx_hal_flash_ex.c ****       FLASH->CR1 &= (~FLASH_CR_PSIZE);
  46              		.loc 1 883 7 is_stmt 1 view .LVU8
  47              		.loc 1 883 18 is_stmt 0 view .LVU9
  48 000e 1D4B     		ldr	r3, .L6
  49 0010 DA68     		ldr	r2, [r3, #12]
  50 0012 22F03002 		bic	r2, r2, #48
  51 0016 DA60     		str	r2, [r3, #12]
 884:../../Drivers/STM32H7xx_HAL_Driver/Src/stm32h7xx_hal_flash_ex.c ****       FLASH->CR1 |=  VoltageRange;
  52              		.loc 1 884 7 is_stmt 1 view .LVU10
  53              		.loc 1 884 18 is_stmt 0 view .LVU11
  54 0018 DA68     		ldr	r2, [r3, #12]
  55 001a 0243     		orrs	r2, r2, r0
  56 001c DA60     		str	r2, [r3, #12]
 885:../../Drivers/STM32H7xx_HAL_Driver/Src/stm32h7xx_hal_flash_ex.c **** #endif /* FLASH_CR_PSIZE */
 886:../../Drivers/STM32H7xx_HAL_Driver/Src/stm32h7xx_hal_flash_ex.c **** 
 887:../../Drivers/STM32H7xx_HAL_Driver/Src/stm32h7xx_hal_flash_ex.c ****       /* Erase Bank1 */
 888:../../Drivers/STM32H7xx_HAL_Driver/Src/stm32h7xx_hal_flash_ex.c ****       FLASH->CR1 |= (FLASH_CR_BER | FLASH_CR_START);
  57              		.loc 1 888 7 is_stmt 1 view .LVU12
  58              		.loc 1 888 18 is_stmt 0 view .LVU13
  59 001e DA68     		ldr	r2, [r3, #12]
  60 0020 42F08802 		orr	r2, r2, #136
  61 0024 DA60     		str	r2, [r3, #12]
  62              	.L4:
 889:../../Drivers/STM32H7xx_HAL_Driver/Src/stm32h7xx_hal_flash_ex.c ****     }
 890:../../Drivers/STM32H7xx_HAL_Driver/Src/stm32h7xx_hal_flash_ex.c **** 
 891:../../Drivers/STM32H7xx_HAL_Driver/Src/stm32h7xx_hal_flash_ex.c **** #if defined (DUAL_BANK)
 892:../../Drivers/STM32H7xx_HAL_Driver/Src/stm32h7xx_hal_flash_ex.c ****     if((Banks & FLASH_BANK_2) == FLASH_BANK_2)
  63              		.loc 1 892 5 is_stmt 1 view .LVU14
  64              		.loc 1 892 7 is_stmt 0 view .LVU15
  65 0026 11F0020F 		tst	r1, #2
  66 002a 11D0     		beq	.L1
 893:../../Drivers/STM32H7xx_HAL_Driver/Src/stm32h7xx_hal_flash_ex.c ****     {
 894:../../Drivers/STM32H7xx_HAL_Driver/Src/stm32h7xx_hal_flash_ex.c **** #if defined (FLASH_CR_PSIZE)
 895:../../Drivers/STM32H7xx_HAL_Driver/Src/stm32h7xx_hal_flash_ex.c ****       /* Set Program/erase VoltageRange for Bank2 */
 896:../../Drivers/STM32H7xx_HAL_Driver/Src/stm32h7xx_hal_flash_ex.c ****       FLASH->CR2 &= (~FLASH_CR_PSIZE);
  67              		.loc 1 896 7 is_stmt 1 view .LVU16
  68              		.loc 1 896 18 is_stmt 0 view .LVU17
  69 002c 154B     		ldr	r3, .L6
  70 002e D3F80C21 		ldr	r2, [r3, #268]
  71 0032 22F03002 		bic	r2, r2, #48
  72 0036 C3F80C21 		str	r2, [r3, #268]
 897:../../Drivers/STM32H7xx_HAL_Driver/Src/stm32h7xx_hal_flash_ex.c ****       FLASH->CR2 |= VoltageRange;
  73              		.loc 1 897 7 is_stmt 1 view .LVU18
ARM GAS  /tmp/ccYcJizL.s 			page 18


  74              		.loc 1 897 18 is_stmt 0 view .LVU19
  75 003a D3F80C21 		ldr	r2, [r3, #268]
  76 003e 1043     		orrs	r0, r0, r2
  77              	.LVL1:
  78              		.loc 1 897 18 view .LVU20
  79 0040 C3F80C01 		str	r0, [r3, #268]
 898:../../Drivers/STM32H7xx_HAL_Driver/Src/stm32h7xx_hal_flash_ex.c **** #endif /* FLASH_CR_PSIZE */
 899:../../Drivers/STM32H7xx_HAL_Driver/Src/stm32h7xx_hal_flash_ex.c **** 
 900:../../Drivers/STM32H7xx_HAL_Driver/Src/stm32h7xx_hal_flash_ex.c ****       /* Erase Bank2 */
 901:../../Drivers/STM32H7xx_HAL_Driver/Src/stm32h7xx_hal_flash_ex.c ****       FLASH->CR2 |= (FLASH_CR_BER | FLASH_CR_START);
  80              		.loc 1 901 7 is_stmt 1 view .LVU21
  81              		.loc 1 901 18 is_stmt 0 view .LVU22
  82 0044 D3F80C21 		ldr	r2, [r3, #268]
  83 0048 42F08802 		orr	r2, r2, #136
  84 004c C3F80C21 		str	r2, [r3, #268]
  85              	.L1:
 902:../../Drivers/STM32H7xx_HAL_Driver/Src/stm32h7xx_hal_flash_ex.c ****     }
 903:../../Drivers/STM32H7xx_HAL_Driver/Src/stm32h7xx_hal_flash_ex.c **** #endif /* DUAL_BANK */
 904:../../Drivers/STM32H7xx_HAL_Driver/Src/stm32h7xx_hal_flash_ex.c ****   }
 905:../../Drivers/STM32H7xx_HAL_Driver/Src/stm32h7xx_hal_flash_ex.c **** }
  86              		.loc 1 905 1 view .LVU23
  87 0050 7047     		bx	lr
  88              	.LVL2:
  89              	.L5:
 864:../../Drivers/STM32H7xx_HAL_Driver/Src/stm32h7xx_hal_flash_ex.c ****     FLASH->CR2 &= (~FLASH_CR_PSIZE);
  90              		.loc 1 864 5 is_stmt 1 view .LVU24
 864:../../Drivers/STM32H7xx_HAL_Driver/Src/stm32h7xx_hal_flash_ex.c ****     FLASH->CR2 &= (~FLASH_CR_PSIZE);
  91              		.loc 1 864 16 is_stmt 0 view .LVU25
  92 0052 0C4B     		ldr	r3, .L6
  93 0054 DA68     		ldr	r2, [r3, #12]
  94 0056 22F03002 		bic	r2, r2, #48
  95 005a DA60     		str	r2, [r3, #12]
 865:../../Drivers/STM32H7xx_HAL_Driver/Src/stm32h7xx_hal_flash_ex.c **** 
  96              		.loc 1 865 5 is_stmt 1 view .LVU26
 865:../../Drivers/STM32H7xx_HAL_Driver/Src/stm32h7xx_hal_flash_ex.c **** 
  97              		.loc 1 865 16 is_stmt 0 view .LVU27
  98 005c D3F80C21 		ldr	r2, [r3, #268]
  99 0060 22F03002 		bic	r2, r2, #48
 100 0064 C3F80C21 		str	r2, [r3, #268]
 868:../../Drivers/STM32H7xx_HAL_Driver/Src/stm32h7xx_hal_flash_ex.c ****     FLASH->CR2 |= VoltageRange;
 101              		.loc 1 868 5 is_stmt 1 view .LVU28
 868:../../Drivers/STM32H7xx_HAL_Driver/Src/stm32h7xx_hal_flash_ex.c ****     FLASH->CR2 |= VoltageRange;
 102              		.loc 1 868 16 is_stmt 0 view .LVU29
 103 0068 DA68     		ldr	r2, [r3, #12]
 104 006a 0243     		orrs	r2, r2, r0
 105 006c DA60     		str	r2, [r3, #12]
 869:../../Drivers/STM32H7xx_HAL_Driver/Src/stm32h7xx_hal_flash_ex.c **** #endif /* FLASH_CR_PSIZE */
 106              		.loc 1 869 5 is_stmt 1 view .LVU30
 869:../../Drivers/STM32H7xx_HAL_Driver/Src/stm32h7xx_hal_flash_ex.c **** #endif /* FLASH_CR_PSIZE */
 107              		.loc 1 869 16 is_stmt 0 view .LVU31
 108 006e D3F80C21 		ldr	r2, [r3, #268]
 109 0072 1043     		orrs	r0, r0, r2
 110              	.LVL3:
 869:../../Drivers/STM32H7xx_HAL_Driver/Src/stm32h7xx_hal_flash_ex.c **** #endif /* FLASH_CR_PSIZE */
 111              		.loc 1 869 16 view .LVU32
 112 0074 C3F80C01 		str	r0, [r3, #268]
 873:../../Drivers/STM32H7xx_HAL_Driver/Src/stm32h7xx_hal_flash_ex.c ****   }
ARM GAS  /tmp/ccYcJizL.s 			page 19


 113              		.loc 1 873 5 is_stmt 1 view .LVU33
 873:../../Drivers/STM32H7xx_HAL_Driver/Src/stm32h7xx_hal_flash_ex.c ****   }
 114              		.loc 1 873 18 is_stmt 0 view .LVU34
 115 0078 9A69     		ldr	r2, [r3, #24]
 116 007a 42F01002 		orr	r2, r2, #16
 117 007e 9A61     		str	r2, [r3, #24]
 118 0080 7047     		bx	lr
 119              	.L7:
 120 0082 00BF     		.align	2
 121              	.L6:
 122 0084 00200052 		.word	1375739904
 123              		.cfi_endproc
 124              	.LFE141:
 126              		.section	.text.FLASH_OB_EnableWRP,"ax",%progbits
 127              		.align	1
 128              		.syntax unified
 129              		.thumb
 130              		.thumb_func
 131              		.fpu fpv4-sp-d16
 133              	FLASH_OB_EnableWRP:
 134              	.LVL4:
 135              	.LFB143:
 906:../../Drivers/STM32H7xx_HAL_Driver/Src/stm32h7xx_hal_flash_ex.c **** 
 907:../../Drivers/STM32H7xx_HAL_Driver/Src/stm32h7xx_hal_flash_ex.c **** /**
 908:../../Drivers/STM32H7xx_HAL_Driver/Src/stm32h7xx_hal_flash_ex.c ****   * @brief  Erase the specified FLASH memory sector
 909:../../Drivers/STM32H7xx_HAL_Driver/Src/stm32h7xx_hal_flash_ex.c ****   * @param  Sector FLASH sector to erase
 910:../../Drivers/STM32H7xx_HAL_Driver/Src/stm32h7xx_hal_flash_ex.c ****   *          This parameter can be a value of @ref FLASH_Sectors
 911:../../Drivers/STM32H7xx_HAL_Driver/Src/stm32h7xx_hal_flash_ex.c ****   * @param  Banks Banks to be erased
 912:../../Drivers/STM32H7xx_HAL_Driver/Src/stm32h7xx_hal_flash_ex.c ****   *          This parameter can be one of the following values:
 913:../../Drivers/STM32H7xx_HAL_Driver/Src/stm32h7xx_hal_flash_ex.c ****   *            @arg FLASH_BANK_1: Bank1 to be erased
 914:../../Drivers/STM32H7xx_HAL_Driver/Src/stm32h7xx_hal_flash_ex.c ****   *            @arg FLASH_BANK_2: Bank2 to be erased
 915:../../Drivers/STM32H7xx_HAL_Driver/Src/stm32h7xx_hal_flash_ex.c ****   *            @arg FLASH_BANK_BOTH: Bank1 and Bank2 to be erased
 916:../../Drivers/STM32H7xx_HAL_Driver/Src/stm32h7xx_hal_flash_ex.c ****   * @param  VoltageRange The device program/erase parallelism.
 917:../../Drivers/STM32H7xx_HAL_Driver/Src/stm32h7xx_hal_flash_ex.c ****   *          This parameter can be one of the following values:
 918:../../Drivers/STM32H7xx_HAL_Driver/Src/stm32h7xx_hal_flash_ex.c ****   *            @arg FLASH_VOLTAGE_RANGE_1 : Flash program/erase by 8 bits
 919:../../Drivers/STM32H7xx_HAL_Driver/Src/stm32h7xx_hal_flash_ex.c ****   *            @arg FLASH_VOLTAGE_RANGE_2 : Flash program/erase by 16 bits
 920:../../Drivers/STM32H7xx_HAL_Driver/Src/stm32h7xx_hal_flash_ex.c ****   *            @arg FLASH_VOLTAGE_RANGE_3 : Flash program/erase by 32 bits
 921:../../Drivers/STM32H7xx_HAL_Driver/Src/stm32h7xx_hal_flash_ex.c ****   *            @arg FLASH_VOLTAGE_RANGE_4 : Flash program/erase by 64 bits
 922:../../Drivers/STM32H7xx_HAL_Driver/Src/stm32h7xx_hal_flash_ex.c ****   *
 923:../../Drivers/STM32H7xx_HAL_Driver/Src/stm32h7xx_hal_flash_ex.c ****   * @retval None
 924:../../Drivers/STM32H7xx_HAL_Driver/Src/stm32h7xx_hal_flash_ex.c ****   */
 925:../../Drivers/STM32H7xx_HAL_Driver/Src/stm32h7xx_hal_flash_ex.c **** void FLASH_Erase_Sector(uint32_t Sector, uint32_t Banks, uint32_t VoltageRange)
 926:../../Drivers/STM32H7xx_HAL_Driver/Src/stm32h7xx_hal_flash_ex.c **** {
 927:../../Drivers/STM32H7xx_HAL_Driver/Src/stm32h7xx_hal_flash_ex.c ****   assert_param(IS_FLASH_SECTOR(Sector));
 928:../../Drivers/STM32H7xx_HAL_Driver/Src/stm32h7xx_hal_flash_ex.c ****   assert_param(IS_FLASH_BANK_EXCLUSIVE(Banks));
 929:../../Drivers/STM32H7xx_HAL_Driver/Src/stm32h7xx_hal_flash_ex.c **** #if defined (FLASH_CR_PSIZE)
 930:../../Drivers/STM32H7xx_HAL_Driver/Src/stm32h7xx_hal_flash_ex.c ****   assert_param(IS_VOLTAGERANGE(VoltageRange));
 931:../../Drivers/STM32H7xx_HAL_Driver/Src/stm32h7xx_hal_flash_ex.c **** #else
 932:../../Drivers/STM32H7xx_HAL_Driver/Src/stm32h7xx_hal_flash_ex.c ****   UNUSED(VoltageRange);
 933:../../Drivers/STM32H7xx_HAL_Driver/Src/stm32h7xx_hal_flash_ex.c **** #endif /* FLASH_CR_PSIZE */
 934:../../Drivers/STM32H7xx_HAL_Driver/Src/stm32h7xx_hal_flash_ex.c **** 
 935:../../Drivers/STM32H7xx_HAL_Driver/Src/stm32h7xx_hal_flash_ex.c ****   if((Banks & FLASH_BANK_1) == FLASH_BANK_1)
 936:../../Drivers/STM32H7xx_HAL_Driver/Src/stm32h7xx_hal_flash_ex.c ****   {
 937:../../Drivers/STM32H7xx_HAL_Driver/Src/stm32h7xx_hal_flash_ex.c **** #if defined (FLASH_CR_PSIZE)
 938:../../Drivers/STM32H7xx_HAL_Driver/Src/stm32h7xx_hal_flash_ex.c ****     /* Reset Program/erase VoltageRange and Sector Number for Bank1 */
 939:../../Drivers/STM32H7xx_HAL_Driver/Src/stm32h7xx_hal_flash_ex.c ****     FLASH->CR1 &= ~(FLASH_CR_PSIZE | FLASH_CR_SNB);
 940:../../Drivers/STM32H7xx_HAL_Driver/Src/stm32h7xx_hal_flash_ex.c **** 
ARM GAS  /tmp/ccYcJizL.s 			page 20


 941:../../Drivers/STM32H7xx_HAL_Driver/Src/stm32h7xx_hal_flash_ex.c ****     FLASH->CR1 |= (FLASH_CR_SER | VoltageRange | (Sector << FLASH_CR_SNB_Pos) | FLASH_CR_START);
 942:../../Drivers/STM32H7xx_HAL_Driver/Src/stm32h7xx_hal_flash_ex.c **** #else
 943:../../Drivers/STM32H7xx_HAL_Driver/Src/stm32h7xx_hal_flash_ex.c ****     /* Reset Sector Number for Bank1 */
 944:../../Drivers/STM32H7xx_HAL_Driver/Src/stm32h7xx_hal_flash_ex.c ****     FLASH->CR1 &= ~(FLASH_CR_SNB);
 945:../../Drivers/STM32H7xx_HAL_Driver/Src/stm32h7xx_hal_flash_ex.c **** 
 946:../../Drivers/STM32H7xx_HAL_Driver/Src/stm32h7xx_hal_flash_ex.c ****     FLASH->CR1 |= (FLASH_CR_SER | (Sector << FLASH_CR_SNB_Pos) | FLASH_CR_START);
 947:../../Drivers/STM32H7xx_HAL_Driver/Src/stm32h7xx_hal_flash_ex.c **** #endif /* FLASH_CR_PSIZE */
 948:../../Drivers/STM32H7xx_HAL_Driver/Src/stm32h7xx_hal_flash_ex.c ****   }
 949:../../Drivers/STM32H7xx_HAL_Driver/Src/stm32h7xx_hal_flash_ex.c **** 
 950:../../Drivers/STM32H7xx_HAL_Driver/Src/stm32h7xx_hal_flash_ex.c **** #if defined (DUAL_BANK)
 951:../../Drivers/STM32H7xx_HAL_Driver/Src/stm32h7xx_hal_flash_ex.c ****   if((Banks & FLASH_BANK_2) == FLASH_BANK_2)
 952:../../Drivers/STM32H7xx_HAL_Driver/Src/stm32h7xx_hal_flash_ex.c ****   {
 953:../../Drivers/STM32H7xx_HAL_Driver/Src/stm32h7xx_hal_flash_ex.c **** #if defined (FLASH_CR_PSIZE)
 954:../../Drivers/STM32H7xx_HAL_Driver/Src/stm32h7xx_hal_flash_ex.c ****     /* Reset Program/erase VoltageRange and Sector Number for Bank2 */
 955:../../Drivers/STM32H7xx_HAL_Driver/Src/stm32h7xx_hal_flash_ex.c ****     FLASH->CR2 &= ~(FLASH_CR_PSIZE | FLASH_CR_SNB);
 956:../../Drivers/STM32H7xx_HAL_Driver/Src/stm32h7xx_hal_flash_ex.c **** 
 957:../../Drivers/STM32H7xx_HAL_Driver/Src/stm32h7xx_hal_flash_ex.c ****     FLASH->CR2 |= (FLASH_CR_SER | VoltageRange  | (Sector << FLASH_CR_SNB_Pos) | FLASH_CR_START);
 958:../../Drivers/STM32H7xx_HAL_Driver/Src/stm32h7xx_hal_flash_ex.c **** #else
 959:../../Drivers/STM32H7xx_HAL_Driver/Src/stm32h7xx_hal_flash_ex.c ****     /* Reset Sector Number for Bank2 */
 960:../../Drivers/STM32H7xx_HAL_Driver/Src/stm32h7xx_hal_flash_ex.c ****     FLASH->CR2 &= ~(FLASH_CR_SNB);
 961:../../Drivers/STM32H7xx_HAL_Driver/Src/stm32h7xx_hal_flash_ex.c **** 
 962:../../Drivers/STM32H7xx_HAL_Driver/Src/stm32h7xx_hal_flash_ex.c ****     FLASH->CR2 |= (FLASH_CR_SER | (Sector << FLASH_CR_SNB_Pos) | FLASH_CR_START);
 963:../../Drivers/STM32H7xx_HAL_Driver/Src/stm32h7xx_hal_flash_ex.c **** #endif /* FLASH_CR_PSIZE */
 964:../../Drivers/STM32H7xx_HAL_Driver/Src/stm32h7xx_hal_flash_ex.c ****   }
 965:../../Drivers/STM32H7xx_HAL_Driver/Src/stm32h7xx_hal_flash_ex.c **** #endif /* DUAL_BANK */
 966:../../Drivers/STM32H7xx_HAL_Driver/Src/stm32h7xx_hal_flash_ex.c **** }
 967:../../Drivers/STM32H7xx_HAL_Driver/Src/stm32h7xx_hal_flash_ex.c **** 
 968:../../Drivers/STM32H7xx_HAL_Driver/Src/stm32h7xx_hal_flash_ex.c **** /**
 969:../../Drivers/STM32H7xx_HAL_Driver/Src/stm32h7xx_hal_flash_ex.c ****   * @brief  Enable the write protection of the desired bank1 or bank 2 sectors
 970:../../Drivers/STM32H7xx_HAL_Driver/Src/stm32h7xx_hal_flash_ex.c ****   * @param  WRPSector specifies the sector(s) to be write protected.
 971:../../Drivers/STM32H7xx_HAL_Driver/Src/stm32h7xx_hal_flash_ex.c ****   *          This parameter can be one of the following values:
 972:../../Drivers/STM32H7xx_HAL_Driver/Src/stm32h7xx_hal_flash_ex.c ****   *            @arg WRPSector:  A combination of OB_WRP_SECTOR_0 to OB_WRP_SECTOR_7 or OB_WRP_SECTO
 973:../../Drivers/STM32H7xx_HAL_Driver/Src/stm32h7xx_hal_flash_ex.c ****   *
 974:../../Drivers/STM32H7xx_HAL_Driver/Src/stm32h7xx_hal_flash_ex.c ****   * @param  Banks the specific bank to apply WRP sectors
 975:../../Drivers/STM32H7xx_HAL_Driver/Src/stm32h7xx_hal_flash_ex.c ****   *          This parameter can be one of the following values:
 976:../../Drivers/STM32H7xx_HAL_Driver/Src/stm32h7xx_hal_flash_ex.c ****   *            @arg FLASH_BANK_1: enable WRP on specified bank1 sectors
 977:../../Drivers/STM32H7xx_HAL_Driver/Src/stm32h7xx_hal_flash_ex.c ****   *            @arg FLASH_BANK_2: enable WRP on specified bank2 sectors
 978:../../Drivers/STM32H7xx_HAL_Driver/Src/stm32h7xx_hal_flash_ex.c ****   *            @arg FLASH_BANK_BOTH: enable WRP on both bank1 and bank2 specified sectors
 979:../../Drivers/STM32H7xx_HAL_Driver/Src/stm32h7xx_hal_flash_ex.c ****   *
 980:../../Drivers/STM32H7xx_HAL_Driver/Src/stm32h7xx_hal_flash_ex.c ****   * @retval HAL FLASH State
 981:../../Drivers/STM32H7xx_HAL_Driver/Src/stm32h7xx_hal_flash_ex.c ****   */
 982:../../Drivers/STM32H7xx_HAL_Driver/Src/stm32h7xx_hal_flash_ex.c **** static void FLASH_OB_EnableWRP(uint32_t WRPSector, uint32_t Banks)
 983:../../Drivers/STM32H7xx_HAL_Driver/Src/stm32h7xx_hal_flash_ex.c **** {
 136              		.loc 1 983 1 is_stmt 1 view -0
 137              		.cfi_startproc
 138              		@ args = 0, pretend = 0, frame = 0
 139              		@ frame_needed = 0, uses_anonymous_args = 0
 140              		@ link register save eliminated.
 984:../../Drivers/STM32H7xx_HAL_Driver/Src/stm32h7xx_hal_flash_ex.c ****   /* Check the parameters */
 985:../../Drivers/STM32H7xx_HAL_Driver/Src/stm32h7xx_hal_flash_ex.c ****   assert_param(IS_OB_WRP_SECTOR(WRPSector));
 141              		.loc 1 985 3 view .LVU36
 986:../../Drivers/STM32H7xx_HAL_Driver/Src/stm32h7xx_hal_flash_ex.c ****   assert_param(IS_FLASH_BANK(Banks));
 142              		.loc 1 986 3 view .LVU37
 987:../../Drivers/STM32H7xx_HAL_Driver/Src/stm32h7xx_hal_flash_ex.c **** 
 988:../../Drivers/STM32H7xx_HAL_Driver/Src/stm32h7xx_hal_flash_ex.c ****   if((Banks & FLASH_BANK_1) == FLASH_BANK_1)
 143              		.loc 1 988 3 view .LVU38
 144              		.loc 1 988 5 is_stmt 0 view .LVU39
ARM GAS  /tmp/ccYcJizL.s 			page 21


 145 0000 11F0010F 		tst	r1, #1
 146 0004 06D0     		beq	.L9
 989:../../Drivers/STM32H7xx_HAL_Driver/Src/stm32h7xx_hal_flash_ex.c ****   {
 990:../../Drivers/STM32H7xx_HAL_Driver/Src/stm32h7xx_hal_flash_ex.c ****     /* Enable Write Protection for bank 1 */
 991:../../Drivers/STM32H7xx_HAL_Driver/Src/stm32h7xx_hal_flash_ex.c ****     FLASH->WPSN_PRG1 &= (~(WRPSector & FLASH_WPSN_WRPSN));
 147              		.loc 1 991 5 is_stmt 1 view .LVU40
 148              		.loc 1 991 22 is_stmt 0 view .LVU41
 149 0006 094A     		ldr	r2, .L11
 150 0008 D36B     		ldr	r3, [r2, #60]
 151              		.loc 1 991 38 view .LVU42
 152 000a 5FFA80FC 		uxtb	ip, r0
 153              		.loc 1 991 22 view .LVU43
 154 000e 23EA0C03 		bic	r3, r3, ip
 155 0012 D363     		str	r3, [r2, #60]
 156              	.L9:
 992:../../Drivers/STM32H7xx_HAL_Driver/Src/stm32h7xx_hal_flash_ex.c ****   }
 993:../../Drivers/STM32H7xx_HAL_Driver/Src/stm32h7xx_hal_flash_ex.c **** 
 994:../../Drivers/STM32H7xx_HAL_Driver/Src/stm32h7xx_hal_flash_ex.c **** #if defined (DUAL_BANK)
 995:../../Drivers/STM32H7xx_HAL_Driver/Src/stm32h7xx_hal_flash_ex.c ****   if((Banks & FLASH_BANK_2) == FLASH_BANK_2)
 157              		.loc 1 995 3 is_stmt 1 view .LVU44
 158              		.loc 1 995 5 is_stmt 0 view .LVU45
 159 0014 11F0020F 		tst	r1, #2
 160 0018 07D0     		beq	.L8
 996:../../Drivers/STM32H7xx_HAL_Driver/Src/stm32h7xx_hal_flash_ex.c ****   {
 997:../../Drivers/STM32H7xx_HAL_Driver/Src/stm32h7xx_hal_flash_ex.c ****     /* Enable Write Protection for bank 2 */
 998:../../Drivers/STM32H7xx_HAL_Driver/Src/stm32h7xx_hal_flash_ex.c ****     FLASH->WPSN_PRG2 &= (~(WRPSector & FLASH_WPSN_WRPSN));
 161              		.loc 1 998 5 is_stmt 1 view .LVU46
 162              		.loc 1 998 22 is_stmt 0 view .LVU47
 163 001a 044A     		ldr	r2, .L11
 164 001c D2F83C31 		ldr	r3, [r2, #316]
 165              		.loc 1 998 38 view .LVU48
 166 0020 C0B2     		uxtb	r0, r0
 167              	.LVL5:
 168              		.loc 1 998 22 view .LVU49
 169 0022 23EA0000 		bic	r0, r3, r0
 170 0026 C2F83C01 		str	r0, [r2, #316]
 171              	.L8:
 999:../../Drivers/STM32H7xx_HAL_Driver/Src/stm32h7xx_hal_flash_ex.c ****   }
1000:../../Drivers/STM32H7xx_HAL_Driver/Src/stm32h7xx_hal_flash_ex.c **** #endif /* DUAL_BANK */
1001:../../Drivers/STM32H7xx_HAL_Driver/Src/stm32h7xx_hal_flash_ex.c **** }
 172              		.loc 1 1001 1 view .LVU50
 173 002a 7047     		bx	lr
 174              	.L12:
 175              		.align	2
 176              	.L11:
 177 002c 00200052 		.word	1375739904
 178              		.cfi_endproc
 179              	.LFE143:
 181              		.section	.text.FLASH_OB_DisableWRP,"ax",%progbits
 182              		.align	1
 183              		.syntax unified
 184              		.thumb
 185              		.thumb_func
 186              		.fpu fpv4-sp-d16
 188              	FLASH_OB_DisableWRP:
 189              	.LVL6:
 190              	.LFB144:
ARM GAS  /tmp/ccYcJizL.s 			page 22


1002:../../Drivers/STM32H7xx_HAL_Driver/Src/stm32h7xx_hal_flash_ex.c **** 
1003:../../Drivers/STM32H7xx_HAL_Driver/Src/stm32h7xx_hal_flash_ex.c **** /**
1004:../../Drivers/STM32H7xx_HAL_Driver/Src/stm32h7xx_hal_flash_ex.c ****   * @brief  Disable the write protection of the desired bank1 or bank 2 sectors
1005:../../Drivers/STM32H7xx_HAL_Driver/Src/stm32h7xx_hal_flash_ex.c ****   * @param  WRPSector specifies the sector(s) to disable write protection.
1006:../../Drivers/STM32H7xx_HAL_Driver/Src/stm32h7xx_hal_flash_ex.c ****   *          This parameter can be one of the following values:
1007:../../Drivers/STM32H7xx_HAL_Driver/Src/stm32h7xx_hal_flash_ex.c ****   *            @arg WRPSector:  A combination of FLASH_OB_WRP_SECTOR_0 to FLASH_OB_WRP_SECTOR_7 or 
1008:../../Drivers/STM32H7xx_HAL_Driver/Src/stm32h7xx_hal_flash_ex.c ****   *
1009:../../Drivers/STM32H7xx_HAL_Driver/Src/stm32h7xx_hal_flash_ex.c ****   * @param  Banks the specific bank to apply WRP sectors
1010:../../Drivers/STM32H7xx_HAL_Driver/Src/stm32h7xx_hal_flash_ex.c ****   *          This parameter can be one of the following values:
1011:../../Drivers/STM32H7xx_HAL_Driver/Src/stm32h7xx_hal_flash_ex.c ****   *            @arg FLASH_BANK_1: disable WRP on specified bank1 sectors
1012:../../Drivers/STM32H7xx_HAL_Driver/Src/stm32h7xx_hal_flash_ex.c ****   *            @arg FLASH_BANK_2: disable WRP on specified bank2 sectors
1013:../../Drivers/STM32H7xx_HAL_Driver/Src/stm32h7xx_hal_flash_ex.c ****   *            @arg FLASH_BANK_BOTH: disable WRP on both bank1 and bank2 specified sectors
1014:../../Drivers/STM32H7xx_HAL_Driver/Src/stm32h7xx_hal_flash_ex.c ****   *
1015:../../Drivers/STM32H7xx_HAL_Driver/Src/stm32h7xx_hal_flash_ex.c ****   * @retval HAL FLASH State
1016:../../Drivers/STM32H7xx_HAL_Driver/Src/stm32h7xx_hal_flash_ex.c ****   */
1017:../../Drivers/STM32H7xx_HAL_Driver/Src/stm32h7xx_hal_flash_ex.c **** static void FLASH_OB_DisableWRP(uint32_t WRPSector, uint32_t Banks)
1018:../../Drivers/STM32H7xx_HAL_Driver/Src/stm32h7xx_hal_flash_ex.c **** {
 191              		.loc 1 1018 1 is_stmt 1 view -0
 192              		.cfi_startproc
 193              		@ args = 0, pretend = 0, frame = 0
 194              		@ frame_needed = 0, uses_anonymous_args = 0
 195              		@ link register save eliminated.
1019:../../Drivers/STM32H7xx_HAL_Driver/Src/stm32h7xx_hal_flash_ex.c ****   /* Check the parameters */
1020:../../Drivers/STM32H7xx_HAL_Driver/Src/stm32h7xx_hal_flash_ex.c ****   assert_param(IS_OB_WRP_SECTOR(WRPSector));
 196              		.loc 1 1020 3 view .LVU52
1021:../../Drivers/STM32H7xx_HAL_Driver/Src/stm32h7xx_hal_flash_ex.c ****   assert_param(IS_FLASH_BANK(Banks));
 197              		.loc 1 1021 3 view .LVU53
1022:../../Drivers/STM32H7xx_HAL_Driver/Src/stm32h7xx_hal_flash_ex.c **** 
1023:../../Drivers/STM32H7xx_HAL_Driver/Src/stm32h7xx_hal_flash_ex.c ****   if((Banks & FLASH_BANK_1) == FLASH_BANK_1)
 198              		.loc 1 1023 3 view .LVU54
 199              		.loc 1 1023 5 is_stmt 0 view .LVU55
 200 0000 11F0010F 		tst	r1, #1
 201 0004 06D0     		beq	.L14
1024:../../Drivers/STM32H7xx_HAL_Driver/Src/stm32h7xx_hal_flash_ex.c ****   {
1025:../../Drivers/STM32H7xx_HAL_Driver/Src/stm32h7xx_hal_flash_ex.c ****     /* Disable Write Protection for bank 1 */
1026:../../Drivers/STM32H7xx_HAL_Driver/Src/stm32h7xx_hal_flash_ex.c ****     FLASH->WPSN_PRG1 |= (WRPSector & FLASH_WPSN_WRPSN);
 202              		.loc 1 1026 5 is_stmt 1 view .LVU56
 203              		.loc 1 1026 22 is_stmt 0 view .LVU57
 204 0006 094A     		ldr	r2, .L16
 205 0008 D36B     		ldr	r3, [r2, #60]
 206              		.loc 1 1026 36 view .LVU58
 207 000a 5FFA80FC 		uxtb	ip, r0
 208              		.loc 1 1026 22 view .LVU59
 209 000e 43EA0C03 		orr	r3, r3, ip
 210 0012 D363     		str	r3, [r2, #60]
 211              	.L14:
1027:../../Drivers/STM32H7xx_HAL_Driver/Src/stm32h7xx_hal_flash_ex.c ****   }
1028:../../Drivers/STM32H7xx_HAL_Driver/Src/stm32h7xx_hal_flash_ex.c **** 
1029:../../Drivers/STM32H7xx_HAL_Driver/Src/stm32h7xx_hal_flash_ex.c **** #if defined (DUAL_BANK)
1030:../../Drivers/STM32H7xx_HAL_Driver/Src/stm32h7xx_hal_flash_ex.c ****   if((Banks & FLASH_BANK_2) == FLASH_BANK_2)
 212              		.loc 1 1030 3 is_stmt 1 view .LVU60
 213              		.loc 1 1030 5 is_stmt 0 view .LVU61
 214 0014 11F0020F 		tst	r1, #2
 215 0018 06D0     		beq	.L13
1031:../../Drivers/STM32H7xx_HAL_Driver/Src/stm32h7xx_hal_flash_ex.c ****   {
1032:../../Drivers/STM32H7xx_HAL_Driver/Src/stm32h7xx_hal_flash_ex.c ****     /* Disable Write Protection for bank 2 */
1033:../../Drivers/STM32H7xx_HAL_Driver/Src/stm32h7xx_hal_flash_ex.c ****     FLASH->WPSN_PRG2 |= (WRPSector & FLASH_WPSN_WRPSN);
ARM GAS  /tmp/ccYcJizL.s 			page 23


 216              		.loc 1 1033 5 is_stmt 1 view .LVU62
 217              		.loc 1 1033 22 is_stmt 0 view .LVU63
 218 001a 044A     		ldr	r2, .L16
 219 001c D2F83C31 		ldr	r3, [r2, #316]
 220              		.loc 1 1033 36 view .LVU64
 221 0020 C0B2     		uxtb	r0, r0
 222              	.LVL7:
 223              		.loc 1 1033 22 view .LVU65
 224 0022 1843     		orrs	r0, r0, r3
 225 0024 C2F83C01 		str	r0, [r2, #316]
 226              	.L13:
1034:../../Drivers/STM32H7xx_HAL_Driver/Src/stm32h7xx_hal_flash_ex.c ****   }
1035:../../Drivers/STM32H7xx_HAL_Driver/Src/stm32h7xx_hal_flash_ex.c **** #endif /* DUAL_BANK */
1036:../../Drivers/STM32H7xx_HAL_Driver/Src/stm32h7xx_hal_flash_ex.c **** }
 227              		.loc 1 1036 1 view .LVU66
 228 0028 7047     		bx	lr
 229              	.L17:
 230 002a 00BF     		.align	2
 231              	.L16:
 232 002c 00200052 		.word	1375739904
 233              		.cfi_endproc
 234              	.LFE144:
 236              		.section	.text.FLASH_OB_GetWRP,"ax",%progbits
 237              		.align	1
 238              		.syntax unified
 239              		.thumb
 240              		.thumb_func
 241              		.fpu fpv4-sp-d16
 243              	FLASH_OB_GetWRP:
 244              	.LVL8:
 245              	.LFB145:
1037:../../Drivers/STM32H7xx_HAL_Driver/Src/stm32h7xx_hal_flash_ex.c **** 
1038:../../Drivers/STM32H7xx_HAL_Driver/Src/stm32h7xx_hal_flash_ex.c **** /**
1039:../../Drivers/STM32H7xx_HAL_Driver/Src/stm32h7xx_hal_flash_ex.c ****   * @brief  Get the write protection of the given bank 1 or bank 2 sectors
1040:../../Drivers/STM32H7xx_HAL_Driver/Src/stm32h7xx_hal_flash_ex.c ****   * @param  WRPState gives the write protection state on the given bank.
1041:../../Drivers/STM32H7xx_HAL_Driver/Src/stm32h7xx_hal_flash_ex.c ****   *          This parameter can be one of the following values:
1042:../../Drivers/STM32H7xx_HAL_Driver/Src/stm32h7xx_hal_flash_ex.c ****   *          @arg WRPState: OB_WRPSTATE_DISABLE or OB_WRPSTATE_ENABLE
1043:../../Drivers/STM32H7xx_HAL_Driver/Src/stm32h7xx_hal_flash_ex.c **** 
1044:../../Drivers/STM32H7xx_HAL_Driver/Src/stm32h7xx_hal_flash_ex.c ****   * @param  WRPSector gives the write protected sector(s) on the given bank .
1045:../../Drivers/STM32H7xx_HAL_Driver/Src/stm32h7xx_hal_flash_ex.c ****   *          This parameter can be one of the following values:
1046:../../Drivers/STM32H7xx_HAL_Driver/Src/stm32h7xx_hal_flash_ex.c ****   *          @arg WRPSector: A combination of FLASH_OB_WRP_SECTOR_0 to FLASH_OB_WRP_SECTOR_7 or FLA
1047:../../Drivers/STM32H7xx_HAL_Driver/Src/stm32h7xx_hal_flash_ex.c ****   *
1048:../../Drivers/STM32H7xx_HAL_Driver/Src/stm32h7xx_hal_flash_ex.c ****   * @param  Bank the specific bank to apply WRP sectors
1049:../../Drivers/STM32H7xx_HAL_Driver/Src/stm32h7xx_hal_flash_ex.c ****   *          This parameter can be exclusively one of the following values:
1050:../../Drivers/STM32H7xx_HAL_Driver/Src/stm32h7xx_hal_flash_ex.c ****   *            @arg FLASH_BANK_1: Get bank1 WRP sectors
1051:../../Drivers/STM32H7xx_HAL_Driver/Src/stm32h7xx_hal_flash_ex.c ****   *            @arg FLASH_BANK_2: Get bank2 WRP sectors
1052:../../Drivers/STM32H7xx_HAL_Driver/Src/stm32h7xx_hal_flash_ex.c ****   *            @arg FLASH_BANK_BOTH: note allowed in this functions
1053:../../Drivers/STM32H7xx_HAL_Driver/Src/stm32h7xx_hal_flash_ex.c ****   *
1054:../../Drivers/STM32H7xx_HAL_Driver/Src/stm32h7xx_hal_flash_ex.c ****   * @retval HAL FLASH State
1055:../../Drivers/STM32H7xx_HAL_Driver/Src/stm32h7xx_hal_flash_ex.c ****   */
1056:../../Drivers/STM32H7xx_HAL_Driver/Src/stm32h7xx_hal_flash_ex.c **** static void FLASH_OB_GetWRP(uint32_t *WRPState, uint32_t *WRPSector, uint32_t Bank)
1057:../../Drivers/STM32H7xx_HAL_Driver/Src/stm32h7xx_hal_flash_ex.c **** {
 246              		.loc 1 1057 1 is_stmt 1 view -0
 247              		.cfi_startproc
 248              		@ args = 0, pretend = 0, frame = 0
 249              		@ frame_needed = 0, uses_anonymous_args = 0
 250              		@ link register save eliminated.
ARM GAS  /tmp/ccYcJizL.s 			page 24


1058:../../Drivers/STM32H7xx_HAL_Driver/Src/stm32h7xx_hal_flash_ex.c ****   uint32_t regvalue = 0U;
 251              		.loc 1 1058 3 view .LVU68
1059:../../Drivers/STM32H7xx_HAL_Driver/Src/stm32h7xx_hal_flash_ex.c **** 
1060:../../Drivers/STM32H7xx_HAL_Driver/Src/stm32h7xx_hal_flash_ex.c ****   if(Bank == FLASH_BANK_1)
 252              		.loc 1 1060 3 view .LVU69
 253              		.loc 1 1060 5 is_stmt 0 view .LVU70
 254 0000 012A     		cmp	r2, #1
 255 0002 08D0     		beq	.L24
1058:../../Drivers/STM32H7xx_HAL_Driver/Src/stm32h7xx_hal_flash_ex.c ****   uint32_t regvalue = 0U;
 256              		.loc 1 1058 12 view .LVU71
 257 0004 0023     		movs	r3, #0
 258              	.LVL9:
 259              	.L19:
1061:../../Drivers/STM32H7xx_HAL_Driver/Src/stm32h7xx_hal_flash_ex.c ****   {
1062:../../Drivers/STM32H7xx_HAL_Driver/Src/stm32h7xx_hal_flash_ex.c ****     regvalue = FLASH->WPSN_CUR1;
1063:../../Drivers/STM32H7xx_HAL_Driver/Src/stm32h7xx_hal_flash_ex.c ****   }
1064:../../Drivers/STM32H7xx_HAL_Driver/Src/stm32h7xx_hal_flash_ex.c **** 
1065:../../Drivers/STM32H7xx_HAL_Driver/Src/stm32h7xx_hal_flash_ex.c **** #if defined (DUAL_BANK)
1066:../../Drivers/STM32H7xx_HAL_Driver/Src/stm32h7xx_hal_flash_ex.c ****   if(Bank == FLASH_BANK_2)
 260              		.loc 1 1066 3 is_stmt 1 view .LVU72
 261              		.loc 1 1066 5 is_stmt 0 view .LVU73
 262 0006 022A     		cmp	r2, #2
 263 0008 08D0     		beq	.L25
 264              	.L20:
1067:../../Drivers/STM32H7xx_HAL_Driver/Src/stm32h7xx_hal_flash_ex.c ****   {
1068:../../Drivers/STM32H7xx_HAL_Driver/Src/stm32h7xx_hal_flash_ex.c ****     regvalue = FLASH->WPSN_CUR2;
1069:../../Drivers/STM32H7xx_HAL_Driver/Src/stm32h7xx_hal_flash_ex.c ****   }
1070:../../Drivers/STM32H7xx_HAL_Driver/Src/stm32h7xx_hal_flash_ex.c **** #endif /* DUAL_BANK */
1071:../../Drivers/STM32H7xx_HAL_Driver/Src/stm32h7xx_hal_flash_ex.c **** 
1072:../../Drivers/STM32H7xx_HAL_Driver/Src/stm32h7xx_hal_flash_ex.c ****   (*WRPSector) = (~regvalue) & FLASH_WPSN_WRPSN;
 265              		.loc 1 1072 3 is_stmt 1 view .LVU74
 266              		.loc 1 1072 19 is_stmt 0 view .LVU75
 267 000a DB43     		mvns	r3, r3
 268              	.LVL10:
 269              		.loc 1 1072 30 view .LVU76
 270 000c DBB2     		uxtb	r3, r3
 271              	.LVL11:
 272              		.loc 1 1072 16 view .LVU77
 273 000e 0B60     		str	r3, [r1]
1073:../../Drivers/STM32H7xx_HAL_Driver/Src/stm32h7xx_hal_flash_ex.c **** 
1074:../../Drivers/STM32H7xx_HAL_Driver/Src/stm32h7xx_hal_flash_ex.c ****   if(*WRPSector == 0U)
 274              		.loc 1 1074 3 is_stmt 1 view .LVU78
 275              		.loc 1 1074 5 is_stmt 0 view .LVU79
 276 0010 43B9     		cbnz	r3, .L21
1075:../../Drivers/STM32H7xx_HAL_Driver/Src/stm32h7xx_hal_flash_ex.c ****   {
1076:../../Drivers/STM32H7xx_HAL_Driver/Src/stm32h7xx_hal_flash_ex.c ****     (*WRPState) = OB_WRPSTATE_DISABLE;
 277              		.loc 1 1076 5 is_stmt 1 view .LVU80
 278              		.loc 1 1076 17 is_stmt 0 view .LVU81
 279 0012 0360     		str	r3, [r0]
 280 0014 7047     		bx	lr
 281              	.LVL12:
 282              	.L24:
1062:../../Drivers/STM32H7xx_HAL_Driver/Src/stm32h7xx_hal_flash_ex.c ****   }
 283              		.loc 1 1062 5 is_stmt 1 view .LVU82
1062:../../Drivers/STM32H7xx_HAL_Driver/Src/stm32h7xx_hal_flash_ex.c ****   }
 284              		.loc 1 1062 14 is_stmt 0 view .LVU83
 285 0016 054B     		ldr	r3, .L26
ARM GAS  /tmp/ccYcJizL.s 			page 25


 286 0018 9B6B     		ldr	r3, [r3, #56]
 287              	.LVL13:
1062:../../Drivers/STM32H7xx_HAL_Driver/Src/stm32h7xx_hal_flash_ex.c ****   }
 288              		.loc 1 1062 14 view .LVU84
 289 001a F4E7     		b	.L19
 290              	.L25:
1068:../../Drivers/STM32H7xx_HAL_Driver/Src/stm32h7xx_hal_flash_ex.c ****   }
 291              		.loc 1 1068 5 is_stmt 1 view .LVU85
1068:../../Drivers/STM32H7xx_HAL_Driver/Src/stm32h7xx_hal_flash_ex.c ****   }
 292              		.loc 1 1068 14 is_stmt 0 view .LVU86
 293 001c 034B     		ldr	r3, .L26
 294              	.LVL14:
1068:../../Drivers/STM32H7xx_HAL_Driver/Src/stm32h7xx_hal_flash_ex.c ****   }
 295              		.loc 1 1068 14 view .LVU87
 296 001e D3F83831 		ldr	r3, [r3, #312]
 297              	.LVL15:
1068:../../Drivers/STM32H7xx_HAL_Driver/Src/stm32h7xx_hal_flash_ex.c ****   }
 298              		.loc 1 1068 14 view .LVU88
 299 0022 F2E7     		b	.L20
 300              	.LVL16:
 301              	.L21:
1077:../../Drivers/STM32H7xx_HAL_Driver/Src/stm32h7xx_hal_flash_ex.c ****   }
1078:../../Drivers/STM32H7xx_HAL_Driver/Src/stm32h7xx_hal_flash_ex.c ****   else
1079:../../Drivers/STM32H7xx_HAL_Driver/Src/stm32h7xx_hal_flash_ex.c ****   {
1080:../../Drivers/STM32H7xx_HAL_Driver/Src/stm32h7xx_hal_flash_ex.c ****     (*WRPState) = OB_WRPSTATE_ENABLE;
 302              		.loc 1 1080 5 is_stmt 1 view .LVU89
 303              		.loc 1 1080 17 is_stmt 0 view .LVU90
 304 0024 0123     		movs	r3, #1
 305 0026 0360     		str	r3, [r0]
1081:../../Drivers/STM32H7xx_HAL_Driver/Src/stm32h7xx_hal_flash_ex.c ****   }
1082:../../Drivers/STM32H7xx_HAL_Driver/Src/stm32h7xx_hal_flash_ex.c **** }
 306              		.loc 1 1082 1 view .LVU91
 307 0028 7047     		bx	lr
 308              	.L27:
 309 002a 00BF     		.align	2
 310              	.L26:
 311 002c 00200052 		.word	1375739904
 312              		.cfi_endproc
 313              	.LFE145:
 315              		.section	.text.FLASH_OB_RDPConfig,"ax",%progbits
 316              		.align	1
 317              		.syntax unified
 318              		.thumb
 319              		.thumb_func
 320              		.fpu fpv4-sp-d16
 322              	FLASH_OB_RDPConfig:
 323              	.LVL17:
 324              	.LFB146:
1083:../../Drivers/STM32H7xx_HAL_Driver/Src/stm32h7xx_hal_flash_ex.c **** 
1084:../../Drivers/STM32H7xx_HAL_Driver/Src/stm32h7xx_hal_flash_ex.c **** /**
1085:../../Drivers/STM32H7xx_HAL_Driver/Src/stm32h7xx_hal_flash_ex.c ****   * @brief  Set the read protection level.
1086:../../Drivers/STM32H7xx_HAL_Driver/Src/stm32h7xx_hal_flash_ex.c ****   *
1087:../../Drivers/STM32H7xx_HAL_Driver/Src/stm32h7xx_hal_flash_ex.c ****   * @note   To configure the RDP level, the option lock bit OPTLOCK must be
1088:../../Drivers/STM32H7xx_HAL_Driver/Src/stm32h7xx_hal_flash_ex.c ****   *         cleared with the call of the HAL_FLASH_OB_Unlock() function.
1089:../../Drivers/STM32H7xx_HAL_Driver/Src/stm32h7xx_hal_flash_ex.c ****   * @note   To validate the RDP level, the option bytes must be reloaded
1090:../../Drivers/STM32H7xx_HAL_Driver/Src/stm32h7xx_hal_flash_ex.c ****   *         through the call of the HAL_FLASH_OB_Launch() function.
1091:../../Drivers/STM32H7xx_HAL_Driver/Src/stm32h7xx_hal_flash_ex.c ****   * @note   !!! Warning : When enabling OB_RDP level 2 it's no more possible
ARM GAS  /tmp/ccYcJizL.s 			page 26


1092:../../Drivers/STM32H7xx_HAL_Driver/Src/stm32h7xx_hal_flash_ex.c ****   *         to go back to level 1 or 0 !!!
1093:../../Drivers/STM32H7xx_HAL_Driver/Src/stm32h7xx_hal_flash_ex.c ****   *
1094:../../Drivers/STM32H7xx_HAL_Driver/Src/stm32h7xx_hal_flash_ex.c ****   * @param  RDPLevel specifies the read protection level.
1095:../../Drivers/STM32H7xx_HAL_Driver/Src/stm32h7xx_hal_flash_ex.c ****   *         This parameter can be one of the following values:
1096:../../Drivers/STM32H7xx_HAL_Driver/Src/stm32h7xx_hal_flash_ex.c ****   *            @arg OB_RDP_LEVEL_0: No protection
1097:../../Drivers/STM32H7xx_HAL_Driver/Src/stm32h7xx_hal_flash_ex.c ****   *            @arg OB_RDP_LEVEL_1: Read protection of the memory
1098:../../Drivers/STM32H7xx_HAL_Driver/Src/stm32h7xx_hal_flash_ex.c ****   *            @arg OB_RDP_LEVEL_2: Full chip protection
1099:../../Drivers/STM32H7xx_HAL_Driver/Src/stm32h7xx_hal_flash_ex.c ****   *
1100:../../Drivers/STM32H7xx_HAL_Driver/Src/stm32h7xx_hal_flash_ex.c ****   * @retval HAL status
1101:../../Drivers/STM32H7xx_HAL_Driver/Src/stm32h7xx_hal_flash_ex.c ****   */
1102:../../Drivers/STM32H7xx_HAL_Driver/Src/stm32h7xx_hal_flash_ex.c **** static void FLASH_OB_RDPConfig(uint32_t RDPLevel)
1103:../../Drivers/STM32H7xx_HAL_Driver/Src/stm32h7xx_hal_flash_ex.c **** {
 325              		.loc 1 1103 1 is_stmt 1 view -0
 326              		.cfi_startproc
 327              		@ args = 0, pretend = 0, frame = 0
 328              		@ frame_needed = 0, uses_anonymous_args = 0
 329              		@ link register save eliminated.
1104:../../Drivers/STM32H7xx_HAL_Driver/Src/stm32h7xx_hal_flash_ex.c ****   /* Check the parameters */
1105:../../Drivers/STM32H7xx_HAL_Driver/Src/stm32h7xx_hal_flash_ex.c ****   assert_param(IS_OB_RDP_LEVEL(RDPLevel));
 330              		.loc 1 1105 3 view .LVU93
1106:../../Drivers/STM32H7xx_HAL_Driver/Src/stm32h7xx_hal_flash_ex.c **** 
1107:../../Drivers/STM32H7xx_HAL_Driver/Src/stm32h7xx_hal_flash_ex.c ****   /* Configure the RDP level in the option bytes register */
1108:../../Drivers/STM32H7xx_HAL_Driver/Src/stm32h7xx_hal_flash_ex.c ****   MODIFY_REG(FLASH->OPTSR_PRG, FLASH_OPTSR_RDP, RDPLevel);
 331              		.loc 1 1108 3 view .LVU94
 332 0000 034A     		ldr	r2, .L29
 333 0002 136A     		ldr	r3, [r2, #32]
 334 0004 23F47F43 		bic	r3, r3, #65280
 335 0008 0343     		orrs	r3, r3, r0
 336 000a 1362     		str	r3, [r2, #32]
1109:../../Drivers/STM32H7xx_HAL_Driver/Src/stm32h7xx_hal_flash_ex.c **** }
 337              		.loc 1 1109 1 is_stmt 0 view .LVU95
 338 000c 7047     		bx	lr
 339              	.L30:
 340 000e 00BF     		.align	2
 341              	.L29:
 342 0010 00200052 		.word	1375739904
 343              		.cfi_endproc
 344              	.LFE146:
 346              		.section	.text.FLASH_OB_GetRDP,"ax",%progbits
 347              		.align	1
 348              		.syntax unified
 349              		.thumb
 350              		.thumb_func
 351              		.fpu fpv4-sp-d16
 353              	FLASH_OB_GetRDP:
 354              	.LFB147:
1110:../../Drivers/STM32H7xx_HAL_Driver/Src/stm32h7xx_hal_flash_ex.c **** 
1111:../../Drivers/STM32H7xx_HAL_Driver/Src/stm32h7xx_hal_flash_ex.c **** /**
1112:../../Drivers/STM32H7xx_HAL_Driver/Src/stm32h7xx_hal_flash_ex.c ****   * @brief  Get the read protection level.
1113:../../Drivers/STM32H7xx_HAL_Driver/Src/stm32h7xx_hal_flash_ex.c ****   * @retval RDPLevel specifies the read protection level.
1114:../../Drivers/STM32H7xx_HAL_Driver/Src/stm32h7xx_hal_flash_ex.c ****   *         This return value can be one of the following values:
1115:../../Drivers/STM32H7xx_HAL_Driver/Src/stm32h7xx_hal_flash_ex.c ****   *            @arg OB_RDP_LEVEL_0: No protection
1116:../../Drivers/STM32H7xx_HAL_Driver/Src/stm32h7xx_hal_flash_ex.c ****   *            @arg OB_RDP_LEVEL_1: Read protection of the memory
1117:../../Drivers/STM32H7xx_HAL_Driver/Src/stm32h7xx_hal_flash_ex.c ****   *            @arg OB_RDP_LEVEL_2: Full chip protection
1118:../../Drivers/STM32H7xx_HAL_Driver/Src/stm32h7xx_hal_flash_ex.c ****   */
1119:../../Drivers/STM32H7xx_HAL_Driver/Src/stm32h7xx_hal_flash_ex.c **** static uint32_t FLASH_OB_GetRDP(void)
1120:../../Drivers/STM32H7xx_HAL_Driver/Src/stm32h7xx_hal_flash_ex.c **** {
ARM GAS  /tmp/ccYcJizL.s 			page 27


 355              		.loc 1 1120 1 is_stmt 1 view -0
 356              		.cfi_startproc
 357              		@ args = 0, pretend = 0, frame = 0
 358              		@ frame_needed = 0, uses_anonymous_args = 0
 359              		@ link register save eliminated.
1121:../../Drivers/STM32H7xx_HAL_Driver/Src/stm32h7xx_hal_flash_ex.c ****   uint32_t rdp_level = READ_BIT(FLASH->OPTSR_CUR, FLASH_OPTSR_RDP);
 360              		.loc 1 1121 3 view .LVU97
 361              		.loc 1 1121 24 is_stmt 0 view .LVU98
 362 0000 064B     		ldr	r3, .L34
 363 0002 D869     		ldr	r0, [r3, #28]
 364              		.loc 1 1121 12 view .LVU99
 365 0004 00F47F40 		and	r0, r0, #65280
 366              	.LVL18:
1122:../../Drivers/STM32H7xx_HAL_Driver/Src/stm32h7xx_hal_flash_ex.c ****   
1123:../../Drivers/STM32H7xx_HAL_Driver/Src/stm32h7xx_hal_flash_ex.c ****   if ((rdp_level != OB_RDP_LEVEL_0) && (rdp_level != OB_RDP_LEVEL_2))
 367              		.loc 1 1123 3 is_stmt 1 view .LVU100
 368              		.loc 1 1123 6 is_stmt 0 view .LVU101
 369 0008 B0F52A4F 		cmp	r0, #43520
 370 000c 18BF     		it	ne
 371 000e B0F54C4F 		cmpne	r0, #52224
 372 0012 00D1     		bne	.L33
 373              	.LVL19:
 374              	.L31:
1124:../../Drivers/STM32H7xx_HAL_Driver/Src/stm32h7xx_hal_flash_ex.c ****   {
1125:../../Drivers/STM32H7xx_HAL_Driver/Src/stm32h7xx_hal_flash_ex.c ****     return (OB_RDP_LEVEL_1);
1126:../../Drivers/STM32H7xx_HAL_Driver/Src/stm32h7xx_hal_flash_ex.c ****   }
1127:../../Drivers/STM32H7xx_HAL_Driver/Src/stm32h7xx_hal_flash_ex.c ****   else
1128:../../Drivers/STM32H7xx_HAL_Driver/Src/stm32h7xx_hal_flash_ex.c ****   {
1129:../../Drivers/STM32H7xx_HAL_Driver/Src/stm32h7xx_hal_flash_ex.c ****     return rdp_level;
1130:../../Drivers/STM32H7xx_HAL_Driver/Src/stm32h7xx_hal_flash_ex.c ****   }
1131:../../Drivers/STM32H7xx_HAL_Driver/Src/stm32h7xx_hal_flash_ex.c **** }
 375              		.loc 1 1131 1 view .LVU102
 376 0014 7047     		bx	lr
 377              	.LVL20:
 378              	.L33:
1125:../../Drivers/STM32H7xx_HAL_Driver/Src/stm32h7xx_hal_flash_ex.c ****   }
 379              		.loc 1 1125 12 view .LVU103
 380 0016 4FF4AA40 		mov	r0, #21760
 381              	.LVL21:
1125:../../Drivers/STM32H7xx_HAL_Driver/Src/stm32h7xx_hal_flash_ex.c ****   }
 382              		.loc 1 1125 12 view .LVU104
 383 001a FBE7     		b	.L31
 384              	.L35:
 385              		.align	2
 386              	.L34:
 387 001c 00200052 		.word	1375739904
 388              		.cfi_endproc
 389              	.LFE147:
 391              		.section	.text.FLASH_OB_UserConfig,"ax",%progbits
 392              		.align	1
 393              		.syntax unified
 394              		.thumb
 395              		.thumb_func
 396              		.fpu fpv4-sp-d16
 398              	FLASH_OB_UserConfig:
 399              	.LVL22:
 400              	.LFB148:
ARM GAS  /tmp/ccYcJizL.s 			page 28


1132:../../Drivers/STM32H7xx_HAL_Driver/Src/stm32h7xx_hal_flash_ex.c **** 
1133:../../Drivers/STM32H7xx_HAL_Driver/Src/stm32h7xx_hal_flash_ex.c **** #if defined(DUAL_CORE)
1134:../../Drivers/STM32H7xx_HAL_Driver/Src/stm32h7xx_hal_flash_ex.c **** /**
1135:../../Drivers/STM32H7xx_HAL_Driver/Src/stm32h7xx_hal_flash_ex.c ****   * @brief  Program the FLASH User Option Byte.
1136:../../Drivers/STM32H7xx_HAL_Driver/Src/stm32h7xx_hal_flash_ex.c ****   *
1137:../../Drivers/STM32H7xx_HAL_Driver/Src/stm32h7xx_hal_flash_ex.c ****   * @note   To configure the user option bytes, the option lock bit OPTLOCK must
1138:../../Drivers/STM32H7xx_HAL_Driver/Src/stm32h7xx_hal_flash_ex.c ****   *         be cleared with the call of the HAL_FLASH_OB_Unlock() function.
1139:../../Drivers/STM32H7xx_HAL_Driver/Src/stm32h7xx_hal_flash_ex.c ****   *
1140:../../Drivers/STM32H7xx_HAL_Driver/Src/stm32h7xx_hal_flash_ex.c ****   * @note   To validate the user option bytes, the option bytes must be reloaded
1141:../../Drivers/STM32H7xx_HAL_Driver/Src/stm32h7xx_hal_flash_ex.c ****   *         through the call of the HAL_FLASH_OB_Launch() function.
1142:../../Drivers/STM32H7xx_HAL_Driver/Src/stm32h7xx_hal_flash_ex.c ****   *
1143:../../Drivers/STM32H7xx_HAL_Driver/Src/stm32h7xx_hal_flash_ex.c ****   * @param  UserType The FLASH User Option Bytes to be modified :
1144:../../Drivers/STM32H7xx_HAL_Driver/Src/stm32h7xx_hal_flash_ex.c ****   *                   a combination of @ref FLASHEx_OB_USER_Type
1145:../../Drivers/STM32H7xx_HAL_Driver/Src/stm32h7xx_hal_flash_ex.c ****   *
1146:../../Drivers/STM32H7xx_HAL_Driver/Src/stm32h7xx_hal_flash_ex.c ****   * @param  UserConfig The FLASH User Option Bytes values:
1147:../../Drivers/STM32H7xx_HAL_Driver/Src/stm32h7xx_hal_flash_ex.c ****   *         IWDG1_SW(Bit4), IWDG2_SW(Bit 5), nRST_STOP_D1(Bit 6), nRST_STDY_D1(Bit 7),
1148:../../Drivers/STM32H7xx_HAL_Driver/Src/stm32h7xx_hal_flash_ex.c ****   *         FZ_IWDG_STOP(Bit 17), FZ_IWDG_SDBY(Bit 18), ST_RAM_SIZE(Bit[19:20]),
1149:../../Drivers/STM32H7xx_HAL_Driver/Src/stm32h7xx_hal_flash_ex.c ****   *         SECURITY(Bit 21), BCM4(Bit 22), BCM7(Bit 23), nRST_STOP_D2(Bit 24),
1150:../../Drivers/STM32H7xx_HAL_Driver/Src/stm32h7xx_hal_flash_ex.c ****   *         nRST_STDY_D2(Bit 25), IO_HSLV (Bit 29) and SWAP_BANK_OPT(Bit 31).
1151:../../Drivers/STM32H7xx_HAL_Driver/Src/stm32h7xx_hal_flash_ex.c ****   *
1152:../../Drivers/STM32H7xx_HAL_Driver/Src/stm32h7xx_hal_flash_ex.c ****   * @retval HAL status
1153:../../Drivers/STM32H7xx_HAL_Driver/Src/stm32h7xx_hal_flash_ex.c ****   */
1154:../../Drivers/STM32H7xx_HAL_Driver/Src/stm32h7xx_hal_flash_ex.c **** #else
1155:../../Drivers/STM32H7xx_HAL_Driver/Src/stm32h7xx_hal_flash_ex.c **** /**
1156:../../Drivers/STM32H7xx_HAL_Driver/Src/stm32h7xx_hal_flash_ex.c ****   * @brief  Program the FLASH User Option Byte.
1157:../../Drivers/STM32H7xx_HAL_Driver/Src/stm32h7xx_hal_flash_ex.c ****   *
1158:../../Drivers/STM32H7xx_HAL_Driver/Src/stm32h7xx_hal_flash_ex.c ****   * @note   To configure the user option bytes, the option lock bit OPTLOCK must
1159:../../Drivers/STM32H7xx_HAL_Driver/Src/stm32h7xx_hal_flash_ex.c ****   *         be cleared with the call of the HAL_FLASH_OB_Unlock() function.
1160:../../Drivers/STM32H7xx_HAL_Driver/Src/stm32h7xx_hal_flash_ex.c ****   *
1161:../../Drivers/STM32H7xx_HAL_Driver/Src/stm32h7xx_hal_flash_ex.c ****   * @note   To validate the user option bytes, the option bytes must be reloaded
1162:../../Drivers/STM32H7xx_HAL_Driver/Src/stm32h7xx_hal_flash_ex.c ****   *         through the call of the HAL_FLASH_OB_Launch() function.
1163:../../Drivers/STM32H7xx_HAL_Driver/Src/stm32h7xx_hal_flash_ex.c ****   *
1164:../../Drivers/STM32H7xx_HAL_Driver/Src/stm32h7xx_hal_flash_ex.c ****   * @param  UserType The FLASH User Option Bytes to be modified :
1165:../../Drivers/STM32H7xx_HAL_Driver/Src/stm32h7xx_hal_flash_ex.c ****   *                   a combination of @arg FLASHEx_OB_USER_Type
1166:../../Drivers/STM32H7xx_HAL_Driver/Src/stm32h7xx_hal_flash_ex.c ****   *
1167:../../Drivers/STM32H7xx_HAL_Driver/Src/stm32h7xx_hal_flash_ex.c ****   * @param  UserConfig The FLASH User Option Bytes values:
1168:../../Drivers/STM32H7xx_HAL_Driver/Src/stm32h7xx_hal_flash_ex.c ****   *         IWDG_SW(Bit4), nRST_STOP_D1(Bit 6), nRST_STDY_D1(Bit 7),
1169:../../Drivers/STM32H7xx_HAL_Driver/Src/stm32h7xx_hal_flash_ex.c ****   *         FZ_IWDG_STOP(Bit 17), FZ_IWDG_SDBY(Bit 18), ST_RAM_SIZE(Bit[19:20]),
1170:../../Drivers/STM32H7xx_HAL_Driver/Src/stm32h7xx_hal_flash_ex.c ****   *         SECURITY(Bit 21), IO_HSLV (Bit 29) and SWAP_BANK_OPT(Bit 31).
1171:../../Drivers/STM32H7xx_HAL_Driver/Src/stm32h7xx_hal_flash_ex.c ****   *
1172:../../Drivers/STM32H7xx_HAL_Driver/Src/stm32h7xx_hal_flash_ex.c ****   * @retval HAL status
1173:../../Drivers/STM32H7xx_HAL_Driver/Src/stm32h7xx_hal_flash_ex.c ****   */
1174:../../Drivers/STM32H7xx_HAL_Driver/Src/stm32h7xx_hal_flash_ex.c **** #endif /*DUAL_CORE*/
1175:../../Drivers/STM32H7xx_HAL_Driver/Src/stm32h7xx_hal_flash_ex.c **** static void FLASH_OB_UserConfig(uint32_t UserType, uint32_t UserConfig)
1176:../../Drivers/STM32H7xx_HAL_Driver/Src/stm32h7xx_hal_flash_ex.c **** {
 401              		.loc 1 1176 1 is_stmt 1 view -0
 402              		.cfi_startproc
 403              		@ args = 0, pretend = 0, frame = 0
 404              		@ frame_needed = 0, uses_anonymous_args = 0
 405              		.loc 1 1176 1 is_stmt 0 view .LVU106
 406 0000 00B5     		push	{lr}
 407              	.LCFI0:
 408              		.cfi_def_cfa_offset 4
 409              		.cfi_offset 14, -4
1177:../../Drivers/STM32H7xx_HAL_Driver/Src/stm32h7xx_hal_flash_ex.c ****   uint32_t optr_reg_val = 0;
 410              		.loc 1 1177 3 is_stmt 1 view .LVU107
 411              	.LVL23:
ARM GAS  /tmp/ccYcJizL.s 			page 29


1178:../../Drivers/STM32H7xx_HAL_Driver/Src/stm32h7xx_hal_flash_ex.c ****   uint32_t optr_reg_mask = 0;
 412              		.loc 1 1178 3 view .LVU108
1179:../../Drivers/STM32H7xx_HAL_Driver/Src/stm32h7xx_hal_flash_ex.c **** 
1180:../../Drivers/STM32H7xx_HAL_Driver/Src/stm32h7xx_hal_flash_ex.c ****   /* Check the parameters */
1181:../../Drivers/STM32H7xx_HAL_Driver/Src/stm32h7xx_hal_flash_ex.c ****   assert_param(IS_OB_USER_TYPE(UserType));
 413              		.loc 1 1181 3 view .LVU109
1182:../../Drivers/STM32H7xx_HAL_Driver/Src/stm32h7xx_hal_flash_ex.c **** 
1183:../../Drivers/STM32H7xx_HAL_Driver/Src/stm32h7xx_hal_flash_ex.c ****   if((UserType & OB_USER_IWDG1_SW) != 0U)
 414              		.loc 1 1183 3 view .LVU110
 415              		.loc 1 1183 5 is_stmt 0 view .LVU111
 416 0002 10F0010C 		ands	ip, r0, #1
 417 0006 00F08280 		beq	.L51
1184:../../Drivers/STM32H7xx_HAL_Driver/Src/stm32h7xx_hal_flash_ex.c ****   {
1185:../../Drivers/STM32H7xx_HAL_Driver/Src/stm32h7xx_hal_flash_ex.c ****     /* IWDG_HW option byte should be modified */
1186:../../Drivers/STM32H7xx_HAL_Driver/Src/stm32h7xx_hal_flash_ex.c ****     assert_param(IS_OB_IWDG1_SOURCE(UserConfig & FLASH_OPTSR_IWDG1_SW));
 418              		.loc 1 1186 5 is_stmt 1 view .LVU112
1187:../../Drivers/STM32H7xx_HAL_Driver/Src/stm32h7xx_hal_flash_ex.c **** 
1188:../../Drivers/STM32H7xx_HAL_Driver/Src/stm32h7xx_hal_flash_ex.c ****     /* Set value and mask for IWDG_HW option byte */
1189:../../Drivers/STM32H7xx_HAL_Driver/Src/stm32h7xx_hal_flash_ex.c ****     optr_reg_val |= (UserConfig & FLASH_OPTSR_IWDG1_SW);
 419              		.loc 1 1189 5 view .LVU113
 420              		.loc 1 1189 33 is_stmt 0 view .LVU114
 421 000a 01F0100C 		and	ip, r1, #16
 422              	.LVL24:
1190:../../Drivers/STM32H7xx_HAL_Driver/Src/stm32h7xx_hal_flash_ex.c ****     optr_reg_mask |= FLASH_OPTSR_IWDG1_SW;
 423              		.loc 1 1190 5 is_stmt 1 view .LVU115
 424              		.loc 1 1190 19 is_stmt 0 view .LVU116
 425 000e 4FF0100E 		mov	lr, #16
 426              	.LVL25:
 427              	.L37:
1191:../../Drivers/STM32H7xx_HAL_Driver/Src/stm32h7xx_hal_flash_ex.c ****   }
1192:../../Drivers/STM32H7xx_HAL_Driver/Src/stm32h7xx_hal_flash_ex.c **** #if defined(DUAL_CORE)
1193:../../Drivers/STM32H7xx_HAL_Driver/Src/stm32h7xx_hal_flash_ex.c ****   if((UserType & OB_USER_IWDG2_SW) != 0U)
 428              		.loc 1 1193 3 is_stmt 1 view .LVU117
 429              		.loc 1 1193 5 is_stmt 0 view .LVU118
 430 0012 10F4007F 		tst	r0, #512
 431 0016 05D0     		beq	.L38
1194:../../Drivers/STM32H7xx_HAL_Driver/Src/stm32h7xx_hal_flash_ex.c ****   {
1195:../../Drivers/STM32H7xx_HAL_Driver/Src/stm32h7xx_hal_flash_ex.c ****     /* IWDG2_SW option byte should be modified */
1196:../../Drivers/STM32H7xx_HAL_Driver/Src/stm32h7xx_hal_flash_ex.c ****     assert_param(IS_OB_IWDG2_SOURCE(UserConfig & FLASH_OPTSR_IWDG2_SW));
 432              		.loc 1 1196 5 is_stmt 1 view .LVU119
1197:../../Drivers/STM32H7xx_HAL_Driver/Src/stm32h7xx_hal_flash_ex.c **** 
1198:../../Drivers/STM32H7xx_HAL_Driver/Src/stm32h7xx_hal_flash_ex.c ****     /* Set value and mask for IWDG2_SW option byte */
1199:../../Drivers/STM32H7xx_HAL_Driver/Src/stm32h7xx_hal_flash_ex.c ****     optr_reg_val |= (UserConfig & FLASH_OPTSR_IWDG2_SW);
 433              		.loc 1 1199 5 view .LVU120
 434              		.loc 1 1199 33 is_stmt 0 view .LVU121
 435 0018 01F02003 		and	r3, r1, #32
 436              		.loc 1 1199 18 view .LVU122
 437 001c 4CEA030C 		orr	ip, ip, r3
 438              	.LVL26:
1200:../../Drivers/STM32H7xx_HAL_Driver/Src/stm32h7xx_hal_flash_ex.c ****     optr_reg_mask |= FLASH_OPTSR_IWDG2_SW;
 439              		.loc 1 1200 5 is_stmt 1 view .LVU123
 440              		.loc 1 1200 19 is_stmt 0 view .LVU124
 441 0020 4EF0200E 		orr	lr, lr, #32
 442              	.LVL27:
 443              	.L38:
1201:../../Drivers/STM32H7xx_HAL_Driver/Src/stm32h7xx_hal_flash_ex.c ****   }
1202:../../Drivers/STM32H7xx_HAL_Driver/Src/stm32h7xx_hal_flash_ex.c **** #endif /*DUAL_CORE*/
ARM GAS  /tmp/ccYcJizL.s 			page 30


1203:../../Drivers/STM32H7xx_HAL_Driver/Src/stm32h7xx_hal_flash_ex.c ****   if((UserType & OB_USER_NRST_STOP_D1) != 0U)
 444              		.loc 1 1203 3 is_stmt 1 view .LVU125
 445              		.loc 1 1203 5 is_stmt 0 view .LVU126
 446 0024 10F0020F 		tst	r0, #2
 447 0028 05D0     		beq	.L39
1204:../../Drivers/STM32H7xx_HAL_Driver/Src/stm32h7xx_hal_flash_ex.c ****   {
1205:../../Drivers/STM32H7xx_HAL_Driver/Src/stm32h7xx_hal_flash_ex.c ****     /* NRST_STOP option byte should be modified */
1206:../../Drivers/STM32H7xx_HAL_Driver/Src/stm32h7xx_hal_flash_ex.c ****     assert_param(IS_OB_STOP_D1_RESET(UserConfig & FLASH_OPTSR_NRST_STOP_D1));
 448              		.loc 1 1206 5 is_stmt 1 view .LVU127
1207:../../Drivers/STM32H7xx_HAL_Driver/Src/stm32h7xx_hal_flash_ex.c **** 
1208:../../Drivers/STM32H7xx_HAL_Driver/Src/stm32h7xx_hal_flash_ex.c ****     /* Set value and mask for NRST_STOP option byte */
1209:../../Drivers/STM32H7xx_HAL_Driver/Src/stm32h7xx_hal_flash_ex.c ****     optr_reg_val |= (UserConfig & FLASH_OPTSR_NRST_STOP_D1);
 449              		.loc 1 1209 5 view .LVU128
 450              		.loc 1 1209 33 is_stmt 0 view .LVU129
 451 002a 01F04003 		and	r3, r1, #64
 452              		.loc 1 1209 18 view .LVU130
 453 002e 4CEA030C 		orr	ip, ip, r3
 454              	.LVL28:
1210:../../Drivers/STM32H7xx_HAL_Driver/Src/stm32h7xx_hal_flash_ex.c ****     optr_reg_mask |= FLASH_OPTSR_NRST_STOP_D1;
 455              		.loc 1 1210 5 is_stmt 1 view .LVU131
 456              		.loc 1 1210 19 is_stmt 0 view .LVU132
 457 0032 4EF0400E 		orr	lr, lr, #64
 458              	.LVL29:
 459              	.L39:
1211:../../Drivers/STM32H7xx_HAL_Driver/Src/stm32h7xx_hal_flash_ex.c ****   }
1212:../../Drivers/STM32H7xx_HAL_Driver/Src/stm32h7xx_hal_flash_ex.c **** 
1213:../../Drivers/STM32H7xx_HAL_Driver/Src/stm32h7xx_hal_flash_ex.c ****   if((UserType & OB_USER_NRST_STDBY_D1) != 0U)
 460              		.loc 1 1213 3 is_stmt 1 view .LVU133
 461              		.loc 1 1213 5 is_stmt 0 view .LVU134
 462 0036 10F0040F 		tst	r0, #4
 463 003a 05D0     		beq	.L40
1214:../../Drivers/STM32H7xx_HAL_Driver/Src/stm32h7xx_hal_flash_ex.c ****   {
1215:../../Drivers/STM32H7xx_HAL_Driver/Src/stm32h7xx_hal_flash_ex.c ****     /* NRST_STDBY option byte should be modified */
1216:../../Drivers/STM32H7xx_HAL_Driver/Src/stm32h7xx_hal_flash_ex.c ****     assert_param(IS_OB_STDBY_D1_RESET(UserConfig & FLASH_OPTSR_NRST_STBY_D1));
 464              		.loc 1 1216 5 is_stmt 1 view .LVU135
1217:../../Drivers/STM32H7xx_HAL_Driver/Src/stm32h7xx_hal_flash_ex.c **** 
1218:../../Drivers/STM32H7xx_HAL_Driver/Src/stm32h7xx_hal_flash_ex.c ****     /* Set value and mask for NRST_STDBY option byte */
1219:../../Drivers/STM32H7xx_HAL_Driver/Src/stm32h7xx_hal_flash_ex.c ****     optr_reg_val |= (UserConfig & FLASH_OPTSR_NRST_STBY_D1);
 465              		.loc 1 1219 5 view .LVU136
 466              		.loc 1 1219 33 is_stmt 0 view .LVU137
 467 003c 01F08003 		and	r3, r1, #128
 468              		.loc 1 1219 18 view .LVU138
 469 0040 4CEA030C 		orr	ip, ip, r3
 470              	.LVL30:
1220:../../Drivers/STM32H7xx_HAL_Driver/Src/stm32h7xx_hal_flash_ex.c ****     optr_reg_mask |= FLASH_OPTSR_NRST_STBY_D1;
 471              		.loc 1 1220 5 is_stmt 1 view .LVU139
 472              		.loc 1 1220 19 is_stmt 0 view .LVU140
 473 0044 4EF0800E 		orr	lr, lr, #128
 474              	.LVL31:
 475              	.L40:
1221:../../Drivers/STM32H7xx_HAL_Driver/Src/stm32h7xx_hal_flash_ex.c ****   }
1222:../../Drivers/STM32H7xx_HAL_Driver/Src/stm32h7xx_hal_flash_ex.c **** 
1223:../../Drivers/STM32H7xx_HAL_Driver/Src/stm32h7xx_hal_flash_ex.c ****   if((UserType & OB_USER_IWDG_STOP) != 0U)
 476              		.loc 1 1223 3 is_stmt 1 view .LVU141
 477              		.loc 1 1223 5 is_stmt 0 view .LVU142
 478 0048 10F0080F 		tst	r0, #8
 479 004c 05D0     		beq	.L41
ARM GAS  /tmp/ccYcJizL.s 			page 31


1224:../../Drivers/STM32H7xx_HAL_Driver/Src/stm32h7xx_hal_flash_ex.c ****   {
1225:../../Drivers/STM32H7xx_HAL_Driver/Src/stm32h7xx_hal_flash_ex.c ****     /* IWDG_STOP option byte should be modified */
1226:../../Drivers/STM32H7xx_HAL_Driver/Src/stm32h7xx_hal_flash_ex.c ****     assert_param(IS_OB_USER_IWDG_STOP(UserConfig & FLASH_OPTSR_FZ_IWDG_STOP));
 480              		.loc 1 1226 5 is_stmt 1 view .LVU143
1227:../../Drivers/STM32H7xx_HAL_Driver/Src/stm32h7xx_hal_flash_ex.c **** 
1228:../../Drivers/STM32H7xx_HAL_Driver/Src/stm32h7xx_hal_flash_ex.c ****     /* Set value and mask for IWDG_STOP option byte */
1229:../../Drivers/STM32H7xx_HAL_Driver/Src/stm32h7xx_hal_flash_ex.c ****     optr_reg_val |= (UserConfig & FLASH_OPTSR_FZ_IWDG_STOP);
 481              		.loc 1 1229 5 view .LVU144
 482              		.loc 1 1229 33 is_stmt 0 view .LVU145
 483 004e 01F40033 		and	r3, r1, #131072
 484              		.loc 1 1229 18 view .LVU146
 485 0052 4CEA030C 		orr	ip, ip, r3
 486              	.LVL32:
1230:../../Drivers/STM32H7xx_HAL_Driver/Src/stm32h7xx_hal_flash_ex.c ****     optr_reg_mask |= FLASH_OPTSR_FZ_IWDG_STOP;
 487              		.loc 1 1230 5 is_stmt 1 view .LVU147
 488              		.loc 1 1230 19 is_stmt 0 view .LVU148
 489 0056 4EF4003E 		orr	lr, lr, #131072
 490              	.LVL33:
 491              	.L41:
1231:../../Drivers/STM32H7xx_HAL_Driver/Src/stm32h7xx_hal_flash_ex.c ****   }
1232:../../Drivers/STM32H7xx_HAL_Driver/Src/stm32h7xx_hal_flash_ex.c **** 
1233:../../Drivers/STM32H7xx_HAL_Driver/Src/stm32h7xx_hal_flash_ex.c ****   if((UserType & OB_USER_IWDG_STDBY) != 0U)
 492              		.loc 1 1233 3 is_stmt 1 view .LVU149
 493              		.loc 1 1233 5 is_stmt 0 view .LVU150
 494 005a 10F0100F 		tst	r0, #16
 495 005e 05D0     		beq	.L42
1234:../../Drivers/STM32H7xx_HAL_Driver/Src/stm32h7xx_hal_flash_ex.c ****   {
1235:../../Drivers/STM32H7xx_HAL_Driver/Src/stm32h7xx_hal_flash_ex.c ****     /* IWDG_STDBY option byte should be modified */
1236:../../Drivers/STM32H7xx_HAL_Driver/Src/stm32h7xx_hal_flash_ex.c ****     assert_param(IS_OB_USER_IWDG_STDBY(UserConfig & FLASH_OPTSR_FZ_IWDG_SDBY));
 496              		.loc 1 1236 5 is_stmt 1 view .LVU151
1237:../../Drivers/STM32H7xx_HAL_Driver/Src/stm32h7xx_hal_flash_ex.c **** 
1238:../../Drivers/STM32H7xx_HAL_Driver/Src/stm32h7xx_hal_flash_ex.c ****     /* Set value and mask for IWDG_STDBY option byte */
1239:../../Drivers/STM32H7xx_HAL_Driver/Src/stm32h7xx_hal_flash_ex.c ****     optr_reg_val |= (UserConfig & FLASH_OPTSR_FZ_IWDG_SDBY);
 497              		.loc 1 1239 5 view .LVU152
 498              		.loc 1 1239 33 is_stmt 0 view .LVU153
 499 0060 01F48023 		and	r3, r1, #262144
 500              		.loc 1 1239 18 view .LVU154
 501 0064 4CEA030C 		orr	ip, ip, r3
 502              	.LVL34:
1240:../../Drivers/STM32H7xx_HAL_Driver/Src/stm32h7xx_hal_flash_ex.c ****     optr_reg_mask |= FLASH_OPTSR_FZ_IWDG_SDBY;
 503              		.loc 1 1240 5 is_stmt 1 view .LVU155
 504              		.loc 1 1240 19 is_stmt 0 view .LVU156
 505 0068 4EF4802E 		orr	lr, lr, #262144
 506              	.LVL35:
 507              	.L42:
1241:../../Drivers/STM32H7xx_HAL_Driver/Src/stm32h7xx_hal_flash_ex.c ****   }
1242:../../Drivers/STM32H7xx_HAL_Driver/Src/stm32h7xx_hal_flash_ex.c **** 
1243:../../Drivers/STM32H7xx_HAL_Driver/Src/stm32h7xx_hal_flash_ex.c ****   if((UserType & OB_USER_ST_RAM_SIZE) != 0U)
 508              		.loc 1 1243 3 is_stmt 1 view .LVU157
 509              		.loc 1 1243 5 is_stmt 0 view .LVU158
 510 006c 10F0200F 		tst	r0, #32
 511 0070 05D0     		beq	.L43
1244:../../Drivers/STM32H7xx_HAL_Driver/Src/stm32h7xx_hal_flash_ex.c ****   {
1245:../../Drivers/STM32H7xx_HAL_Driver/Src/stm32h7xx_hal_flash_ex.c ****     /* ST_RAM_SIZE option byte should be modified */
1246:../../Drivers/STM32H7xx_HAL_Driver/Src/stm32h7xx_hal_flash_ex.c ****     assert_param(IS_OB_USER_ST_RAM_SIZE(UserConfig & FLASH_OPTSR_ST_RAM_SIZE));
 512              		.loc 1 1246 5 is_stmt 1 view .LVU159
1247:../../Drivers/STM32H7xx_HAL_Driver/Src/stm32h7xx_hal_flash_ex.c **** 
ARM GAS  /tmp/ccYcJizL.s 			page 32


1248:../../Drivers/STM32H7xx_HAL_Driver/Src/stm32h7xx_hal_flash_ex.c ****     /* Set value and mask for ST_RAM_SIZE option byte */
1249:../../Drivers/STM32H7xx_HAL_Driver/Src/stm32h7xx_hal_flash_ex.c ****     optr_reg_val |= (UserConfig & FLASH_OPTSR_ST_RAM_SIZE);
 513              		.loc 1 1249 5 view .LVU160
 514              		.loc 1 1249 33 is_stmt 0 view .LVU161
 515 0072 01F4C013 		and	r3, r1, #1572864
 516              		.loc 1 1249 18 view .LVU162
 517 0076 4CEA030C 		orr	ip, ip, r3
 518              	.LVL36:
1250:../../Drivers/STM32H7xx_HAL_Driver/Src/stm32h7xx_hal_flash_ex.c ****     optr_reg_mask |= FLASH_OPTSR_ST_RAM_SIZE;
 519              		.loc 1 1250 5 is_stmt 1 view .LVU163
 520              		.loc 1 1250 19 is_stmt 0 view .LVU164
 521 007a 4EF4C01E 		orr	lr, lr, #1572864
 522              	.LVL37:
 523              	.L43:
1251:../../Drivers/STM32H7xx_HAL_Driver/Src/stm32h7xx_hal_flash_ex.c ****   }
1252:../../Drivers/STM32H7xx_HAL_Driver/Src/stm32h7xx_hal_flash_ex.c **** 
1253:../../Drivers/STM32H7xx_HAL_Driver/Src/stm32h7xx_hal_flash_ex.c ****   if((UserType & OB_USER_SECURITY) != 0U)
 524              		.loc 1 1253 3 is_stmt 1 view .LVU165
 525              		.loc 1 1253 5 is_stmt 0 view .LVU166
 526 007e 10F0400F 		tst	r0, #64
 527 0082 05D0     		beq	.L44
1254:../../Drivers/STM32H7xx_HAL_Driver/Src/stm32h7xx_hal_flash_ex.c ****   {
1255:../../Drivers/STM32H7xx_HAL_Driver/Src/stm32h7xx_hal_flash_ex.c ****     /* SECURITY option byte should be modified */
1256:../../Drivers/STM32H7xx_HAL_Driver/Src/stm32h7xx_hal_flash_ex.c ****     assert_param(IS_OB_USER_SECURITY(UserConfig & FLASH_OPTSR_SECURITY));
 528              		.loc 1 1256 5 is_stmt 1 view .LVU167
1257:../../Drivers/STM32H7xx_HAL_Driver/Src/stm32h7xx_hal_flash_ex.c **** 
1258:../../Drivers/STM32H7xx_HAL_Driver/Src/stm32h7xx_hal_flash_ex.c ****     /* Set value and mask for SECURITY option byte */
1259:../../Drivers/STM32H7xx_HAL_Driver/Src/stm32h7xx_hal_flash_ex.c ****     optr_reg_val |= (UserConfig & FLASH_OPTSR_SECURITY);
 529              		.loc 1 1259 5 view .LVU168
 530              		.loc 1 1259 33 is_stmt 0 view .LVU169
 531 0084 01F40013 		and	r3, r1, #2097152
 532              		.loc 1 1259 18 view .LVU170
 533 0088 4CEA030C 		orr	ip, ip, r3
 534              	.LVL38:
1260:../../Drivers/STM32H7xx_HAL_Driver/Src/stm32h7xx_hal_flash_ex.c ****     optr_reg_mask |= FLASH_OPTSR_SECURITY;
 535              		.loc 1 1260 5 is_stmt 1 view .LVU171
 536              		.loc 1 1260 19 is_stmt 0 view .LVU172
 537 008c 4EF4001E 		orr	lr, lr, #2097152
 538              	.LVL39:
 539              	.L44:
1261:../../Drivers/STM32H7xx_HAL_Driver/Src/stm32h7xx_hal_flash_ex.c ****   }
1262:../../Drivers/STM32H7xx_HAL_Driver/Src/stm32h7xx_hal_flash_ex.c **** 
1263:../../Drivers/STM32H7xx_HAL_Driver/Src/stm32h7xx_hal_flash_ex.c **** #if defined(DUAL_CORE)
1264:../../Drivers/STM32H7xx_HAL_Driver/Src/stm32h7xx_hal_flash_ex.c ****   if((UserType & OB_USER_BCM4) != 0U)
 540              		.loc 1 1264 3 is_stmt 1 view .LVU173
 541              		.loc 1 1264 5 is_stmt 0 view .LVU174
 542 0090 10F4806F 		tst	r0, #1024
 543 0094 05D0     		beq	.L45
1265:../../Drivers/STM32H7xx_HAL_Driver/Src/stm32h7xx_hal_flash_ex.c ****   {
1266:../../Drivers/STM32H7xx_HAL_Driver/Src/stm32h7xx_hal_flash_ex.c ****     /* BCM4 option byte should be modified */
1267:../../Drivers/STM32H7xx_HAL_Driver/Src/stm32h7xx_hal_flash_ex.c ****     assert_param(IS_OB_USER_BCM4(UserConfig & FLASH_OPTSR_BCM4));
 544              		.loc 1 1267 5 is_stmt 1 view .LVU175
1268:../../Drivers/STM32H7xx_HAL_Driver/Src/stm32h7xx_hal_flash_ex.c **** 
1269:../../Drivers/STM32H7xx_HAL_Driver/Src/stm32h7xx_hal_flash_ex.c ****     /* Set value and mask for BCM4 option byte */
1270:../../Drivers/STM32H7xx_HAL_Driver/Src/stm32h7xx_hal_flash_ex.c ****     optr_reg_val |= (UserConfig & FLASH_OPTSR_BCM4);
 545              		.loc 1 1270 5 view .LVU176
 546              		.loc 1 1270 33 is_stmt 0 view .LVU177
ARM GAS  /tmp/ccYcJizL.s 			page 33


 547 0096 01F48003 		and	r3, r1, #4194304
 548              		.loc 1 1270 18 view .LVU178
 549 009a 4CEA030C 		orr	ip, ip, r3
 550              	.LVL40:
1271:../../Drivers/STM32H7xx_HAL_Driver/Src/stm32h7xx_hal_flash_ex.c ****     optr_reg_mask |= FLASH_OPTSR_BCM4;
 551              		.loc 1 1271 5 is_stmt 1 view .LVU179
 552              		.loc 1 1271 19 is_stmt 0 view .LVU180
 553 009e 4EF4800E 		orr	lr, lr, #4194304
 554              	.LVL41:
 555              	.L45:
1272:../../Drivers/STM32H7xx_HAL_Driver/Src/stm32h7xx_hal_flash_ex.c ****   }
1273:../../Drivers/STM32H7xx_HAL_Driver/Src/stm32h7xx_hal_flash_ex.c **** 
1274:../../Drivers/STM32H7xx_HAL_Driver/Src/stm32h7xx_hal_flash_ex.c ****   if((UserType & OB_USER_BCM7) != 0U)
 556              		.loc 1 1274 3 is_stmt 1 view .LVU181
 557              		.loc 1 1274 5 is_stmt 0 view .LVU182
 558 00a2 10F4006F 		tst	r0, #2048
 559 00a6 05D0     		beq	.L46
1275:../../Drivers/STM32H7xx_HAL_Driver/Src/stm32h7xx_hal_flash_ex.c ****   {
1276:../../Drivers/STM32H7xx_HAL_Driver/Src/stm32h7xx_hal_flash_ex.c ****     /* BCM7 option byte should be modified */
1277:../../Drivers/STM32H7xx_HAL_Driver/Src/stm32h7xx_hal_flash_ex.c ****     assert_param(IS_OB_USER_BCM7(UserConfig & FLASH_OPTSR_BCM7));
 560              		.loc 1 1277 5 is_stmt 1 view .LVU183
1278:../../Drivers/STM32H7xx_HAL_Driver/Src/stm32h7xx_hal_flash_ex.c **** 
1279:../../Drivers/STM32H7xx_HAL_Driver/Src/stm32h7xx_hal_flash_ex.c ****     /* Set value and mask for BCM7 option byte */
1280:../../Drivers/STM32H7xx_HAL_Driver/Src/stm32h7xx_hal_flash_ex.c ****     optr_reg_val |= (UserConfig & FLASH_OPTSR_BCM7);
 561              		.loc 1 1280 5 view .LVU184
 562              		.loc 1 1280 33 is_stmt 0 view .LVU185
 563 00a8 01F40003 		and	r3, r1, #8388608
 564              		.loc 1 1280 18 view .LVU186
 565 00ac 4CEA030C 		orr	ip, ip, r3
 566              	.LVL42:
1281:../../Drivers/STM32H7xx_HAL_Driver/Src/stm32h7xx_hal_flash_ex.c ****     optr_reg_mask |= FLASH_OPTSR_BCM7;
 567              		.loc 1 1281 5 is_stmt 1 view .LVU187
 568              		.loc 1 1281 19 is_stmt 0 view .LVU188
 569 00b0 4EF4000E 		orr	lr, lr, #8388608
 570              	.LVL43:
 571              	.L46:
1282:../../Drivers/STM32H7xx_HAL_Driver/Src/stm32h7xx_hal_flash_ex.c ****   }
1283:../../Drivers/STM32H7xx_HAL_Driver/Src/stm32h7xx_hal_flash_ex.c **** #endif /* DUAL_CORE */
1284:../../Drivers/STM32H7xx_HAL_Driver/Src/stm32h7xx_hal_flash_ex.c **** 
1285:../../Drivers/STM32H7xx_HAL_Driver/Src/stm32h7xx_hal_flash_ex.c **** #if defined (FLASH_OPTSR_NRST_STOP_D2)
1286:../../Drivers/STM32H7xx_HAL_Driver/Src/stm32h7xx_hal_flash_ex.c ****   if((UserType & OB_USER_NRST_STOP_D2) != 0U)
 572              		.loc 1 1286 3 is_stmt 1 view .LVU189
 573              		.loc 1 1286 5 is_stmt 0 view .LVU190
 574 00b4 10F4805F 		tst	r0, #4096
 575 00b8 05D0     		beq	.L47
1287:../../Drivers/STM32H7xx_HAL_Driver/Src/stm32h7xx_hal_flash_ex.c ****   {
1288:../../Drivers/STM32H7xx_HAL_Driver/Src/stm32h7xx_hal_flash_ex.c ****     /* NRST_STOP option byte should be modified */
1289:../../Drivers/STM32H7xx_HAL_Driver/Src/stm32h7xx_hal_flash_ex.c ****     assert_param(IS_OB_STOP_D2_RESET(UserConfig & FLASH_OPTSR_NRST_STOP_D2));
 576              		.loc 1 1289 5 is_stmt 1 view .LVU191
1290:../../Drivers/STM32H7xx_HAL_Driver/Src/stm32h7xx_hal_flash_ex.c **** 
1291:../../Drivers/STM32H7xx_HAL_Driver/Src/stm32h7xx_hal_flash_ex.c ****     /* Set value and mask for NRST_STOP option byte */
1292:../../Drivers/STM32H7xx_HAL_Driver/Src/stm32h7xx_hal_flash_ex.c ****     optr_reg_val |= (UserConfig & FLASH_OPTSR_NRST_STOP_D2);
 577              		.loc 1 1292 5 view .LVU192
 578              		.loc 1 1292 33 is_stmt 0 view .LVU193
 579 00ba 01F08073 		and	r3, r1, #16777216
 580              		.loc 1 1292 18 view .LVU194
 581 00be 4CEA030C 		orr	ip, ip, r3
ARM GAS  /tmp/ccYcJizL.s 			page 34


 582              	.LVL44:
1293:../../Drivers/STM32H7xx_HAL_Driver/Src/stm32h7xx_hal_flash_ex.c ****     optr_reg_mask |= FLASH_OPTSR_NRST_STOP_D2;
 583              		.loc 1 1293 5 is_stmt 1 view .LVU195
 584              		.loc 1 1293 19 is_stmt 0 view .LVU196
 585 00c2 4EF0807E 		orr	lr, lr, #16777216
 586              	.LVL45:
 587              	.L47:
1294:../../Drivers/STM32H7xx_HAL_Driver/Src/stm32h7xx_hal_flash_ex.c ****   }
1295:../../Drivers/STM32H7xx_HAL_Driver/Src/stm32h7xx_hal_flash_ex.c **** 
1296:../../Drivers/STM32H7xx_HAL_Driver/Src/stm32h7xx_hal_flash_ex.c ****   if((UserType & OB_USER_NRST_STDBY_D2) != 0U)
 588              		.loc 1 1296 3 is_stmt 1 view .LVU197
 589              		.loc 1 1296 5 is_stmt 0 view .LVU198
 590 00c6 10F4005F 		tst	r0, #8192
 591 00ca 05D0     		beq	.L48
1297:../../Drivers/STM32H7xx_HAL_Driver/Src/stm32h7xx_hal_flash_ex.c ****   {
1298:../../Drivers/STM32H7xx_HAL_Driver/Src/stm32h7xx_hal_flash_ex.c ****     /* NRST_STDBY option byte should be modified */
1299:../../Drivers/STM32H7xx_HAL_Driver/Src/stm32h7xx_hal_flash_ex.c ****     assert_param(IS_OB_STDBY_D2_RESET(UserConfig & FLASH_OPTSR_NRST_STBY_D2));
 592              		.loc 1 1299 5 is_stmt 1 view .LVU199
1300:../../Drivers/STM32H7xx_HAL_Driver/Src/stm32h7xx_hal_flash_ex.c **** 
1301:../../Drivers/STM32H7xx_HAL_Driver/Src/stm32h7xx_hal_flash_ex.c ****     /* Set value and mask for NRST_STDBY option byte */
1302:../../Drivers/STM32H7xx_HAL_Driver/Src/stm32h7xx_hal_flash_ex.c ****     optr_reg_val |= (UserConfig & FLASH_OPTSR_NRST_STBY_D2);
 593              		.loc 1 1302 5 view .LVU200
 594              		.loc 1 1302 33 is_stmt 0 view .LVU201
 595 00cc 01F00073 		and	r3, r1, #33554432
 596              		.loc 1 1302 18 view .LVU202
 597 00d0 4CEA030C 		orr	ip, ip, r3
 598              	.LVL46:
1303:../../Drivers/STM32H7xx_HAL_Driver/Src/stm32h7xx_hal_flash_ex.c ****     optr_reg_mask |= FLASH_OPTSR_NRST_STBY_D2;
 599              		.loc 1 1303 5 is_stmt 1 view .LVU203
 600              		.loc 1 1303 19 is_stmt 0 view .LVU204
 601 00d4 4EF0007E 		orr	lr, lr, #33554432
 602              	.LVL47:
 603              	.L48:
1304:../../Drivers/STM32H7xx_HAL_Driver/Src/stm32h7xx_hal_flash_ex.c ****   }
1305:../../Drivers/STM32H7xx_HAL_Driver/Src/stm32h7xx_hal_flash_ex.c **** #endif /* FLASH_OPTSR_NRST_STOP_D2 */
1306:../../Drivers/STM32H7xx_HAL_Driver/Src/stm32h7xx_hal_flash_ex.c **** 
1307:../../Drivers/STM32H7xx_HAL_Driver/Src/stm32h7xx_hal_flash_ex.c **** #if defined (DUAL_BANK)
1308:../../Drivers/STM32H7xx_HAL_Driver/Src/stm32h7xx_hal_flash_ex.c ****   if((UserType & OB_USER_SWAP_BANK) != 0U)
 604              		.loc 1 1308 3 is_stmt 1 view .LVU205
 605              		.loc 1 1308 5 is_stmt 0 view .LVU206
 606 00d8 10F4807F 		tst	r0, #256
 607 00dc 05D0     		beq	.L49
1309:../../Drivers/STM32H7xx_HAL_Driver/Src/stm32h7xx_hal_flash_ex.c ****   {
1310:../../Drivers/STM32H7xx_HAL_Driver/Src/stm32h7xx_hal_flash_ex.c ****     /* SWAP_BANK_OPT option byte should be modified */
1311:../../Drivers/STM32H7xx_HAL_Driver/Src/stm32h7xx_hal_flash_ex.c ****     assert_param(IS_OB_USER_SWAP_BANK(UserConfig & FLASH_OPTSR_SWAP_BANK_OPT));
 608              		.loc 1 1311 5 is_stmt 1 view .LVU207
1312:../../Drivers/STM32H7xx_HAL_Driver/Src/stm32h7xx_hal_flash_ex.c **** 
1313:../../Drivers/STM32H7xx_HAL_Driver/Src/stm32h7xx_hal_flash_ex.c ****     /* Set value and mask for SWAP_BANK_OPT option byte */
1314:../../Drivers/STM32H7xx_HAL_Driver/Src/stm32h7xx_hal_flash_ex.c ****     optr_reg_val |= (UserConfig & FLASH_OPTSR_SWAP_BANK_OPT);
 609              		.loc 1 1314 5 view .LVU208
 610              		.loc 1 1314 33 is_stmt 0 view .LVU209
 611 00de 01F00043 		and	r3, r1, #-2147483648
 612              		.loc 1 1314 18 view .LVU210
 613 00e2 4CEA030C 		orr	ip, ip, r3
 614              	.LVL48:
1315:../../Drivers/STM32H7xx_HAL_Driver/Src/stm32h7xx_hal_flash_ex.c ****     optr_reg_mask |= FLASH_OPTSR_SWAP_BANK_OPT;
 615              		.loc 1 1315 5 is_stmt 1 view .LVU211
ARM GAS  /tmp/ccYcJizL.s 			page 35


 616              		.loc 1 1315 19 is_stmt 0 view .LVU212
 617 00e6 4EF0004E 		orr	lr, lr, #-2147483648
 618              	.LVL49:
 619              	.L49:
1316:../../Drivers/STM32H7xx_HAL_Driver/Src/stm32h7xx_hal_flash_ex.c ****   }
1317:../../Drivers/STM32H7xx_HAL_Driver/Src/stm32h7xx_hal_flash_ex.c **** #endif /* DUAL_BANK */
1318:../../Drivers/STM32H7xx_HAL_Driver/Src/stm32h7xx_hal_flash_ex.c **** 
1319:../../Drivers/STM32H7xx_HAL_Driver/Src/stm32h7xx_hal_flash_ex.c ****   if((UserType & OB_USER_IOHSLV) != 0U)
 620              		.loc 1 1319 3 is_stmt 1 view .LVU213
 621              		.loc 1 1319 5 is_stmt 0 view .LVU214
 622 00ea 10F0800F 		tst	r0, #128
 623 00ee 05D0     		beq	.L50
1320:../../Drivers/STM32H7xx_HAL_Driver/Src/stm32h7xx_hal_flash_ex.c ****   {
1321:../../Drivers/STM32H7xx_HAL_Driver/Src/stm32h7xx_hal_flash_ex.c ****     /* IOHSLV_OPT option byte should be modified */
1322:../../Drivers/STM32H7xx_HAL_Driver/Src/stm32h7xx_hal_flash_ex.c ****     assert_param(IS_OB_USER_IOHSLV(UserConfig & FLASH_OPTSR_IO_HSLV));
 624              		.loc 1 1322 5 is_stmt 1 view .LVU215
1323:../../Drivers/STM32H7xx_HAL_Driver/Src/stm32h7xx_hal_flash_ex.c **** 
1324:../../Drivers/STM32H7xx_HAL_Driver/Src/stm32h7xx_hal_flash_ex.c ****     /* Set value and mask for IOHSLV_OPT option byte */
1325:../../Drivers/STM32H7xx_HAL_Driver/Src/stm32h7xx_hal_flash_ex.c ****     optr_reg_val |= (UserConfig & FLASH_OPTSR_IO_HSLV);
 625              		.loc 1 1325 5 view .LVU216
 626              		.loc 1 1325 33 is_stmt 0 view .LVU217
 627 00f0 01F00051 		and	r1, r1, #536870912
 628              	.LVL50:
 629              		.loc 1 1325 18 view .LVU218
 630 00f4 4CEA010C 		orr	ip, ip, r1
 631              	.LVL51:
1326:../../Drivers/STM32H7xx_HAL_Driver/Src/stm32h7xx_hal_flash_ex.c ****     optr_reg_mask |= FLASH_OPTSR_IO_HSLV;
 632              		.loc 1 1326 5 is_stmt 1 view .LVU219
 633              		.loc 1 1326 19 is_stmt 0 view .LVU220
 634 00f8 4EF0005E 		orr	lr, lr, #536870912
 635              	.LVL52:
 636              	.L50:
1327:../../Drivers/STM32H7xx_HAL_Driver/Src/stm32h7xx_hal_flash_ex.c ****   }
1328:../../Drivers/STM32H7xx_HAL_Driver/Src/stm32h7xx_hal_flash_ex.c **** 
1329:../../Drivers/STM32H7xx_HAL_Driver/Src/stm32h7xx_hal_flash_ex.c **** #if defined (FLASH_OPTSR_VDDMMC_HSLV)
1330:../../Drivers/STM32H7xx_HAL_Driver/Src/stm32h7xx_hal_flash_ex.c ****   if((UserType & OB_USER_VDDMMC_HSLV) != 0U)
1331:../../Drivers/STM32H7xx_HAL_Driver/Src/stm32h7xx_hal_flash_ex.c ****   {
1332:../../Drivers/STM32H7xx_HAL_Driver/Src/stm32h7xx_hal_flash_ex.c ****     /* VDDMMC_HSLV option byte should be modified */
1333:../../Drivers/STM32H7xx_HAL_Driver/Src/stm32h7xx_hal_flash_ex.c ****     assert_param(IS_OB_USER_VDDMMC_HSLV(UserConfig & FLASH_OPTSR_VDDMMC_HSLV));
1334:../../Drivers/STM32H7xx_HAL_Driver/Src/stm32h7xx_hal_flash_ex.c **** 
1335:../../Drivers/STM32H7xx_HAL_Driver/Src/stm32h7xx_hal_flash_ex.c ****     /* Set value and mask for VDDMMC_HSLV option byte */
1336:../../Drivers/STM32H7xx_HAL_Driver/Src/stm32h7xx_hal_flash_ex.c ****     optr_reg_val |= (UserConfig & FLASH_OPTSR_VDDMMC_HSLV);
1337:../../Drivers/STM32H7xx_HAL_Driver/Src/stm32h7xx_hal_flash_ex.c ****     optr_reg_mask |= FLASH_OPTSR_VDDMMC_HSLV;
1338:../../Drivers/STM32H7xx_HAL_Driver/Src/stm32h7xx_hal_flash_ex.c ****   }
1339:../../Drivers/STM32H7xx_HAL_Driver/Src/stm32h7xx_hal_flash_ex.c **** #endif /* FLASH_OPTSR_VDDMMC_HSLV */
1340:../../Drivers/STM32H7xx_HAL_Driver/Src/stm32h7xx_hal_flash_ex.c **** 
1341:../../Drivers/STM32H7xx_HAL_Driver/Src/stm32h7xx_hal_flash_ex.c ****   /* Configure the option bytes register */
1342:../../Drivers/STM32H7xx_HAL_Driver/Src/stm32h7xx_hal_flash_ex.c ****   MODIFY_REG(FLASH->OPTSR_PRG, optr_reg_mask, optr_reg_val);
 637              		.loc 1 1342 3 is_stmt 1 view .LVU221
 638 00fc 054A     		ldr	r2, .L53
 639 00fe 136A     		ldr	r3, [r2, #32]
 640 0100 23EA0E03 		bic	r3, r3, lr
 641 0104 43EA0C03 		orr	r3, r3, ip
 642 0108 1362     		str	r3, [r2, #32]
1343:../../Drivers/STM32H7xx_HAL_Driver/Src/stm32h7xx_hal_flash_ex.c **** }
 643              		.loc 1 1343 1 is_stmt 0 view .LVU222
 644 010a 5DF804FB 		ldr	pc, [sp], #4
ARM GAS  /tmp/ccYcJizL.s 			page 36


 645              	.LVL53:
 646              	.L51:
1178:../../Drivers/STM32H7xx_HAL_Driver/Src/stm32h7xx_hal_flash_ex.c **** 
 647              		.loc 1 1178 12 view .LVU223
 648 010e E646     		mov	lr, ip
 649 0110 7FE7     		b	.L37
 650              	.L54:
 651 0112 00BF     		.align	2
 652              	.L53:
 653 0114 00200052 		.word	1375739904
 654              		.cfi_endproc
 655              	.LFE148:
 657              		.section	.text.FLASH_OB_GetUser,"ax",%progbits
 658              		.align	1
 659              		.syntax unified
 660              		.thumb
 661              		.thumb_func
 662              		.fpu fpv4-sp-d16
 664              	FLASH_OB_GetUser:
 665              	.LFB149:
1344:../../Drivers/STM32H7xx_HAL_Driver/Src/stm32h7xx_hal_flash_ex.c **** 
1345:../../Drivers/STM32H7xx_HAL_Driver/Src/stm32h7xx_hal_flash_ex.c **** #if defined(DUAL_CORE)
1346:../../Drivers/STM32H7xx_HAL_Driver/Src/stm32h7xx_hal_flash_ex.c **** /**
1347:../../Drivers/STM32H7xx_HAL_Driver/Src/stm32h7xx_hal_flash_ex.c ****   * @brief  Return the FLASH User Option Byte value.
1348:../../Drivers/STM32H7xx_HAL_Driver/Src/stm32h7xx_hal_flash_ex.c ****   * @retval The FLASH User Option Bytes values
1349:../../Drivers/STM32H7xx_HAL_Driver/Src/stm32h7xx_hal_flash_ex.c ****   *         IWDG1_SW(Bit4), IWDG2_SW(Bit 5), nRST_STOP_D1(Bit 6), nRST_STDY_D1(Bit 7),
1350:../../Drivers/STM32H7xx_HAL_Driver/Src/stm32h7xx_hal_flash_ex.c ****   *         FZ_IWDG_STOP(Bit 17), FZ_IWDG_SDBY(Bit 18), ST_RAM_SIZE(Bit[19:20]),
1351:../../Drivers/STM32H7xx_HAL_Driver/Src/stm32h7xx_hal_flash_ex.c ****   *         SECURITY(Bit 21), BCM4(Bit 22), BCM7(Bit 23), nRST_STOP_D2(Bit 24),
1352:../../Drivers/STM32H7xx_HAL_Driver/Src/stm32h7xx_hal_flash_ex.c ****   *         nRST_STDY_D2(Bit 25), IO_HSLV (Bit 29) and SWAP_BANK_OPT(Bit 31).
1353:../../Drivers/STM32H7xx_HAL_Driver/Src/stm32h7xx_hal_flash_ex.c ****   */
1354:../../Drivers/STM32H7xx_HAL_Driver/Src/stm32h7xx_hal_flash_ex.c **** #else
1355:../../Drivers/STM32H7xx_HAL_Driver/Src/stm32h7xx_hal_flash_ex.c **** /**
1356:../../Drivers/STM32H7xx_HAL_Driver/Src/stm32h7xx_hal_flash_ex.c ****   * @brief  Return the FLASH User Option Byte value.
1357:../../Drivers/STM32H7xx_HAL_Driver/Src/stm32h7xx_hal_flash_ex.c ****   * @retval The FLASH User Option Bytes values
1358:../../Drivers/STM32H7xx_HAL_Driver/Src/stm32h7xx_hal_flash_ex.c ****   *         IWDG_SW(Bit4), nRST_STOP_D1(Bit 6), nRST_STDY_D1(Bit 7),
1359:../../Drivers/STM32H7xx_HAL_Driver/Src/stm32h7xx_hal_flash_ex.c ****   *         FZ_IWDG_STOP(Bit 17), FZ_IWDG_SDBY(Bit 18), ST_RAM_SIZE(Bit[19:20]),
1360:../../Drivers/STM32H7xx_HAL_Driver/Src/stm32h7xx_hal_flash_ex.c ****   *         SECURITY(Bit 21), IO_HSLV (Bit 29) and SWAP_BANK_OPT(Bit 31).
1361:../../Drivers/STM32H7xx_HAL_Driver/Src/stm32h7xx_hal_flash_ex.c ****   */
1362:../../Drivers/STM32H7xx_HAL_Driver/Src/stm32h7xx_hal_flash_ex.c **** #endif /*DUAL_CORE*/
1363:../../Drivers/STM32H7xx_HAL_Driver/Src/stm32h7xx_hal_flash_ex.c **** static uint32_t FLASH_OB_GetUser(void)
1364:../../Drivers/STM32H7xx_HAL_Driver/Src/stm32h7xx_hal_flash_ex.c **** {
 666              		.loc 1 1364 1 is_stmt 1 view -0
 667              		.cfi_startproc
 668              		@ args = 0, pretend = 0, frame = 0
 669              		@ frame_needed = 0, uses_anonymous_args = 0
 670              		@ link register save eliminated.
1365:../../Drivers/STM32H7xx_HAL_Driver/Src/stm32h7xx_hal_flash_ex.c ****   uint32_t userConfig = READ_REG(FLASH->OPTSR_CUR);
 671              		.loc 1 1365 3 view .LVU225
 672              		.loc 1 1365 12 is_stmt 0 view .LVU226
 673 0000 024B     		ldr	r3, .L56
 674 0002 DB69     		ldr	r3, [r3, #28]
 675              	.LVL54:
1366:../../Drivers/STM32H7xx_HAL_Driver/Src/stm32h7xx_hal_flash_ex.c ****   userConfig &= (~(FLASH_OPTSR_BOR_LEV | FLASH_OPTSR_RDP));
 676              		.loc 1 1366 3 is_stmt 1 view .LVU227
1367:../../Drivers/STM32H7xx_HAL_Driver/Src/stm32h7xx_hal_flash_ex.c **** 
1368:../../Drivers/STM32H7xx_HAL_Driver/Src/stm32h7xx_hal_flash_ex.c ****   return userConfig;
 677              		.loc 1 1368 3 view .LVU228
ARM GAS  /tmp/ccYcJizL.s 			page 37


1369:../../Drivers/STM32H7xx_HAL_Driver/Src/stm32h7xx_hal_flash_ex.c **** }
 678              		.loc 1 1369 1 is_stmt 0 view .LVU229
 679 0004 0248     		ldr	r0, .L56+4
 680 0006 1840     		ands	r0, r0, r3
 681              	.LVL55:
 682              		.loc 1 1369 1 view .LVU230
 683 0008 7047     		bx	lr
 684              	.L57:
 685 000a 00BF     		.align	2
 686              	.L56:
 687 000c 00200052 		.word	1375739904
 688 0010 F300FFFF 		.word	-65293
 689              		.cfi_endproc
 690              	.LFE149:
 692              		.section	.text.FLASH_OB_PCROPConfig,"ax",%progbits
 693              		.align	1
 694              		.syntax unified
 695              		.thumb
 696              		.thumb_func
 697              		.fpu fpv4-sp-d16
 699              	FLASH_OB_PCROPConfig:
 700              	.LVL56:
 701              	.LFB150:
1370:../../Drivers/STM32H7xx_HAL_Driver/Src/stm32h7xx_hal_flash_ex.c **** 
1371:../../Drivers/STM32H7xx_HAL_Driver/Src/stm32h7xx_hal_flash_ex.c **** /**
1372:../../Drivers/STM32H7xx_HAL_Driver/Src/stm32h7xx_hal_flash_ex.c ****   * @brief  Configure the Proprietary code readout protection of the desired addresses
1373:../../Drivers/STM32H7xx_HAL_Driver/Src/stm32h7xx_hal_flash_ex.c ****   *
1374:../../Drivers/STM32H7xx_HAL_Driver/Src/stm32h7xx_hal_flash_ex.c ****   * @note   To configure the PCROP options, the option lock bit OPTLOCK must be
1375:../../Drivers/STM32H7xx_HAL_Driver/Src/stm32h7xx_hal_flash_ex.c ****   *         cleared with the call of the HAL_FLASH_OB_Unlock() function.
1376:../../Drivers/STM32H7xx_HAL_Driver/Src/stm32h7xx_hal_flash_ex.c ****   * @note   To validate the PCROP options, the option bytes must be reloaded
1377:../../Drivers/STM32H7xx_HAL_Driver/Src/stm32h7xx_hal_flash_ex.c ****   *         through the call of the HAL_FLASH_OB_Launch() function.
1378:../../Drivers/STM32H7xx_HAL_Driver/Src/stm32h7xx_hal_flash_ex.c ****   *
1379:../../Drivers/STM32H7xx_HAL_Driver/Src/stm32h7xx_hal_flash_ex.c ****   * @param  PCROPConfig specifies if the PCROP area for the given Bank shall be erased or not
1380:../../Drivers/STM32H7xx_HAL_Driver/Src/stm32h7xx_hal_flash_ex.c ****   *         when RDP level decreased from Level 1 to Level 0, or after a bank erase with protection
1381:../../Drivers/STM32H7xx_HAL_Driver/Src/stm32h7xx_hal_flash_ex.c ****   *         This parameter must be a value of @arg FLASHEx_OB_PCROP_RDP enumeration
1382:../../Drivers/STM32H7xx_HAL_Driver/Src/stm32h7xx_hal_flash_ex.c ****   *
1383:../../Drivers/STM32H7xx_HAL_Driver/Src/stm32h7xx_hal_flash_ex.c ****   * @param  PCROPStartAddr specifies the start address of the Proprietary code readout protection
1384:../../Drivers/STM32H7xx_HAL_Driver/Src/stm32h7xx_hal_flash_ex.c ****   *          This parameter can be an address between begin and end of the bank
1385:../../Drivers/STM32H7xx_HAL_Driver/Src/stm32h7xx_hal_flash_ex.c ****   *
1386:../../Drivers/STM32H7xx_HAL_Driver/Src/stm32h7xx_hal_flash_ex.c ****   * @param  PCROPEndAddr specifies the end address of the Proprietary code readout protection
1387:../../Drivers/STM32H7xx_HAL_Driver/Src/stm32h7xx_hal_flash_ex.c ****   *          This parameter can be an address between PCROPStartAddr and end of the bank
1388:../../Drivers/STM32H7xx_HAL_Driver/Src/stm32h7xx_hal_flash_ex.c ****   *
1389:../../Drivers/STM32H7xx_HAL_Driver/Src/stm32h7xx_hal_flash_ex.c ****   * @param  Banks the specific bank to apply PCROP protection
1390:../../Drivers/STM32H7xx_HAL_Driver/Src/stm32h7xx_hal_flash_ex.c ****   *          This parameter can be one of the following values:
1391:../../Drivers/STM32H7xx_HAL_Driver/Src/stm32h7xx_hal_flash_ex.c ****   *            @arg FLASH_BANK_1: PCROP on specified bank1 area
1392:../../Drivers/STM32H7xx_HAL_Driver/Src/stm32h7xx_hal_flash_ex.c ****   *            @arg FLASH_BANK_2: PCROP on specified bank2 area
1393:../../Drivers/STM32H7xx_HAL_Driver/Src/stm32h7xx_hal_flash_ex.c ****   *            @arg FLASH_BANK_BOTH: PCROP on specified bank1 and bank2 area (same config will be a
1394:../../Drivers/STM32H7xx_HAL_Driver/Src/stm32h7xx_hal_flash_ex.c ****   *
1395:../../Drivers/STM32H7xx_HAL_Driver/Src/stm32h7xx_hal_flash_ex.c ****   * @retval None
1396:../../Drivers/STM32H7xx_HAL_Driver/Src/stm32h7xx_hal_flash_ex.c ****   */
1397:../../Drivers/STM32H7xx_HAL_Driver/Src/stm32h7xx_hal_flash_ex.c **** static void FLASH_OB_PCROPConfig(uint32_t PCROPConfig, uint32_t PCROPStartAddr, uint32_t PCROPEndAd
1398:../../Drivers/STM32H7xx_HAL_Driver/Src/stm32h7xx_hal_flash_ex.c **** {
 702              		.loc 1 1398 1 is_stmt 1 view -0
 703              		.cfi_startproc
 704              		@ args = 0, pretend = 0, frame = 0
 705              		@ frame_needed = 0, uses_anonymous_args = 0
 706              		@ link register save eliminated.
ARM GAS  /tmp/ccYcJizL.s 			page 38


 707              		.loc 1 1398 1 is_stmt 0 view .LVU232
 708 0000 30B4     		push	{r4, r5}
 709              	.LCFI1:
 710              		.cfi_def_cfa_offset 8
 711              		.cfi_offset 4, -8
 712              		.cfi_offset 5, -4
1399:../../Drivers/STM32H7xx_HAL_Driver/Src/stm32h7xx_hal_flash_ex.c ****   /* Check the parameters */
1400:../../Drivers/STM32H7xx_HAL_Driver/Src/stm32h7xx_hal_flash_ex.c ****   assert_param(IS_FLASH_BANK(Banks));
 713              		.loc 1 1400 3 is_stmt 1 view .LVU233
1401:../../Drivers/STM32H7xx_HAL_Driver/Src/stm32h7xx_hal_flash_ex.c ****   assert_param(IS_OB_PCROP_RDP(PCROPConfig));
 714              		.loc 1 1401 3 view .LVU234
1402:../../Drivers/STM32H7xx_HAL_Driver/Src/stm32h7xx_hal_flash_ex.c **** 
1403:../../Drivers/STM32H7xx_HAL_Driver/Src/stm32h7xx_hal_flash_ex.c ****   if((Banks & FLASH_BANK_1) == FLASH_BANK_1)
 715              		.loc 1 1403 3 view .LVU235
 716              		.loc 1 1403 5 is_stmt 0 view .LVU236
 717 0002 13F0010F 		tst	r3, #1
 718 0006 0CD0     		beq	.L59
1404:../../Drivers/STM32H7xx_HAL_Driver/Src/stm32h7xx_hal_flash_ex.c ****   {
1405:../../Drivers/STM32H7xx_HAL_Driver/Src/stm32h7xx_hal_flash_ex.c ****     assert_param(IS_FLASH_PROGRAM_ADDRESS_BANK1(PCROPStartAddr));
 719              		.loc 1 1405 5 is_stmt 1 view .LVU237
1406:../../Drivers/STM32H7xx_HAL_Driver/Src/stm32h7xx_hal_flash_ex.c ****     assert_param(IS_FLASH_PROGRAM_ADDRESS_BANK1(PCROPEndAddr));
 720              		.loc 1 1406 5 view .LVU238
1407:../../Drivers/STM32H7xx_HAL_Driver/Src/stm32h7xx_hal_flash_ex.c **** 
1408:../../Drivers/STM32H7xx_HAL_Driver/Src/stm32h7xx_hal_flash_ex.c ****     /* Configure the Proprietary code readout protection */
1409:../../Drivers/STM32H7xx_HAL_Driver/Src/stm32h7xx_hal_flash_ex.c ****     FLASH->PRAR_PRG1 = ((PCROPStartAddr - FLASH_BANK1_BASE) >> 8)                                 |
 721              		.loc 1 1409 5 view .LVU239
 722              		.loc 1 1409 41 is_stmt 0 view .LVU240
 723 0008 01F17844 		add	r4, r1, #-134217728
1410:../../Drivers/STM32H7xx_HAL_Driver/Src/stm32h7xx_hal_flash_ex.c ****                        (((PCROPEndAddr - FLASH_BANK1_BASE) >> 8) << FLASH_PRAR_PROT_AREA_END_Pos) |
 724              		.loc 1 1410 40 view .LVU241
 725 000c 02F1784C 		add	ip, r2, #-134217728
 726              		.loc 1 1410 60 view .LVU242
 727 0010 4FEA1C2C 		lsr	ip, ip, #8
 728              		.loc 1 1410 66 view .LVU243
 729 0014 4FEA0C4C 		lsl	ip, ip, #16
1409:../../Drivers/STM32H7xx_HAL_Driver/Src/stm32h7xx_hal_flash_ex.c ****                        (((PCROPEndAddr - FLASH_BANK1_BASE) >> 8) << FLASH_PRAR_PROT_AREA_END_Pos) |
 730              		.loc 1 1409 99 view .LVU244
 731 0018 4CEA1424 		orr	r4, ip, r4, lsr #8
 732              		.loc 1 1410 99 view .LVU245
 733 001c 0443     		orrs	r4, r4, r0
1409:../../Drivers/STM32H7xx_HAL_Driver/Src/stm32h7xx_hal_flash_ex.c ****                        (((PCROPEndAddr - FLASH_BANK1_BASE) >> 8) << FLASH_PRAR_PROT_AREA_END_Pos) |
 734              		.loc 1 1409 22 view .LVU246
 735 001e 094D     		ldr	r5, .L62
 736 0020 EC62     		str	r4, [r5, #44]
 737              	.L59:
1411:../../Drivers/STM32H7xx_HAL_Driver/Src/stm32h7xx_hal_flash_ex.c ****                        PCROPConfig;
1412:../../Drivers/STM32H7xx_HAL_Driver/Src/stm32h7xx_hal_flash_ex.c ****   }
1413:../../Drivers/STM32H7xx_HAL_Driver/Src/stm32h7xx_hal_flash_ex.c **** 
1414:../../Drivers/STM32H7xx_HAL_Driver/Src/stm32h7xx_hal_flash_ex.c **** #if defined (DUAL_BANK)
1415:../../Drivers/STM32H7xx_HAL_Driver/Src/stm32h7xx_hal_flash_ex.c ****   if((Banks & FLASH_BANK_2) == FLASH_BANK_2)
 738              		.loc 1 1415 3 is_stmt 1 view .LVU247
 739              		.loc 1 1415 5 is_stmt 0 view .LVU248
 740 0022 13F0020F 		tst	r3, #2
 741 0026 0BD0     		beq	.L58
1416:../../Drivers/STM32H7xx_HAL_Driver/Src/stm32h7xx_hal_flash_ex.c ****   {
1417:../../Drivers/STM32H7xx_HAL_Driver/Src/stm32h7xx_hal_flash_ex.c ****     assert_param(IS_FLASH_PROGRAM_ADDRESS_BANK2(PCROPStartAddr));
 742              		.loc 1 1417 5 is_stmt 1 view .LVU249
ARM GAS  /tmp/ccYcJizL.s 			page 39


1418:../../Drivers/STM32H7xx_HAL_Driver/Src/stm32h7xx_hal_flash_ex.c ****     assert_param(IS_FLASH_PROGRAM_ADDRESS_BANK2(PCROPEndAddr));
 743              		.loc 1 1418 5 view .LVU250
1419:../../Drivers/STM32H7xx_HAL_Driver/Src/stm32h7xx_hal_flash_ex.c **** 
1420:../../Drivers/STM32H7xx_HAL_Driver/Src/stm32h7xx_hal_flash_ex.c ****     /* Configure the Proprietary code readout protection */
1421:../../Drivers/STM32H7xx_HAL_Driver/Src/stm32h7xx_hal_flash_ex.c ****     FLASH->PRAR_PRG2 = ((PCROPStartAddr - FLASH_BANK2_BASE) >> 8)                                 |
 744              		.loc 1 1421 5 view .LVU251
 745              		.loc 1 1421 41 is_stmt 0 view .LVU252
 746 0028 A1F10161 		sub	r1, r1, #135266304
 747              	.LVL57:
1422:../../Drivers/STM32H7xx_HAL_Driver/Src/stm32h7xx_hal_flash_ex.c ****                        (((PCROPEndAddr - FLASH_BANK2_BASE) >> 8) << FLASH_PRAR_PROT_AREA_END_Pos) |
 748              		.loc 1 1422 40 view .LVU253
 749 002c A2F10162 		sub	r2, r2, #135266304
 750              	.LVL58:
 751              		.loc 1 1422 60 view .LVU254
 752 0030 120A     		lsrs	r2, r2, #8
 753              	.LVL59:
 754              		.loc 1 1422 66 view .LVU255
 755 0032 1204     		lsls	r2, r2, #16
1421:../../Drivers/STM32H7xx_HAL_Driver/Src/stm32h7xx_hal_flash_ex.c ****                        (((PCROPEndAddr - FLASH_BANK2_BASE) >> 8) << FLASH_PRAR_PROT_AREA_END_Pos) |
 756              		.loc 1 1421 99 view .LVU256
 757 0034 42EA1122 		orr	r2, r2, r1, lsr #8
 758              		.loc 1 1422 99 view .LVU257
 759 0038 1043     		orrs	r0, r0, r2
 760              	.LVL60:
1421:../../Drivers/STM32H7xx_HAL_Driver/Src/stm32h7xx_hal_flash_ex.c ****                        (((PCROPEndAddr - FLASH_BANK2_BASE) >> 8) << FLASH_PRAR_PROT_AREA_END_Pos) |
 761              		.loc 1 1421 22 view .LVU258
 762 003a 024B     		ldr	r3, .L62
 763              	.LVL61:
1421:../../Drivers/STM32H7xx_HAL_Driver/Src/stm32h7xx_hal_flash_ex.c ****                        (((PCROPEndAddr - FLASH_BANK2_BASE) >> 8) << FLASH_PRAR_PROT_AREA_END_Pos) |
 764              		.loc 1 1421 22 view .LVU259
 765 003c C3F82C01 		str	r0, [r3, #300]
 766              	.LVL62:
 767              	.L58:
1423:../../Drivers/STM32H7xx_HAL_Driver/Src/stm32h7xx_hal_flash_ex.c ****                        PCROPConfig;
1424:../../Drivers/STM32H7xx_HAL_Driver/Src/stm32h7xx_hal_flash_ex.c ****   }
1425:../../Drivers/STM32H7xx_HAL_Driver/Src/stm32h7xx_hal_flash_ex.c **** #endif /* DUAL_BANK */
1426:../../Drivers/STM32H7xx_HAL_Driver/Src/stm32h7xx_hal_flash_ex.c **** }
 768              		.loc 1 1426 1 view .LVU260
 769 0040 30BC     		pop	{r4, r5}
 770              	.LCFI2:
 771              		.cfi_restore 5
 772              		.cfi_restore 4
 773              		.cfi_def_cfa_offset 0
 774 0042 7047     		bx	lr
 775              	.L63:
 776              		.align	2
 777              	.L62:
 778 0044 00200052 		.word	1375739904
 779              		.cfi_endproc
 780              	.LFE150:
 782              		.section	.text.FLASH_OB_GetPCROP,"ax",%progbits
 783              		.align	1
 784              		.syntax unified
 785              		.thumb
 786              		.thumb_func
 787              		.fpu fpv4-sp-d16
 789              	FLASH_OB_GetPCROP:
ARM GAS  /tmp/ccYcJizL.s 			page 40


 790              	.LVL63:
 791              	.LFB151:
1427:../../Drivers/STM32H7xx_HAL_Driver/Src/stm32h7xx_hal_flash_ex.c **** 
1428:../../Drivers/STM32H7xx_HAL_Driver/Src/stm32h7xx_hal_flash_ex.c **** /**
1429:../../Drivers/STM32H7xx_HAL_Driver/Src/stm32h7xx_hal_flash_ex.c ****   * @brief  Get the Proprietary code readout protection configuration on a given Bank
1430:../../Drivers/STM32H7xx_HAL_Driver/Src/stm32h7xx_hal_flash_ex.c ****   *
1431:../../Drivers/STM32H7xx_HAL_Driver/Src/stm32h7xx_hal_flash_ex.c ****   * @param  PCROPConfig indicates if the PCROP area for the given Bank shall be erased or not
1432:../../Drivers/STM32H7xx_HAL_Driver/Src/stm32h7xx_hal_flash_ex.c ****   *         when RDP level decreased from Level 1 to Level 0 or after a bank erase with protection 
1433:../../Drivers/STM32H7xx_HAL_Driver/Src/stm32h7xx_hal_flash_ex.c ****   *
1434:../../Drivers/STM32H7xx_HAL_Driver/Src/stm32h7xx_hal_flash_ex.c ****   * @param  PCROPStartAddr gives the start address of the Proprietary code readout protection of th
1435:../../Drivers/STM32H7xx_HAL_Driver/Src/stm32h7xx_hal_flash_ex.c ****   *
1436:../../Drivers/STM32H7xx_HAL_Driver/Src/stm32h7xx_hal_flash_ex.c ****   * @param  PCROPEndAddr gives the end address of the Proprietary code readout protection of the ba
1437:../../Drivers/STM32H7xx_HAL_Driver/Src/stm32h7xx_hal_flash_ex.c ****   *
1438:../../Drivers/STM32H7xx_HAL_Driver/Src/stm32h7xx_hal_flash_ex.c ****   * @param  Bank the specific bank to apply PCROP protection
1439:../../Drivers/STM32H7xx_HAL_Driver/Src/stm32h7xx_hal_flash_ex.c ****   *          This parameter can be exclusively one of the following values:
1440:../../Drivers/STM32H7xx_HAL_Driver/Src/stm32h7xx_hal_flash_ex.c ****   *            @arg FLASH_BANK_1: PCROP on specified bank1 area
1441:../../Drivers/STM32H7xx_HAL_Driver/Src/stm32h7xx_hal_flash_ex.c ****   *            @arg FLASH_BANK_2: PCROP on specified bank2 area
1442:../../Drivers/STM32H7xx_HAL_Driver/Src/stm32h7xx_hal_flash_ex.c ****   *            @arg FLASH_BANK_BOTH: is  not allowed here
1443:../../Drivers/STM32H7xx_HAL_Driver/Src/stm32h7xx_hal_flash_ex.c ****   *
1444:../../Drivers/STM32H7xx_HAL_Driver/Src/stm32h7xx_hal_flash_ex.c ****   * @retval None
1445:../../Drivers/STM32H7xx_HAL_Driver/Src/stm32h7xx_hal_flash_ex.c ****   */
1446:../../Drivers/STM32H7xx_HAL_Driver/Src/stm32h7xx_hal_flash_ex.c **** static void FLASH_OB_GetPCROP(uint32_t *PCROPConfig, uint32_t *PCROPStartAddr, uint32_t *PCROPEndAd
1447:../../Drivers/STM32H7xx_HAL_Driver/Src/stm32h7xx_hal_flash_ex.c **** {
 792              		.loc 1 1447 1 is_stmt 1 view -0
 793              		.cfi_startproc
 794              		@ args = 0, pretend = 0, frame = 0
 795              		@ frame_needed = 0, uses_anonymous_args = 0
 796              		@ link register save eliminated.
 797              		.loc 1 1447 1 is_stmt 0 view .LVU262
 798 0000 10B4     		push	{r4}
 799              	.LCFI3:
 800              		.cfi_def_cfa_offset 4
 801              		.cfi_offset 4, -4
1448:../../Drivers/STM32H7xx_HAL_Driver/Src/stm32h7xx_hal_flash_ex.c ****   uint32_t regvalue = 0;
 802              		.loc 1 1448 3 is_stmt 1 view .LVU263
 803              	.LVL64:
1449:../../Drivers/STM32H7xx_HAL_Driver/Src/stm32h7xx_hal_flash_ex.c ****   uint32_t bankBase = 0;
 804              		.loc 1 1449 3 view .LVU264
1450:../../Drivers/STM32H7xx_HAL_Driver/Src/stm32h7xx_hal_flash_ex.c **** 
1451:../../Drivers/STM32H7xx_HAL_Driver/Src/stm32h7xx_hal_flash_ex.c ****   if(Bank == FLASH_BANK_1)
 805              		.loc 1 1451 3 view .LVU265
 806              		.loc 1 1451 5 is_stmt 0 view .LVU266
 807 0002 012B     		cmp	r3, #1
 808 0004 15D0     		beq	.L69
1449:../../Drivers/STM32H7xx_HAL_Driver/Src/stm32h7xx_hal_flash_ex.c ****   uint32_t bankBase = 0;
 809              		.loc 1 1449 12 view .LVU267
 810 0006 4FF0000C 		mov	ip, #0
1448:../../Drivers/STM32H7xx_HAL_Driver/Src/stm32h7xx_hal_flash_ex.c ****   uint32_t bankBase = 0;
 811              		.loc 1 1448 12 view .LVU268
 812 000a 6446     		mov	r4, ip
 813              	.LVL65:
 814              	.L65:
1452:../../Drivers/STM32H7xx_HAL_Driver/Src/stm32h7xx_hal_flash_ex.c ****   {
1453:../../Drivers/STM32H7xx_HAL_Driver/Src/stm32h7xx_hal_flash_ex.c ****     regvalue = FLASH->PRAR_CUR1;
1454:../../Drivers/STM32H7xx_HAL_Driver/Src/stm32h7xx_hal_flash_ex.c ****     bankBase = FLASH_BANK1_BASE;
1455:../../Drivers/STM32H7xx_HAL_Driver/Src/stm32h7xx_hal_flash_ex.c ****   }
1456:../../Drivers/STM32H7xx_HAL_Driver/Src/stm32h7xx_hal_flash_ex.c **** 
ARM GAS  /tmp/ccYcJizL.s 			page 41


1457:../../Drivers/STM32H7xx_HAL_Driver/Src/stm32h7xx_hal_flash_ex.c **** #if defined (DUAL_BANK)
1458:../../Drivers/STM32H7xx_HAL_Driver/Src/stm32h7xx_hal_flash_ex.c ****   if(Bank == FLASH_BANK_2)
 815              		.loc 1 1458 3 is_stmt 1 view .LVU269
 816              		.loc 1 1458 5 is_stmt 0 view .LVU270
 817 000c 022B     		cmp	r3, #2
 818 000e 15D0     		beq	.L70
 819              	.LVL66:
 820              	.L66:
1459:../../Drivers/STM32H7xx_HAL_Driver/Src/stm32h7xx_hal_flash_ex.c ****   {
1460:../../Drivers/STM32H7xx_HAL_Driver/Src/stm32h7xx_hal_flash_ex.c ****     regvalue = FLASH->PRAR_CUR2;
1461:../../Drivers/STM32H7xx_HAL_Driver/Src/stm32h7xx_hal_flash_ex.c ****     bankBase = FLASH_BANK2_BASE;
1462:../../Drivers/STM32H7xx_HAL_Driver/Src/stm32h7xx_hal_flash_ex.c ****   }
1463:../../Drivers/STM32H7xx_HAL_Driver/Src/stm32h7xx_hal_flash_ex.c **** #endif /* DUAL_BANK */
1464:../../Drivers/STM32H7xx_HAL_Driver/Src/stm32h7xx_hal_flash_ex.c **** 
1465:../../Drivers/STM32H7xx_HAL_Driver/Src/stm32h7xx_hal_flash_ex.c ****   (*PCROPConfig) =  (regvalue & FLASH_PRAR_DMEP);
 821              		.loc 1 1465 3 is_stmt 1 view .LVU271
 822              		.loc 1 1465 31 is_stmt 0 view .LVU272
 823 0010 04F00043 		and	r3, r4, #-2147483648
 824              		.loc 1 1465 18 view .LVU273
 825 0014 0360     		str	r3, [r0]
1466:../../Drivers/STM32H7xx_HAL_Driver/Src/stm32h7xx_hal_flash_ex.c **** 
1467:../../Drivers/STM32H7xx_HAL_Driver/Src/stm32h7xx_hal_flash_ex.c ****   (*PCROPStartAddr) = ((regvalue & FLASH_PRAR_PROT_AREA_START) << 8) + bankBase;
 826              		.loc 1 1467 3 is_stmt 1 view .LVU274
 827              		.loc 1 1467 64 is_stmt 0 view .LVU275
 828 0016 0C4B     		ldr	r3, .L71
 829 0018 03EA0423 		and	r3, r3, r4, lsl #8
 830              		.loc 1 1467 70 view .LVU276
 831 001c 6344     		add	r3, r3, ip
 832              		.loc 1 1467 21 view .LVU277
 833 001e 0B60     		str	r3, [r1]
1468:../../Drivers/STM32H7xx_HAL_Driver/Src/stm32h7xx_hal_flash_ex.c ****   (*PCROPEndAddr) = (regvalue & FLASH_PRAR_PROT_AREA_END) >> FLASH_PRAR_PROT_AREA_END_Pos;
 834              		.loc 1 1468 3 is_stmt 1 view .LVU278
 835              		.loc 1 1468 59 is_stmt 0 view .LVU279
 836 0020 C4F30B44 		ubfx	r4, r4, #16, #12
 837              	.LVL67:
 838              		.loc 1 1468 19 view .LVU280
 839 0024 1460     		str	r4, [r2]
1469:../../Drivers/STM32H7xx_HAL_Driver/Src/stm32h7xx_hal_flash_ex.c ****   (*PCROPEndAddr) = ((*PCROPEndAddr) << 8) + bankBase;
 840              		.loc 1 1469 3 is_stmt 1 view .LVU281
 841              		.loc 1 1469 44 is_stmt 0 view .LVU282
 842 0026 0CEB0424 		add	r4, ip, r4, lsl #8
 843              		.loc 1 1469 19 view .LVU283
 844 002a 1460     		str	r4, [r2]
1470:../../Drivers/STM32H7xx_HAL_Driver/Src/stm32h7xx_hal_flash_ex.c **** }
 845              		.loc 1 1470 1 view .LVU284
 846 002c 5DF8044B 		ldr	r4, [sp], #4
 847              	.LCFI4:
 848              		.cfi_remember_state
 849              		.cfi_restore 4
 850              		.cfi_def_cfa_offset 0
 851 0030 7047     		bx	lr
 852              	.LVL68:
 853              	.L69:
 854              	.LCFI5:
 855              		.cfi_restore_state
1453:../../Drivers/STM32H7xx_HAL_Driver/Src/stm32h7xx_hal_flash_ex.c ****     bankBase = FLASH_BANK1_BASE;
 856              		.loc 1 1453 5 is_stmt 1 view .LVU285
ARM GAS  /tmp/ccYcJizL.s 			page 42


1453:../../Drivers/STM32H7xx_HAL_Driver/Src/stm32h7xx_hal_flash_ex.c ****     bankBase = FLASH_BANK1_BASE;
 857              		.loc 1 1453 14 is_stmt 0 view .LVU286
 858 0032 064C     		ldr	r4, .L71+4
 859 0034 A46A     		ldr	r4, [r4, #40]
 860              	.LVL69:
1454:../../Drivers/STM32H7xx_HAL_Driver/Src/stm32h7xx_hal_flash_ex.c ****   }
 861              		.loc 1 1454 5 is_stmt 1 view .LVU287
1454:../../Drivers/STM32H7xx_HAL_Driver/Src/stm32h7xx_hal_flash_ex.c ****   }
 862              		.loc 1 1454 14 is_stmt 0 view .LVU288
 863 0036 4FF0006C 		mov	ip, #134217728
 864 003a E7E7     		b	.L65
 865              	.LVL70:
 866              	.L70:
1460:../../Drivers/STM32H7xx_HAL_Driver/Src/stm32h7xx_hal_flash_ex.c ****     bankBase = FLASH_BANK2_BASE;
 867              		.loc 1 1460 5 is_stmt 1 view .LVU289
1460:../../Drivers/STM32H7xx_HAL_Driver/Src/stm32h7xx_hal_flash_ex.c ****     bankBase = FLASH_BANK2_BASE;
 868              		.loc 1 1460 14 is_stmt 0 view .LVU290
 869 003c 034B     		ldr	r3, .L71+4
 870              	.LVL71:
1460:../../Drivers/STM32H7xx_HAL_Driver/Src/stm32h7xx_hal_flash_ex.c ****     bankBase = FLASH_BANK2_BASE;
 871              		.loc 1 1460 14 view .LVU291
 872 003e D3F82841 		ldr	r4, [r3, #296]
 873              	.LVL72:
1461:../../Drivers/STM32H7xx_HAL_Driver/Src/stm32h7xx_hal_flash_ex.c ****   }
 874              		.loc 1 1461 5 is_stmt 1 view .LVU292
1461:../../Drivers/STM32H7xx_HAL_Driver/Src/stm32h7xx_hal_flash_ex.c ****   }
 875              		.loc 1 1461 14 is_stmt 0 view .LVU293
 876 0042 4FF0016C 		mov	ip, #135266304
 877 0046 E3E7     		b	.L66
 878              	.L72:
 879              		.align	2
 880              	.L71:
 881 0048 00FF0F00 		.word	1048320
 882 004c 00200052 		.word	1375739904
 883              		.cfi_endproc
 884              	.LFE151:
 886              		.section	.text.FLASH_OB_BOR_LevelConfig,"ax",%progbits
 887              		.align	1
 888              		.syntax unified
 889              		.thumb
 890              		.thumb_func
 891              		.fpu fpv4-sp-d16
 893              	FLASH_OB_BOR_LevelConfig:
 894              	.LVL73:
 895              	.LFB152:
1471:../../Drivers/STM32H7xx_HAL_Driver/Src/stm32h7xx_hal_flash_ex.c **** 
1472:../../Drivers/STM32H7xx_HAL_Driver/Src/stm32h7xx_hal_flash_ex.c **** /**
1473:../../Drivers/STM32H7xx_HAL_Driver/Src/stm32h7xx_hal_flash_ex.c ****   * @brief  Set the BOR Level.
1474:../../Drivers/STM32H7xx_HAL_Driver/Src/stm32h7xx_hal_flash_ex.c ****   * @param  Level specifies the Option Bytes BOR Reset Level.
1475:../../Drivers/STM32H7xx_HAL_Driver/Src/stm32h7xx_hal_flash_ex.c ****   *          This parameter can be one of the following values:
1476:../../Drivers/STM32H7xx_HAL_Driver/Src/stm32h7xx_hal_flash_ex.c ****   *            @arg OB_BOR_LEVEL0: Reset level threshold is set to 1.6V
1477:../../Drivers/STM32H7xx_HAL_Driver/Src/stm32h7xx_hal_flash_ex.c ****   *            @arg OB_BOR_LEVEL1: Reset level threshold is set to 2.1V
1478:../../Drivers/STM32H7xx_HAL_Driver/Src/stm32h7xx_hal_flash_ex.c ****   *            @arg OB_BOR_LEVEL2: Reset level threshold is set to 2.4V
1479:../../Drivers/STM32H7xx_HAL_Driver/Src/stm32h7xx_hal_flash_ex.c ****   *            @arg OB_BOR_LEVEL3: Reset level threshold is set to 2.7V
1480:../../Drivers/STM32H7xx_HAL_Driver/Src/stm32h7xx_hal_flash_ex.c ****   * @retval None
1481:../../Drivers/STM32H7xx_HAL_Driver/Src/stm32h7xx_hal_flash_ex.c ****   */
1482:../../Drivers/STM32H7xx_HAL_Driver/Src/stm32h7xx_hal_flash_ex.c **** static void FLASH_OB_BOR_LevelConfig(uint32_t Level)
ARM GAS  /tmp/ccYcJizL.s 			page 43


1483:../../Drivers/STM32H7xx_HAL_Driver/Src/stm32h7xx_hal_flash_ex.c **** {
 896              		.loc 1 1483 1 is_stmt 1 view -0
 897              		.cfi_startproc
 898              		@ args = 0, pretend = 0, frame = 0
 899              		@ frame_needed = 0, uses_anonymous_args = 0
 900              		@ link register save eliminated.
1484:../../Drivers/STM32H7xx_HAL_Driver/Src/stm32h7xx_hal_flash_ex.c ****   assert_param(IS_OB_BOR_LEVEL(Level));
 901              		.loc 1 1484 3 view .LVU295
1485:../../Drivers/STM32H7xx_HAL_Driver/Src/stm32h7xx_hal_flash_ex.c **** 
1486:../../Drivers/STM32H7xx_HAL_Driver/Src/stm32h7xx_hal_flash_ex.c ****   /* Configure BOR_LEV option byte */
1487:../../Drivers/STM32H7xx_HAL_Driver/Src/stm32h7xx_hal_flash_ex.c ****   MODIFY_REG(FLASH->OPTSR_PRG, FLASH_OPTSR_BOR_LEV, Level);
 902              		.loc 1 1487 3 view .LVU296
 903 0000 034A     		ldr	r2, .L74
 904 0002 136A     		ldr	r3, [r2, #32]
 905 0004 23F00C03 		bic	r3, r3, #12
 906 0008 0343     		orrs	r3, r3, r0
 907 000a 1362     		str	r3, [r2, #32]
1488:../../Drivers/STM32H7xx_HAL_Driver/Src/stm32h7xx_hal_flash_ex.c **** }
 908              		.loc 1 1488 1 is_stmt 0 view .LVU297
 909 000c 7047     		bx	lr
 910              	.L75:
 911 000e 00BF     		.align	2
 912              	.L74:
 913 0010 00200052 		.word	1375739904
 914              		.cfi_endproc
 915              	.LFE152:
 917              		.section	.text.FLASH_OB_GetBOR,"ax",%progbits
 918              		.align	1
 919              		.syntax unified
 920              		.thumb
 921              		.thumb_func
 922              		.fpu fpv4-sp-d16
 924              	FLASH_OB_GetBOR:
 925              	.LFB153:
1489:../../Drivers/STM32H7xx_HAL_Driver/Src/stm32h7xx_hal_flash_ex.c **** 
1490:../../Drivers/STM32H7xx_HAL_Driver/Src/stm32h7xx_hal_flash_ex.c **** /**
1491:../../Drivers/STM32H7xx_HAL_Driver/Src/stm32h7xx_hal_flash_ex.c ****   * @brief  Get the BOR Level.
1492:../../Drivers/STM32H7xx_HAL_Driver/Src/stm32h7xx_hal_flash_ex.c ****   * @retval The Option Bytes BOR Reset Level.
1493:../../Drivers/STM32H7xx_HAL_Driver/Src/stm32h7xx_hal_flash_ex.c ****   *            This parameter can be one of the following values:
1494:../../Drivers/STM32H7xx_HAL_Driver/Src/stm32h7xx_hal_flash_ex.c ****   *            @arg OB_BOR_LEVEL0: Reset level threshold is set to 1.6V
1495:../../Drivers/STM32H7xx_HAL_Driver/Src/stm32h7xx_hal_flash_ex.c ****   *            @arg OB_BOR_LEVEL1: Reset level threshold is set to 2.1V
1496:../../Drivers/STM32H7xx_HAL_Driver/Src/stm32h7xx_hal_flash_ex.c ****   *            @arg OB_BOR_LEVEL2: Reset level threshold is set to 2.4V
1497:../../Drivers/STM32H7xx_HAL_Driver/Src/stm32h7xx_hal_flash_ex.c ****   *            @arg OB_BOR_LEVEL3: Reset level threshold is set to 2.7V
1498:../../Drivers/STM32H7xx_HAL_Driver/Src/stm32h7xx_hal_flash_ex.c ****   */
1499:../../Drivers/STM32H7xx_HAL_Driver/Src/stm32h7xx_hal_flash_ex.c **** static uint32_t FLASH_OB_GetBOR(void)
1500:../../Drivers/STM32H7xx_HAL_Driver/Src/stm32h7xx_hal_flash_ex.c **** {
 926              		.loc 1 1500 1 is_stmt 1 view -0
 927              		.cfi_startproc
 928              		@ args = 0, pretend = 0, frame = 0
 929              		@ frame_needed = 0, uses_anonymous_args = 0
 930              		@ link register save eliminated.
1501:../../Drivers/STM32H7xx_HAL_Driver/Src/stm32h7xx_hal_flash_ex.c ****   return (FLASH->OPTSR_CUR & FLASH_OPTSR_BOR_LEV);
 931              		.loc 1 1501 3 view .LVU299
 932              		.loc 1 1501 16 is_stmt 0 view .LVU300
 933 0000 024B     		ldr	r3, .L77
 934 0002 D869     		ldr	r0, [r3, #28]
1502:../../Drivers/STM32H7xx_HAL_Driver/Src/stm32h7xx_hal_flash_ex.c **** }
ARM GAS  /tmp/ccYcJizL.s 			page 44


 935              		.loc 1 1502 1 view .LVU301
 936 0004 00F00C00 		and	r0, r0, #12
 937 0008 7047     		bx	lr
 938              	.L78:
 939 000a 00BF     		.align	2
 940              	.L77:
 941 000c 00200052 		.word	1375739904
 942              		.cfi_endproc
 943              	.LFE153:
 945              		.section	.text.FLASH_OB_BootAddConfig,"ax",%progbits
 946              		.align	1
 947              		.syntax unified
 948              		.thumb
 949              		.thumb_func
 950              		.fpu fpv4-sp-d16
 952              	FLASH_OB_BootAddConfig:
 953              	.LVL74:
 954              	.LFB154:
1503:../../Drivers/STM32H7xx_HAL_Driver/Src/stm32h7xx_hal_flash_ex.c **** 
1504:../../Drivers/STM32H7xx_HAL_Driver/Src/stm32h7xx_hal_flash_ex.c **** /**
1505:../../Drivers/STM32H7xx_HAL_Driver/Src/stm32h7xx_hal_flash_ex.c ****   * @brief  Set Boot address
1506:../../Drivers/STM32H7xx_HAL_Driver/Src/stm32h7xx_hal_flash_ex.c ****   * @param  BootOption Boot address option byte to be programmed,
1507:../../Drivers/STM32H7xx_HAL_Driver/Src/stm32h7xx_hal_flash_ex.c ****   *                     This parameter must be a value of @ref FLASHEx_OB_BOOT_OPTION
1508:../../Drivers/STM32H7xx_HAL_Driver/Src/stm32h7xx_hal_flash_ex.c ****                         (OB_BOOT_ADD0, OB_BOOT_ADD1 or OB_BOOT_ADD_BOTH)
1509:../../Drivers/STM32H7xx_HAL_Driver/Src/stm32h7xx_hal_flash_ex.c ****   *
1510:../../Drivers/STM32H7xx_HAL_Driver/Src/stm32h7xx_hal_flash_ex.c ****   * @param  BootAddress0 Specifies the Boot Address 0
1511:../../Drivers/STM32H7xx_HAL_Driver/Src/stm32h7xx_hal_flash_ex.c ****   * @param  BootAddress1 Specifies the Boot Address 1
1512:../../Drivers/STM32H7xx_HAL_Driver/Src/stm32h7xx_hal_flash_ex.c ****   * @retval HAL Status
1513:../../Drivers/STM32H7xx_HAL_Driver/Src/stm32h7xx_hal_flash_ex.c ****   */
1514:../../Drivers/STM32H7xx_HAL_Driver/Src/stm32h7xx_hal_flash_ex.c **** static void FLASH_OB_BootAddConfig(uint32_t BootOption, uint32_t BootAddress0, uint32_t BootAddress
1515:../../Drivers/STM32H7xx_HAL_Driver/Src/stm32h7xx_hal_flash_ex.c **** {
 955              		.loc 1 1515 1 is_stmt 1 view -0
 956              		.cfi_startproc
 957              		@ args = 0, pretend = 0, frame = 0
 958              		@ frame_needed = 0, uses_anonymous_args = 0
 959              		@ link register save eliminated.
 960              		.loc 1 1515 1 is_stmt 0 view .LVU303
 961 0000 30B4     		push	{r4, r5}
 962              	.LCFI6:
 963              		.cfi_def_cfa_offset 8
 964              		.cfi_offset 4, -8
 965              		.cfi_offset 5, -4
1516:../../Drivers/STM32H7xx_HAL_Driver/Src/stm32h7xx_hal_flash_ex.c ****   /* Check the parameters */
1517:../../Drivers/STM32H7xx_HAL_Driver/Src/stm32h7xx_hal_flash_ex.c ****   assert_param(IS_OB_BOOT_ADD_OPTION(BootOption));
 966              		.loc 1 1517 3 is_stmt 1 view .LVU304
1518:../../Drivers/STM32H7xx_HAL_Driver/Src/stm32h7xx_hal_flash_ex.c **** 
1519:../../Drivers/STM32H7xx_HAL_Driver/Src/stm32h7xx_hal_flash_ex.c ****   if((BootOption & OB_BOOT_ADD0) == OB_BOOT_ADD0)
 967              		.loc 1 1519 3 view .LVU305
 968              		.loc 1 1519 5 is_stmt 0 view .LVU306
 969 0002 10F0010F 		tst	r0, #1
 970 0006 06D0     		beq	.L80
1520:../../Drivers/STM32H7xx_HAL_Driver/Src/stm32h7xx_hal_flash_ex.c ****   {
1521:../../Drivers/STM32H7xx_HAL_Driver/Src/stm32h7xx_hal_flash_ex.c ****     /* Check the parameters */
1522:../../Drivers/STM32H7xx_HAL_Driver/Src/stm32h7xx_hal_flash_ex.c ****     assert_param(IS_BOOT_ADDRESS(BootAddress0));
 971              		.loc 1 1522 5 is_stmt 1 view .LVU307
1523:../../Drivers/STM32H7xx_HAL_Driver/Src/stm32h7xx_hal_flash_ex.c **** 
1524:../../Drivers/STM32H7xx_HAL_Driver/Src/stm32h7xx_hal_flash_ex.c ****     /* Configure CM7 BOOT ADD0 */
ARM GAS  /tmp/ccYcJizL.s 			page 45


1525:../../Drivers/STM32H7xx_HAL_Driver/Src/stm32h7xx_hal_flash_ex.c **** #if defined(DUAL_CORE)
1526:../../Drivers/STM32H7xx_HAL_Driver/Src/stm32h7xx_hal_flash_ex.c ****     MODIFY_REG(FLASH->BOOT7_PRG, FLASH_BOOT7_BCM7_ADD0, (BootAddress0 >> 16));
 972              		.loc 1 1526 5 view .LVU308
 973 0008 084C     		ldr	r4, .L83
 974 000a 656C     		ldr	r5, [r4, #68]
 975 000c 084B     		ldr	r3, .L83+4
 976 000e 2B40     		ands	r3, r3, r5
 977 0010 43EA1141 		orr	r1, r3, r1, lsr #16
 978              	.LVL75:
 979              		.loc 1 1526 5 is_stmt 0 view .LVU309
 980 0014 6164     		str	r1, [r4, #68]
 981              	.L80:
1527:../../Drivers/STM32H7xx_HAL_Driver/Src/stm32h7xx_hal_flash_ex.c **** #else /* Single Core*/
1528:../../Drivers/STM32H7xx_HAL_Driver/Src/stm32h7xx_hal_flash_ex.c ****     MODIFY_REG(FLASH->BOOT_PRG, FLASH_BOOT_ADD0, (BootAddress0 >> 16));
1529:../../Drivers/STM32H7xx_HAL_Driver/Src/stm32h7xx_hal_flash_ex.c **** #endif /* DUAL_CORE */
1530:../../Drivers/STM32H7xx_HAL_Driver/Src/stm32h7xx_hal_flash_ex.c ****   }
1531:../../Drivers/STM32H7xx_HAL_Driver/Src/stm32h7xx_hal_flash_ex.c **** 
1532:../../Drivers/STM32H7xx_HAL_Driver/Src/stm32h7xx_hal_flash_ex.c ****   if((BootOption & OB_BOOT_ADD1) == OB_BOOT_ADD1)
 982              		.loc 1 1532 3 is_stmt 1 view .LVU310
 983              		.loc 1 1532 5 is_stmt 0 view .LVU311
 984 0016 10F0020F 		tst	r0, #2
 985 001a 04D0     		beq	.L79
1533:../../Drivers/STM32H7xx_HAL_Driver/Src/stm32h7xx_hal_flash_ex.c ****   {
1534:../../Drivers/STM32H7xx_HAL_Driver/Src/stm32h7xx_hal_flash_ex.c ****     /* Check the parameters */
1535:../../Drivers/STM32H7xx_HAL_Driver/Src/stm32h7xx_hal_flash_ex.c ****     assert_param(IS_BOOT_ADDRESS(BootAddress1));
 986              		.loc 1 1535 5 is_stmt 1 view .LVU312
1536:../../Drivers/STM32H7xx_HAL_Driver/Src/stm32h7xx_hal_flash_ex.c **** 
1537:../../Drivers/STM32H7xx_HAL_Driver/Src/stm32h7xx_hal_flash_ex.c ****     /* Configure CM7 BOOT ADD1 */
1538:../../Drivers/STM32H7xx_HAL_Driver/Src/stm32h7xx_hal_flash_ex.c **** #if defined(DUAL_CORE)
1539:../../Drivers/STM32H7xx_HAL_Driver/Src/stm32h7xx_hal_flash_ex.c ****     MODIFY_REG(FLASH->BOOT7_PRG, FLASH_BOOT7_BCM7_ADD1, BootAddress1);
 987              		.loc 1 1539 5 view .LVU313
 988 001c 0349     		ldr	r1, .L83
 989 001e 4B6C     		ldr	r3, [r1, #68]
 990 0020 9BB2     		uxth	r3, r3
 991 0022 1A43     		orrs	r2, r2, r3
 992              	.LVL76:
 993              		.loc 1 1539 5 is_stmt 0 view .LVU314
 994 0024 4A64     		str	r2, [r1, #68]
 995              	.L79:
1540:../../Drivers/STM32H7xx_HAL_Driver/Src/stm32h7xx_hal_flash_ex.c **** #else /* Single Core*/
1541:../../Drivers/STM32H7xx_HAL_Driver/Src/stm32h7xx_hal_flash_ex.c ****     MODIFY_REG(FLASH->BOOT_PRG, FLASH_BOOT_ADD1, BootAddress1);
1542:../../Drivers/STM32H7xx_HAL_Driver/Src/stm32h7xx_hal_flash_ex.c **** #endif /* DUAL_CORE */
1543:../../Drivers/STM32H7xx_HAL_Driver/Src/stm32h7xx_hal_flash_ex.c ****   }
1544:../../Drivers/STM32H7xx_HAL_Driver/Src/stm32h7xx_hal_flash_ex.c **** }
 996              		.loc 1 1544 1 view .LVU315
 997 0026 30BC     		pop	{r4, r5}
 998              	.LCFI7:
 999              		.cfi_restore 5
 1000              		.cfi_restore 4
 1001              		.cfi_def_cfa_offset 0
 1002 0028 7047     		bx	lr
 1003              	.L84:
 1004 002a 00BF     		.align	2
 1005              	.L83:
 1006 002c 00200052 		.word	1375739904
 1007 0030 0000FFFF 		.word	-65536
 1008              		.cfi_endproc
ARM GAS  /tmp/ccYcJizL.s 			page 46


 1009              	.LFE154:
 1011              		.section	.text.FLASH_OB_GetBootAdd,"ax",%progbits
 1012              		.align	1
 1013              		.syntax unified
 1014              		.thumb
 1015              		.thumb_func
 1016              		.fpu fpv4-sp-d16
 1018              	FLASH_OB_GetBootAdd:
 1019              	.LVL77:
 1020              	.LFB155:
1545:../../Drivers/STM32H7xx_HAL_Driver/Src/stm32h7xx_hal_flash_ex.c **** 
1546:../../Drivers/STM32H7xx_HAL_Driver/Src/stm32h7xx_hal_flash_ex.c **** /**
1547:../../Drivers/STM32H7xx_HAL_Driver/Src/stm32h7xx_hal_flash_ex.c ****   * @brief  Get Boot address
1548:../../Drivers/STM32H7xx_HAL_Driver/Src/stm32h7xx_hal_flash_ex.c ****   * @param  BootAddress0 Specifies the Boot Address 0.
1549:../../Drivers/STM32H7xx_HAL_Driver/Src/stm32h7xx_hal_flash_ex.c ****   * @param  BootAddress1 Specifies the Boot Address 1.
1550:../../Drivers/STM32H7xx_HAL_Driver/Src/stm32h7xx_hal_flash_ex.c ****   * @retval HAL Status
1551:../../Drivers/STM32H7xx_HAL_Driver/Src/stm32h7xx_hal_flash_ex.c ****   */
1552:../../Drivers/STM32H7xx_HAL_Driver/Src/stm32h7xx_hal_flash_ex.c **** static void FLASH_OB_GetBootAdd(uint32_t *BootAddress0, uint32_t *BootAddress1)
1553:../../Drivers/STM32H7xx_HAL_Driver/Src/stm32h7xx_hal_flash_ex.c **** {
 1021              		.loc 1 1553 1 is_stmt 1 view -0
 1022              		.cfi_startproc
 1023              		@ args = 0, pretend = 0, frame = 0
 1024              		@ frame_needed = 0, uses_anonymous_args = 0
 1025              		@ link register save eliminated.
1554:../../Drivers/STM32H7xx_HAL_Driver/Src/stm32h7xx_hal_flash_ex.c ****   uint32_t regvalue;
 1026              		.loc 1 1554 3 view .LVU317
1555:../../Drivers/STM32H7xx_HAL_Driver/Src/stm32h7xx_hal_flash_ex.c **** 
1556:../../Drivers/STM32H7xx_HAL_Driver/Src/stm32h7xx_hal_flash_ex.c **** #if defined(DUAL_CORE)
1557:../../Drivers/STM32H7xx_HAL_Driver/Src/stm32h7xx_hal_flash_ex.c ****   regvalue = FLASH->BOOT7_CUR;
 1027              		.loc 1 1557 3 view .LVU318
 1028              		.loc 1 1557 12 is_stmt 0 view .LVU319
 1029 0000 034B     		ldr	r3, .L86
 1030 0002 1A6C     		ldr	r2, [r3, #64]
 1031              	.LVL78:
1558:../../Drivers/STM32H7xx_HAL_Driver/Src/stm32h7xx_hal_flash_ex.c **** 
1559:../../Drivers/STM32H7xx_HAL_Driver/Src/stm32h7xx_hal_flash_ex.c ****   (*BootAddress0) = (regvalue & FLASH_BOOT7_BCM7_ADD0) << 16;
 1032              		.loc 1 1559 3 is_stmt 1 view .LVU320
 1033              		.loc 1 1559 56 is_stmt 0 view .LVU321
 1034 0004 1304     		lsls	r3, r2, #16
 1035              		.loc 1 1559 19 view .LVU322
 1036 0006 0360     		str	r3, [r0]
1560:../../Drivers/STM32H7xx_HAL_Driver/Src/stm32h7xx_hal_flash_ex.c ****   (*BootAddress1) = (regvalue & FLASH_BOOT7_BCM7_ADD1);
 1037              		.loc 1 1560 3 is_stmt 1 view .LVU323
 1038              		.loc 1 1560 31 is_stmt 0 view .LVU324
 1039 0008 024B     		ldr	r3, .L86+4
 1040 000a 1340     		ands	r3, r3, r2
 1041              		.loc 1 1560 19 view .LVU325
 1042 000c 0B60     		str	r3, [r1]
1561:../../Drivers/STM32H7xx_HAL_Driver/Src/stm32h7xx_hal_flash_ex.c **** #else /* Single Core */
1562:../../Drivers/STM32H7xx_HAL_Driver/Src/stm32h7xx_hal_flash_ex.c ****   regvalue = FLASH->BOOT_CUR;
1563:../../Drivers/STM32H7xx_HAL_Driver/Src/stm32h7xx_hal_flash_ex.c **** 
1564:../../Drivers/STM32H7xx_HAL_Driver/Src/stm32h7xx_hal_flash_ex.c ****   (*BootAddress0) = (regvalue & FLASH_BOOT_ADD0) << 16;
1565:../../Drivers/STM32H7xx_HAL_Driver/Src/stm32h7xx_hal_flash_ex.c ****   (*BootAddress1) = (regvalue & FLASH_BOOT_ADD1);
1566:../../Drivers/STM32H7xx_HAL_Driver/Src/stm32h7xx_hal_flash_ex.c **** #endif /* DUAL_CORE */
1567:../../Drivers/STM32H7xx_HAL_Driver/Src/stm32h7xx_hal_flash_ex.c **** }
 1043              		.loc 1 1567 1 view .LVU326
 1044 000e 7047     		bx	lr
ARM GAS  /tmp/ccYcJizL.s 			page 47


 1045              	.L87:
 1046              		.align	2
 1047              	.L86:
 1048 0010 00200052 		.word	1375739904
 1049 0014 0000FFFF 		.word	-65536
 1050              		.cfi_endproc
 1051              	.LFE155:
 1053              		.section	.text.FLASH_OB_CM4BootAddConfig,"ax",%progbits
 1054              		.align	1
 1055              		.syntax unified
 1056              		.thumb
 1057              		.thumb_func
 1058              		.fpu fpv4-sp-d16
 1060              	FLASH_OB_CM4BootAddConfig:
 1061              	.LVL79:
 1062              	.LFB156:
1568:../../Drivers/STM32H7xx_HAL_Driver/Src/stm32h7xx_hal_flash_ex.c **** 
1569:../../Drivers/STM32H7xx_HAL_Driver/Src/stm32h7xx_hal_flash_ex.c **** #if defined(DUAL_CORE)
1570:../../Drivers/STM32H7xx_HAL_Driver/Src/stm32h7xx_hal_flash_ex.c **** /**
1571:../../Drivers/STM32H7xx_HAL_Driver/Src/stm32h7xx_hal_flash_ex.c ****   * @brief  Set CM4 Boot address
1572:../../Drivers/STM32H7xx_HAL_Driver/Src/stm32h7xx_hal_flash_ex.c ****   * @param  BootOption Boot address option byte to be programmed,
1573:../../Drivers/STM32H7xx_HAL_Driver/Src/stm32h7xx_hal_flash_ex.c ****   *                     This parameter must be a value of @ref FLASHEx_OB_BOOT_OPTION
1574:../../Drivers/STM32H7xx_HAL_Driver/Src/stm32h7xx_hal_flash_ex.c ****                         (OB_BOOT_ADD0, OB_BOOT_ADD1 or OB_BOOT_ADD_BOTH)
1575:../../Drivers/STM32H7xx_HAL_Driver/Src/stm32h7xx_hal_flash_ex.c ****   *
1576:../../Drivers/STM32H7xx_HAL_Driver/Src/stm32h7xx_hal_flash_ex.c ****   * @param  BootAddress0 Specifies the CM4 Boot Address 0.
1577:../../Drivers/STM32H7xx_HAL_Driver/Src/stm32h7xx_hal_flash_ex.c ****   * @param  BootAddress1 Specifies the CM4 Boot Address 1.
1578:../../Drivers/STM32H7xx_HAL_Driver/Src/stm32h7xx_hal_flash_ex.c ****   * @retval HAL Status
1579:../../Drivers/STM32H7xx_HAL_Driver/Src/stm32h7xx_hal_flash_ex.c ****   */
1580:../../Drivers/STM32H7xx_HAL_Driver/Src/stm32h7xx_hal_flash_ex.c **** static void FLASH_OB_CM4BootAddConfig(uint32_t BootOption, uint32_t BootAddress0, uint32_t BootAddr
1581:../../Drivers/STM32H7xx_HAL_Driver/Src/stm32h7xx_hal_flash_ex.c **** {
 1063              		.loc 1 1581 1 is_stmt 1 view -0
 1064              		.cfi_startproc
 1065              		@ args = 0, pretend = 0, frame = 0
 1066              		@ frame_needed = 0, uses_anonymous_args = 0
 1067              		@ link register save eliminated.
 1068              		.loc 1 1581 1 is_stmt 0 view .LVU328
 1069 0000 30B4     		push	{r4, r5}
 1070              	.LCFI8:
 1071              		.cfi_def_cfa_offset 8
 1072              		.cfi_offset 4, -8
 1073              		.cfi_offset 5, -4
1582:../../Drivers/STM32H7xx_HAL_Driver/Src/stm32h7xx_hal_flash_ex.c ****   /* Check the parameters */
1583:../../Drivers/STM32H7xx_HAL_Driver/Src/stm32h7xx_hal_flash_ex.c ****   assert_param(IS_OB_BOOT_ADD_OPTION(BootOption));
 1074              		.loc 1 1583 3 is_stmt 1 view .LVU329
1584:../../Drivers/STM32H7xx_HAL_Driver/Src/stm32h7xx_hal_flash_ex.c **** 
1585:../../Drivers/STM32H7xx_HAL_Driver/Src/stm32h7xx_hal_flash_ex.c ****   if((BootOption & OB_BOOT_ADD0) == OB_BOOT_ADD0)
 1075              		.loc 1 1585 3 view .LVU330
 1076              		.loc 1 1585 5 is_stmt 0 view .LVU331
 1077 0002 10F0010F 		tst	r0, #1
 1078 0006 06D0     		beq	.L89
1586:../../Drivers/STM32H7xx_HAL_Driver/Src/stm32h7xx_hal_flash_ex.c ****   {
1587:../../Drivers/STM32H7xx_HAL_Driver/Src/stm32h7xx_hal_flash_ex.c ****     /* Check the parameters */
1588:../../Drivers/STM32H7xx_HAL_Driver/Src/stm32h7xx_hal_flash_ex.c ****     assert_param(IS_BOOT_ADDRESS(BootAddress0));
 1079              		.loc 1 1588 5 is_stmt 1 view .LVU332
1589:../../Drivers/STM32H7xx_HAL_Driver/Src/stm32h7xx_hal_flash_ex.c **** 
1590:../../Drivers/STM32H7xx_HAL_Driver/Src/stm32h7xx_hal_flash_ex.c ****     /* Configure CM4 BOOT ADD0 */
1591:../../Drivers/STM32H7xx_HAL_Driver/Src/stm32h7xx_hal_flash_ex.c ****     MODIFY_REG(FLASH->BOOT4_PRG, FLASH_BOOT4_BCM4_ADD0, (BootAddress0 >> 16));
ARM GAS  /tmp/ccYcJizL.s 			page 48


 1080              		.loc 1 1591 5 view .LVU333
 1081 0008 084C     		ldr	r4, .L92
 1082 000a E56C     		ldr	r5, [r4, #76]
 1083 000c 084B     		ldr	r3, .L92+4
 1084 000e 2B40     		ands	r3, r3, r5
 1085 0010 43EA1141 		orr	r1, r3, r1, lsr #16
 1086              	.LVL80:
 1087              		.loc 1 1591 5 is_stmt 0 view .LVU334
 1088 0014 E164     		str	r1, [r4, #76]
 1089              	.L89:
1592:../../Drivers/STM32H7xx_HAL_Driver/Src/stm32h7xx_hal_flash_ex.c **** 
1593:../../Drivers/STM32H7xx_HAL_Driver/Src/stm32h7xx_hal_flash_ex.c ****   }
1594:../../Drivers/STM32H7xx_HAL_Driver/Src/stm32h7xx_hal_flash_ex.c **** 
1595:../../Drivers/STM32H7xx_HAL_Driver/Src/stm32h7xx_hal_flash_ex.c ****   if((BootOption & OB_BOOT_ADD1) == OB_BOOT_ADD1)
 1090              		.loc 1 1595 3 is_stmt 1 view .LVU335
 1091              		.loc 1 1595 5 is_stmt 0 view .LVU336
 1092 0016 10F0020F 		tst	r0, #2
 1093 001a 04D0     		beq	.L88
1596:../../Drivers/STM32H7xx_HAL_Driver/Src/stm32h7xx_hal_flash_ex.c ****   {
1597:../../Drivers/STM32H7xx_HAL_Driver/Src/stm32h7xx_hal_flash_ex.c ****     /* Check the parameters */
1598:../../Drivers/STM32H7xx_HAL_Driver/Src/stm32h7xx_hal_flash_ex.c ****     assert_param(IS_BOOT_ADDRESS(BootAddress1));
 1094              		.loc 1 1598 5 is_stmt 1 view .LVU337
1599:../../Drivers/STM32H7xx_HAL_Driver/Src/stm32h7xx_hal_flash_ex.c **** 
1600:../../Drivers/STM32H7xx_HAL_Driver/Src/stm32h7xx_hal_flash_ex.c ****     /* Configure CM4 BOOT ADD1 */
1601:../../Drivers/STM32H7xx_HAL_Driver/Src/stm32h7xx_hal_flash_ex.c ****     MODIFY_REG(FLASH->BOOT4_PRG, FLASH_BOOT4_BCM4_ADD1, BootAddress1);
 1095              		.loc 1 1601 5 view .LVU338
 1096 001c 0349     		ldr	r1, .L92
 1097 001e CB6C     		ldr	r3, [r1, #76]
 1098 0020 9BB2     		uxth	r3, r3
 1099 0022 1A43     		orrs	r2, r2, r3
 1100              	.LVL81:
 1101              		.loc 1 1601 5 is_stmt 0 view .LVU339
 1102 0024 CA64     		str	r2, [r1, #76]
 1103              	.L88:
1602:../../Drivers/STM32H7xx_HAL_Driver/Src/stm32h7xx_hal_flash_ex.c ****   }
1603:../../Drivers/STM32H7xx_HAL_Driver/Src/stm32h7xx_hal_flash_ex.c **** }
 1104              		.loc 1 1603 1 view .LVU340
 1105 0026 30BC     		pop	{r4, r5}
 1106              	.LCFI9:
 1107              		.cfi_restore 5
 1108              		.cfi_restore 4
 1109              		.cfi_def_cfa_offset 0
 1110 0028 7047     		bx	lr
 1111              	.L93:
 1112 002a 00BF     		.align	2
 1113              	.L92:
 1114 002c 00200052 		.word	1375739904
 1115 0030 0000FFFF 		.word	-65536
 1116              		.cfi_endproc
 1117              	.LFE156:
 1119              		.section	.text.FLASH_OB_GetCM4BootAdd,"ax",%progbits
 1120              		.align	1
 1121              		.syntax unified
 1122              		.thumb
 1123              		.thumb_func
 1124              		.fpu fpv4-sp-d16
 1126              	FLASH_OB_GetCM4BootAdd:
ARM GAS  /tmp/ccYcJizL.s 			page 49


 1127              	.LVL82:
 1128              	.LFB157:
1604:../../Drivers/STM32H7xx_HAL_Driver/Src/stm32h7xx_hal_flash_ex.c **** 
1605:../../Drivers/STM32H7xx_HAL_Driver/Src/stm32h7xx_hal_flash_ex.c **** /**
1606:../../Drivers/STM32H7xx_HAL_Driver/Src/stm32h7xx_hal_flash_ex.c ****   * @brief  Get CM4 Boot address
1607:../../Drivers/STM32H7xx_HAL_Driver/Src/stm32h7xx_hal_flash_ex.c ****   * @param  BootAddress0 Specifies the CM4 Boot Address 0.
1608:../../Drivers/STM32H7xx_HAL_Driver/Src/stm32h7xx_hal_flash_ex.c ****   * @param  BootAddress1 Specifies the CM4 Boot Address 1.
1609:../../Drivers/STM32H7xx_HAL_Driver/Src/stm32h7xx_hal_flash_ex.c ****   * @retval HAL Status
1610:../../Drivers/STM32H7xx_HAL_Driver/Src/stm32h7xx_hal_flash_ex.c ****   */
1611:../../Drivers/STM32H7xx_HAL_Driver/Src/stm32h7xx_hal_flash_ex.c **** static void FLASH_OB_GetCM4BootAdd(uint32_t *BootAddress0, uint32_t *BootAddress1)
1612:../../Drivers/STM32H7xx_HAL_Driver/Src/stm32h7xx_hal_flash_ex.c **** {
 1129              		.loc 1 1612 1 is_stmt 1 view -0
 1130              		.cfi_startproc
 1131              		@ args = 0, pretend = 0, frame = 0
 1132              		@ frame_needed = 0, uses_anonymous_args = 0
 1133              		@ link register save eliminated.
1613:../../Drivers/STM32H7xx_HAL_Driver/Src/stm32h7xx_hal_flash_ex.c ****   uint32_t regvalue;
 1134              		.loc 1 1613 3 view .LVU342
1614:../../Drivers/STM32H7xx_HAL_Driver/Src/stm32h7xx_hal_flash_ex.c **** 
1615:../../Drivers/STM32H7xx_HAL_Driver/Src/stm32h7xx_hal_flash_ex.c ****   regvalue = FLASH->BOOT4_CUR;
 1135              		.loc 1 1615 3 view .LVU343
 1136              		.loc 1 1615 12 is_stmt 0 view .LVU344
 1137 0000 034B     		ldr	r3, .L95
 1138 0002 9A6C     		ldr	r2, [r3, #72]
 1139              	.LVL83:
1616:../../Drivers/STM32H7xx_HAL_Driver/Src/stm32h7xx_hal_flash_ex.c **** 
1617:../../Drivers/STM32H7xx_HAL_Driver/Src/stm32h7xx_hal_flash_ex.c ****   (*BootAddress0) = (regvalue & FLASH_BOOT4_BCM4_ADD0) << 16;
 1140              		.loc 1 1617 3 is_stmt 1 view .LVU345
 1141              		.loc 1 1617 56 is_stmt 0 view .LVU346
 1142 0004 1304     		lsls	r3, r2, #16
 1143              		.loc 1 1617 19 view .LVU347
 1144 0006 0360     		str	r3, [r0]
1618:../../Drivers/STM32H7xx_HAL_Driver/Src/stm32h7xx_hal_flash_ex.c ****   (*BootAddress1) = (regvalue & FLASH_BOOT4_BCM4_ADD1);
 1145              		.loc 1 1618 3 is_stmt 1 view .LVU348
 1146              		.loc 1 1618 31 is_stmt 0 view .LVU349
 1147 0008 024B     		ldr	r3, .L95+4
 1148 000a 1340     		ands	r3, r3, r2
 1149              		.loc 1 1618 19 view .LVU350
 1150 000c 0B60     		str	r3, [r1]
1619:../../Drivers/STM32H7xx_HAL_Driver/Src/stm32h7xx_hal_flash_ex.c **** }
 1151              		.loc 1 1619 1 view .LVU351
 1152 000e 7047     		bx	lr
 1153              	.L96:
 1154              		.align	2
 1155              	.L95:
 1156 0010 00200052 		.word	1375739904
 1157 0014 0000FFFF 		.word	-65536
 1158              		.cfi_endproc
 1159              	.LFE157:
 1161              		.section	.text.FLASH_OB_SecureAreaConfig,"ax",%progbits
 1162              		.align	1
 1163              		.syntax unified
 1164              		.thumb
 1165              		.thumb_func
 1166              		.fpu fpv4-sp-d16
 1168              	FLASH_OB_SecureAreaConfig:
 1169              	.LVL84:
ARM GAS  /tmp/ccYcJizL.s 			page 50


 1170              	.LFB158:
1620:../../Drivers/STM32H7xx_HAL_Driver/Src/stm32h7xx_hal_flash_ex.c **** #endif /*DUAL_CORE*/
1621:../../Drivers/STM32H7xx_HAL_Driver/Src/stm32h7xx_hal_flash_ex.c **** 
1622:../../Drivers/STM32H7xx_HAL_Driver/Src/stm32h7xx_hal_flash_ex.c **** /**
1623:../../Drivers/STM32H7xx_HAL_Driver/Src/stm32h7xx_hal_flash_ex.c ****   * @brief  Set secure area configuration
1624:../../Drivers/STM32H7xx_HAL_Driver/Src/stm32h7xx_hal_flash_ex.c ****   * @param  SecureAreaConfig specify if the secure area will be deleted or not
1625:../../Drivers/STM32H7xx_HAL_Driver/Src/stm32h7xx_hal_flash_ex.c ****   *         when RDP level decreased from Level 1 to Level 0 or during a mass erase.
1626:../../Drivers/STM32H7xx_HAL_Driver/Src/stm32h7xx_hal_flash_ex.c ****   *
1627:../../Drivers/STM32H7xx_HAL_Driver/Src/stm32h7xx_hal_flash_ex.c ****   * @param  SecureAreaStartAddr Specifies the secure area start address
1628:../../Drivers/STM32H7xx_HAL_Driver/Src/stm32h7xx_hal_flash_ex.c ****   * @param  SecureAreaEndAddr Specifies the secure area end address
1629:../../Drivers/STM32H7xx_HAL_Driver/Src/stm32h7xx_hal_flash_ex.c ****   * @param  Banks the specific bank to apply Security protection
1630:../../Drivers/STM32H7xx_HAL_Driver/Src/stm32h7xx_hal_flash_ex.c ****   *          This parameter can be one of the following values:
1631:../../Drivers/STM32H7xx_HAL_Driver/Src/stm32h7xx_hal_flash_ex.c ****   *            @arg FLASH_BANK_1: Secure area on specified bank1 area
1632:../../Drivers/STM32H7xx_HAL_Driver/Src/stm32h7xx_hal_flash_ex.c ****   *            @arg FLASH_BANK_2: Secure area on specified bank2 area
1633:../../Drivers/STM32H7xx_HAL_Driver/Src/stm32h7xx_hal_flash_ex.c ****   *            @arg FLASH_BANK_BOTH: Secure area on specified bank1 and bank2 area (same config wil
1634:../../Drivers/STM32H7xx_HAL_Driver/Src/stm32h7xx_hal_flash_ex.c ****   * @retval None
1635:../../Drivers/STM32H7xx_HAL_Driver/Src/stm32h7xx_hal_flash_ex.c ****   */
1636:../../Drivers/STM32H7xx_HAL_Driver/Src/stm32h7xx_hal_flash_ex.c **** static void FLASH_OB_SecureAreaConfig(uint32_t SecureAreaConfig, uint32_t SecureAreaStartAddr, uint
1637:../../Drivers/STM32H7xx_HAL_Driver/Src/stm32h7xx_hal_flash_ex.c **** {
 1171              		.loc 1 1637 1 is_stmt 1 view -0
 1172              		.cfi_startproc
 1173              		@ args = 0, pretend = 0, frame = 0
 1174              		@ frame_needed = 0, uses_anonymous_args = 0
 1175              		@ link register save eliminated.
 1176              		.loc 1 1637 1 is_stmt 0 view .LVU353
 1177 0000 30B4     		push	{r4, r5}
 1178              	.LCFI10:
 1179              		.cfi_def_cfa_offset 8
 1180              		.cfi_offset 4, -8
 1181              		.cfi_offset 5, -4
1638:../../Drivers/STM32H7xx_HAL_Driver/Src/stm32h7xx_hal_flash_ex.c ****   /* Check the parameters */
1639:../../Drivers/STM32H7xx_HAL_Driver/Src/stm32h7xx_hal_flash_ex.c ****   assert_param(IS_FLASH_BANK(Banks));
 1182              		.loc 1 1639 3 is_stmt 1 view .LVU354
1640:../../Drivers/STM32H7xx_HAL_Driver/Src/stm32h7xx_hal_flash_ex.c ****   assert_param(IS_OB_SECURE_RDP(SecureAreaConfig));
 1183              		.loc 1 1640 3 view .LVU355
1641:../../Drivers/STM32H7xx_HAL_Driver/Src/stm32h7xx_hal_flash_ex.c **** 
1642:../../Drivers/STM32H7xx_HAL_Driver/Src/stm32h7xx_hal_flash_ex.c ****   if((Banks & FLASH_BANK_1) == FLASH_BANK_1)
 1184              		.loc 1 1642 3 view .LVU356
 1185              		.loc 1 1642 5 is_stmt 0 view .LVU357
 1186 0002 13F0010F 		tst	r3, #1
 1187 0006 0ED0     		beq	.L98
1643:../../Drivers/STM32H7xx_HAL_Driver/Src/stm32h7xx_hal_flash_ex.c ****   {
1644:../../Drivers/STM32H7xx_HAL_Driver/Src/stm32h7xx_hal_flash_ex.c ****     /* Check the parameters */
1645:../../Drivers/STM32H7xx_HAL_Driver/Src/stm32h7xx_hal_flash_ex.c ****     assert_param(IS_FLASH_PROGRAM_ADDRESS_BANK1(SecureAreaStartAddr));
 1188              		.loc 1 1645 5 is_stmt 1 view .LVU358
1646:../../Drivers/STM32H7xx_HAL_Driver/Src/stm32h7xx_hal_flash_ex.c ****     assert_param(IS_FLASH_PROGRAM_ADDRESS_BANK1(SecureAreaEndAddr));
 1189              		.loc 1 1646 5 view .LVU359
1647:../../Drivers/STM32H7xx_HAL_Driver/Src/stm32h7xx_hal_flash_ex.c **** 
1648:../../Drivers/STM32H7xx_HAL_Driver/Src/stm32h7xx_hal_flash_ex.c ****     /* Configure the secure area */
1649:../../Drivers/STM32H7xx_HAL_Driver/Src/stm32h7xx_hal_flash_ex.c ****     FLASH->SCAR_PRG1 = ((SecureAreaStartAddr - FLASH_BANK1_BASE) >> 8)                             
 1190              		.loc 1 1649 5 view .LVU360
 1191              		.loc 1 1649 46 is_stmt 0 view .LVU361
 1192 0008 01F17844 		add	r4, r1, #-134217728
1650:../../Drivers/STM32H7xx_HAL_Driver/Src/stm32h7xx_hal_flash_ex.c ****                        (((SecureAreaEndAddr - FLASH_BANK1_BASE) >> 8) << FLASH_SCAR_SEC_AREA_END_Po
 1193              		.loc 1 1650 45 view .LVU362
 1194 000c 02F1784C 		add	ip, r2, #-134217728
 1195              		.loc 1 1650 65 view .LVU363
ARM GAS  /tmp/ccYcJizL.s 			page 51


 1196 0010 4FEA1C2C 		lsr	ip, ip, #8
 1197              		.loc 1 1650 71 view .LVU364
 1198 0014 4FEA0C4C 		lsl	ip, ip, #16
1649:../../Drivers/STM32H7xx_HAL_Driver/Src/stm32h7xx_hal_flash_ex.c ****                        (((SecureAreaEndAddr - FLASH_BANK1_BASE) >> 8) << FLASH_SCAR_SEC_AREA_END_Po
 1199              		.loc 1 1649 103 view .LVU365
 1200 0018 4CEA1424 		orr	r4, ip, r4, lsr #8
1651:../../Drivers/STM32H7xx_HAL_Driver/Src/stm32h7xx_hal_flash_ex.c ****                        (SecureAreaConfig & FLASH_SCAR_DMES);
 1201              		.loc 1 1651 42 view .LVU366
 1202 001c 00F00045 		and	r5, r0, #-2147483648
1650:../../Drivers/STM32H7xx_HAL_Driver/Src/stm32h7xx_hal_flash_ex.c ****                        (((SecureAreaEndAddr - FLASH_BANK1_BASE) >> 8) << FLASH_SCAR_SEC_AREA_END_Po
 1203              		.loc 1 1650 103 view .LVU367
 1204 0020 2C43     		orrs	r4, r4, r5
1649:../../Drivers/STM32H7xx_HAL_Driver/Src/stm32h7xx_hal_flash_ex.c ****                        (((SecureAreaEndAddr - FLASH_BANK1_BASE) >> 8) << FLASH_SCAR_SEC_AREA_END_Po
 1205              		.loc 1 1649 22 view .LVU368
 1206 0022 0A4D     		ldr	r5, .L101
 1207 0024 6C63     		str	r4, [r5, #52]
 1208              	.L98:
1652:../../Drivers/STM32H7xx_HAL_Driver/Src/stm32h7xx_hal_flash_ex.c ****   }
1653:../../Drivers/STM32H7xx_HAL_Driver/Src/stm32h7xx_hal_flash_ex.c **** 
1654:../../Drivers/STM32H7xx_HAL_Driver/Src/stm32h7xx_hal_flash_ex.c **** #if defined (DUAL_BANK)
1655:../../Drivers/STM32H7xx_HAL_Driver/Src/stm32h7xx_hal_flash_ex.c ****   if((Banks & FLASH_BANK_2) == FLASH_BANK_2)
 1209              		.loc 1 1655 3 is_stmt 1 view .LVU369
 1210              		.loc 1 1655 5 is_stmt 0 view .LVU370
 1211 0026 13F0020F 		tst	r3, #2
 1212 002a 0DD0     		beq	.L97
1656:../../Drivers/STM32H7xx_HAL_Driver/Src/stm32h7xx_hal_flash_ex.c ****   {
1657:../../Drivers/STM32H7xx_HAL_Driver/Src/stm32h7xx_hal_flash_ex.c ****     /* Check the parameters */
1658:../../Drivers/STM32H7xx_HAL_Driver/Src/stm32h7xx_hal_flash_ex.c ****     assert_param(IS_FLASH_PROGRAM_ADDRESS_BANK2(SecureAreaStartAddr));
 1213              		.loc 1 1658 5 is_stmt 1 view .LVU371
1659:../../Drivers/STM32H7xx_HAL_Driver/Src/stm32h7xx_hal_flash_ex.c ****     assert_param(IS_FLASH_PROGRAM_ADDRESS_BANK2(SecureAreaEndAddr));
 1214              		.loc 1 1659 5 view .LVU372
1660:../../Drivers/STM32H7xx_HAL_Driver/Src/stm32h7xx_hal_flash_ex.c **** 
1661:../../Drivers/STM32H7xx_HAL_Driver/Src/stm32h7xx_hal_flash_ex.c ****     /* Configure the secure area */
1662:../../Drivers/STM32H7xx_HAL_Driver/Src/stm32h7xx_hal_flash_ex.c ****     FLASH->SCAR_PRG2 = ((SecureAreaStartAddr - FLASH_BANK2_BASE) >> 8)                             
 1215              		.loc 1 1662 5 view .LVU373
 1216              		.loc 1 1662 46 is_stmt 0 view .LVU374
 1217 002c A1F10161 		sub	r1, r1, #135266304
 1218              	.LVL85:
1663:../../Drivers/STM32H7xx_HAL_Driver/Src/stm32h7xx_hal_flash_ex.c ****                        (((SecureAreaEndAddr - FLASH_BANK2_BASE) >> 8) << FLASH_SCAR_SEC_AREA_END_Po
 1219              		.loc 1 1663 45 view .LVU375
 1220 0030 A2F10162 		sub	r2, r2, #135266304
 1221              	.LVL86:
 1222              		.loc 1 1663 65 view .LVU376
 1223 0034 120A     		lsrs	r2, r2, #8
 1224              	.LVL87:
 1225              		.loc 1 1663 71 view .LVU377
 1226 0036 1204     		lsls	r2, r2, #16
1662:../../Drivers/STM32H7xx_HAL_Driver/Src/stm32h7xx_hal_flash_ex.c ****                        (((SecureAreaEndAddr - FLASH_BANK2_BASE) >> 8) << FLASH_SCAR_SEC_AREA_END_Po
 1227              		.loc 1 1662 103 view .LVU378
 1228 0038 42EA1122 		orr	r2, r2, r1, lsr #8
1664:../../Drivers/STM32H7xx_HAL_Driver/Src/stm32h7xx_hal_flash_ex.c ****                        (SecureAreaConfig & FLASH_SCAR_DMES);
 1229              		.loc 1 1664 42 view .LVU379
 1230 003c 00F00040 		and	r0, r0, #-2147483648
 1231              	.LVL88:
1663:../../Drivers/STM32H7xx_HAL_Driver/Src/stm32h7xx_hal_flash_ex.c ****                        (((SecureAreaEndAddr - FLASH_BANK2_BASE) >> 8) << FLASH_SCAR_SEC_AREA_END_Po
 1232              		.loc 1 1663 103 view .LVU380
 1233 0040 1043     		orrs	r0, r0, r2
ARM GAS  /tmp/ccYcJizL.s 			page 52


1662:../../Drivers/STM32H7xx_HAL_Driver/Src/stm32h7xx_hal_flash_ex.c ****                        (((SecureAreaEndAddr - FLASH_BANK2_BASE) >> 8) << FLASH_SCAR_SEC_AREA_END_Po
 1234              		.loc 1 1662 22 view .LVU381
 1235 0042 024B     		ldr	r3, .L101
 1236              	.LVL89:
1662:../../Drivers/STM32H7xx_HAL_Driver/Src/stm32h7xx_hal_flash_ex.c ****                        (((SecureAreaEndAddr - FLASH_BANK2_BASE) >> 8) << FLASH_SCAR_SEC_AREA_END_Po
 1237              		.loc 1 1662 22 view .LVU382
 1238 0044 C3F83401 		str	r0, [r3, #308]
 1239              	.LVL90:
 1240              	.L97:
1665:../../Drivers/STM32H7xx_HAL_Driver/Src/stm32h7xx_hal_flash_ex.c ****   }
1666:../../Drivers/STM32H7xx_HAL_Driver/Src/stm32h7xx_hal_flash_ex.c **** #endif /* DUAL_BANK */
1667:../../Drivers/STM32H7xx_HAL_Driver/Src/stm32h7xx_hal_flash_ex.c **** }
 1241              		.loc 1 1667 1 view .LVU383
 1242 0048 30BC     		pop	{r4, r5}
 1243              	.LCFI11:
 1244              		.cfi_restore 5
 1245              		.cfi_restore 4
 1246              		.cfi_def_cfa_offset 0
 1247 004a 7047     		bx	lr
 1248              	.L102:
 1249              		.align	2
 1250              	.L101:
 1251 004c 00200052 		.word	1375739904
 1252              		.cfi_endproc
 1253              	.LFE158:
 1255              		.section	.text.FLASH_OB_GetSecureArea,"ax",%progbits
 1256              		.align	1
 1257              		.syntax unified
 1258              		.thumb
 1259              		.thumb_func
 1260              		.fpu fpv4-sp-d16
 1262              	FLASH_OB_GetSecureArea:
 1263              	.LVL91:
 1264              	.LFB159:
1668:../../Drivers/STM32H7xx_HAL_Driver/Src/stm32h7xx_hal_flash_ex.c **** 
1669:../../Drivers/STM32H7xx_HAL_Driver/Src/stm32h7xx_hal_flash_ex.c **** /**
1670:../../Drivers/STM32H7xx_HAL_Driver/Src/stm32h7xx_hal_flash_ex.c ****   * @brief  Get secure area configuration
1671:../../Drivers/STM32H7xx_HAL_Driver/Src/stm32h7xx_hal_flash_ex.c ****   * @param  SecureAreaConfig indicates if the secure area will be deleted or not
1672:../../Drivers/STM32H7xx_HAL_Driver/Src/stm32h7xx_hal_flash_ex.c ****   *         when RDP level decreased from Level 1 to Level 0 or during a mass erase.
1673:../../Drivers/STM32H7xx_HAL_Driver/Src/stm32h7xx_hal_flash_ex.c ****   * @param  SecureAreaStartAddr gives the secure area start address
1674:../../Drivers/STM32H7xx_HAL_Driver/Src/stm32h7xx_hal_flash_ex.c ****   * @param  SecureAreaEndAddr gives the secure area end address
1675:../../Drivers/STM32H7xx_HAL_Driver/Src/stm32h7xx_hal_flash_ex.c ****   * @param  Bank Specifies the Bank
1676:../../Drivers/STM32H7xx_HAL_Driver/Src/stm32h7xx_hal_flash_ex.c ****   * @retval None
1677:../../Drivers/STM32H7xx_HAL_Driver/Src/stm32h7xx_hal_flash_ex.c ****   */
1678:../../Drivers/STM32H7xx_HAL_Driver/Src/stm32h7xx_hal_flash_ex.c **** static void FLASH_OB_GetSecureArea(uint32_t *SecureAreaConfig, uint32_t *SecureAreaStartAddr, uint3
1679:../../Drivers/STM32H7xx_HAL_Driver/Src/stm32h7xx_hal_flash_ex.c **** {
 1265              		.loc 1 1679 1 is_stmt 1 view -0
 1266              		.cfi_startproc
 1267              		@ args = 0, pretend = 0, frame = 0
 1268              		@ frame_needed = 0, uses_anonymous_args = 0
 1269              		@ link register save eliminated.
 1270              		.loc 1 1679 1 is_stmt 0 view .LVU385
 1271 0000 10B4     		push	{r4}
 1272              	.LCFI12:
 1273              		.cfi_def_cfa_offset 4
 1274              		.cfi_offset 4, -4
1680:../../Drivers/STM32H7xx_HAL_Driver/Src/stm32h7xx_hal_flash_ex.c ****   uint32_t regvalue = 0;
ARM GAS  /tmp/ccYcJizL.s 			page 53


 1275              		.loc 1 1680 3 is_stmt 1 view .LVU386
 1276              	.LVL92:
1681:../../Drivers/STM32H7xx_HAL_Driver/Src/stm32h7xx_hal_flash_ex.c ****   uint32_t bankBase = 0;
 1277              		.loc 1 1681 3 view .LVU387
1682:../../Drivers/STM32H7xx_HAL_Driver/Src/stm32h7xx_hal_flash_ex.c **** 
1683:../../Drivers/STM32H7xx_HAL_Driver/Src/stm32h7xx_hal_flash_ex.c ****   /* Check Bank parameter value */
1684:../../Drivers/STM32H7xx_HAL_Driver/Src/stm32h7xx_hal_flash_ex.c ****   if(Bank == FLASH_BANK_1)
 1278              		.loc 1 1684 3 view .LVU388
 1279              		.loc 1 1684 5 is_stmt 0 view .LVU389
 1280 0002 012B     		cmp	r3, #1
 1281 0004 15D0     		beq	.L108
1681:../../Drivers/STM32H7xx_HAL_Driver/Src/stm32h7xx_hal_flash_ex.c ****   uint32_t bankBase = 0;
 1282              		.loc 1 1681 12 view .LVU390
 1283 0006 4FF0000C 		mov	ip, #0
1680:../../Drivers/STM32H7xx_HAL_Driver/Src/stm32h7xx_hal_flash_ex.c ****   uint32_t bankBase = 0;
 1284              		.loc 1 1680 12 view .LVU391
 1285 000a 6446     		mov	r4, ip
 1286              	.LVL93:
 1287              	.L104:
1685:../../Drivers/STM32H7xx_HAL_Driver/Src/stm32h7xx_hal_flash_ex.c ****   {
1686:../../Drivers/STM32H7xx_HAL_Driver/Src/stm32h7xx_hal_flash_ex.c ****     regvalue = FLASH->SCAR_CUR1;
1687:../../Drivers/STM32H7xx_HAL_Driver/Src/stm32h7xx_hal_flash_ex.c ****     bankBase = FLASH_BANK1_BASE;
1688:../../Drivers/STM32H7xx_HAL_Driver/Src/stm32h7xx_hal_flash_ex.c ****   }
1689:../../Drivers/STM32H7xx_HAL_Driver/Src/stm32h7xx_hal_flash_ex.c **** 
1690:../../Drivers/STM32H7xx_HAL_Driver/Src/stm32h7xx_hal_flash_ex.c **** #if defined (DUAL_BANK)
1691:../../Drivers/STM32H7xx_HAL_Driver/Src/stm32h7xx_hal_flash_ex.c ****   if(Bank == FLASH_BANK_2)
 1288              		.loc 1 1691 3 is_stmt 1 view .LVU392
 1289              		.loc 1 1691 5 is_stmt 0 view .LVU393
 1290 000c 022B     		cmp	r3, #2
 1291 000e 15D0     		beq	.L109
 1292              	.LVL94:
 1293              	.L105:
1692:../../Drivers/STM32H7xx_HAL_Driver/Src/stm32h7xx_hal_flash_ex.c ****   {
1693:../../Drivers/STM32H7xx_HAL_Driver/Src/stm32h7xx_hal_flash_ex.c ****     regvalue = FLASH->SCAR_CUR2;
1694:../../Drivers/STM32H7xx_HAL_Driver/Src/stm32h7xx_hal_flash_ex.c ****     bankBase = FLASH_BANK2_BASE;
1695:../../Drivers/STM32H7xx_HAL_Driver/Src/stm32h7xx_hal_flash_ex.c ****   }
1696:../../Drivers/STM32H7xx_HAL_Driver/Src/stm32h7xx_hal_flash_ex.c **** #endif /* DUAL_BANK */
1697:../../Drivers/STM32H7xx_HAL_Driver/Src/stm32h7xx_hal_flash_ex.c **** 
1698:../../Drivers/STM32H7xx_HAL_Driver/Src/stm32h7xx_hal_flash_ex.c ****   /* Get the secure area settings */
1699:../../Drivers/STM32H7xx_HAL_Driver/Src/stm32h7xx_hal_flash_ex.c ****   (*SecureAreaConfig) = (regvalue & FLASH_SCAR_DMES);
 1294              		.loc 1 1699 3 is_stmt 1 view .LVU394
 1295              		.loc 1 1699 35 is_stmt 0 view .LVU395
 1296 0010 04F00043 		and	r3, r4, #-2147483648
 1297              		.loc 1 1699 23 view .LVU396
 1298 0014 0360     		str	r3, [r0]
1700:../../Drivers/STM32H7xx_HAL_Driver/Src/stm32h7xx_hal_flash_ex.c ****   (*SecureAreaStartAddr) = ((regvalue & FLASH_SCAR_SEC_AREA_START) << 8) + bankBase;
 1299              		.loc 1 1700 3 is_stmt 1 view .LVU397
 1300              		.loc 1 1700 68 is_stmt 0 view .LVU398
 1301 0016 0C4B     		ldr	r3, .L110
 1302 0018 03EA0423 		and	r3, r3, r4, lsl #8
 1303              		.loc 1 1700 74 view .LVU399
 1304 001c 6344     		add	r3, r3, ip
 1305              		.loc 1 1700 26 view .LVU400
 1306 001e 0B60     		str	r3, [r1]
1701:../../Drivers/STM32H7xx_HAL_Driver/Src/stm32h7xx_hal_flash_ex.c ****   (*SecureAreaEndAddr) = (regvalue & FLASH_SCAR_SEC_AREA_END) >> FLASH_SCAR_SEC_AREA_END_Pos;
 1307              		.loc 1 1701 3 is_stmt 1 view .LVU401
 1308              		.loc 1 1701 63 is_stmt 0 view .LVU402
ARM GAS  /tmp/ccYcJizL.s 			page 54


 1309 0020 C4F30B44 		ubfx	r4, r4, #16, #12
 1310              	.LVL95:
 1311              		.loc 1 1701 24 view .LVU403
 1312 0024 1460     		str	r4, [r2]
1702:../../Drivers/STM32H7xx_HAL_Driver/Src/stm32h7xx_hal_flash_ex.c ****   (*SecureAreaEndAddr) = ((*SecureAreaEndAddr) << 8) + bankBase;
 1313              		.loc 1 1702 3 is_stmt 1 view .LVU404
 1314              		.loc 1 1702 54 is_stmt 0 view .LVU405
 1315 0026 0CEB0424 		add	r4, ip, r4, lsl #8
 1316              		.loc 1 1702 24 view .LVU406
 1317 002a 1460     		str	r4, [r2]
1703:../../Drivers/STM32H7xx_HAL_Driver/Src/stm32h7xx_hal_flash_ex.c **** }
 1318              		.loc 1 1703 1 view .LVU407
 1319 002c 5DF8044B 		ldr	r4, [sp], #4
 1320              	.LCFI13:
 1321              		.cfi_remember_state
 1322              		.cfi_restore 4
 1323              		.cfi_def_cfa_offset 0
 1324 0030 7047     		bx	lr
 1325              	.LVL96:
 1326              	.L108:
 1327              	.LCFI14:
 1328              		.cfi_restore_state
1686:../../Drivers/STM32H7xx_HAL_Driver/Src/stm32h7xx_hal_flash_ex.c ****     bankBase = FLASH_BANK1_BASE;
 1329              		.loc 1 1686 5 is_stmt 1 view .LVU408
1686:../../Drivers/STM32H7xx_HAL_Driver/Src/stm32h7xx_hal_flash_ex.c ****     bankBase = FLASH_BANK1_BASE;
 1330              		.loc 1 1686 14 is_stmt 0 view .LVU409
 1331 0032 064C     		ldr	r4, .L110+4
 1332 0034 246B     		ldr	r4, [r4, #48]
 1333              	.LVL97:
1687:../../Drivers/STM32H7xx_HAL_Driver/Src/stm32h7xx_hal_flash_ex.c ****   }
 1334              		.loc 1 1687 5 is_stmt 1 view .LVU410
1687:../../Drivers/STM32H7xx_HAL_Driver/Src/stm32h7xx_hal_flash_ex.c ****   }
 1335              		.loc 1 1687 14 is_stmt 0 view .LVU411
 1336 0036 4FF0006C 		mov	ip, #134217728
 1337 003a E7E7     		b	.L104
 1338              	.LVL98:
 1339              	.L109:
1693:../../Drivers/STM32H7xx_HAL_Driver/Src/stm32h7xx_hal_flash_ex.c ****     bankBase = FLASH_BANK2_BASE;
 1340              		.loc 1 1693 5 is_stmt 1 view .LVU412
1693:../../Drivers/STM32H7xx_HAL_Driver/Src/stm32h7xx_hal_flash_ex.c ****     bankBase = FLASH_BANK2_BASE;
 1341              		.loc 1 1693 14 is_stmt 0 view .LVU413
 1342 003c 034B     		ldr	r3, .L110+4
 1343              	.LVL99:
1693:../../Drivers/STM32H7xx_HAL_Driver/Src/stm32h7xx_hal_flash_ex.c ****     bankBase = FLASH_BANK2_BASE;
 1344              		.loc 1 1693 14 view .LVU414
 1345 003e D3F83041 		ldr	r4, [r3, #304]
 1346              	.LVL100:
1694:../../Drivers/STM32H7xx_HAL_Driver/Src/stm32h7xx_hal_flash_ex.c ****   }
 1347              		.loc 1 1694 5 is_stmt 1 view .LVU415
1694:../../Drivers/STM32H7xx_HAL_Driver/Src/stm32h7xx_hal_flash_ex.c ****   }
 1348              		.loc 1 1694 14 is_stmt 0 view .LVU416
 1349 0042 4FF0016C 		mov	ip, #135266304
 1350 0046 E3E7     		b	.L105
 1351              	.L111:
 1352              		.align	2
 1353              	.L110:
 1354 0048 00FF0F00 		.word	1048320
ARM GAS  /tmp/ccYcJizL.s 			page 55


 1355 004c 00200052 		.word	1375739904
 1356              		.cfi_endproc
 1357              	.LFE159:
 1359              		.section	.text.FLASH_CRC_AddSector,"ax",%progbits
 1360              		.align	1
 1361              		.syntax unified
 1362              		.thumb
 1363              		.thumb_func
 1364              		.fpu fpv4-sp-d16
 1366              	FLASH_CRC_AddSector:
 1367              	.LVL101:
 1368              	.LFB160:
1704:../../Drivers/STM32H7xx_HAL_Driver/Src/stm32h7xx_hal_flash_ex.c **** 
1705:../../Drivers/STM32H7xx_HAL_Driver/Src/stm32h7xx_hal_flash_ex.c **** /**
1706:../../Drivers/STM32H7xx_HAL_Driver/Src/stm32h7xx_hal_flash_ex.c ****   * @brief  Add a CRC sector to the list of sectors on which the CRC will be calculated
1707:../../Drivers/STM32H7xx_HAL_Driver/Src/stm32h7xx_hal_flash_ex.c ****   * @param  Sector Specifies the CRC sector number
1708:../../Drivers/STM32H7xx_HAL_Driver/Src/stm32h7xx_hal_flash_ex.c ****   * @param  Bank Specifies the Bank
1709:../../Drivers/STM32H7xx_HAL_Driver/Src/stm32h7xx_hal_flash_ex.c ****   * @retval None
1710:../../Drivers/STM32H7xx_HAL_Driver/Src/stm32h7xx_hal_flash_ex.c ****   */
1711:../../Drivers/STM32H7xx_HAL_Driver/Src/stm32h7xx_hal_flash_ex.c **** static void FLASH_CRC_AddSector(uint32_t Sector, uint32_t Bank)
1712:../../Drivers/STM32H7xx_HAL_Driver/Src/stm32h7xx_hal_flash_ex.c **** {
 1369              		.loc 1 1712 1 is_stmt 1 view -0
 1370              		.cfi_startproc
 1371              		@ args = 0, pretend = 0, frame = 0
 1372              		@ frame_needed = 0, uses_anonymous_args = 0
 1373              		@ link register save eliminated.
1713:../../Drivers/STM32H7xx_HAL_Driver/Src/stm32h7xx_hal_flash_ex.c ****   /* Check the parameters */
1714:../../Drivers/STM32H7xx_HAL_Driver/Src/stm32h7xx_hal_flash_ex.c ****   assert_param(IS_FLASH_SECTOR(Sector));
 1374              		.loc 1 1714 3 view .LVU418
1715:../../Drivers/STM32H7xx_HAL_Driver/Src/stm32h7xx_hal_flash_ex.c **** 
1716:../../Drivers/STM32H7xx_HAL_Driver/Src/stm32h7xx_hal_flash_ex.c ****   if (Bank == FLASH_BANK_1)
 1375              		.loc 1 1716 3 view .LVU419
 1376              		.loc 1 1716 6 is_stmt 0 view .LVU420
 1377 0000 0129     		cmp	r1, #1
 1378 0002 0ED0     		beq	.L115
1717:../../Drivers/STM32H7xx_HAL_Driver/Src/stm32h7xx_hal_flash_ex.c ****   {
1718:../../Drivers/STM32H7xx_HAL_Driver/Src/stm32h7xx_hal_flash_ex.c ****     /* Clear CRC sector */
1719:../../Drivers/STM32H7xx_HAL_Driver/Src/stm32h7xx_hal_flash_ex.c ****     FLASH->CRCCR1 &= (~FLASH_CRCCR_CRC_SECT);
1720:../../Drivers/STM32H7xx_HAL_Driver/Src/stm32h7xx_hal_flash_ex.c **** 
1721:../../Drivers/STM32H7xx_HAL_Driver/Src/stm32h7xx_hal_flash_ex.c ****     /* Select CRC Sector and activate ADD_SECT bit */
1722:../../Drivers/STM32H7xx_HAL_Driver/Src/stm32h7xx_hal_flash_ex.c ****     FLASH->CRCCR1 |= Sector | FLASH_CRCCR_ADD_SECT;
1723:../../Drivers/STM32H7xx_HAL_Driver/Src/stm32h7xx_hal_flash_ex.c ****   }
1724:../../Drivers/STM32H7xx_HAL_Driver/Src/stm32h7xx_hal_flash_ex.c **** #if defined (DUAL_BANK)
1725:../../Drivers/STM32H7xx_HAL_Driver/Src/stm32h7xx_hal_flash_ex.c ****   else
1726:../../Drivers/STM32H7xx_HAL_Driver/Src/stm32h7xx_hal_flash_ex.c ****   {
1727:../../Drivers/STM32H7xx_HAL_Driver/Src/stm32h7xx_hal_flash_ex.c ****     /* Clear CRC sector */
1728:../../Drivers/STM32H7xx_HAL_Driver/Src/stm32h7xx_hal_flash_ex.c ****     FLASH->CRCCR2 &= (~FLASH_CRCCR_CRC_SECT);
 1379              		.loc 1 1728 5 is_stmt 1 view .LVU421
 1380              		.loc 1 1728 19 is_stmt 0 view .LVU422
 1381 0004 0C4A     		ldr	r2, .L116
 1382 0006 D2F85031 		ldr	r3, [r2, #336]
 1383 000a 23F00703 		bic	r3, r3, #7
 1384 000e C2F85031 		str	r3, [r2, #336]
1729:../../Drivers/STM32H7xx_HAL_Driver/Src/stm32h7xx_hal_flash_ex.c **** 
1730:../../Drivers/STM32H7xx_HAL_Driver/Src/stm32h7xx_hal_flash_ex.c ****     /* Select CRC Sector and activate ADD_SECT bit */
1731:../../Drivers/STM32H7xx_HAL_Driver/Src/stm32h7xx_hal_flash_ex.c ****     FLASH->CRCCR2 |= Sector | FLASH_CRCCR_ADD_SECT;
 1385              		.loc 1 1731 5 is_stmt 1 view .LVU423
ARM GAS  /tmp/ccYcJizL.s 			page 56


 1386              		.loc 1 1731 19 is_stmt 0 view .LVU424
 1387 0012 D2F85031 		ldr	r3, [r2, #336]
 1388 0016 1843     		orrs	r0, r0, r3
 1389              	.LVL102:
 1390              		.loc 1 1731 19 view .LVU425
 1391 0018 40F40070 		orr	r0, r0, #512
 1392 001c C2F85001 		str	r0, [r2, #336]
1732:../../Drivers/STM32H7xx_HAL_Driver/Src/stm32h7xx_hal_flash_ex.c ****   }
1733:../../Drivers/STM32H7xx_HAL_Driver/Src/stm32h7xx_hal_flash_ex.c **** #endif /* DUAL_BANK */
1734:../../Drivers/STM32H7xx_HAL_Driver/Src/stm32h7xx_hal_flash_ex.c **** }
 1393              		.loc 1 1734 1 view .LVU426
 1394 0020 7047     		bx	lr
 1395              	.LVL103:
 1396              	.L115:
1719:../../Drivers/STM32H7xx_HAL_Driver/Src/stm32h7xx_hal_flash_ex.c **** 
 1397              		.loc 1 1719 5 is_stmt 1 view .LVU427
1719:../../Drivers/STM32H7xx_HAL_Driver/Src/stm32h7xx_hal_flash_ex.c **** 
 1398              		.loc 1 1719 19 is_stmt 0 view .LVU428
 1399 0022 054A     		ldr	r2, .L116
 1400 0024 136D     		ldr	r3, [r2, #80]
 1401 0026 23F00703 		bic	r3, r3, #7
 1402 002a 1365     		str	r3, [r2, #80]
1722:../../Drivers/STM32H7xx_HAL_Driver/Src/stm32h7xx_hal_flash_ex.c ****   }
 1403              		.loc 1 1722 5 is_stmt 1 view .LVU429
1722:../../Drivers/STM32H7xx_HAL_Driver/Src/stm32h7xx_hal_flash_ex.c ****   }
 1404              		.loc 1 1722 19 is_stmt 0 view .LVU430
 1405 002c 136D     		ldr	r3, [r2, #80]
 1406 002e 1843     		orrs	r0, r0, r3
 1407              	.LVL104:
1722:../../Drivers/STM32H7xx_HAL_Driver/Src/stm32h7xx_hal_flash_ex.c ****   }
 1408              		.loc 1 1722 19 view .LVU431
 1409 0030 40F40070 		orr	r0, r0, #512
 1410 0034 1065     		str	r0, [r2, #80]
 1411 0036 7047     		bx	lr
 1412              	.L117:
 1413              		.align	2
 1414              	.L116:
 1415 0038 00200052 		.word	1375739904
 1416              		.cfi_endproc
 1417              	.LFE160:
 1419              		.section	.text.FLASH_CRC_SelectAddress,"ax",%progbits
 1420              		.align	1
 1421              		.syntax unified
 1422              		.thumb
 1423              		.thumb_func
 1424              		.fpu fpv4-sp-d16
 1426              	FLASH_CRC_SelectAddress:
 1427              	.LVL105:
 1428              	.LFB161:
1735:../../Drivers/STM32H7xx_HAL_Driver/Src/stm32h7xx_hal_flash_ex.c **** 
1736:../../Drivers/STM32H7xx_HAL_Driver/Src/stm32h7xx_hal_flash_ex.c **** /**
1737:../../Drivers/STM32H7xx_HAL_Driver/Src/stm32h7xx_hal_flash_ex.c ****   * @brief  Select CRC start and end memory addresses on which the CRC will be calculated
1738:../../Drivers/STM32H7xx_HAL_Driver/Src/stm32h7xx_hal_flash_ex.c ****   * @param  CRCStartAddr Specifies the CRC start address
1739:../../Drivers/STM32H7xx_HAL_Driver/Src/stm32h7xx_hal_flash_ex.c ****   * @param  CRCEndAddr Specifies the CRC end address
1740:../../Drivers/STM32H7xx_HAL_Driver/Src/stm32h7xx_hal_flash_ex.c ****   * @param  Bank Specifies the Bank
1741:../../Drivers/STM32H7xx_HAL_Driver/Src/stm32h7xx_hal_flash_ex.c ****   * @retval None
1742:../../Drivers/STM32H7xx_HAL_Driver/Src/stm32h7xx_hal_flash_ex.c ****   */
ARM GAS  /tmp/ccYcJizL.s 			page 57


1743:../../Drivers/STM32H7xx_HAL_Driver/Src/stm32h7xx_hal_flash_ex.c **** static void FLASH_CRC_SelectAddress(uint32_t CRCStartAddr, uint32_t CRCEndAddr, uint32_t Bank)
1744:../../Drivers/STM32H7xx_HAL_Driver/Src/stm32h7xx_hal_flash_ex.c **** {
 1429              		.loc 1 1744 1 is_stmt 1 view -0
 1430              		.cfi_startproc
 1431              		@ args = 0, pretend = 0, frame = 0
 1432              		@ frame_needed = 0, uses_anonymous_args = 0
 1433              		@ link register save eliminated.
1745:../../Drivers/STM32H7xx_HAL_Driver/Src/stm32h7xx_hal_flash_ex.c ****   if (Bank == FLASH_BANK_1)
 1434              		.loc 1 1745 3 view .LVU433
 1435              		.loc 1 1745 6 is_stmt 0 view .LVU434
 1436 0000 012A     		cmp	r2, #1
 1437 0002 05D0     		beq	.L121
1746:../../Drivers/STM32H7xx_HAL_Driver/Src/stm32h7xx_hal_flash_ex.c ****   {
1747:../../Drivers/STM32H7xx_HAL_Driver/Src/stm32h7xx_hal_flash_ex.c ****     assert_param(IS_FLASH_PROGRAM_ADDRESS_BANK1(CRCStartAddr));
1748:../../Drivers/STM32H7xx_HAL_Driver/Src/stm32h7xx_hal_flash_ex.c ****     assert_param(IS_FLASH_PROGRAM_ADDRESS_BANK1(CRCEndAddr));
1749:../../Drivers/STM32H7xx_HAL_Driver/Src/stm32h7xx_hal_flash_ex.c **** 
1750:../../Drivers/STM32H7xx_HAL_Driver/Src/stm32h7xx_hal_flash_ex.c ****     /* Write CRC Start and End addresses */
1751:../../Drivers/STM32H7xx_HAL_Driver/Src/stm32h7xx_hal_flash_ex.c ****     FLASH->CRCSADD1 = CRCStartAddr;
1752:../../Drivers/STM32H7xx_HAL_Driver/Src/stm32h7xx_hal_flash_ex.c ****     FLASH->CRCEADD1 = CRCEndAddr;
1753:../../Drivers/STM32H7xx_HAL_Driver/Src/stm32h7xx_hal_flash_ex.c ****   }
1754:../../Drivers/STM32H7xx_HAL_Driver/Src/stm32h7xx_hal_flash_ex.c **** #if defined (DUAL_BANK)
1755:../../Drivers/STM32H7xx_HAL_Driver/Src/stm32h7xx_hal_flash_ex.c ****   else
1756:../../Drivers/STM32H7xx_HAL_Driver/Src/stm32h7xx_hal_flash_ex.c ****   {
1757:../../Drivers/STM32H7xx_HAL_Driver/Src/stm32h7xx_hal_flash_ex.c ****     assert_param(IS_FLASH_PROGRAM_ADDRESS_BANK2(CRCStartAddr));
 1438              		.loc 1 1757 5 is_stmt 1 view .LVU435
1758:../../Drivers/STM32H7xx_HAL_Driver/Src/stm32h7xx_hal_flash_ex.c ****     assert_param(IS_FLASH_PROGRAM_ADDRESS_BANK2(CRCEndAddr));
 1439              		.loc 1 1758 5 view .LVU436
1759:../../Drivers/STM32H7xx_HAL_Driver/Src/stm32h7xx_hal_flash_ex.c **** 
1760:../../Drivers/STM32H7xx_HAL_Driver/Src/stm32h7xx_hal_flash_ex.c ****     /* Write CRC Start and End addresses */
1761:../../Drivers/STM32H7xx_HAL_Driver/Src/stm32h7xx_hal_flash_ex.c ****     FLASH->CRCSADD2 = CRCStartAddr;
 1440              		.loc 1 1761 5 view .LVU437
 1441              		.loc 1 1761 21 is_stmt 0 view .LVU438
 1442 0004 044B     		ldr	r3, .L122
 1443 0006 C3F85401 		str	r0, [r3, #340]
1762:../../Drivers/STM32H7xx_HAL_Driver/Src/stm32h7xx_hal_flash_ex.c ****     FLASH->CRCEADD2 = CRCEndAddr;
 1444              		.loc 1 1762 5 is_stmt 1 view .LVU439
 1445              		.loc 1 1762 21 is_stmt 0 view .LVU440
 1446 000a C3F85811 		str	r1, [r3, #344]
1763:../../Drivers/STM32H7xx_HAL_Driver/Src/stm32h7xx_hal_flash_ex.c ****   }
1764:../../Drivers/STM32H7xx_HAL_Driver/Src/stm32h7xx_hal_flash_ex.c **** #endif /* DUAL_BANK */
1765:../../Drivers/STM32H7xx_HAL_Driver/Src/stm32h7xx_hal_flash_ex.c **** }
 1447              		.loc 1 1765 1 view .LVU441
 1448 000e 7047     		bx	lr
 1449              	.L121:
1747:../../Drivers/STM32H7xx_HAL_Driver/Src/stm32h7xx_hal_flash_ex.c ****     assert_param(IS_FLASH_PROGRAM_ADDRESS_BANK1(CRCEndAddr));
 1450              		.loc 1 1747 5 is_stmt 1 view .LVU442
1748:../../Drivers/STM32H7xx_HAL_Driver/Src/stm32h7xx_hal_flash_ex.c **** 
 1451              		.loc 1 1748 5 view .LVU443
1751:../../Drivers/STM32H7xx_HAL_Driver/Src/stm32h7xx_hal_flash_ex.c ****     FLASH->CRCEADD1 = CRCEndAddr;
 1452              		.loc 1 1751 5 view .LVU444
1751:../../Drivers/STM32H7xx_HAL_Driver/Src/stm32h7xx_hal_flash_ex.c ****     FLASH->CRCEADD1 = CRCEndAddr;
 1453              		.loc 1 1751 21 is_stmt 0 view .LVU445
 1454 0010 014B     		ldr	r3, .L122
 1455 0012 5865     		str	r0, [r3, #84]
1752:../../Drivers/STM32H7xx_HAL_Driver/Src/stm32h7xx_hal_flash_ex.c ****   }
 1456              		.loc 1 1752 5 is_stmt 1 view .LVU446
1752:../../Drivers/STM32H7xx_HAL_Driver/Src/stm32h7xx_hal_flash_ex.c ****   }
ARM GAS  /tmp/ccYcJizL.s 			page 58


 1457              		.loc 1 1752 21 is_stmt 0 view .LVU447
 1458 0014 9965     		str	r1, [r3, #88]
 1459 0016 7047     		bx	lr
 1460              	.L123:
 1461              		.align	2
 1462              	.L122:
 1463 0018 00200052 		.word	1375739904
 1464              		.cfi_endproc
 1465              	.LFE161:
 1467              		.section	.text.HAL_FLASHEx_OBProgram,"ax",%progbits
 1468              		.align	1
 1469              		.global	HAL_FLASHEx_OBProgram
 1470              		.syntax unified
 1471              		.thumb
 1472              		.thumb_func
 1473              		.fpu fpv4-sp-d16
 1475              	HAL_FLASHEx_OBProgram:
 1476              	.LVL106:
 1477              	.LFB134:
 415:../../Drivers/STM32H7xx_HAL_Driver/Src/stm32h7xx_hal_flash_ex.c ****   HAL_StatusTypeDef status;
 1478              		.loc 1 415 1 is_stmt 1 view -0
 1479              		.cfi_startproc
 1480              		@ args = 0, pretend = 0, frame = 0
 1481              		@ frame_needed = 0, uses_anonymous_args = 0
 415:../../Drivers/STM32H7xx_HAL_Driver/Src/stm32h7xx_hal_flash_ex.c ****   HAL_StatusTypeDef status;
 1482              		.loc 1 415 1 is_stmt 0 view .LVU449
 1483 0000 38B5     		push	{r3, r4, r5, lr}
 1484              	.LCFI15:
 1485              		.cfi_def_cfa_offset 16
 1486              		.cfi_offset 3, -16
 1487              		.cfi_offset 4, -12
 1488              		.cfi_offset 5, -8
 1489              		.cfi_offset 14, -4
 416:../../Drivers/STM32H7xx_HAL_Driver/Src/stm32h7xx_hal_flash_ex.c **** 
 1490              		.loc 1 416 3 is_stmt 1 view .LVU450
 419:../../Drivers/STM32H7xx_HAL_Driver/Src/stm32h7xx_hal_flash_ex.c **** 
 1491              		.loc 1 419 3 view .LVU451
 422:../../Drivers/STM32H7xx_HAL_Driver/Src/stm32h7xx_hal_flash_ex.c **** 
 1492              		.loc 1 422 3 view .LVU452
 422:../../Drivers/STM32H7xx_HAL_Driver/Src/stm32h7xx_hal_flash_ex.c **** 
 1493              		.loc 1 422 3 view .LVU453
 1494 0002 3A4B     		ldr	r3, .L147
 1495 0004 1B7D     		ldrb	r3, [r3, #20]	@ zero_extendqisi2
 1496 0006 012B     		cmp	r3, #1
 1497 0008 6DD0     		beq	.L135
 1498 000a 0446     		mov	r4, r0
 422:../../Drivers/STM32H7xx_HAL_Driver/Src/stm32h7xx_hal_flash_ex.c **** 
 1499              		.loc 1 422 3 discriminator 2 view .LVU454
 1500 000c 374B     		ldr	r3, .L147
 1501 000e 0121     		movs	r1, #1
 1502 0010 1975     		strb	r1, [r3, #20]
 422:../../Drivers/STM32H7xx_HAL_Driver/Src/stm32h7xx_hal_flash_ex.c **** 
 1503              		.loc 1 422 3 discriminator 2 view .LVU455
 425:../../Drivers/STM32H7xx_HAL_Driver/Src/stm32h7xx_hal_flash_ex.c **** 
 1504              		.loc 1 425 3 discriminator 2 view .LVU456
 425:../../Drivers/STM32H7xx_HAL_Driver/Src/stm32h7xx_hal_flash_ex.c **** 
 1505              		.loc 1 425 20 is_stmt 0 discriminator 2 view .LVU457
ARM GAS  /tmp/ccYcJizL.s 			page 59


 1506 0012 0022     		movs	r2, #0
 1507 0014 9A61     		str	r2, [r3, #24]
 428:../../Drivers/STM32H7xx_HAL_Driver/Src/stm32h7xx_hal_flash_ex.c ****   {
 1508              		.loc 1 428 3 is_stmt 1 discriminator 2 view .LVU458
 428:../../Drivers/STM32H7xx_HAL_Driver/Src/stm32h7xx_hal_flash_ex.c ****   {
 1509              		.loc 1 428 6 is_stmt 0 discriminator 2 view .LVU459
 1510 0016 4CF25030 		movw	r0, #50000
 1511              	.LVL107:
 428:../../Drivers/STM32H7xx_HAL_Driver/Src/stm32h7xx_hal_flash_ex.c ****   {
 1512              		.loc 1 428 6 discriminator 2 view .LVU460
 1513 001a FFF7FEFF 		bl	FLASH_WaitForLastOperation
 1514              	.LVL108:
 428:../../Drivers/STM32H7xx_HAL_Driver/Src/stm32h7xx_hal_flash_ex.c ****   {
 1515              		.loc 1 428 5 discriminator 2 view .LVU461
 1516 001e 28B1     		cbz	r0, .L139
 430:../../Drivers/STM32H7xx_HAL_Driver/Src/stm32h7xx_hal_flash_ex.c ****   }
 1517              		.loc 1 430 12 view .LVU462
 1518 0020 0125     		movs	r5, #1
 1519              	.L126:
 543:../../Drivers/STM32H7xx_HAL_Driver/Src/stm32h7xx_hal_flash_ex.c **** 
 1520              		.loc 1 543 3 is_stmt 1 view .LVU463
 543:../../Drivers/STM32H7xx_HAL_Driver/Src/stm32h7xx_hal_flash_ex.c **** 
 1521              		.loc 1 543 3 view .LVU464
 1522 0022 324B     		ldr	r3, .L147
 1523 0024 0022     		movs	r2, #0
 1524 0026 1A75     		strb	r2, [r3, #20]
 543:../../Drivers/STM32H7xx_HAL_Driver/Src/stm32h7xx_hal_flash_ex.c **** 
 1525              		.loc 1 543 3 view .LVU465
 545:../../Drivers/STM32H7xx_HAL_Driver/Src/stm32h7xx_hal_flash_ex.c **** }
 1526              		.loc 1 545 3 view .LVU466
 1527              	.LVL109:
 1528              	.L125:
 546:../../Drivers/STM32H7xx_HAL_Driver/Src/stm32h7xx_hal_flash_ex.c **** 
 1529              		.loc 1 546 1 is_stmt 0 view .LVU467
 1530 0028 2846     		mov	r0, r5
 1531 002a 38BD     		pop	{r3, r4, r5, pc}
 1532              	.LVL110:
 1533              	.L139:
 433:../../Drivers/STM32H7xx_HAL_Driver/Src/stm32h7xx_hal_flash_ex.c ****   {
 1534              		.loc 1 433 8 is_stmt 1 view .LVU468
 433:../../Drivers/STM32H7xx_HAL_Driver/Src/stm32h7xx_hal_flash_ex.c ****   {
 1535              		.loc 1 433 11 is_stmt 0 view .LVU469
 1536 002c 0221     		movs	r1, #2
 1537 002e 4CF25030 		movw	r0, #50000
 1538 0032 FFF7FEFF 		bl	FLASH_WaitForLastOperation
 1539              	.LVL111:
 433:../../Drivers/STM32H7xx_HAL_Driver/Src/stm32h7xx_hal_flash_ex.c ****   {
 1540              		.loc 1 433 10 view .LVU470
 1541 0036 0546     		mov	r5, r0
 1542 0038 0028     		cmp	r0, #0
 1543 003a 52D1     		bne	.L137
 440:../../Drivers/STM32H7xx_HAL_Driver/Src/stm32h7xx_hal_flash_ex.c ****   }
 1544              		.loc 1 440 5 is_stmt 1 view .LVU471
 1545              	.LVL112:
 443:../../Drivers/STM32H7xx_HAL_Driver/Src/stm32h7xx_hal_flash_ex.c ****   {
 1546              		.loc 1 443 3 view .LVU472
 446:../../Drivers/STM32H7xx_HAL_Driver/Src/stm32h7xx_hal_flash_ex.c ****     {
ARM GAS  /tmp/ccYcJizL.s 			page 60


 1547              		.loc 1 446 5 view .LVU473
 446:../../Drivers/STM32H7xx_HAL_Driver/Src/stm32h7xx_hal_flash_ex.c ****     {
 1548              		.loc 1 446 16 is_stmt 0 view .LVU474
 1549 003c 2368     		ldr	r3, [r4]
 446:../../Drivers/STM32H7xx_HAL_Driver/Src/stm32h7xx_hal_flash_ex.c ****     {
 1550              		.loc 1 446 7 view .LVU475
 1551 003e 13F0010F 		tst	r3, #1
 1552 0042 06D0     		beq	.L127
 448:../../Drivers/STM32H7xx_HAL_Driver/Src/stm32h7xx_hal_flash_ex.c **** 
 1553              		.loc 1 448 7 is_stmt 1 view .LVU476
 450:../../Drivers/STM32H7xx_HAL_Driver/Src/stm32h7xx_hal_flash_ex.c ****       {
 1554              		.loc 1 450 7 view .LVU477
 450:../../Drivers/STM32H7xx_HAL_Driver/Src/stm32h7xx_hal_flash_ex.c ****       {
 1555              		.loc 1 450 17 is_stmt 0 view .LVU478
 1556 0044 6368     		ldr	r3, [r4, #4]
 450:../../Drivers/STM32H7xx_HAL_Driver/Src/stm32h7xx_hal_flash_ex.c ****       {
 1557              		.loc 1 450 9 view .LVU479
 1558 0046 012B     		cmp	r3, #1
 1559 0048 26D0     		beq	.L140
 458:../../Drivers/STM32H7xx_HAL_Driver/Src/stm32h7xx_hal_flash_ex.c ****       }
 1560              		.loc 1 458 9 is_stmt 1 view .LVU480
 1561 004a E169     		ldr	r1, [r4, #28]
 1562 004c A068     		ldr	r0, [r4, #8]
 1563 004e FFF7FEFF 		bl	FLASH_OB_DisableWRP
 1564              	.LVL113:
 1565              	.L127:
 463:../../Drivers/STM32H7xx_HAL_Driver/Src/stm32h7xx_hal_flash_ex.c ****     {
 1566              		.loc 1 463 5 view .LVU481
 463:../../Drivers/STM32H7xx_HAL_Driver/Src/stm32h7xx_hal_flash_ex.c ****     {
 1567              		.loc 1 463 16 is_stmt 0 view .LVU482
 1568 0052 2368     		ldr	r3, [r4]
 463:../../Drivers/STM32H7xx_HAL_Driver/Src/stm32h7xx_hal_flash_ex.c ****     {
 1569              		.loc 1 463 7 view .LVU483
 1570 0054 13F0020F 		tst	r3, #2
 1571 0058 23D1     		bne	.L141
 1572              	.L129:
 470:../../Drivers/STM32H7xx_HAL_Driver/Src/stm32h7xx_hal_flash_ex.c ****     {
 1573              		.loc 1 470 5 is_stmt 1 view .LVU484
 470:../../Drivers/STM32H7xx_HAL_Driver/Src/stm32h7xx_hal_flash_ex.c ****     {
 1574              		.loc 1 470 16 is_stmt 0 view .LVU485
 1575 005a 2368     		ldr	r3, [r4]
 470:../../Drivers/STM32H7xx_HAL_Driver/Src/stm32h7xx_hal_flash_ex.c ****     {
 1576              		.loc 1 470 7 view .LVU486
 1577 005c 13F0040F 		tst	r3, #4
 1578 0060 23D1     		bne	.L142
 1579              	.L130:
 477:../../Drivers/STM32H7xx_HAL_Driver/Src/stm32h7xx_hal_flash_ex.c ****     {
 1580              		.loc 1 477 5 is_stmt 1 view .LVU487
 477:../../Drivers/STM32H7xx_HAL_Driver/Src/stm32h7xx_hal_flash_ex.c ****     {
 1581              		.loc 1 477 16 is_stmt 0 view .LVU488
 1582 0062 2368     		ldr	r3, [r4]
 477:../../Drivers/STM32H7xx_HAL_Driver/Src/stm32h7xx_hal_flash_ex.c ****     {
 1583              		.loc 1 477 7 view .LVU489
 1584 0064 13F0080F 		tst	r3, #8
 1585 0068 24D1     		bne	.L143
 1586              	.L131:
 486:../../Drivers/STM32H7xx_HAL_Driver/Src/stm32h7xx_hal_flash_ex.c ****     {
ARM GAS  /tmp/ccYcJizL.s 			page 61


 1587              		.loc 1 486 5 is_stmt 1 view .LVU490
 486:../../Drivers/STM32H7xx_HAL_Driver/Src/stm32h7xx_hal_flash_ex.c ****     {
 1588              		.loc 1 486 16 is_stmt 0 view .LVU491
 1589 006a 2368     		ldr	r3, [r4]
 486:../../Drivers/STM32H7xx_HAL_Driver/Src/stm32h7xx_hal_flash_ex.c ****     {
 1590              		.loc 1 486 7 view .LVU492
 1591 006c 13F0100F 		tst	r3, #16
 1592 0070 27D1     		bne	.L144
 1593              	.L132:
 493:../../Drivers/STM32H7xx_HAL_Driver/Src/stm32h7xx_hal_flash_ex.c ****     {
 1594              		.loc 1 493 5 is_stmt 1 view .LVU493
 493:../../Drivers/STM32H7xx_HAL_Driver/Src/stm32h7xx_hal_flash_ex.c ****     {
 1595              		.loc 1 493 16 is_stmt 0 view .LVU494
 1596 0072 2368     		ldr	r3, [r4]
 493:../../Drivers/STM32H7xx_HAL_Driver/Src/stm32h7xx_hal_flash_ex.c ****     {
 1597              		.loc 1 493 7 view .LVU495
 1598 0074 13F0400F 		tst	r3, #64
 1599 0078 27D1     		bne	.L145
 1600              	.L133:
 499:../../Drivers/STM32H7xx_HAL_Driver/Src/stm32h7xx_hal_flash_ex.c ****     {
 1601              		.loc 1 499 5 is_stmt 1 view .LVU496
 499:../../Drivers/STM32H7xx_HAL_Driver/Src/stm32h7xx_hal_flash_ex.c ****     {
 1602              		.loc 1 499 16 is_stmt 0 view .LVU497
 1603 007a 2368     		ldr	r3, [r4]
 499:../../Drivers/STM32H7xx_HAL_Driver/Src/stm32h7xx_hal_flash_ex.c ****     {
 1604              		.loc 1 499 7 view .LVU498
 1605 007c 13F0800F 		tst	r3, #128
 1606 0080 29D1     		bne	.L146
 1607              	.L134:
 512:../../Drivers/STM32H7xx_HAL_Driver/Src/stm32h7xx_hal_flash_ex.c ****     {
 1608              		.loc 1 512 5 is_stmt 1 view .LVU499
 512:../../Drivers/STM32H7xx_HAL_Driver/Src/stm32h7xx_hal_flash_ex.c ****     {
 1609              		.loc 1 512 16 is_stmt 0 view .LVU500
 1610 0082 2368     		ldr	r3, [r4]
 512:../../Drivers/STM32H7xx_HAL_Driver/Src/stm32h7xx_hal_flash_ex.c ****     {
 1611              		.loc 1 512 7 view .LVU501
 1612 0084 13F0200F 		tst	r3, #32
 1613 0088 CBD0     		beq	.L126
 514:../../Drivers/STM32H7xx_HAL_Driver/Src/stm32h7xx_hal_flash_ex.c ****     }
 1614              		.loc 1 514 7 is_stmt 1 view .LVU502
 1615 008a E369     		ldr	r3, [r4, #28]
 1616 008c E26C     		ldr	r2, [r4, #76]
 1617 008e A16C     		ldr	r1, [r4, #72]
 1618 0090 606C     		ldr	r0, [r4, #68]
 1619 0092 FFF7FEFF 		bl	FLASH_OB_SecureAreaConfig
 1620              	.LVL114:
 1621 0096 C4E7     		b	.L126
 1622              	.L140:
 453:../../Drivers/STM32H7xx_HAL_Driver/Src/stm32h7xx_hal_flash_ex.c ****       }
 1623              		.loc 1 453 9 view .LVU503
 1624 0098 E169     		ldr	r1, [r4, #28]
 1625 009a A068     		ldr	r0, [r4, #8]
 1626 009c FFF7FEFF 		bl	FLASH_OB_EnableWRP
 1627              	.LVL115:
 1628 00a0 D7E7     		b	.L127
 1629              	.L141:
 466:../../Drivers/STM32H7xx_HAL_Driver/Src/stm32h7xx_hal_flash_ex.c ****     }
ARM GAS  /tmp/ccYcJizL.s 			page 62


 1630              		.loc 1 466 7 view .LVU504
 1631 00a2 E068     		ldr	r0, [r4, #12]
 1632 00a4 FFF7FEFF 		bl	FLASH_OB_RDPConfig
 1633              	.LVL116:
 1634 00a8 D7E7     		b	.L129
 1635              	.L142:
 473:../../Drivers/STM32H7xx_HAL_Driver/Src/stm32h7xx_hal_flash_ex.c ****     }
 1636              		.loc 1 473 7 view .LVU505
 1637 00aa A169     		ldr	r1, [r4, #24]
 1638 00ac 6069     		ldr	r0, [r4, #20]
 1639 00ae FFF7FEFF 		bl	FLASH_OB_UserConfig
 1640              	.LVL117:
 1641 00b2 D6E7     		b	.L130
 1642              	.L143:
 479:../../Drivers/STM32H7xx_HAL_Driver/Src/stm32h7xx_hal_flash_ex.c **** 
 1643              		.loc 1 479 7 view .LVU506
 482:../../Drivers/STM32H7xx_HAL_Driver/Src/stm32h7xx_hal_flash_ex.c ****     }
 1644              		.loc 1 482 7 view .LVU507
 1645 00b4 E369     		ldr	r3, [r4, #28]
 1646 00b6 A26A     		ldr	r2, [r4, #40]
 1647 00b8 616A     		ldr	r1, [r4, #36]
 1648 00ba 206A     		ldr	r0, [r4, #32]
 1649 00bc FFF7FEFF 		bl	FLASH_OB_PCROPConfig
 1650              	.LVL118:
 1651 00c0 D3E7     		b	.L131
 1652              	.L144:
 488:../../Drivers/STM32H7xx_HAL_Driver/Src/stm32h7xx_hal_flash_ex.c ****     }
 1653              		.loc 1 488 7 view .LVU508
 1654 00c2 2069     		ldr	r0, [r4, #16]
 1655 00c4 FFF7FEFF 		bl	FLASH_OB_BOR_LevelConfig
 1656              	.LVL119:
 1657 00c8 D3E7     		b	.L132
 1658              	.L145:
 495:../../Drivers/STM32H7xx_HAL_Driver/Src/stm32h7xx_hal_flash_ex.c ****     }
 1659              		.loc 1 495 7 view .LVU509
 1660 00ca 626B     		ldr	r2, [r4, #52]
 1661 00cc 216B     		ldr	r1, [r4, #48]
 1662 00ce E06A     		ldr	r0, [r4, #44]
 1663 00d0 FFF7FEFF 		bl	FLASH_OB_BootAddConfig
 1664              	.LVL120:
 1665 00d4 D1E7     		b	.L133
 1666              	.L146:
 501:../../Drivers/STM32H7xx_HAL_Driver/Src/stm32h7xx_hal_flash_ex.c ****     }
 1667              		.loc 1 501 7 view .LVU510
 1668 00d6 226C     		ldr	r2, [r4, #64]
 1669 00d8 E16B     		ldr	r1, [r4, #60]
 1670 00da A06B     		ldr	r0, [r4, #56]
 1671 00dc FFF7FEFF 		bl	FLASH_OB_CM4BootAddConfig
 1672              	.LVL121:
 1673 00e0 CFE7     		b	.L134
 1674              	.LVL122:
 1675              	.L137:
 435:../../Drivers/STM32H7xx_HAL_Driver/Src/stm32h7xx_hal_flash_ex.c ****   }
 1676              		.loc 1 435 12 is_stmt 0 view .LVU511
 1677 00e2 0125     		movs	r5, #1
 1678 00e4 9DE7     		b	.L126
 1679              	.LVL123:
ARM GAS  /tmp/ccYcJizL.s 			page 63


 1680              	.L135:
 422:../../Drivers/STM32H7xx_HAL_Driver/Src/stm32h7xx_hal_flash_ex.c **** 
 1681              		.loc 1 422 3 view .LVU512
 1682 00e6 0225     		movs	r5, #2
 1683 00e8 9EE7     		b	.L125
 1684              	.L148:
 1685 00ea 00BF     		.align	2
 1686              	.L147:
 1687 00ec 00000000 		.word	pFlash
 1688              		.cfi_endproc
 1689              	.LFE134:
 1691              		.section	.text.HAL_FLASHEx_OBGetConfig,"ax",%progbits
 1692              		.align	1
 1693              		.global	HAL_FLASHEx_OBGetConfig
 1694              		.syntax unified
 1695              		.thumb
 1696              		.thumb_func
 1697              		.fpu fpv4-sp-d16
 1699              	HAL_FLASHEx_OBGetConfig:
 1700              	.LVL124:
 1701              	.LFB135:
 558:../../Drivers/STM32H7xx_HAL_Driver/Src/stm32h7xx_hal_flash_ex.c ****   pOBInit->OptionType = (OPTIONBYTE_USER | OPTIONBYTE_RDP | OPTIONBYTE_BOR);
 1702              		.loc 1 558 1 is_stmt 1 view -0
 1703              		.cfi_startproc
 1704              		@ args = 0, pretend = 0, frame = 0
 1705              		@ frame_needed = 0, uses_anonymous_args = 0
 558:../../Drivers/STM32H7xx_HAL_Driver/Src/stm32h7xx_hal_flash_ex.c ****   pOBInit->OptionType = (OPTIONBYTE_USER | OPTIONBYTE_RDP | OPTIONBYTE_BOR);
 1706              		.loc 1 558 1 is_stmt 0 view .LVU514
 1707 0000 10B5     		push	{r4, lr}
 1708              	.LCFI16:
 1709              		.cfi_def_cfa_offset 8
 1710              		.cfi_offset 4, -8
 1711              		.cfi_offset 14, -4
 1712 0002 0446     		mov	r4, r0
 559:../../Drivers/STM32H7xx_HAL_Driver/Src/stm32h7xx_hal_flash_ex.c **** 
 1713              		.loc 1 559 3 is_stmt 1 view .LVU515
 559:../../Drivers/STM32H7xx_HAL_Driver/Src/stm32h7xx_hal_flash_ex.c **** 
 1714              		.loc 1 559 23 is_stmt 0 view .LVU516
 1715 0004 1623     		movs	r3, #22
 1716 0006 0360     		str	r3, [r0]
 562:../../Drivers/STM32H7xx_HAL_Driver/Src/stm32h7xx_hal_flash_ex.c **** 
 1717              		.loc 1 562 3 is_stmt 1 view .LVU517
 562:../../Drivers/STM32H7xx_HAL_Driver/Src/stm32h7xx_hal_flash_ex.c **** 
 1718              		.loc 1 562 23 is_stmt 0 view .LVU518
 1719 0008 FFF7FEFF 		bl	FLASH_OB_GetRDP
 1720              	.LVL125:
 562:../../Drivers/STM32H7xx_HAL_Driver/Src/stm32h7xx_hal_flash_ex.c **** 
 1721              		.loc 1 562 21 view .LVU519
 1722 000c E060     		str	r0, [r4, #12]
 565:../../Drivers/STM32H7xx_HAL_Driver/Src/stm32h7xx_hal_flash_ex.c **** 
 1723              		.loc 1 565 3 is_stmt 1 view .LVU520
 565:../../Drivers/STM32H7xx_HAL_Driver/Src/stm32h7xx_hal_flash_ex.c **** 
 1724              		.loc 1 565 25 is_stmt 0 view .LVU521
 1725 000e FFF7FEFF 		bl	FLASH_OB_GetUser
 1726              	.LVL126:
 565:../../Drivers/STM32H7xx_HAL_Driver/Src/stm32h7xx_hal_flash_ex.c **** 
 1727              		.loc 1 565 23 view .LVU522
ARM GAS  /tmp/ccYcJizL.s 			page 64


 1728 0012 A061     		str	r0, [r4, #24]
 568:../../Drivers/STM32H7xx_HAL_Driver/Src/stm32h7xx_hal_flash_ex.c **** 
 1729              		.loc 1 568 3 is_stmt 1 view .LVU523
 568:../../Drivers/STM32H7xx_HAL_Driver/Src/stm32h7xx_hal_flash_ex.c **** 
 1730              		.loc 1 568 23 is_stmt 0 view .LVU524
 1731 0014 FFF7FEFF 		bl	FLASH_OB_GetBOR
 1732              	.LVL127:
 568:../../Drivers/STM32H7xx_HAL_Driver/Src/stm32h7xx_hal_flash_ex.c **** 
 1733              		.loc 1 568 21 view .LVU525
 1734 0018 2061     		str	r0, [r4, #16]
 571:../../Drivers/STM32H7xx_HAL_Driver/Src/stm32h7xx_hal_flash_ex.c **** #else
 1735              		.loc 1 571 3 is_stmt 1 view .LVU526
 571:../../Drivers/STM32H7xx_HAL_Driver/Src/stm32h7xx_hal_flash_ex.c **** #else
 1736              		.loc 1 571 15 is_stmt 0 view .LVU527
 1737 001a E269     		ldr	r2, [r4, #28]
 571:../../Drivers/STM32H7xx_HAL_Driver/Src/stm32h7xx_hal_flash_ex.c **** #else
 1738              		.loc 1 571 40 view .LVU528
 1739 001c 531E     		subs	r3, r2, #1
 571:../../Drivers/STM32H7xx_HAL_Driver/Src/stm32h7xx_hal_flash_ex.c **** #else
 1740              		.loc 1 571 6 view .LVU529
 1741 001e 012B     		cmp	r3, #1
 1742 0020 10D9     		bls	.L152
 1743              	.L150:
 589:../../Drivers/STM32H7xx_HAL_Driver/Src/stm32h7xx_hal_flash_ex.c **** #if defined(DUAL_CORE)
 1744              		.loc 1 589 3 is_stmt 1 view .LVU530
 1745 0022 04F13401 		add	r1, r4, #52
 1746 0026 04F13000 		add	r0, r4, #48
 1747 002a FFF7FEFF 		bl	FLASH_OB_GetBootAdd
 1748              	.LVL128:
 591:../../Drivers/STM32H7xx_HAL_Driver/Src/stm32h7xx_hal_flash_ex.c **** 
 1749              		.loc 1 591 3 view .LVU531
 591:../../Drivers/STM32H7xx_HAL_Driver/Src/stm32h7xx_hal_flash_ex.c **** 
 1750              		.loc 1 591 23 is_stmt 0 view .LVU532
 1751 002e 2368     		ldr	r3, [r4]
 1752 0030 43F0C003 		orr	r3, r3, #192
 1753 0034 2146     		mov	r1, r4
 1754 0036 41F8403B 		str	r3, [r1], #64
 594:../../Drivers/STM32H7xx_HAL_Driver/Src/stm32h7xx_hal_flash_ex.c **** #else
 1755              		.loc 1 594 3 is_stmt 1 view .LVU533
 1756 003a 04F13C00 		add	r0, r4, #60
 1757 003e FFF7FEFF 		bl	FLASH_OB_GetCM4BootAdd
 1758              	.LVL129:
 619:../../Drivers/STM32H7xx_HAL_Driver/Src/stm32h7xx_hal_flash_ex.c **** 
 1759              		.loc 1 619 1 is_stmt 0 view .LVU534
 1760 0042 10BD     		pop	{r4, pc}
 1761              	.LVL130:
 1762              	.L152:
 576:../../Drivers/STM32H7xx_HAL_Driver/Src/stm32h7xx_hal_flash_ex.c **** 
 1763              		.loc 1 576 5 is_stmt 1 view .LVU535
 576:../../Drivers/STM32H7xx_HAL_Driver/Src/stm32h7xx_hal_flash_ex.c **** 
 1764              		.loc 1 576 25 is_stmt 0 view .LVU536
 1765 0044 2368     		ldr	r3, [r4]
 1766 0046 43F02903 		orr	r3, r3, #41
 1767 004a 2146     		mov	r1, r4
 1768 004c 41F8083B 		str	r3, [r1], #8
 579:../../Drivers/STM32H7xx_HAL_Driver/Src/stm32h7xx_hal_flash_ex.c **** 
 1769              		.loc 1 579 5 is_stmt 1 view .LVU537
ARM GAS  /tmp/ccYcJizL.s 			page 65


 1770 0050 201D     		adds	r0, r4, #4
 1771 0052 FFF7FEFF 		bl	FLASH_OB_GetWRP
 1772              	.LVL131:
 582:../../Drivers/STM32H7xx_HAL_Driver/Src/stm32h7xx_hal_flash_ex.c **** 
 1773              		.loc 1 582 5 view .LVU538
 1774 0056 E369     		ldr	r3, [r4, #28]
 1775 0058 04F12802 		add	r2, r4, #40
 1776 005c 04F12401 		add	r1, r4, #36
 1777 0060 04F12000 		add	r0, r4, #32
 1778 0064 FFF7FEFF 		bl	FLASH_OB_GetPCROP
 1779              	.LVL132:
 585:../../Drivers/STM32H7xx_HAL_Driver/Src/stm32h7xx_hal_flash_ex.c ****   }
 1780              		.loc 1 585 5 view .LVU539
 1781 0068 E369     		ldr	r3, [r4, #28]
 1782 006a 04F14C02 		add	r2, r4, #76
 1783 006e 04F14801 		add	r1, r4, #72
 1784 0072 04F14400 		add	r0, r4, #68
 1785 0076 FFF7FEFF 		bl	FLASH_OB_GetSecureArea
 1786              	.LVL133:
 1787 007a D2E7     		b	.L150
 1788              		.cfi_endproc
 1789              	.LFE135:
 1791              		.section	.text.HAL_FLASHEx_Unlock_Bank1,"ax",%progbits
 1792              		.align	1
 1793              		.global	HAL_FLASHEx_Unlock_Bank1
 1794              		.syntax unified
 1795              		.thumb
 1796              		.thumb_func
 1797              		.fpu fpv4-sp-d16
 1799              	HAL_FLASHEx_Unlock_Bank1:
 1800              	.LFB136:
 626:../../Drivers/STM32H7xx_HAL_Driver/Src/stm32h7xx_hal_flash_ex.c ****   if(READ_BIT(FLASH->CR1, FLASH_CR_LOCK) != 0U)
 1801              		.loc 1 626 1 view -0
 1802              		.cfi_startproc
 1803              		@ args = 0, pretend = 0, frame = 0
 1804              		@ frame_needed = 0, uses_anonymous_args = 0
 1805              		@ link register save eliminated.
 627:../../Drivers/STM32H7xx_HAL_Driver/Src/stm32h7xx_hal_flash_ex.c ****   {
 1806              		.loc 1 627 3 view .LVU541
 627:../../Drivers/STM32H7xx_HAL_Driver/Src/stm32h7xx_hal_flash_ex.c ****   {
 1807              		.loc 1 627 6 is_stmt 0 view .LVU542
 1808 0000 0A4B     		ldr	r3, .L157
 1809 0002 DB68     		ldr	r3, [r3, #12]
 627:../../Drivers/STM32H7xx_HAL_Driver/Src/stm32h7xx_hal_flash_ex.c ****   {
 1810              		.loc 1 627 5 view .LVU543
 1811 0004 13F0010F 		tst	r3, #1
 1812 0008 0BD0     		beq	.L155
 630:../../Drivers/STM32H7xx_HAL_Driver/Src/stm32h7xx_hal_flash_ex.c ****     WRITE_REG(FLASH->KEYR1, FLASH_KEY2);
 1813              		.loc 1 630 5 is_stmt 1 view .LVU544
 1814 000a 084B     		ldr	r3, .L157
 1815 000c 084A     		ldr	r2, .L157+4
 1816 000e 5A60     		str	r2, [r3, #4]
 631:../../Drivers/STM32H7xx_HAL_Driver/Src/stm32h7xx_hal_flash_ex.c **** 
 1817              		.loc 1 631 5 view .LVU545
 1818 0010 02F18832 		add	r2, r2, #-2004318072
 1819 0014 5A60     		str	r2, [r3, #4]
 634:../../Drivers/STM32H7xx_HAL_Driver/Src/stm32h7xx_hal_flash_ex.c ****     {
ARM GAS  /tmp/ccYcJizL.s 			page 66


 1820              		.loc 1 634 5 view .LVU546
 634:../../Drivers/STM32H7xx_HAL_Driver/Src/stm32h7xx_hal_flash_ex.c ****     {
 1821              		.loc 1 634 9 is_stmt 0 view .LVU547
 1822 0016 DB68     		ldr	r3, [r3, #12]
 634:../../Drivers/STM32H7xx_HAL_Driver/Src/stm32h7xx_hal_flash_ex.c ****     {
 1823              		.loc 1 634 8 view .LVU548
 1824 0018 13F0010F 		tst	r3, #1
 1825 001c 03D1     		bne	.L156
 640:../../Drivers/STM32H7xx_HAL_Driver/Src/stm32h7xx_hal_flash_ex.c **** }
 1826              		.loc 1 640 10 view .LVU549
 1827 001e 0020     		movs	r0, #0
 1828 0020 7047     		bx	lr
 1829              	.L155:
 1830 0022 0020     		movs	r0, #0
 1831 0024 7047     		bx	lr
 1832              	.L156:
 636:../../Drivers/STM32H7xx_HAL_Driver/Src/stm32h7xx_hal_flash_ex.c ****     }
 1833              		.loc 1 636 14 view .LVU550
 1834 0026 0120     		movs	r0, #1
 641:../../Drivers/STM32H7xx_HAL_Driver/Src/stm32h7xx_hal_flash_ex.c **** 
 1835              		.loc 1 641 1 view .LVU551
 1836 0028 7047     		bx	lr
 1837              	.L158:
 1838 002a 00BF     		.align	2
 1839              	.L157:
 1840 002c 00200052 		.word	1375739904
 1841 0030 23016745 		.word	1164378403
 1842              		.cfi_endproc
 1843              	.LFE136:
 1845              		.section	.text.HAL_FLASHEx_Lock_Bank1,"ax",%progbits
 1846              		.align	1
 1847              		.global	HAL_FLASHEx_Lock_Bank1
 1848              		.syntax unified
 1849              		.thumb
 1850              		.thumb_func
 1851              		.fpu fpv4-sp-d16
 1853              	HAL_FLASHEx_Lock_Bank1:
 1854              	.LFB137:
 648:../../Drivers/STM32H7xx_HAL_Driver/Src/stm32h7xx_hal_flash_ex.c ****   /* Set the LOCK Bit to lock the FLASH Bank1 Registers access */
 1855              		.loc 1 648 1 is_stmt 1 view -0
 1856              		.cfi_startproc
 1857              		@ args = 0, pretend = 0, frame = 0
 1858              		@ frame_needed = 0, uses_anonymous_args = 0
 1859              		@ link register save eliminated.
 650:../../Drivers/STM32H7xx_HAL_Driver/Src/stm32h7xx_hal_flash_ex.c ****   return HAL_OK;
 1860              		.loc 1 650 3 view .LVU553
 1861 0000 034A     		ldr	r2, .L160
 1862 0002 D368     		ldr	r3, [r2, #12]
 1863 0004 43F00103 		orr	r3, r3, #1
 1864 0008 D360     		str	r3, [r2, #12]
 651:../../Drivers/STM32H7xx_HAL_Driver/Src/stm32h7xx_hal_flash_ex.c **** }
 1865              		.loc 1 651 3 view .LVU554
 652:../../Drivers/STM32H7xx_HAL_Driver/Src/stm32h7xx_hal_flash_ex.c **** 
 1866              		.loc 1 652 1 is_stmt 0 view .LVU555
 1867 000a 0020     		movs	r0, #0
 1868 000c 7047     		bx	lr
 1869              	.L161:
ARM GAS  /tmp/ccYcJizL.s 			page 67


 1870 000e 00BF     		.align	2
 1871              	.L160:
 1872 0010 00200052 		.word	1375739904
 1873              		.cfi_endproc
 1874              	.LFE137:
 1876              		.section	.text.HAL_FLASHEx_Unlock_Bank2,"ax",%progbits
 1877              		.align	1
 1878              		.global	HAL_FLASHEx_Unlock_Bank2
 1879              		.syntax unified
 1880              		.thumb
 1881              		.thumb_func
 1882              		.fpu fpv4-sp-d16
 1884              	HAL_FLASHEx_Unlock_Bank2:
 1885              	.LFB138:
 660:../../Drivers/STM32H7xx_HAL_Driver/Src/stm32h7xx_hal_flash_ex.c ****   if(READ_BIT(FLASH->CR2, FLASH_CR_LOCK) != 0U)
 1886              		.loc 1 660 1 is_stmt 1 view -0
 1887              		.cfi_startproc
 1888              		@ args = 0, pretend = 0, frame = 0
 1889              		@ frame_needed = 0, uses_anonymous_args = 0
 1890              		@ link register save eliminated.
 661:../../Drivers/STM32H7xx_HAL_Driver/Src/stm32h7xx_hal_flash_ex.c ****   {
 1891              		.loc 1 661 3 view .LVU557
 661:../../Drivers/STM32H7xx_HAL_Driver/Src/stm32h7xx_hal_flash_ex.c ****   {
 1892              		.loc 1 661 6 is_stmt 0 view .LVU558
 1893 0000 0C4B     		ldr	r3, .L166
 1894 0002 D3F80C31 		ldr	r3, [r3, #268]
 661:../../Drivers/STM32H7xx_HAL_Driver/Src/stm32h7xx_hal_flash_ex.c ****   {
 1895              		.loc 1 661 5 view .LVU559
 1896 0006 13F0010F 		tst	r3, #1
 1897 000a 0ED0     		beq	.L164
 664:../../Drivers/STM32H7xx_HAL_Driver/Src/stm32h7xx_hal_flash_ex.c ****     WRITE_REG(FLASH->KEYR2, FLASH_KEY2);
 1898              		.loc 1 664 5 is_stmt 1 view .LVU560
 1899 000c 094B     		ldr	r3, .L166
 1900 000e 0A4A     		ldr	r2, .L166+4
 1901 0010 C3F80421 		str	r2, [r3, #260]
 665:../../Drivers/STM32H7xx_HAL_Driver/Src/stm32h7xx_hal_flash_ex.c **** 
 1902              		.loc 1 665 5 view .LVU561
 1903 0014 02F18832 		add	r2, r2, #-2004318072
 1904 0018 C3F80421 		str	r2, [r3, #260]
 668:../../Drivers/STM32H7xx_HAL_Driver/Src/stm32h7xx_hal_flash_ex.c ****     {
 1905              		.loc 1 668 5 view .LVU562
 668:../../Drivers/STM32H7xx_HAL_Driver/Src/stm32h7xx_hal_flash_ex.c ****     {
 1906              		.loc 1 668 9 is_stmt 0 view .LVU563
 1907 001c D3F80C31 		ldr	r3, [r3, #268]
 668:../../Drivers/STM32H7xx_HAL_Driver/Src/stm32h7xx_hal_flash_ex.c ****     {
 1908              		.loc 1 668 8 view .LVU564
 1909 0020 13F0010F 		tst	r3, #1
 1910 0024 03D1     		bne	.L165
 674:../../Drivers/STM32H7xx_HAL_Driver/Src/stm32h7xx_hal_flash_ex.c **** }
 1911              		.loc 1 674 10 view .LVU565
 1912 0026 0020     		movs	r0, #0
 1913 0028 7047     		bx	lr
 1914              	.L164:
 1915 002a 0020     		movs	r0, #0
 1916 002c 7047     		bx	lr
 1917              	.L165:
 670:../../Drivers/STM32H7xx_HAL_Driver/Src/stm32h7xx_hal_flash_ex.c ****     }
ARM GAS  /tmp/ccYcJizL.s 			page 68


 1918              		.loc 1 670 14 view .LVU566
 1919 002e 0120     		movs	r0, #1
 675:../../Drivers/STM32H7xx_HAL_Driver/Src/stm32h7xx_hal_flash_ex.c **** 
 1920              		.loc 1 675 1 view .LVU567
 1921 0030 7047     		bx	lr
 1922              	.L167:
 1923 0032 00BF     		.align	2
 1924              	.L166:
 1925 0034 00200052 		.word	1375739904
 1926 0038 23016745 		.word	1164378403
 1927              		.cfi_endproc
 1928              	.LFE138:
 1930              		.section	.text.HAL_FLASHEx_Lock_Bank2,"ax",%progbits
 1931              		.align	1
 1932              		.global	HAL_FLASHEx_Lock_Bank2
 1933              		.syntax unified
 1934              		.thumb
 1935              		.thumb_func
 1936              		.fpu fpv4-sp-d16
 1938              	HAL_FLASHEx_Lock_Bank2:
 1939              	.LFB139:
 682:../../Drivers/STM32H7xx_HAL_Driver/Src/stm32h7xx_hal_flash_ex.c ****   /* Set the LOCK Bit to lock the FLASH Bank2 Registers access */
 1940              		.loc 1 682 1 is_stmt 1 view -0
 1941              		.cfi_startproc
 1942              		@ args = 0, pretend = 0, frame = 0
 1943              		@ frame_needed = 0, uses_anonymous_args = 0
 1944              		@ link register save eliminated.
 684:../../Drivers/STM32H7xx_HAL_Driver/Src/stm32h7xx_hal_flash_ex.c ****   return HAL_OK;
 1945              		.loc 1 684 3 view .LVU569
 1946 0000 044A     		ldr	r2, .L169
 1947 0002 D2F80C31 		ldr	r3, [r2, #268]
 1948 0006 43F00103 		orr	r3, r3, #1
 1949 000a C2F80C31 		str	r3, [r2, #268]
 685:../../Drivers/STM32H7xx_HAL_Driver/Src/stm32h7xx_hal_flash_ex.c **** }
 1950              		.loc 1 685 3 view .LVU570
 686:../../Drivers/STM32H7xx_HAL_Driver/Src/stm32h7xx_hal_flash_ex.c **** #endif /* DUAL_BANK */
 1951              		.loc 1 686 1 is_stmt 0 view .LVU571
 1952 000e 0020     		movs	r0, #0
 1953 0010 7047     		bx	lr
 1954              	.L170:
 1955 0012 00BF     		.align	2
 1956              	.L169:
 1957 0014 00200052 		.word	1375739904
 1958              		.cfi_endproc
 1959              	.LFE139:
 1961              		.section	.text.HAL_FLASHEx_ComputeCRC,"ax",%progbits
 1962              		.align	1
 1963              		.global	HAL_FLASHEx_ComputeCRC
 1964              		.syntax unified
 1965              		.thumb
 1966              		.thumb_func
 1967              		.fpu fpv4-sp-d16
 1969              	HAL_FLASHEx_ComputeCRC:
 1970              	.LVL134:
 1971              	.LFB140:
 701:../../Drivers/STM32H7xx_HAL_Driver/Src/stm32h7xx_hal_flash_ex.c ****   HAL_StatusTypeDef status;
 1972              		.loc 1 701 1 is_stmt 1 view -0
ARM GAS  /tmp/ccYcJizL.s 			page 69


 1973              		.cfi_startproc
 1974              		@ args = 0, pretend = 0, frame = 0
 1975              		@ frame_needed = 0, uses_anonymous_args = 0
 701:../../Drivers/STM32H7xx_HAL_Driver/Src/stm32h7xx_hal_flash_ex.c ****   HAL_StatusTypeDef status;
 1976              		.loc 1 701 1 is_stmt 0 view .LVU573
 1977 0000 70B5     		push	{r4, r5, r6, lr}
 1978              	.LCFI17:
 1979              		.cfi_def_cfa_offset 16
 1980              		.cfi_offset 4, -16
 1981              		.cfi_offset 5, -12
 1982              		.cfi_offset 6, -8
 1983              		.cfi_offset 14, -4
 1984 0002 0446     		mov	r4, r0
 1985 0004 0E46     		mov	r6, r1
 702:../../Drivers/STM32H7xx_HAL_Driver/Src/stm32h7xx_hal_flash_ex.c ****   uint32_t sector_index;
 1986              		.loc 1 702 3 is_stmt 1 view .LVU574
 703:../../Drivers/STM32H7xx_HAL_Driver/Src/stm32h7xx_hal_flash_ex.c **** 
 1987              		.loc 1 703 3 view .LVU575
 706:../../Drivers/STM32H7xx_HAL_Driver/Src/stm32h7xx_hal_flash_ex.c ****   assert_param(IS_FLASH_TYPECRC(pCRCInit->TypeCRC));
 1988              		.loc 1 706 3 view .LVU576
 707:../../Drivers/STM32H7xx_HAL_Driver/Src/stm32h7xx_hal_flash_ex.c **** 
 1989              		.loc 1 707 3 view .LVU577
 710:../../Drivers/STM32H7xx_HAL_Driver/Src/stm32h7xx_hal_flash_ex.c **** 
 1990              		.loc 1 710 3 view .LVU578
 710:../../Drivers/STM32H7xx_HAL_Driver/Src/stm32h7xx_hal_flash_ex.c **** 
 1991              		.loc 1 710 12 is_stmt 0 view .LVU579
 1992 0006 4CF25030 		movw	r0, #50000
 1993              	.LVL135:
 710:../../Drivers/STM32H7xx_HAL_Driver/Src/stm32h7xx_hal_flash_ex.c **** 
 1994              		.loc 1 710 12 view .LVU580
 1995 000a FFF7FEFF 		bl	FLASH_OB_WaitForLastOperation
 1996              	.LVL136:
 712:../../Drivers/STM32H7xx_HAL_Driver/Src/stm32h7xx_hal_flash_ex.c ****   {
 1997              		.loc 1 712 3 is_stmt 1 view .LVU581
 712:../../Drivers/STM32H7xx_HAL_Driver/Src/stm32h7xx_hal_flash_ex.c ****   {
 1998              		.loc 1 712 6 is_stmt 0 view .LVU582
 1999 000e 0028     		cmp	r0, #0
 2000 0010 40F09C80 		bne	.L172
 714:../../Drivers/STM32H7xx_HAL_Driver/Src/stm32h7xx_hal_flash_ex.c ****     {
 2001              		.loc 1 714 5 is_stmt 1 view .LVU583
 714:../../Drivers/STM32H7xx_HAL_Driver/Src/stm32h7xx_hal_flash_ex.c ****     {
 2002              		.loc 1 714 17 is_stmt 0 view .LVU584
 2003 0014 A368     		ldr	r3, [r4, #8]
 714:../../Drivers/STM32H7xx_HAL_Driver/Src/stm32h7xx_hal_flash_ex.c ****     {
 2004              		.loc 1 714 8 view .LVU585
 2005 0016 012B     		cmp	r3, #1
 2006 0018 25D0     		beq	.L185
 766:../../Drivers/STM32H7xx_HAL_Driver/Src/stm32h7xx_hal_flash_ex.c **** 
 2007              		.loc 1 766 7 is_stmt 1 view .LVU586
 766:../../Drivers/STM32H7xx_HAL_Driver/Src/stm32h7xx_hal_flash_ex.c **** 
 2008              		.loc 1 766 18 is_stmt 0 view .LVU587
 2009 001a 504B     		ldr	r3, .L188
 2010 001c D3F80C21 		ldr	r2, [r3, #268]
 2011 0020 42F40042 		orr	r2, r2, #32768
 2012 0024 C3F80C21 		str	r2, [r3, #268]
 769:../../Drivers/STM32H7xx_HAL_Driver/Src/stm32h7xx_hal_flash_ex.c **** 
 2013              		.loc 1 769 7 is_stmt 1 view .LVU588
ARM GAS  /tmp/ccYcJizL.s 			page 70


 769:../../Drivers/STM32H7xx_HAL_Driver/Src/stm32h7xx_hal_flash_ex.c **** 
 2014              		.loc 1 769 19 is_stmt 0 view .LVU589
 2015 0028 D3F81421 		ldr	r2, [r3, #276]
 2016 002c 42F0C052 		orr	r2, r2, #402653184
 2017 0030 C3F81421 		str	r2, [r3, #276]
 772:../../Drivers/STM32H7xx_HAL_Driver/Src/stm32h7xx_hal_flash_ex.c **** 
 2018              		.loc 1 772 7 is_stmt 1 view .LVU590
 772:../../Drivers/STM32H7xx_HAL_Driver/Src/stm32h7xx_hal_flash_ex.c **** 
 2019              		.loc 1 772 21 is_stmt 0 view .LVU591
 2020 0034 D3F85021 		ldr	r2, [r3, #336]
 772:../../Drivers/STM32H7xx_HAL_Driver/Src/stm32h7xx_hal_flash_ex.c **** 
 2021              		.loc 1 772 56 view .LVU592
 2022 0038 6168     		ldr	r1, [r4, #4]
 772:../../Drivers/STM32H7xx_HAL_Driver/Src/stm32h7xx_hal_flash_ex.c **** 
 2023              		.loc 1 772 78 view .LVU593
 2024 003a 2068     		ldr	r0, [r4]
 772:../../Drivers/STM32H7xx_HAL_Driver/Src/stm32h7xx_hal_flash_ex.c **** 
 2025              		.loc 1 772 68 view .LVU594
 2026 003c 0143     		orrs	r1, r1, r0
 772:../../Drivers/STM32H7xx_HAL_Driver/Src/stm32h7xx_hal_flash_ex.c **** 
 2027              		.loc 1 772 21 view .LVU595
 2028 003e 0A43     		orrs	r2, r2, r1
 2029 0040 42F40032 		orr	r2, r2, #131072
 2030 0044 C3F85021 		str	r2, [r3, #336]
 774:../../Drivers/STM32H7xx_HAL_Driver/Src/stm32h7xx_hal_flash_ex.c ****       {
 2031              		.loc 1 774 7 is_stmt 1 view .LVU596
 774:../../Drivers/STM32H7xx_HAL_Driver/Src/stm32h7xx_hal_flash_ex.c ****       {
 2032              		.loc 1 774 19 is_stmt 0 view .LVU597
 2033 0048 2368     		ldr	r3, [r4]
 774:../../Drivers/STM32H7xx_HAL_Driver/Src/stm32h7xx_hal_flash_ex.c ****       {
 2034              		.loc 1 774 10 view .LVU598
 2035 004a B3F5807F 		cmp	r3, #256
 2036 004e 52D0     		beq	.L186
 785:../../Drivers/STM32H7xx_HAL_Driver/Src/stm32h7xx_hal_flash_ex.c ****       {
 2037              		.loc 1 785 12 is_stmt 1 view .LVU599
 785:../../Drivers/STM32H7xx_HAL_Driver/Src/stm32h7xx_hal_flash_ex.c ****       {
 2038              		.loc 1 785 15 is_stmt 0 view .LVU600
 2039 0050 434A     		ldr	r2, .L188+4
 2040 0052 9342     		cmp	r3, r2
 2041 0054 7BD1     		bne	.L183
 788:../../Drivers/STM32H7xx_HAL_Driver/Src/stm32h7xx_hal_flash_ex.c ****       }
 2042              		.loc 1 788 9 is_stmt 1 view .LVU601
 788:../../Drivers/STM32H7xx_HAL_Driver/Src/stm32h7xx_hal_flash_ex.c ****       }
 2043              		.loc 1 788 23 is_stmt 0 view .LVU602
 2044 0056 414A     		ldr	r2, .L188
 2045 0058 D2F85031 		ldr	r3, [r2, #336]
 2046 005c 43F48003 		orr	r3, r3, #4194304
 2047 0060 C2F85031 		str	r3, [r2, #336]
 2048 0064 5AE0     		b	.L182
 2049              	.L185:
 717:../../Drivers/STM32H7xx_HAL_Driver/Src/stm32h7xx_hal_flash_ex.c **** 
 2050              		.loc 1 717 7 is_stmt 1 view .LVU603
 717:../../Drivers/STM32H7xx_HAL_Driver/Src/stm32h7xx_hal_flash_ex.c **** 
 2051              		.loc 1 717 18 is_stmt 0 view .LVU604
 2052 0066 3D4B     		ldr	r3, .L188
 2053 0068 DA68     		ldr	r2, [r3, #12]
 2054 006a 42F40042 		orr	r2, r2, #32768
ARM GAS  /tmp/ccYcJizL.s 			page 71


 2055 006e DA60     		str	r2, [r3, #12]
 720:../../Drivers/STM32H7xx_HAL_Driver/Src/stm32h7xx_hal_flash_ex.c **** 
 2056              		.loc 1 720 7 is_stmt 1 view .LVU605
 720:../../Drivers/STM32H7xx_HAL_Driver/Src/stm32h7xx_hal_flash_ex.c **** 
 2057              		.loc 1 720 19 is_stmt 0 view .LVU606
 2058 0070 5A69     		ldr	r2, [r3, #20]
 2059 0072 42F0C052 		orr	r2, r2, #402653184
 2060 0076 5A61     		str	r2, [r3, #20]
 723:../../Drivers/STM32H7xx_HAL_Driver/Src/stm32h7xx_hal_flash_ex.c **** 
 2061              		.loc 1 723 7 is_stmt 1 view .LVU607
 723:../../Drivers/STM32H7xx_HAL_Driver/Src/stm32h7xx_hal_flash_ex.c **** 
 2062              		.loc 1 723 21 is_stmt 0 view .LVU608
 2063 0078 1A6D     		ldr	r2, [r3, #80]
 723:../../Drivers/STM32H7xx_HAL_Driver/Src/stm32h7xx_hal_flash_ex.c **** 
 2064              		.loc 1 723 56 view .LVU609
 2065 007a 6168     		ldr	r1, [r4, #4]
 723:../../Drivers/STM32H7xx_HAL_Driver/Src/stm32h7xx_hal_flash_ex.c **** 
 2066              		.loc 1 723 78 view .LVU610
 2067 007c 2068     		ldr	r0, [r4]
 723:../../Drivers/STM32H7xx_HAL_Driver/Src/stm32h7xx_hal_flash_ex.c **** 
 2068              		.loc 1 723 68 view .LVU611
 2069 007e 0143     		orrs	r1, r1, r0
 723:../../Drivers/STM32H7xx_HAL_Driver/Src/stm32h7xx_hal_flash_ex.c **** 
 2070              		.loc 1 723 21 view .LVU612
 2071 0080 0A43     		orrs	r2, r2, r1
 2072 0082 42F40032 		orr	r2, r2, #131072
 2073 0086 1A65     		str	r2, [r3, #80]
 725:../../Drivers/STM32H7xx_HAL_Driver/Src/stm32h7xx_hal_flash_ex.c ****       {
 2074              		.loc 1 725 7 is_stmt 1 view .LVU613
 725:../../Drivers/STM32H7xx_HAL_Driver/Src/stm32h7xx_hal_flash_ex.c ****       {
 2075              		.loc 1 725 19 is_stmt 0 view .LVU614
 2076 0088 2368     		ldr	r3, [r4]
 725:../../Drivers/STM32H7xx_HAL_Driver/Src/stm32h7xx_hal_flash_ex.c ****       {
 2077              		.loc 1 725 10 view .LVU615
 2078 008a B3F5807F 		cmp	r3, #256
 2079 008e 1BD0     		beq	.L187
 736:../../Drivers/STM32H7xx_HAL_Driver/Src/stm32h7xx_hal_flash_ex.c ****       {
 2080              		.loc 1 736 12 is_stmt 1 view .LVU616
 736:../../Drivers/STM32H7xx_HAL_Driver/Src/stm32h7xx_hal_flash_ex.c ****       {
 2081              		.loc 1 736 15 is_stmt 0 view .LVU617
 2082 0090 334A     		ldr	r2, .L188+4
 2083 0092 9342     		cmp	r3, r2
 2084 0094 29D1     		bne	.L178
 739:../../Drivers/STM32H7xx_HAL_Driver/Src/stm32h7xx_hal_flash_ex.c ****       }
 2085              		.loc 1 739 9 is_stmt 1 view .LVU618
 739:../../Drivers/STM32H7xx_HAL_Driver/Src/stm32h7xx_hal_flash_ex.c ****       }
 2086              		.loc 1 739 23 is_stmt 0 view .LVU619
 2087 0096 314A     		ldr	r2, .L188
 2088 0098 136D     		ldr	r3, [r2, #80]
 2089 009a 43F48003 		orr	r3, r3, #4194304
 2090 009e 1365     		str	r3, [r2, #80]
 2091              	.L177:
 748:../../Drivers/STM32H7xx_HAL_Driver/Src/stm32h7xx_hal_flash_ex.c **** 
 2092              		.loc 1 748 7 is_stmt 1 view .LVU620
 748:../../Drivers/STM32H7xx_HAL_Driver/Src/stm32h7xx_hal_flash_ex.c **** 
 2093              		.loc 1 748 21 is_stmt 0 view .LVU621
 2094 00a0 2E4C     		ldr	r4, .L188
ARM GAS  /tmp/ccYcJizL.s 			page 72


 2095              	.LVL137:
 748:../../Drivers/STM32H7xx_HAL_Driver/Src/stm32h7xx_hal_flash_ex.c **** 
 2096              		.loc 1 748 21 view .LVU622
 2097 00a2 236D     		ldr	r3, [r4, #80]
 2098 00a4 43F48033 		orr	r3, r3, #65536
 2099 00a8 2365     		str	r3, [r4, #80]
 751:../../Drivers/STM32H7xx_HAL_Driver/Src/stm32h7xx_hal_flash_ex.c **** 
 2100              		.loc 1 751 7 is_stmt 1 view .LVU623
 751:../../Drivers/STM32H7xx_HAL_Driver/Src/stm32h7xx_hal_flash_ex.c **** 
 2101              		.loc 1 751 16 is_stmt 0 view .LVU624
 2102 00aa 0121     		movs	r1, #1
 2103 00ac 4CF25030 		movw	r0, #50000
 2104 00b0 FFF7FEFF 		bl	FLASH_CRC_WaitForLastOperation
 2105              	.LVL138:
 754:../../Drivers/STM32H7xx_HAL_Driver/Src/stm32h7xx_hal_flash_ex.c **** 
 2106              		.loc 1 754 7 is_stmt 1 view .LVU625
 754:../../Drivers/STM32H7xx_HAL_Driver/Src/stm32h7xx_hal_flash_ex.c **** 
 2107              		.loc 1 754 28 is_stmt 0 view .LVU626
 2108 00b4 E36D     		ldr	r3, [r4, #92]
 754:../../Drivers/STM32H7xx_HAL_Driver/Src/stm32h7xx_hal_flash_ex.c **** 
 2109              		.loc 1 754 21 view .LVU627
 2110 00b6 3360     		str	r3, [r6]
 757:../../Drivers/STM32H7xx_HAL_Driver/Src/stm32h7xx_hal_flash_ex.c **** 
 2111              		.loc 1 757 7 is_stmt 1 view .LVU628
 757:../../Drivers/STM32H7xx_HAL_Driver/Src/stm32h7xx_hal_flash_ex.c **** 
 2112              		.loc 1 757 18 is_stmt 0 view .LVU629
 2113 00b8 E368     		ldr	r3, [r4, #12]
 2114 00ba 23F40043 		bic	r3, r3, #32768
 2115 00be E360     		str	r3, [r4, #12]
 760:../../Drivers/STM32H7xx_HAL_Driver/Src/stm32h7xx_hal_flash_ex.c ****     }
 2116              		.loc 1 760 7 is_stmt 1 view .LVU630
 2117 00c0 4FF0C053 		mov	r3, #402653184
 2118 00c4 6361     		str	r3, [r4, #20]
 2119 00c6 41E0     		b	.L172
 2120              	.LVL139:
 2121              	.L187:
 728:../../Drivers/STM32H7xx_HAL_Driver/Src/stm32h7xx_hal_flash_ex.c **** 
 2122              		.loc 1 728 9 view .LVU631
 728:../../Drivers/STM32H7xx_HAL_Driver/Src/stm32h7xx_hal_flash_ex.c **** 
 2123              		.loc 1 728 23 is_stmt 0 view .LVU632
 2124 00c8 244A     		ldr	r2, .L188
 2125 00ca 136D     		ldr	r3, [r2, #80]
 2126 00cc 43F48063 		orr	r3, r3, #1024
 2127 00d0 1365     		str	r3, [r2, #80]
 731:../../Drivers/STM32H7xx_HAL_Driver/Src/stm32h7xx_hal_flash_ex.c ****         {
 2128              		.loc 1 731 9 is_stmt 1 view .LVU633
 731:../../Drivers/STM32H7xx_HAL_Driver/Src/stm32h7xx_hal_flash_ex.c ****         {
 2129              		.loc 1 731 26 is_stmt 0 view .LVU634
 2130 00d2 E568     		ldr	r5, [r4, #12]
 2131              	.LVL140:
 2132              	.L175:
 731:../../Drivers/STM32H7xx_HAL_Driver/Src/stm32h7xx_hal_flash_ex.c ****         {
 2133              		.loc 1 731 46 is_stmt 1 discriminator 1 view .LVU635
 731:../../Drivers/STM32H7xx_HAL_Driver/Src/stm32h7xx_hal_flash_ex.c ****         {
 2134              		.loc 1 731 70 is_stmt 0 discriminator 1 view .LVU636
 2135 00d4 2369     		ldr	r3, [r4, #16]
 731:../../Drivers/STM32H7xx_HAL_Driver/Src/stm32h7xx_hal_flash_ex.c ****         {
ARM GAS  /tmp/ccYcJizL.s 			page 73


 2136              		.loc 1 731 92 discriminator 1 view .LVU637
 2137 00d6 E268     		ldr	r2, [r4, #12]
 731:../../Drivers/STM32H7xx_HAL_Driver/Src/stm32h7xx_hal_flash_ex.c ****         {
 2138              		.loc 1 731 82 discriminator 1 view .LVU638
 2139 00d8 1344     		add	r3, r3, r2
 731:../../Drivers/STM32H7xx_HAL_Driver/Src/stm32h7xx_hal_flash_ex.c ****         {
 2140              		.loc 1 731 9 discriminator 1 view .LVU639
 2141 00da AB42     		cmp	r3, r5
 2142 00dc E0D9     		bls	.L177
 733:../../Drivers/STM32H7xx_HAL_Driver/Src/stm32h7xx_hal_flash_ex.c ****         }
 2143              		.loc 1 733 11 is_stmt 1 discriminator 3 view .LVU640
 2144 00de 0121     		movs	r1, #1
 2145 00e0 2846     		mov	r0, r5
 2146 00e2 FFF7FEFF 		bl	FLASH_CRC_AddSector
 2147              	.LVL141:
 731:../../Drivers/STM32H7xx_HAL_Driver/Src/stm32h7xx_hal_flash_ex.c ****         {
 2148              		.loc 1 731 103 discriminator 3 view .LVU641
 731:../../Drivers/STM32H7xx_HAL_Driver/Src/stm32h7xx_hal_flash_ex.c ****         {
 2149              		.loc 1 731 115 is_stmt 0 discriminator 3 view .LVU642
 2150 00e6 0135     		adds	r5, r5, #1
 2151              	.LVL142:
 731:../../Drivers/STM32H7xx_HAL_Driver/Src/stm32h7xx_hal_flash_ex.c ****         {
 2152              		.loc 1 731 115 discriminator 3 view .LVU643
 2153 00e8 F4E7     		b	.L175
 2154              	.LVL143:
 2155              	.L178:
 744:../../Drivers/STM32H7xx_HAL_Driver/Src/stm32h7xx_hal_flash_ex.c ****       }
 2156              		.loc 1 744 9 is_stmt 1 view .LVU644
 2157 00ea 0122     		movs	r2, #1
 2158 00ec A169     		ldr	r1, [r4, #24]
 2159 00ee 6069     		ldr	r0, [r4, #20]
 2160 00f0 FFF7FEFF 		bl	FLASH_CRC_SelectAddress
 2161              	.LVL144:
 2162 00f4 D4E7     		b	.L177
 2163              	.L186:
 777:../../Drivers/STM32H7xx_HAL_Driver/Src/stm32h7xx_hal_flash_ex.c **** 
 2164              		.loc 1 777 9 view .LVU645
 777:../../Drivers/STM32H7xx_HAL_Driver/Src/stm32h7xx_hal_flash_ex.c **** 
 2165              		.loc 1 777 23 is_stmt 0 view .LVU646
 2166 00f6 194A     		ldr	r2, .L188
 2167 00f8 D2F85031 		ldr	r3, [r2, #336]
 2168 00fc 43F48063 		orr	r3, r3, #1024
 2169 0100 C2F85031 		str	r3, [r2, #336]
 780:../../Drivers/STM32H7xx_HAL_Driver/Src/stm32h7xx_hal_flash_ex.c ****         {
 2170              		.loc 1 780 9 is_stmt 1 view .LVU647
 780:../../Drivers/STM32H7xx_HAL_Driver/Src/stm32h7xx_hal_flash_ex.c ****         {
 2171              		.loc 1 780 26 is_stmt 0 view .LVU648
 2172 0104 E568     		ldr	r5, [r4, #12]
 2173              	.LVL145:
 780:../../Drivers/STM32H7xx_HAL_Driver/Src/stm32h7xx_hal_flash_ex.c ****         {
 2174              		.loc 1 780 9 view .LVU649
 2175 0106 04E0     		b	.L180
 2176              	.L181:
 782:../../Drivers/STM32H7xx_HAL_Driver/Src/stm32h7xx_hal_flash_ex.c ****         }
 2177              		.loc 1 782 11 is_stmt 1 discriminator 3 view .LVU650
 2178 0108 0221     		movs	r1, #2
 2179 010a 2846     		mov	r0, r5
ARM GAS  /tmp/ccYcJizL.s 			page 74


 2180 010c FFF7FEFF 		bl	FLASH_CRC_AddSector
 2181              	.LVL146:
 780:../../Drivers/STM32H7xx_HAL_Driver/Src/stm32h7xx_hal_flash_ex.c ****         {
 2182              		.loc 1 780 103 discriminator 3 view .LVU651
 780:../../Drivers/STM32H7xx_HAL_Driver/Src/stm32h7xx_hal_flash_ex.c ****         {
 2183              		.loc 1 780 115 is_stmt 0 discriminator 3 view .LVU652
 2184 0110 0135     		adds	r5, r5, #1
 2185              	.LVL147:
 2186              	.L180:
 780:../../Drivers/STM32H7xx_HAL_Driver/Src/stm32h7xx_hal_flash_ex.c ****         {
 2187              		.loc 1 780 46 is_stmt 1 discriminator 1 view .LVU653
 780:../../Drivers/STM32H7xx_HAL_Driver/Src/stm32h7xx_hal_flash_ex.c ****         {
 2188              		.loc 1 780 70 is_stmt 0 discriminator 1 view .LVU654
 2189 0112 2369     		ldr	r3, [r4, #16]
 780:../../Drivers/STM32H7xx_HAL_Driver/Src/stm32h7xx_hal_flash_ex.c ****         {
 2190              		.loc 1 780 92 discriminator 1 view .LVU655
 2191 0114 E268     		ldr	r2, [r4, #12]
 780:../../Drivers/STM32H7xx_HAL_Driver/Src/stm32h7xx_hal_flash_ex.c ****         {
 2192              		.loc 1 780 82 discriminator 1 view .LVU656
 2193 0116 1344     		add	r3, r3, r2
 780:../../Drivers/STM32H7xx_HAL_Driver/Src/stm32h7xx_hal_flash_ex.c ****         {
 2194              		.loc 1 780 9 discriminator 1 view .LVU657
 2195 0118 AB42     		cmp	r3, r5
 2196 011a F5D8     		bhi	.L181
 2197              	.LVL148:
 2198              	.L182:
 797:../../Drivers/STM32H7xx_HAL_Driver/Src/stm32h7xx_hal_flash_ex.c **** 
 2199              		.loc 1 797 7 is_stmt 1 view .LVU658
 797:../../Drivers/STM32H7xx_HAL_Driver/Src/stm32h7xx_hal_flash_ex.c **** 
 2200              		.loc 1 797 21 is_stmt 0 view .LVU659
 2201 011c 0F4C     		ldr	r4, .L188
 2202              	.LVL149:
 797:../../Drivers/STM32H7xx_HAL_Driver/Src/stm32h7xx_hal_flash_ex.c **** 
 2203              		.loc 1 797 21 view .LVU660
 2204 011e D4F85031 		ldr	r3, [r4, #336]
 2205 0122 43F48033 		orr	r3, r3, #65536
 2206 0126 C4F85031 		str	r3, [r4, #336]
 800:../../Drivers/STM32H7xx_HAL_Driver/Src/stm32h7xx_hal_flash_ex.c **** 
 2207              		.loc 1 800 7 is_stmt 1 view .LVU661
 800:../../Drivers/STM32H7xx_HAL_Driver/Src/stm32h7xx_hal_flash_ex.c **** 
 2208              		.loc 1 800 16 is_stmt 0 view .LVU662
 2209 012a 0221     		movs	r1, #2
 2210 012c 4CF25030 		movw	r0, #50000
 2211 0130 FFF7FEFF 		bl	FLASH_CRC_WaitForLastOperation
 2212              	.LVL150:
 803:../../Drivers/STM32H7xx_HAL_Driver/Src/stm32h7xx_hal_flash_ex.c **** 
 2213              		.loc 1 803 7 is_stmt 1 view .LVU663
 803:../../Drivers/STM32H7xx_HAL_Driver/Src/stm32h7xx_hal_flash_ex.c **** 
 2214              		.loc 1 803 28 is_stmt 0 view .LVU664
 2215 0134 E36D     		ldr	r3, [r4, #92]
 803:../../Drivers/STM32H7xx_HAL_Driver/Src/stm32h7xx_hal_flash_ex.c **** 
 2216              		.loc 1 803 21 view .LVU665
 2217 0136 3360     		str	r3, [r6]
 806:../../Drivers/STM32H7xx_HAL_Driver/Src/stm32h7xx_hal_flash_ex.c **** 
 2218              		.loc 1 806 7 is_stmt 1 view .LVU666
 806:../../Drivers/STM32H7xx_HAL_Driver/Src/stm32h7xx_hal_flash_ex.c **** 
 2219              		.loc 1 806 18 is_stmt 0 view .LVU667
ARM GAS  /tmp/ccYcJizL.s 			page 75


 2220 0138 D4F80C31 		ldr	r3, [r4, #268]
 2221 013c 23F40043 		bic	r3, r3, #32768
 2222 0140 C4F80C31 		str	r3, [r4, #268]
 809:../../Drivers/STM32H7xx_HAL_Driver/Src/stm32h7xx_hal_flash_ex.c ****     }
 2223              		.loc 1 809 7 is_stmt 1 view .LVU668
 2224 0144 4FF0C053 		mov	r3, #402653184
 2225 0148 C4F81431 		str	r3, [r4, #276]
 2226              	.LVL151:
 2227              	.L172:
 814:../../Drivers/STM32H7xx_HAL_Driver/Src/stm32h7xx_hal_flash_ex.c **** }
 2228              		.loc 1 814 3 view .LVU669
 815:../../Drivers/STM32H7xx_HAL_Driver/Src/stm32h7xx_hal_flash_ex.c **** 
 2229              		.loc 1 815 1 is_stmt 0 view .LVU670
 2230 014c 70BD     		pop	{r4, r5, r6, pc}
 2231              	.LVL152:
 2232              	.L183:
 793:../../Drivers/STM32H7xx_HAL_Driver/Src/stm32h7xx_hal_flash_ex.c ****       }
 2233              		.loc 1 793 9 is_stmt 1 view .LVU671
 2234 014e 0222     		movs	r2, #2
 2235 0150 A169     		ldr	r1, [r4, #24]
 2236 0152 6069     		ldr	r0, [r4, #20]
 2237 0154 FFF7FEFF 		bl	FLASH_CRC_SelectAddress
 2238              	.LVL153:
 2239 0158 E0E7     		b	.L182
 2240              	.L189:
 2241 015a 00BF     		.align	2
 2242              	.L188:
 2243 015c 00200052 		.word	1375739904
 2244 0160 00014000 		.word	4194560
 2245              		.cfi_endproc
 2246              	.LFE140:
 2248              		.section	.text.FLASH_Erase_Sector,"ax",%progbits
 2249              		.align	1
 2250              		.global	FLASH_Erase_Sector
 2251              		.syntax unified
 2252              		.thumb
 2253              		.thumb_func
 2254              		.fpu fpv4-sp-d16
 2256              	FLASH_Erase_Sector:
 2257              	.LVL154:
 2258              	.LFB142:
 926:../../Drivers/STM32H7xx_HAL_Driver/Src/stm32h7xx_hal_flash_ex.c ****   assert_param(IS_FLASH_SECTOR(Sector));
 2259              		.loc 1 926 1 view -0
 2260              		.cfi_startproc
 2261              		@ args = 0, pretend = 0, frame = 0
 2262              		@ frame_needed = 0, uses_anonymous_args = 0
 2263              		@ link register save eliminated.
 926:../../Drivers/STM32H7xx_HAL_Driver/Src/stm32h7xx_hal_flash_ex.c ****   assert_param(IS_FLASH_SECTOR(Sector));
 2264              		.loc 1 926 1 is_stmt 0 view .LVU673
 2265 0000 10B4     		push	{r4}
 2266              	.LCFI18:
 2267              		.cfi_def_cfa_offset 4
 2268              		.cfi_offset 4, -4
 927:../../Drivers/STM32H7xx_HAL_Driver/Src/stm32h7xx_hal_flash_ex.c ****   assert_param(IS_FLASH_BANK_EXCLUSIVE(Banks));
 2269              		.loc 1 927 3 is_stmt 1 view .LVU674
 928:../../Drivers/STM32H7xx_HAL_Driver/Src/stm32h7xx_hal_flash_ex.c **** #if defined (FLASH_CR_PSIZE)
 2270              		.loc 1 928 3 view .LVU675
ARM GAS  /tmp/ccYcJizL.s 			page 76


 930:../../Drivers/STM32H7xx_HAL_Driver/Src/stm32h7xx_hal_flash_ex.c **** #else
 2271              		.loc 1 930 3 view .LVU676
 935:../../Drivers/STM32H7xx_HAL_Driver/Src/stm32h7xx_hal_flash_ex.c ****   {
 2272              		.loc 1 935 3 view .LVU677
 935:../../Drivers/STM32H7xx_HAL_Driver/Src/stm32h7xx_hal_flash_ex.c ****   {
 2273              		.loc 1 935 5 is_stmt 0 view .LVU678
 2274 0002 11F0010F 		tst	r1, #1
 2275 0006 0CD0     		beq	.L191
 939:../../Drivers/STM32H7xx_HAL_Driver/Src/stm32h7xx_hal_flash_ex.c **** 
 2276              		.loc 1 939 5 is_stmt 1 view .LVU679
 939:../../Drivers/STM32H7xx_HAL_Driver/Src/stm32h7xx_hal_flash_ex.c **** 
 2277              		.loc 1 939 16 is_stmt 0 view .LVU680
 2278 0008 114C     		ldr	r4, .L194
 2279 000a E368     		ldr	r3, [r4, #12]
 2280 000c 23F4E663 		bic	r3, r3, #1840
 2281 0010 E360     		str	r3, [r4, #12]
 941:../../Drivers/STM32H7xx_HAL_Driver/Src/stm32h7xx_hal_flash_ex.c **** #else
 2282              		.loc 1 941 5 is_stmt 1 view .LVU681
 941:../../Drivers/STM32H7xx_HAL_Driver/Src/stm32h7xx_hal_flash_ex.c **** #else
 2283              		.loc 1 941 16 is_stmt 0 view .LVU682
 2284 0012 E368     		ldr	r3, [r4, #12]
 941:../../Drivers/STM32H7xx_HAL_Driver/Src/stm32h7xx_hal_flash_ex.c **** #else
 2285              		.loc 1 941 48 view .LVU683
 2286 0014 42EA002C 		orr	ip, r2, r0, lsl #8
 941:../../Drivers/STM32H7xx_HAL_Driver/Src/stm32h7xx_hal_flash_ex.c **** #else
 2287              		.loc 1 941 16 view .LVU684
 2288 0018 43EA0C03 		orr	r3, r3, ip
 2289 001c 43F08403 		orr	r3, r3, #132
 2290 0020 E360     		str	r3, [r4, #12]
 2291              	.L191:
 951:../../Drivers/STM32H7xx_HAL_Driver/Src/stm32h7xx_hal_flash_ex.c ****   {
 2292              		.loc 1 951 3 is_stmt 1 view .LVU685
 951:../../Drivers/STM32H7xx_HAL_Driver/Src/stm32h7xx_hal_flash_ex.c ****   {
 2293              		.loc 1 951 5 is_stmt 0 view .LVU686
 2294 0022 11F0020F 		tst	r1, #2
 2295 0026 0FD0     		beq	.L190
 955:../../Drivers/STM32H7xx_HAL_Driver/Src/stm32h7xx_hal_flash_ex.c **** 
 2296              		.loc 1 955 5 is_stmt 1 view .LVU687
 955:../../Drivers/STM32H7xx_HAL_Driver/Src/stm32h7xx_hal_flash_ex.c **** 
 2297              		.loc 1 955 16 is_stmt 0 view .LVU688
 2298 0028 0949     		ldr	r1, .L194
 2299              	.LVL155:
 955:../../Drivers/STM32H7xx_HAL_Driver/Src/stm32h7xx_hal_flash_ex.c **** 
 2300              		.loc 1 955 16 view .LVU689
 2301 002a D1F80C31 		ldr	r3, [r1, #268]
 2302 002e 23F4E663 		bic	r3, r3, #1840
 2303 0032 C1F80C31 		str	r3, [r1, #268]
 957:../../Drivers/STM32H7xx_HAL_Driver/Src/stm32h7xx_hal_flash_ex.c **** #else
 2304              		.loc 1 957 5 is_stmt 1 view .LVU690
 957:../../Drivers/STM32H7xx_HAL_Driver/Src/stm32h7xx_hal_flash_ex.c **** #else
 2305              		.loc 1 957 16 is_stmt 0 view .LVU691
 2306 0036 D1F80C31 		ldr	r3, [r1, #268]
 957:../../Drivers/STM32H7xx_HAL_Driver/Src/stm32h7xx_hal_flash_ex.c **** #else
 2307              		.loc 1 957 49 view .LVU692
 2308 003a 42EA0022 		orr	r2, r2, r0, lsl #8
 2309              	.LVL156:
 957:../../Drivers/STM32H7xx_HAL_Driver/Src/stm32h7xx_hal_flash_ex.c **** #else
ARM GAS  /tmp/ccYcJizL.s 			page 77


 2310              		.loc 1 957 16 view .LVU693
 2311 003e 1A43     		orrs	r2, r2, r3
 2312 0040 42F08402 		orr	r2, r2, #132
 2313 0044 C1F80C21 		str	r2, [r1, #268]
 2314              	.L190:
 966:../../Drivers/STM32H7xx_HAL_Driver/Src/stm32h7xx_hal_flash_ex.c **** 
 2315              		.loc 1 966 1 view .LVU694
 2316 0048 5DF8044B 		ldr	r4, [sp], #4
 2317              	.LCFI19:
 2318              		.cfi_restore 4
 2319              		.cfi_def_cfa_offset 0
 2320 004c 7047     		bx	lr
 2321              	.L195:
 2322 004e 00BF     		.align	2
 2323              	.L194:
 2324 0050 00200052 		.word	1375739904
 2325              		.cfi_endproc
 2326              	.LFE142:
 2328              		.section	.text.HAL_FLASHEx_Erase,"ax",%progbits
 2329              		.align	1
 2330              		.global	HAL_FLASHEx_Erase
 2331              		.syntax unified
 2332              		.thumb
 2333              		.thumb_func
 2334              		.fpu fpv4-sp-d16
 2336              	HAL_FLASHEx_Erase:
 2337              	.LVL157:
 2338              	.LFB132:
 177:../../Drivers/STM32H7xx_HAL_Driver/Src/stm32h7xx_hal_flash_ex.c ****   HAL_StatusTypeDef status = HAL_OK;
 2339              		.loc 1 177 1 is_stmt 1 view -0
 2340              		.cfi_startproc
 2341              		@ args = 0, pretend = 0, frame = 0
 2342              		@ frame_needed = 0, uses_anonymous_args = 0
 177:../../Drivers/STM32H7xx_HAL_Driver/Src/stm32h7xx_hal_flash_ex.c ****   HAL_StatusTypeDef status = HAL_OK;
 2343              		.loc 1 177 1 is_stmt 0 view .LVU696
 2344 0000 F8B5     		push	{r3, r4, r5, r6, r7, lr}
 2345              	.LCFI20:
 2346              		.cfi_def_cfa_offset 24
 2347              		.cfi_offset 3, -24
 2348              		.cfi_offset 4, -20
 2349              		.cfi_offset 5, -16
 2350              		.cfi_offset 6, -12
 2351              		.cfi_offset 7, -8
 2352              		.cfi_offset 14, -4
 178:../../Drivers/STM32H7xx_HAL_Driver/Src/stm32h7xx_hal_flash_ex.c ****   uint32_t sector_index;
 2353              		.loc 1 178 3 is_stmt 1 view .LVU697
 2354              	.LVL158:
 179:../../Drivers/STM32H7xx_HAL_Driver/Src/stm32h7xx_hal_flash_ex.c **** 
 2355              		.loc 1 179 3 view .LVU698
 182:../../Drivers/STM32H7xx_HAL_Driver/Src/stm32h7xx_hal_flash_ex.c ****   assert_param(IS_FLASH_BANK(pEraseInit->Banks));
 2356              		.loc 1 182 3 view .LVU699
 183:../../Drivers/STM32H7xx_HAL_Driver/Src/stm32h7xx_hal_flash_ex.c **** 
 2357              		.loc 1 183 3 view .LVU700
 186:../../Drivers/STM32H7xx_HAL_Driver/Src/stm32h7xx_hal_flash_ex.c **** 
 2358              		.loc 1 186 3 view .LVU701
 186:../../Drivers/STM32H7xx_HAL_Driver/Src/stm32h7xx_hal_flash_ex.c **** 
 2359              		.loc 1 186 3 view .LVU702
ARM GAS  /tmp/ccYcJizL.s 			page 78


 2360 0002 474B     		ldr	r3, .L223
 2361 0004 1B7D     		ldrb	r3, [r3, #20]	@ zero_extendqisi2
 2362 0006 012B     		cmp	r3, #1
 2363 0008 00F08880 		beq	.L210
 2364 000c 0446     		mov	r4, r0
 2365 000e 0F46     		mov	r7, r1
 186:../../Drivers/STM32H7xx_HAL_Driver/Src/stm32h7xx_hal_flash_ex.c **** 
 2366              		.loc 1 186 3 discriminator 2 view .LVU703
 2367 0010 434B     		ldr	r3, .L223
 2368 0012 0122     		movs	r2, #1
 2369 0014 1A75     		strb	r2, [r3, #20]
 186:../../Drivers/STM32H7xx_HAL_Driver/Src/stm32h7xx_hal_flash_ex.c **** 
 2370              		.loc 1 186 3 discriminator 2 view .LVU704
 189:../../Drivers/STM32H7xx_HAL_Driver/Src/stm32h7xx_hal_flash_ex.c **** 
 2371              		.loc 1 189 3 discriminator 2 view .LVU705
 189:../../Drivers/STM32H7xx_HAL_Driver/Src/stm32h7xx_hal_flash_ex.c **** 
 2372              		.loc 1 189 20 is_stmt 0 discriminator 2 view .LVU706
 2373 0016 0022     		movs	r2, #0
 2374 0018 9A61     		str	r2, [r3, #24]
 192:../../Drivers/STM32H7xx_HAL_Driver/Src/stm32h7xx_hal_flash_ex.c ****   {
 2375              		.loc 1 192 3 is_stmt 1 discriminator 2 view .LVU707
 192:../../Drivers/STM32H7xx_HAL_Driver/Src/stm32h7xx_hal_flash_ex.c ****   {
 2376              		.loc 1 192 17 is_stmt 0 discriminator 2 view .LVU708
 2377 001a 4368     		ldr	r3, [r0, #4]
 192:../../Drivers/STM32H7xx_HAL_Driver/Src/stm32h7xx_hal_flash_ex.c ****   {
 2378              		.loc 1 192 5 discriminator 2 view .LVU709
 2379 001c 13F0010F 		tst	r3, #1
 2380 0020 0DD1     		bne	.L217
 178:../../Drivers/STM32H7xx_HAL_Driver/Src/stm32h7xx_hal_flash_ex.c ****   uint32_t sector_index;
 2381              		.loc 1 178 21 view .LVU710
 2382 0022 0025     		movs	r5, #0
 2383              	.LVL159:
 2384              	.L198:
 202:../../Drivers/STM32H7xx_HAL_Driver/Src/stm32h7xx_hal_flash_ex.c ****   {
 2385              		.loc 1 202 3 is_stmt 1 view .LVU711
 202:../../Drivers/STM32H7xx_HAL_Driver/Src/stm32h7xx_hal_flash_ex.c ****   {
 2386              		.loc 1 202 17 is_stmt 0 view .LVU712
 2387 0024 6368     		ldr	r3, [r4, #4]
 202:../../Drivers/STM32H7xx_HAL_Driver/Src/stm32h7xx_hal_flash_ex.c ****   {
 2388              		.loc 1 202 5 view .LVU713
 2389 0026 13F0020F 		tst	r3, #2
 2390 002a 12D1     		bne	.L218
 2391              	.L199:
 211:../../Drivers/STM32H7xx_HAL_Driver/Src/stm32h7xx_hal_flash_ex.c ****   {
 2392              		.loc 1 211 3 is_stmt 1 view .LVU714
 211:../../Drivers/STM32H7xx_HAL_Driver/Src/stm32h7xx_hal_flash_ex.c ****   {
 2393              		.loc 1 211 5 is_stmt 0 view .LVU715
 2394 002c CDB9     		cbnz	r5, .L200
 213:../../Drivers/STM32H7xx_HAL_Driver/Src/stm32h7xx_hal_flash_ex.c ****     {
 2395              		.loc 1 213 5 is_stmt 1 view .LVU716
 213:../../Drivers/STM32H7xx_HAL_Driver/Src/stm32h7xx_hal_flash_ex.c ****     {
 2396              		.loc 1 213 18 is_stmt 0 view .LVU717
 2397 002e 2368     		ldr	r3, [r4]
 213:../../Drivers/STM32H7xx_HAL_Driver/Src/stm32h7xx_hal_flash_ex.c ****     {
 2398              		.loc 1 213 7 view .LVU718
 2399 0030 012B     		cmp	r3, #1
 2400 0032 1BD0     		beq	.L219
ARM GAS  /tmp/ccYcJizL.s 			page 79


 244:../../Drivers/STM32H7xx_HAL_Driver/Src/stm32h7xx_hal_flash_ex.c **** 
 2401              		.loc 1 244 7 is_stmt 1 view .LVU719
 244:../../Drivers/STM32H7xx_HAL_Driver/Src/stm32h7xx_hal_flash_ex.c **** 
 2402              		.loc 1 244 20 is_stmt 0 view .LVU720
 2403 0034 4FF0FF33 		mov	r3, #-1
 2404 0038 3B60     		str	r3, [r7]
 247:../../Drivers/STM32H7xx_HAL_Driver/Src/stm32h7xx_hal_flash_ex.c ****       {
 2405              		.loc 1 247 7 is_stmt 1 view .LVU721
 247:../../Drivers/STM32H7xx_HAL_Driver/Src/stm32h7xx_hal_flash_ex.c ****       {
 2406              		.loc 1 247 24 is_stmt 0 view .LVU722
 2407 003a A668     		ldr	r6, [r4, #8]
 2408              	.LVL160:
 247:../../Drivers/STM32H7xx_HAL_Driver/Src/stm32h7xx_hal_flash_ex.c ****       {
 2409              		.loc 1 247 7 view .LVU723
 2410 003c 4CE0     		b	.L205
 2411              	.LVL161:
 2412              	.L217:
 194:../../Drivers/STM32H7xx_HAL_Driver/Src/stm32h7xx_hal_flash_ex.c ****     {
 2413              		.loc 1 194 5 is_stmt 1 view .LVU724
 194:../../Drivers/STM32H7xx_HAL_Driver/Src/stm32h7xx_hal_flash_ex.c ****     {
 2414              		.loc 1 194 8 is_stmt 0 view .LVU725
 2415 003e 0121     		movs	r1, #1
 2416              	.LVL162:
 194:../../Drivers/STM32H7xx_HAL_Driver/Src/stm32h7xx_hal_flash_ex.c ****     {
 2417              		.loc 1 194 8 view .LVU726
 2418 0040 4CF25030 		movw	r0, #50000
 2419              	.LVL163:
 194:../../Drivers/STM32H7xx_HAL_Driver/Src/stm32h7xx_hal_flash_ex.c ****     {
 2420              		.loc 1 194 8 view .LVU727
 2421 0044 FFF7FEFF 		bl	FLASH_WaitForLastOperation
 2422              	.LVL164:
 194:../../Drivers/STM32H7xx_HAL_Driver/Src/stm32h7xx_hal_flash_ex.c ****     {
 2423              		.loc 1 194 7 view .LVU728
 2424 0048 0546     		mov	r5, r0
 2425 004a 0028     		cmp	r0, #0
 2426 004c EAD0     		beq	.L198
 196:../../Drivers/STM32H7xx_HAL_Driver/Src/stm32h7xx_hal_flash_ex.c ****     }
 2427              		.loc 1 196 14 view .LVU729
 2428 004e 0125     		movs	r5, #1
 2429 0050 E8E7     		b	.L198
 2430              	.LVL165:
 2431              	.L218:
 204:../../Drivers/STM32H7xx_HAL_Driver/Src/stm32h7xx_hal_flash_ex.c ****     {
 2432              		.loc 1 204 5 is_stmt 1 view .LVU730
 204:../../Drivers/STM32H7xx_HAL_Driver/Src/stm32h7xx_hal_flash_ex.c ****     {
 2433              		.loc 1 204 8 is_stmt 0 view .LVU731
 2434 0052 0221     		movs	r1, #2
 2435 0054 4CF25030 		movw	r0, #50000
 2436 0058 FFF7FEFF 		bl	FLASH_WaitForLastOperation
 2437              	.LVL166:
 204:../../Drivers/STM32H7xx_HAL_Driver/Src/stm32h7xx_hal_flash_ex.c ****     {
 2438              		.loc 1 204 7 view .LVU732
 2439 005c 0028     		cmp	r0, #0
 2440 005e E5D0     		beq	.L199
 206:../../Drivers/STM32H7xx_HAL_Driver/Src/stm32h7xx_hal_flash_ex.c ****     }
 2441              		.loc 1 206 14 view .LVU733
 2442 0060 0125     		movs	r5, #1
ARM GAS  /tmp/ccYcJizL.s 			page 80


 2443              	.LVL167:
 2444              	.L200:
 281:../../Drivers/STM32H7xx_HAL_Driver/Src/stm32h7xx_hal_flash_ex.c **** 
 2445              		.loc 1 281 3 is_stmt 1 view .LVU734
 281:../../Drivers/STM32H7xx_HAL_Driver/Src/stm32h7xx_hal_flash_ex.c **** 
 2446              		.loc 1 281 3 view .LVU735
 2447 0062 2F4B     		ldr	r3, .L223
 2448 0064 0022     		movs	r2, #0
 2449 0066 1A75     		strb	r2, [r3, #20]
 281:../../Drivers/STM32H7xx_HAL_Driver/Src/stm32h7xx_hal_flash_ex.c **** 
 2450              		.loc 1 281 3 view .LVU736
 283:../../Drivers/STM32H7xx_HAL_Driver/Src/stm32h7xx_hal_flash_ex.c **** }
 2451              		.loc 1 283 3 view .LVU737
 2452              	.LVL168:
 2453              	.L197:
 284:../../Drivers/STM32H7xx_HAL_Driver/Src/stm32h7xx_hal_flash_ex.c **** 
 2454              		.loc 1 284 1 is_stmt 0 view .LVU738
 2455 0068 2846     		mov	r0, r5
 2456 006a F8BD     		pop	{r3, r4, r5, r6, r7, pc}
 2457              	.LVL169:
 2458              	.L219:
 216:../../Drivers/STM32H7xx_HAL_Driver/Src/stm32h7xx_hal_flash_ex.c **** 
 2459              		.loc 1 216 7 is_stmt 1 view .LVU739
 2460 006c 6168     		ldr	r1, [r4, #4]
 2461 006e 2069     		ldr	r0, [r4, #16]
 2462 0070 FFF7FEFF 		bl	FLASH_MassErase
 2463              	.LVL170:
 219:../../Drivers/STM32H7xx_HAL_Driver/Src/stm32h7xx_hal_flash_ex.c ****       {
 2464              		.loc 1 219 7 view .LVU740
 219:../../Drivers/STM32H7xx_HAL_Driver/Src/stm32h7xx_hal_flash_ex.c ****       {
 2465              		.loc 1 219 21 is_stmt 0 view .LVU741
 2466 0074 6368     		ldr	r3, [r4, #4]
 219:../../Drivers/STM32H7xx_HAL_Driver/Src/stm32h7xx_hal_flash_ex.c ****       {
 2467              		.loc 1 219 9 view .LVU742
 2468 0076 13F0010F 		tst	r3, #1
 2469 007a 12D1     		bne	.L220
 2470              	.L202:
 230:../../Drivers/STM32H7xx_HAL_Driver/Src/stm32h7xx_hal_flash_ex.c ****       {
 2471              		.loc 1 230 7 is_stmt 1 view .LVU743
 230:../../Drivers/STM32H7xx_HAL_Driver/Src/stm32h7xx_hal_flash_ex.c ****       {
 2472              		.loc 1 230 21 is_stmt 0 view .LVU744
 2473 007c 6368     		ldr	r3, [r4, #4]
 230:../../Drivers/STM32H7xx_HAL_Driver/Src/stm32h7xx_hal_flash_ex.c ****       {
 2474              		.loc 1 230 9 view .LVU745
 2475 007e 13F0020F 		tst	r3, #2
 2476 0082 EED0     		beq	.L200
 232:../../Drivers/STM32H7xx_HAL_Driver/Src/stm32h7xx_hal_flash_ex.c ****         {
 2477              		.loc 1 232 9 is_stmt 1 view .LVU746
 232:../../Drivers/STM32H7xx_HAL_Driver/Src/stm32h7xx_hal_flash_ex.c ****         {
 2478              		.loc 1 232 12 is_stmt 0 view .LVU747
 2479 0084 0221     		movs	r1, #2
 2480 0086 4CF25030 		movw	r0, #50000
 2481 008a FFF7FEFF 		bl	FLASH_WaitForLastOperation
 2482              	.LVL171:
 232:../../Drivers/STM32H7xx_HAL_Driver/Src/stm32h7xx_hal_flash_ex.c ****         {
 2483              		.loc 1 232 11 view .LVU748
 2484 008e 00B1     		cbz	r0, .L204
ARM GAS  /tmp/ccYcJizL.s 			page 81


 234:../../Drivers/STM32H7xx_HAL_Driver/Src/stm32h7xx_hal_flash_ex.c ****         }
 2485              		.loc 1 234 18 view .LVU749
 2486 0090 0125     		movs	r5, #1
 2487              	.LVL172:
 2488              	.L204:
 237:../../Drivers/STM32H7xx_HAL_Driver/Src/stm32h7xx_hal_flash_ex.c ****       }
 2489              		.loc 1 237 9 is_stmt 1 view .LVU750
 237:../../Drivers/STM32H7xx_HAL_Driver/Src/stm32h7xx_hal_flash_ex.c ****       }
 2490              		.loc 1 237 20 is_stmt 0 view .LVU751
 2491 0092 244A     		ldr	r2, .L223+4
 2492 0094 D2F80C31 		ldr	r3, [r2, #268]
 2493 0098 23F00803 		bic	r3, r3, #8
 2494 009c C2F80C31 		str	r3, [r2, #268]
 2495 00a0 DFE7     		b	.L200
 2496              	.L220:
 221:../../Drivers/STM32H7xx_HAL_Driver/Src/stm32h7xx_hal_flash_ex.c ****         {
 2497              		.loc 1 221 9 is_stmt 1 view .LVU752
 221:../../Drivers/STM32H7xx_HAL_Driver/Src/stm32h7xx_hal_flash_ex.c ****         {
 2498              		.loc 1 221 12 is_stmt 0 view .LVU753
 2499 00a2 0121     		movs	r1, #1
 2500 00a4 4CF25030 		movw	r0, #50000
 2501 00a8 FFF7FEFF 		bl	FLASH_WaitForLastOperation
 2502              	.LVL173:
 221:../../Drivers/STM32H7xx_HAL_Driver/Src/stm32h7xx_hal_flash_ex.c ****         {
 2503              		.loc 1 221 11 view .LVU754
 2504 00ac 00B1     		cbz	r0, .L203
 223:../../Drivers/STM32H7xx_HAL_Driver/Src/stm32h7xx_hal_flash_ex.c ****         }
 2505              		.loc 1 223 18 view .LVU755
 2506 00ae 0125     		movs	r5, #1
 2507              	.LVL174:
 2508              	.L203:
 226:../../Drivers/STM32H7xx_HAL_Driver/Src/stm32h7xx_hal_flash_ex.c ****       }
 2509              		.loc 1 226 9 is_stmt 1 view .LVU756
 226:../../Drivers/STM32H7xx_HAL_Driver/Src/stm32h7xx_hal_flash_ex.c ****       }
 2510              		.loc 1 226 20 is_stmt 0 view .LVU757
 2511 00b0 1C4A     		ldr	r2, .L223+4
 2512 00b2 D368     		ldr	r3, [r2, #12]
 2513 00b4 23F00803 		bic	r3, r3, #8
 2514 00b8 D360     		str	r3, [r2, #12]
 2515 00ba DFE7     		b	.L202
 2516              	.LVL175:
 2517              	.L222:
 254:../../Drivers/STM32H7xx_HAL_Driver/Src/stm32h7xx_hal_flash_ex.c **** 
 2518              		.loc 1 254 11 is_stmt 1 view .LVU758
 254:../../Drivers/STM32H7xx_HAL_Driver/Src/stm32h7xx_hal_flash_ex.c **** 
 2519              		.loc 1 254 20 is_stmt 0 view .LVU759
 2520 00bc 0121     		movs	r1, #1
 2521 00be 4CF25030 		movw	r0, #50000
 2522 00c2 FFF7FEFF 		bl	FLASH_WaitForLastOperation
 2523              	.LVL176:
 2524 00c6 0546     		mov	r5, r0
 2525              	.LVL177:
 257:../../Drivers/STM32H7xx_HAL_Driver/Src/stm32h7xx_hal_flash_ex.c ****         }
 2526              		.loc 1 257 11 is_stmt 1 view .LVU760
 257:../../Drivers/STM32H7xx_HAL_Driver/Src/stm32h7xx_hal_flash_ex.c ****         }
 2527              		.loc 1 257 22 is_stmt 0 view .LVU761
 2528 00c8 164A     		ldr	r2, .L223+4
ARM GAS  /tmp/ccYcJizL.s 			page 82


 2529 00ca D168     		ldr	r1, [r2, #12]
 2530 00cc 164B     		ldr	r3, .L223+8
 2531 00ce 0B40     		ands	r3, r3, r1
 2532 00d0 D360     		str	r3, [r2, #12]
 2533 00d2 0FE0     		b	.L206
 2534              	.L207:
 270:../../Drivers/STM32H7xx_HAL_Driver/Src/stm32h7xx_hal_flash_ex.c ****         {
 2535              		.loc 1 270 9 is_stmt 1 view .LVU762
 270:../../Drivers/STM32H7xx_HAL_Driver/Src/stm32h7xx_hal_flash_ex.c ****         {
 2536              		.loc 1 270 11 is_stmt 0 view .LVU763
 2537 00d4 05BB     		cbnz	r5, .L221
 247:../../Drivers/STM32H7xx_HAL_Driver/Src/stm32h7xx_hal_flash_ex.c ****       {
 2538              		.loc 1 247 107 is_stmt 1 discriminator 2 view .LVU764
 247:../../Drivers/STM32H7xx_HAL_Driver/Src/stm32h7xx_hal_flash_ex.c ****       {
 2539              		.loc 1 247 119 is_stmt 0 discriminator 2 view .LVU765
 2540 00d6 0136     		adds	r6, r6, #1
 2541              	.LVL178:
 2542              	.L205:
 247:../../Drivers/STM32H7xx_HAL_Driver/Src/stm32h7xx_hal_flash_ex.c ****       {
 2543              		.loc 1 247 46 is_stmt 1 discriminator 1 view .LVU766
 247:../../Drivers/STM32H7xx_HAL_Driver/Src/stm32h7xx_hal_flash_ex.c ****       {
 2544              		.loc 1 247 72 is_stmt 0 discriminator 1 view .LVU767
 2545 00d8 E368     		ldr	r3, [r4, #12]
 247:../../Drivers/STM32H7xx_HAL_Driver/Src/stm32h7xx_hal_flash_ex.c ****       {
 2546              		.loc 1 247 96 discriminator 1 view .LVU768
 2547 00da A268     		ldr	r2, [r4, #8]
 247:../../Drivers/STM32H7xx_HAL_Driver/Src/stm32h7xx_hal_flash_ex.c ****       {
 2548              		.loc 1 247 84 discriminator 1 view .LVU769
 2549 00dc 1344     		add	r3, r3, r2
 247:../../Drivers/STM32H7xx_HAL_Driver/Src/stm32h7xx_hal_flash_ex.c ****       {
 2550              		.loc 1 247 7 discriminator 1 view .LVU770
 2551 00de B342     		cmp	r3, r6
 2552 00e0 BFD9     		bls	.L200
 249:../../Drivers/STM32H7xx_HAL_Driver/Src/stm32h7xx_hal_flash_ex.c **** 
 2553              		.loc 1 249 9 is_stmt 1 view .LVU771
 2554 00e2 2269     		ldr	r2, [r4, #16]
 2555 00e4 6168     		ldr	r1, [r4, #4]
 2556 00e6 3046     		mov	r0, r6
 2557 00e8 FFF7FEFF 		bl	FLASH_Erase_Sector
 2558              	.LVL179:
 251:../../Drivers/STM32H7xx_HAL_Driver/Src/stm32h7xx_hal_flash_ex.c ****         {
 2559              		.loc 1 251 9 view .LVU772
 251:../../Drivers/STM32H7xx_HAL_Driver/Src/stm32h7xx_hal_flash_ex.c ****         {
 2560              		.loc 1 251 23 is_stmt 0 view .LVU773
 2561 00ec 6368     		ldr	r3, [r4, #4]
 251:../../Drivers/STM32H7xx_HAL_Driver/Src/stm32h7xx_hal_flash_ex.c ****         {
 2562              		.loc 1 251 11 view .LVU774
 2563 00ee 13F0010F 		tst	r3, #1
 2564 00f2 E3D1     		bne	.L222
 2565              	.L206:
 260:../../Drivers/STM32H7xx_HAL_Driver/Src/stm32h7xx_hal_flash_ex.c ****         {
 2566              		.loc 1 260 9 is_stmt 1 view .LVU775
 260:../../Drivers/STM32H7xx_HAL_Driver/Src/stm32h7xx_hal_flash_ex.c ****         {
 2567              		.loc 1 260 23 is_stmt 0 view .LVU776
 2568 00f4 6368     		ldr	r3, [r4, #4]
 260:../../Drivers/STM32H7xx_HAL_Driver/Src/stm32h7xx_hal_flash_ex.c ****         {
 2569              		.loc 1 260 11 view .LVU777
ARM GAS  /tmp/ccYcJizL.s 			page 83


 2570 00f6 13F0020F 		tst	r3, #2
 2571 00fa EBD0     		beq	.L207
 263:../../Drivers/STM32H7xx_HAL_Driver/Src/stm32h7xx_hal_flash_ex.c **** 
 2572              		.loc 1 263 11 is_stmt 1 view .LVU778
 263:../../Drivers/STM32H7xx_HAL_Driver/Src/stm32h7xx_hal_flash_ex.c **** 
 2573              		.loc 1 263 20 is_stmt 0 view .LVU779
 2574 00fc 0221     		movs	r1, #2
 2575 00fe 4CF25030 		movw	r0, #50000
 2576 0102 FFF7FEFF 		bl	FLASH_WaitForLastOperation
 2577              	.LVL180:
 2578 0106 0546     		mov	r5, r0
 2579              	.LVL181:
 266:../../Drivers/STM32H7xx_HAL_Driver/Src/stm32h7xx_hal_flash_ex.c ****         }
 2580              		.loc 1 266 11 is_stmt 1 view .LVU780
 266:../../Drivers/STM32H7xx_HAL_Driver/Src/stm32h7xx_hal_flash_ex.c ****         }
 2581              		.loc 1 266 22 is_stmt 0 view .LVU781
 2582 0108 064A     		ldr	r2, .L223+4
 2583 010a D2F80C11 		ldr	r1, [r2, #268]
 2584 010e 064B     		ldr	r3, .L223+8
 2585 0110 0B40     		ands	r3, r3, r1
 2586 0112 C2F80C31 		str	r3, [r2, #268]
 2587 0116 DDE7     		b	.L207
 2588              	.L221:
 273:../../Drivers/STM32H7xx_HAL_Driver/Src/stm32h7xx_hal_flash_ex.c ****           break;
 2589              		.loc 1 273 11 is_stmt 1 view .LVU782
 273:../../Drivers/STM32H7xx_HAL_Driver/Src/stm32h7xx_hal_flash_ex.c ****           break;
 2590              		.loc 1 273 24 is_stmt 0 view .LVU783
 2591 0118 3E60     		str	r6, [r7]
 274:../../Drivers/STM32H7xx_HAL_Driver/Src/stm32h7xx_hal_flash_ex.c ****         }
 2592              		.loc 1 274 11 is_stmt 1 view .LVU784
 2593 011a A2E7     		b	.L200
 2594              	.LVL182:
 2595              	.L210:
 186:../../Drivers/STM32H7xx_HAL_Driver/Src/stm32h7xx_hal_flash_ex.c **** 
 2596              		.loc 1 186 3 is_stmt 0 view .LVU785
 2597 011c 0225     		movs	r5, #2
 2598 011e A3E7     		b	.L197
 2599              	.L224:
 2600              		.align	2
 2601              	.L223:
 2602 0120 00000000 		.word	pFlash
 2603 0124 00200052 		.word	1375739904
 2604 0128 FBF8FFFF 		.word	-1797
 2605              		.cfi_endproc
 2606              	.LFE132:
 2608              		.section	.text.HAL_FLASHEx_Erase_IT,"ax",%progbits
 2609              		.align	1
 2610              		.global	HAL_FLASHEx_Erase_IT
 2611              		.syntax unified
 2612              		.thumb
 2613              		.thumb_func
 2614              		.fpu fpv4-sp-d16
 2616              	HAL_FLASHEx_Erase_IT:
 2617              	.LVL183:
 2618              	.LFB133:
 294:../../Drivers/STM32H7xx_HAL_Driver/Src/stm32h7xx_hal_flash_ex.c ****   HAL_StatusTypeDef status = HAL_OK;
 2619              		.loc 1 294 1 is_stmt 1 view -0
ARM GAS  /tmp/ccYcJizL.s 			page 84


 2620              		.cfi_startproc
 2621              		@ args = 0, pretend = 0, frame = 0
 2622              		@ frame_needed = 0, uses_anonymous_args = 0
 294:../../Drivers/STM32H7xx_HAL_Driver/Src/stm32h7xx_hal_flash_ex.c ****   HAL_StatusTypeDef status = HAL_OK;
 2623              		.loc 1 294 1 is_stmt 0 view .LVU787
 2624 0000 38B5     		push	{r3, r4, r5, lr}
 2625              	.LCFI21:
 2626              		.cfi_def_cfa_offset 16
 2627              		.cfi_offset 3, -16
 2628              		.cfi_offset 4, -12
 2629              		.cfi_offset 5, -8
 2630              		.cfi_offset 14, -4
 295:../../Drivers/STM32H7xx_HAL_Driver/Src/stm32h7xx_hal_flash_ex.c **** 
 2631              		.loc 1 295 3 is_stmt 1 view .LVU788
 2632              	.LVL184:
 298:../../Drivers/STM32H7xx_HAL_Driver/Src/stm32h7xx_hal_flash_ex.c ****   assert_param(IS_FLASH_BANK(pEraseInit->Banks));
 2633              		.loc 1 298 3 view .LVU789
 299:../../Drivers/STM32H7xx_HAL_Driver/Src/stm32h7xx_hal_flash_ex.c **** 
 2634              		.loc 1 299 3 view .LVU790
 302:../../Drivers/STM32H7xx_HAL_Driver/Src/stm32h7xx_hal_flash_ex.c **** 
 2635              		.loc 1 302 3 view .LVU791
 302:../../Drivers/STM32H7xx_HAL_Driver/Src/stm32h7xx_hal_flash_ex.c **** 
 2636              		.loc 1 302 3 view .LVU792
 2637 0002 374B     		ldr	r3, .L250
 2638 0004 1B7D     		ldrb	r3, [r3, #20]	@ zero_extendqisi2
 2639 0006 012B     		cmp	r3, #1
 2640 0008 68D0     		beq	.L239
 2641 000a 0446     		mov	r4, r0
 302:../../Drivers/STM32H7xx_HAL_Driver/Src/stm32h7xx_hal_flash_ex.c **** 
 2642              		.loc 1 302 3 discriminator 2 view .LVU793
 2643 000c 344B     		ldr	r3, .L250
 2644 000e 0122     		movs	r2, #1
 2645 0010 1A75     		strb	r2, [r3, #20]
 302:../../Drivers/STM32H7xx_HAL_Driver/Src/stm32h7xx_hal_flash_ex.c **** 
 2646              		.loc 1 302 3 discriminator 2 view .LVU794
 305:../../Drivers/STM32H7xx_HAL_Driver/Src/stm32h7xx_hal_flash_ex.c **** 
 2647              		.loc 1 305 3 discriminator 2 view .LVU795
 305:../../Drivers/STM32H7xx_HAL_Driver/Src/stm32h7xx_hal_flash_ex.c **** 
 2648              		.loc 1 305 20 is_stmt 0 discriminator 2 view .LVU796
 2649 0012 0022     		movs	r2, #0
 2650 0014 9A61     		str	r2, [r3, #24]
 308:../../Drivers/STM32H7xx_HAL_Driver/Src/stm32h7xx_hal_flash_ex.c ****   {
 2651              		.loc 1 308 3 is_stmt 1 discriminator 2 view .LVU797
 308:../../Drivers/STM32H7xx_HAL_Driver/Src/stm32h7xx_hal_flash_ex.c ****   {
 2652              		.loc 1 308 17 is_stmt 0 discriminator 2 view .LVU798
 2653 0016 4368     		ldr	r3, [r0, #4]
 308:../../Drivers/STM32H7xx_HAL_Driver/Src/stm32h7xx_hal_flash_ex.c ****   {
 2654              		.loc 1 308 5 discriminator 2 view .LVU799
 2655 0018 13F0010F 		tst	r3, #1
 2656 001c 0AD1     		bne	.L244
 295:../../Drivers/STM32H7xx_HAL_Driver/Src/stm32h7xx_hal_flash_ex.c **** 
 2657              		.loc 1 295 21 view .LVU800
 2658 001e 0025     		movs	r5, #0
 2659              	.LVL185:
 2660              	.L227:
 318:../../Drivers/STM32H7xx_HAL_Driver/Src/stm32h7xx_hal_flash_ex.c ****   {
 2661              		.loc 1 318 3 is_stmt 1 view .LVU801
ARM GAS  /tmp/ccYcJizL.s 			page 85


 318:../../Drivers/STM32H7xx_HAL_Driver/Src/stm32h7xx_hal_flash_ex.c ****   {
 2662              		.loc 1 318 17 is_stmt 0 view .LVU802
 2663 0020 6368     		ldr	r3, [r4, #4]
 318:../../Drivers/STM32H7xx_HAL_Driver/Src/stm32h7xx_hal_flash_ex.c ****   {
 2664              		.loc 1 318 5 view .LVU803
 2665 0022 13F0020F 		tst	r3, #2
 2666 0026 0FD1     		bne	.L245
 2667              	.L228:
 327:../../Drivers/STM32H7xx_HAL_Driver/Src/stm32h7xx_hal_flash_ex.c ****   {
 2668              		.loc 1 327 3 is_stmt 1 view .LVU804
 327:../../Drivers/STM32H7xx_HAL_Driver/Src/stm32h7xx_hal_flash_ex.c ****   {
 2669              		.loc 1 327 6 is_stmt 0 view .LVU805
 2670 0028 BDB1     		cbz	r5, .L230
 2671              	.LVL186:
 2672              	.L229:
 330:../../Drivers/STM32H7xx_HAL_Driver/Src/stm32h7xx_hal_flash_ex.c ****   }
 2673              		.loc 1 330 5 is_stmt 1 view .LVU806
 330:../../Drivers/STM32H7xx_HAL_Driver/Src/stm32h7xx_hal_flash_ex.c ****   }
 2674              		.loc 1 330 5 view .LVU807
 2675 002a 2D4B     		ldr	r3, .L250
 2676 002c 0022     		movs	r2, #0
 2677 002e 1A75     		strb	r2, [r3, #20]
 330:../../Drivers/STM32H7xx_HAL_Driver/Src/stm32h7xx_hal_flash_ex.c ****   }
 2678              		.loc 1 330 5 view .LVU808
 2679              	.LVL187:
 2680              	.L226:
 405:../../Drivers/STM32H7xx_HAL_Driver/Src/stm32h7xx_hal_flash_ex.c **** 
 2681              		.loc 1 405 1 is_stmt 0 view .LVU809
 2682 0030 2846     		mov	r0, r5
 2683 0032 38BD     		pop	{r3, r4, r5, pc}
 2684              	.LVL188:
 2685              	.L244:
 310:../../Drivers/STM32H7xx_HAL_Driver/Src/stm32h7xx_hal_flash_ex.c ****     {
 2686              		.loc 1 310 5 is_stmt 1 view .LVU810
 310:../../Drivers/STM32H7xx_HAL_Driver/Src/stm32h7xx_hal_flash_ex.c ****     {
 2687              		.loc 1 310 8 is_stmt 0 view .LVU811
 2688 0034 0121     		movs	r1, #1
 2689 0036 4CF25030 		movw	r0, #50000
 2690              	.LVL189:
 310:../../Drivers/STM32H7xx_HAL_Driver/Src/stm32h7xx_hal_flash_ex.c ****     {
 2691              		.loc 1 310 8 view .LVU812
 2692 003a FFF7FEFF 		bl	FLASH_WaitForLastOperation
 2693              	.LVL190:
 310:../../Drivers/STM32H7xx_HAL_Driver/Src/stm32h7xx_hal_flash_ex.c ****     {
 2694              		.loc 1 310 7 view .LVU813
 2695 003e 0546     		mov	r5, r0
 2696 0040 0028     		cmp	r0, #0
 2697 0042 EDD0     		beq	.L227
 312:../../Drivers/STM32H7xx_HAL_Driver/Src/stm32h7xx_hal_flash_ex.c ****     }
 2698              		.loc 1 312 14 view .LVU814
 2699 0044 0125     		movs	r5, #1
 2700 0046 EBE7     		b	.L227
 2701              	.LVL191:
 2702              	.L245:
 320:../../Drivers/STM32H7xx_HAL_Driver/Src/stm32h7xx_hal_flash_ex.c ****     {
 2703              		.loc 1 320 5 is_stmt 1 view .LVU815
 320:../../Drivers/STM32H7xx_HAL_Driver/Src/stm32h7xx_hal_flash_ex.c ****     {
ARM GAS  /tmp/ccYcJizL.s 			page 86


 2704              		.loc 1 320 8 is_stmt 0 view .LVU816
 2705 0048 0221     		movs	r1, #2
 2706 004a 4CF25030 		movw	r0, #50000
 2707 004e FFF7FEFF 		bl	FLASH_WaitForLastOperation
 2708              	.LVL192:
 320:../../Drivers/STM32H7xx_HAL_Driver/Src/stm32h7xx_hal_flash_ex.c ****     {
 2709              		.loc 1 320 7 view .LVU817
 2710 0052 0028     		cmp	r0, #0
 2711 0054 E8D0     		beq	.L228
 322:../../Drivers/STM32H7xx_HAL_Driver/Src/stm32h7xx_hal_flash_ex.c ****     }
 2712              		.loc 1 322 14 view .LVU818
 2713 0056 0125     		movs	r5, #1
 2714              	.LVL193:
 322:../../Drivers/STM32H7xx_HAL_Driver/Src/stm32h7xx_hal_flash_ex.c ****     }
 2715              		.loc 1 322 14 view .LVU819
 2716 0058 E7E7     		b	.L229
 2717              	.LVL194:
 2718              	.L230:
 334:../../Drivers/STM32H7xx_HAL_Driver/Src/stm32h7xx_hal_flash_ex.c ****     {
 2719              		.loc 1 334 5 is_stmt 1 view .LVU820
 334:../../Drivers/STM32H7xx_HAL_Driver/Src/stm32h7xx_hal_flash_ex.c ****     {
 2720              		.loc 1 334 19 is_stmt 0 view .LVU821
 2721 005a 6368     		ldr	r3, [r4, #4]
 334:../../Drivers/STM32H7xx_HAL_Driver/Src/stm32h7xx_hal_flash_ex.c ****     {
 2722              		.loc 1 334 7 view .LVU822
 2723 005c 13F0010F 		tst	r3, #1
 2724 0060 04D0     		beq	.L231
 338:../../Drivers/STM32H7xx_HAL_Driver/Src/stm32h7xx_hal_flash_ex.c ****                                   FLASH_IT_STRBERR_BANK1 | FLASH_IT_INCERR_BANK1 | FLASH_IT_OPERR_B
 2725              		.loc 1 338 7 is_stmt 1 view .LVU823
 2726 0062 204A     		ldr	r2, .L250+4
 2727 0064 D368     		ldr	r3, [r2, #12]
 2728 0066 43F4DE03 		orr	r3, r3, #7274496
 2729 006a D360     		str	r3, [r2, #12]
 2730              	.L231:
 346:../../Drivers/STM32H7xx_HAL_Driver/Src/stm32h7xx_hal_flash_ex.c ****     {
 2731              		.loc 1 346 5 view .LVU824
 346:../../Drivers/STM32H7xx_HAL_Driver/Src/stm32h7xx_hal_flash_ex.c ****     {
 2732              		.loc 1 346 19 is_stmt 0 view .LVU825
 2733 006c 6368     		ldr	r3, [r4, #4]
 346:../../Drivers/STM32H7xx_HAL_Driver/Src/stm32h7xx_hal_flash_ex.c ****     {
 2734              		.loc 1 346 7 view .LVU826
 2735 006e 13F0020F 		tst	r3, #2
 2736 0072 06D0     		beq	.L232
 350:../../Drivers/STM32H7xx_HAL_Driver/Src/stm32h7xx_hal_flash_ex.c ****                                   FLASH_IT_STRBERR_BANK2 | FLASH_IT_INCERR_BANK2 | FLASH_IT_OPERR_B
 2737              		.loc 1 350 7 is_stmt 1 view .LVU827
 2738 0074 1B4A     		ldr	r2, .L250+4
 2739 0076 D2F80C31 		ldr	r3, [r2, #268]
 2740 007a 43F4DE03 		orr	r3, r3, #7274496
 2741 007e C2F80C31 		str	r3, [r2, #268]
 2742              	.L232:
 359:../../Drivers/STM32H7xx_HAL_Driver/Src/stm32h7xx_hal_flash_ex.c ****     {
 2743              		.loc 1 359 5 view .LVU828
 359:../../Drivers/STM32H7xx_HAL_Driver/Src/stm32h7xx_hal_flash_ex.c ****     {
 2744              		.loc 1 359 18 is_stmt 0 view .LVU829
 2745 0082 2368     		ldr	r3, [r4]
 359:../../Drivers/STM32H7xx_HAL_Driver/Src/stm32h7xx_hal_flash_ex.c ****     {
 2746              		.loc 1 359 7 view .LVU830
ARM GAS  /tmp/ccYcJizL.s 			page 87


 2747 0084 012B     		cmp	r3, #1
 2748 0086 11D0     		beq	.L246
 383:../../Drivers/STM32H7xx_HAL_Driver/Src/stm32h7xx_hal_flash_ex.c ****       {
 2749              		.loc 1 383 7 is_stmt 1 view .LVU831
 383:../../Drivers/STM32H7xx_HAL_Driver/Src/stm32h7xx_hal_flash_ex.c ****       {
 2750              		.loc 1 383 20 is_stmt 0 view .LVU832
 2751 0088 6368     		ldr	r3, [r4, #4]
 383:../../Drivers/STM32H7xx_HAL_Driver/Src/stm32h7xx_hal_flash_ex.c ****       {
 2752              		.loc 1 383 9 view .LVU833
 2753 008a 012B     		cmp	r3, #1
 2754 008c 22D0     		beq	.L247
 389:../../Drivers/STM32H7xx_HAL_Driver/Src/stm32h7xx_hal_flash_ex.c ****       }
 2755              		.loc 1 389 9 is_stmt 1 view .LVU834
 389:../../Drivers/STM32H7xx_HAL_Driver/Src/stm32h7xx_hal_flash_ex.c ****       }
 2756              		.loc 1 389 33 is_stmt 0 view .LVU835
 2757 008e 144B     		ldr	r3, .L250
 2758 0090 0422     		movs	r2, #4
 2759 0092 1A70     		strb	r2, [r3]
 2760              	.L238:
 395:../../Drivers/STM32H7xx_HAL_Driver/Src/stm32h7xx_hal_flash_ex.c ****       pFlash.Sector = pEraseInit->Sector;
 2761              		.loc 1 395 7 is_stmt 1 view .LVU836
 395:../../Drivers/STM32H7xx_HAL_Driver/Src/stm32h7xx_hal_flash_ex.c ****       pFlash.Sector = pEraseInit->Sector;
 2762              		.loc 1 395 43 is_stmt 0 view .LVU837
 2763 0094 E268     		ldr	r2, [r4, #12]
 395:../../Drivers/STM32H7xx_HAL_Driver/Src/stm32h7xx_hal_flash_ex.c ****       pFlash.Sector = pEraseInit->Sector;
 2764              		.loc 1 395 31 view .LVU838
 2765 0096 124B     		ldr	r3, .L250
 2766 0098 5A60     		str	r2, [r3, #4]
 396:../../Drivers/STM32H7xx_HAL_Driver/Src/stm32h7xx_hal_flash_ex.c ****       pFlash.VoltageForErase = pEraseInit->VoltageRange;
 2767              		.loc 1 396 7 is_stmt 1 view .LVU839
 396:../../Drivers/STM32H7xx_HAL_Driver/Src/stm32h7xx_hal_flash_ex.c ****       pFlash.VoltageForErase = pEraseInit->VoltageRange;
 2768              		.loc 1 396 33 is_stmt 0 view .LVU840
 2769 009a A268     		ldr	r2, [r4, #8]
 396:../../Drivers/STM32H7xx_HAL_Driver/Src/stm32h7xx_hal_flash_ex.c ****       pFlash.VoltageForErase = pEraseInit->VoltageRange;
 2770              		.loc 1 396 21 view .LVU841
 2771 009c DA60     		str	r2, [r3, #12]
 397:../../Drivers/STM32H7xx_HAL_Driver/Src/stm32h7xx_hal_flash_ex.c **** 
 2772              		.loc 1 397 7 is_stmt 1 view .LVU842
 397:../../Drivers/STM32H7xx_HAL_Driver/Src/stm32h7xx_hal_flash_ex.c **** 
 2773              		.loc 1 397 42 is_stmt 0 view .LVU843
 2774 009e 2269     		ldr	r2, [r4, #16]
 397:../../Drivers/STM32H7xx_HAL_Driver/Src/stm32h7xx_hal_flash_ex.c **** 
 2775              		.loc 1 397 30 view .LVU844
 2776 00a0 9A60     		str	r2, [r3, #8]
 400:../../Drivers/STM32H7xx_HAL_Driver/Src/stm32h7xx_hal_flash_ex.c ****     }
 2777              		.loc 1 400 7 is_stmt 1 view .LVU845
 2778 00a2 6168     		ldr	r1, [r4, #4]
 2779 00a4 A068     		ldr	r0, [r4, #8]
 2780 00a6 FFF7FEFF 		bl	FLASH_Erase_Sector
 2781              	.LVL195:
 2782 00aa C1E7     		b	.L226
 2783              	.L246:
 362:../../Drivers/STM32H7xx_HAL_Driver/Src/stm32h7xx_hal_flash_ex.c ****       {
 2784              		.loc 1 362 7 view .LVU846
 362:../../Drivers/STM32H7xx_HAL_Driver/Src/stm32h7xx_hal_flash_ex.c ****       {
 2785              		.loc 1 362 20 is_stmt 0 view .LVU847
 2786 00ac 6168     		ldr	r1, [r4, #4]
ARM GAS  /tmp/ccYcJizL.s 			page 88


 362:../../Drivers/STM32H7xx_HAL_Driver/Src/stm32h7xx_hal_flash_ex.c ****       {
 2787              		.loc 1 362 9 view .LVU848
 2788 00ae 0129     		cmp	r1, #1
 2789 00b0 08D0     		beq	.L248
 367:../../Drivers/STM32H7xx_HAL_Driver/Src/stm32h7xx_hal_flash_ex.c ****       {
 2790              		.loc 1 367 12 is_stmt 1 view .LVU849
 367:../../Drivers/STM32H7xx_HAL_Driver/Src/stm32h7xx_hal_flash_ex.c ****       {
 2791              		.loc 1 367 14 is_stmt 0 view .LVU850
 2792 00b2 0229     		cmp	r1, #2
 2793 00b4 0AD0     		beq	.L249
 374:../../Drivers/STM32H7xx_HAL_Driver/Src/stm32h7xx_hal_flash_ex.c ****       }
 2794              		.loc 1 374 9 is_stmt 1 view .LVU851
 374:../../Drivers/STM32H7xx_HAL_Driver/Src/stm32h7xx_hal_flash_ex.c ****       }
 2795              		.loc 1 374 33 is_stmt 0 view .LVU852
 2796 00b6 0A4B     		ldr	r3, .L250
 2797 00b8 0722     		movs	r2, #7
 2798 00ba 1A70     		strb	r2, [r3]
 2799              	.L235:
 377:../../Drivers/STM32H7xx_HAL_Driver/Src/stm32h7xx_hal_flash_ex.c ****     }
 2800              		.loc 1 377 7 is_stmt 1 view .LVU853
 2801 00bc 2069     		ldr	r0, [r4, #16]
 2802 00be FFF7FEFF 		bl	FLASH_MassErase
 2803              	.LVL196:
 2804 00c2 B5E7     		b	.L226
 2805              	.L248:
 364:../../Drivers/STM32H7xx_HAL_Driver/Src/stm32h7xx_hal_flash_ex.c ****       }
 2806              		.loc 1 364 9 view .LVU854
 364:../../Drivers/STM32H7xx_HAL_Driver/Src/stm32h7xx_hal_flash_ex.c ****       }
 2807              		.loc 1 364 33 is_stmt 0 view .LVU855
 2808 00c4 064B     		ldr	r3, .L250
 2809 00c6 0222     		movs	r2, #2
 2810 00c8 1A70     		strb	r2, [r3]
 2811 00ca F7E7     		b	.L235
 2812              	.L249:
 369:../../Drivers/STM32H7xx_HAL_Driver/Src/stm32h7xx_hal_flash_ex.c ****       }
 2813              		.loc 1 369 9 is_stmt 1 view .LVU856
 369:../../Drivers/STM32H7xx_HAL_Driver/Src/stm32h7xx_hal_flash_ex.c ****       }
 2814              		.loc 1 369 33 is_stmt 0 view .LVU857
 2815 00cc 044B     		ldr	r3, .L250
 2816 00ce 0522     		movs	r2, #5
 2817 00d0 1A70     		strb	r2, [r3]
 2818 00d2 F3E7     		b	.L235
 2819              	.L247:
 385:../../Drivers/STM32H7xx_HAL_Driver/Src/stm32h7xx_hal_flash_ex.c ****       }
 2820              		.loc 1 385 9 is_stmt 1 view .LVU858
 385:../../Drivers/STM32H7xx_HAL_Driver/Src/stm32h7xx_hal_flash_ex.c ****       }
 2821              		.loc 1 385 33 is_stmt 0 view .LVU859
 2822 00d4 024B     		ldr	r3, .L250
 2823 00d6 0122     		movs	r2, #1
 2824 00d8 1A70     		strb	r2, [r3]
 2825 00da DBE7     		b	.L238
 2826              	.LVL197:
 2827              	.L239:
 302:../../Drivers/STM32H7xx_HAL_Driver/Src/stm32h7xx_hal_flash_ex.c **** 
 2828              		.loc 1 302 3 view .LVU860
 2829 00dc 0225     		movs	r5, #2
 2830 00de A7E7     		b	.L226
ARM GAS  /tmp/ccYcJizL.s 			page 89


 2831              	.L251:
 2832              		.align	2
 2833              	.L250:
 2834 00e0 00000000 		.word	pFlash
 2835 00e4 00200052 		.word	1375739904
 2836              		.cfi_endproc
 2837              	.LFE133:
 2839              		.text
 2840              	.Letext0:
 2841              		.file 2 "../../Drivers/CMSIS/Device/ST/STM32H7xx/Include/stm32h755xx.h"
 2842              		.file 3 "/usr/lib/gcc/arm-none-eabi/10.3.1/include/stdint.h"
 2843              		.file 4 "../../Drivers/STM32H7xx_HAL_Driver/Inc/stm32h7xx_hal_def.h"
 2844              		.file 5 "../../Drivers/STM32H7xx_HAL_Driver/Inc/stm32h7xx_hal_flash.h"
 2845              		.file 6 "../../Drivers/STM32H7xx_HAL_Driver/Inc/stm32h7xx_hal_flash_ex.h"
ARM GAS  /tmp/ccYcJizL.s 			page 90


DEFINED SYMBOLS
                            *ABS*:0000000000000000 stm32h7xx_hal_flash_ex.c
     /tmp/ccYcJizL.s:18     .text.FLASH_MassErase:0000000000000000 $t
     /tmp/ccYcJizL.s:25     .text.FLASH_MassErase:0000000000000000 FLASH_MassErase
     /tmp/ccYcJizL.s:122    .text.FLASH_MassErase:0000000000000084 $d
     /tmp/ccYcJizL.s:127    .text.FLASH_OB_EnableWRP:0000000000000000 $t
     /tmp/ccYcJizL.s:133    .text.FLASH_OB_EnableWRP:0000000000000000 FLASH_OB_EnableWRP
     /tmp/ccYcJizL.s:177    .text.FLASH_OB_EnableWRP:000000000000002c $d
     /tmp/ccYcJizL.s:182    .text.FLASH_OB_DisableWRP:0000000000000000 $t
     /tmp/ccYcJizL.s:188    .text.FLASH_OB_DisableWRP:0000000000000000 FLASH_OB_DisableWRP
     /tmp/ccYcJizL.s:232    .text.FLASH_OB_DisableWRP:000000000000002c $d
     /tmp/ccYcJizL.s:237    .text.FLASH_OB_GetWRP:0000000000000000 $t
     /tmp/ccYcJizL.s:243    .text.FLASH_OB_GetWRP:0000000000000000 FLASH_OB_GetWRP
     /tmp/ccYcJizL.s:311    .text.FLASH_OB_GetWRP:000000000000002c $d
     /tmp/ccYcJizL.s:316    .text.FLASH_OB_RDPConfig:0000000000000000 $t
     /tmp/ccYcJizL.s:322    .text.FLASH_OB_RDPConfig:0000000000000000 FLASH_OB_RDPConfig
     /tmp/ccYcJizL.s:342    .text.FLASH_OB_RDPConfig:0000000000000010 $d
     /tmp/ccYcJizL.s:347    .text.FLASH_OB_GetRDP:0000000000000000 $t
     /tmp/ccYcJizL.s:353    .text.FLASH_OB_GetRDP:0000000000000000 FLASH_OB_GetRDP
     /tmp/ccYcJizL.s:387    .text.FLASH_OB_GetRDP:000000000000001c $d
     /tmp/ccYcJizL.s:392    .text.FLASH_OB_UserConfig:0000000000000000 $t
     /tmp/ccYcJizL.s:398    .text.FLASH_OB_UserConfig:0000000000000000 FLASH_OB_UserConfig
     /tmp/ccYcJizL.s:653    .text.FLASH_OB_UserConfig:0000000000000114 $d
     /tmp/ccYcJizL.s:658    .text.FLASH_OB_GetUser:0000000000000000 $t
     /tmp/ccYcJizL.s:664    .text.FLASH_OB_GetUser:0000000000000000 FLASH_OB_GetUser
     /tmp/ccYcJizL.s:687    .text.FLASH_OB_GetUser:000000000000000c $d
     /tmp/ccYcJizL.s:693    .text.FLASH_OB_PCROPConfig:0000000000000000 $t
     /tmp/ccYcJizL.s:699    .text.FLASH_OB_PCROPConfig:0000000000000000 FLASH_OB_PCROPConfig
     /tmp/ccYcJizL.s:778    .text.FLASH_OB_PCROPConfig:0000000000000044 $d
     /tmp/ccYcJizL.s:783    .text.FLASH_OB_GetPCROP:0000000000000000 $t
     /tmp/ccYcJizL.s:789    .text.FLASH_OB_GetPCROP:0000000000000000 FLASH_OB_GetPCROP
     /tmp/ccYcJizL.s:881    .text.FLASH_OB_GetPCROP:0000000000000048 $d
     /tmp/ccYcJizL.s:887    .text.FLASH_OB_BOR_LevelConfig:0000000000000000 $t
     /tmp/ccYcJizL.s:893    .text.FLASH_OB_BOR_LevelConfig:0000000000000000 FLASH_OB_BOR_LevelConfig
     /tmp/ccYcJizL.s:913    .text.FLASH_OB_BOR_LevelConfig:0000000000000010 $d
     /tmp/ccYcJizL.s:918    .text.FLASH_OB_GetBOR:0000000000000000 $t
     /tmp/ccYcJizL.s:924    .text.FLASH_OB_GetBOR:0000000000000000 FLASH_OB_GetBOR
     /tmp/ccYcJizL.s:941    .text.FLASH_OB_GetBOR:000000000000000c $d
     /tmp/ccYcJizL.s:946    .text.FLASH_OB_BootAddConfig:0000000000000000 $t
     /tmp/ccYcJizL.s:952    .text.FLASH_OB_BootAddConfig:0000000000000000 FLASH_OB_BootAddConfig
     /tmp/ccYcJizL.s:1006   .text.FLASH_OB_BootAddConfig:000000000000002c $d
     /tmp/ccYcJizL.s:1012   .text.FLASH_OB_GetBootAdd:0000000000000000 $t
     /tmp/ccYcJizL.s:1018   .text.FLASH_OB_GetBootAdd:0000000000000000 FLASH_OB_GetBootAdd
     /tmp/ccYcJizL.s:1048   .text.FLASH_OB_GetBootAdd:0000000000000010 $d
     /tmp/ccYcJizL.s:1054   .text.FLASH_OB_CM4BootAddConfig:0000000000000000 $t
     /tmp/ccYcJizL.s:1060   .text.FLASH_OB_CM4BootAddConfig:0000000000000000 FLASH_OB_CM4BootAddConfig
     /tmp/ccYcJizL.s:1114   .text.FLASH_OB_CM4BootAddConfig:000000000000002c $d
     /tmp/ccYcJizL.s:1120   .text.FLASH_OB_GetCM4BootAdd:0000000000000000 $t
     /tmp/ccYcJizL.s:1126   .text.FLASH_OB_GetCM4BootAdd:0000000000000000 FLASH_OB_GetCM4BootAdd
     /tmp/ccYcJizL.s:1156   .text.FLASH_OB_GetCM4BootAdd:0000000000000010 $d
     /tmp/ccYcJizL.s:1162   .text.FLASH_OB_SecureAreaConfig:0000000000000000 $t
     /tmp/ccYcJizL.s:1168   .text.FLASH_OB_SecureAreaConfig:0000000000000000 FLASH_OB_SecureAreaConfig
     /tmp/ccYcJizL.s:1251   .text.FLASH_OB_SecureAreaConfig:000000000000004c $d
     /tmp/ccYcJizL.s:1256   .text.FLASH_OB_GetSecureArea:0000000000000000 $t
     /tmp/ccYcJizL.s:1262   .text.FLASH_OB_GetSecureArea:0000000000000000 FLASH_OB_GetSecureArea
     /tmp/ccYcJizL.s:1354   .text.FLASH_OB_GetSecureArea:0000000000000048 $d
     /tmp/ccYcJizL.s:1360   .text.FLASH_CRC_AddSector:0000000000000000 $t
ARM GAS  /tmp/ccYcJizL.s 			page 91


     /tmp/ccYcJizL.s:1366   .text.FLASH_CRC_AddSector:0000000000000000 FLASH_CRC_AddSector
     /tmp/ccYcJizL.s:1415   .text.FLASH_CRC_AddSector:0000000000000038 $d
     /tmp/ccYcJizL.s:1420   .text.FLASH_CRC_SelectAddress:0000000000000000 $t
     /tmp/ccYcJizL.s:1426   .text.FLASH_CRC_SelectAddress:0000000000000000 FLASH_CRC_SelectAddress
     /tmp/ccYcJizL.s:1463   .text.FLASH_CRC_SelectAddress:0000000000000018 $d
     /tmp/ccYcJizL.s:1468   .text.HAL_FLASHEx_OBProgram:0000000000000000 $t
     /tmp/ccYcJizL.s:1475   .text.HAL_FLASHEx_OBProgram:0000000000000000 HAL_FLASHEx_OBProgram
     /tmp/ccYcJizL.s:1687   .text.HAL_FLASHEx_OBProgram:00000000000000ec $d
     /tmp/ccYcJizL.s:1692   .text.HAL_FLASHEx_OBGetConfig:0000000000000000 $t
     /tmp/ccYcJizL.s:1699   .text.HAL_FLASHEx_OBGetConfig:0000000000000000 HAL_FLASHEx_OBGetConfig
     /tmp/ccYcJizL.s:1792   .text.HAL_FLASHEx_Unlock_Bank1:0000000000000000 $t
     /tmp/ccYcJizL.s:1799   .text.HAL_FLASHEx_Unlock_Bank1:0000000000000000 HAL_FLASHEx_Unlock_Bank1
     /tmp/ccYcJizL.s:1840   .text.HAL_FLASHEx_Unlock_Bank1:000000000000002c $d
     /tmp/ccYcJizL.s:1846   .text.HAL_FLASHEx_Lock_Bank1:0000000000000000 $t
     /tmp/ccYcJizL.s:1853   .text.HAL_FLASHEx_Lock_Bank1:0000000000000000 HAL_FLASHEx_Lock_Bank1
     /tmp/ccYcJizL.s:1872   .text.HAL_FLASHEx_Lock_Bank1:0000000000000010 $d
     /tmp/ccYcJizL.s:1877   .text.HAL_FLASHEx_Unlock_Bank2:0000000000000000 $t
     /tmp/ccYcJizL.s:1884   .text.HAL_FLASHEx_Unlock_Bank2:0000000000000000 HAL_FLASHEx_Unlock_Bank2
     /tmp/ccYcJizL.s:1925   .text.HAL_FLASHEx_Unlock_Bank2:0000000000000034 $d
     /tmp/ccYcJizL.s:1931   .text.HAL_FLASHEx_Lock_Bank2:0000000000000000 $t
     /tmp/ccYcJizL.s:1938   .text.HAL_FLASHEx_Lock_Bank2:0000000000000000 HAL_FLASHEx_Lock_Bank2
     /tmp/ccYcJizL.s:1957   .text.HAL_FLASHEx_Lock_Bank2:0000000000000014 $d
     /tmp/ccYcJizL.s:1962   .text.HAL_FLASHEx_ComputeCRC:0000000000000000 $t
     /tmp/ccYcJizL.s:1969   .text.HAL_FLASHEx_ComputeCRC:0000000000000000 HAL_FLASHEx_ComputeCRC
     /tmp/ccYcJizL.s:2243   .text.HAL_FLASHEx_ComputeCRC:000000000000015c $d
     /tmp/ccYcJizL.s:2249   .text.FLASH_Erase_Sector:0000000000000000 $t
     /tmp/ccYcJizL.s:2256   .text.FLASH_Erase_Sector:0000000000000000 FLASH_Erase_Sector
     /tmp/ccYcJizL.s:2324   .text.FLASH_Erase_Sector:0000000000000050 $d
     /tmp/ccYcJizL.s:2329   .text.HAL_FLASHEx_Erase:0000000000000000 $t
     /tmp/ccYcJizL.s:2336   .text.HAL_FLASHEx_Erase:0000000000000000 HAL_FLASHEx_Erase
     /tmp/ccYcJizL.s:2602   .text.HAL_FLASHEx_Erase:0000000000000120 $d
     /tmp/ccYcJizL.s:2609   .text.HAL_FLASHEx_Erase_IT:0000000000000000 $t
     /tmp/ccYcJizL.s:2616   .text.HAL_FLASHEx_Erase_IT:0000000000000000 HAL_FLASHEx_Erase_IT
     /tmp/ccYcJizL.s:2834   .text.HAL_FLASHEx_Erase_IT:00000000000000e0 $d

UNDEFINED SYMBOLS
FLASH_WaitForLastOperation
pFlash
FLASH_OB_WaitForLastOperation
FLASH_CRC_WaitForLastOperation
