ARM GAS  /tmp/ccvjaD57.s 			page 1


   1              		.cpu cortex-m7
   2              		.eabi_attribute 27, 1
   3              		.eabi_attribute 28, 1
   4              		.eabi_attribute 20, 1
   5              		.eabi_attribute 21, 1
   6              		.eabi_attribute 23, 3
   7              		.eabi_attribute 24, 1
   8              		.eabi_attribute 25, 1
   9              		.eabi_attribute 26, 1
  10              		.eabi_attribute 30, 1
  11              		.eabi_attribute 34, 1
  12              		.eabi_attribute 18, 4
  13              		.file	"stm32h7xx_hal_dma_ex.c"
  14              		.text
  15              	.Ltext0:
  16              		.cfi_sections	.debug_frame
  17              		.section	.text.DMA_MultiBufferSetConfig,"ax",%progbits
  18              		.align	1
  19              		.arch armv7e-m
  20              		.syntax unified
  21              		.thumb
  22              		.thumb_func
  23              		.fpu fpv4-sp-d16
  25              	DMA_MultiBufferSetConfig:
  26              	.LVL0:
  27              	.LFB140:
  28              		.file 1 "../../Drivers/STM32H7xx_HAL_Driver/Src/stm32h7xx_hal_dma_ex.c"
   1:../../Drivers/STM32H7xx_HAL_Driver/Src/stm32h7xx_hal_dma_ex.c **** /**
   2:../../Drivers/STM32H7xx_HAL_Driver/Src/stm32h7xx_hal_dma_ex.c ****   ******************************************************************************
   3:../../Drivers/STM32H7xx_HAL_Driver/Src/stm32h7xx_hal_dma_ex.c ****   * @file    stm32h7xx_hal_dma_ex.c
   4:../../Drivers/STM32H7xx_HAL_Driver/Src/stm32h7xx_hal_dma_ex.c ****   * @author  MCD Application Team
   5:../../Drivers/STM32H7xx_HAL_Driver/Src/stm32h7xx_hal_dma_ex.c ****   * @brief   DMA Extension HAL module driver
   6:../../Drivers/STM32H7xx_HAL_Driver/Src/stm32h7xx_hal_dma_ex.c ****   *          This file provides firmware functions to manage the following
   7:../../Drivers/STM32H7xx_HAL_Driver/Src/stm32h7xx_hal_dma_ex.c ****   *          functionalities of the DMA Extension peripheral:
   8:../../Drivers/STM32H7xx_HAL_Driver/Src/stm32h7xx_hal_dma_ex.c ****   *           + Extended features functions
   9:../../Drivers/STM32H7xx_HAL_Driver/Src/stm32h7xx_hal_dma_ex.c ****   *
  10:../../Drivers/STM32H7xx_HAL_Driver/Src/stm32h7xx_hal_dma_ex.c ****   @verbatim
  11:../../Drivers/STM32H7xx_HAL_Driver/Src/stm32h7xx_hal_dma_ex.c ****   ==============================================================================
  12:../../Drivers/STM32H7xx_HAL_Driver/Src/stm32h7xx_hal_dma_ex.c ****                         ##### How to use this driver #####
  13:../../Drivers/STM32H7xx_HAL_Driver/Src/stm32h7xx_hal_dma_ex.c ****   ==============================================================================
  14:../../Drivers/STM32H7xx_HAL_Driver/Src/stm32h7xx_hal_dma_ex.c ****   [..]
  15:../../Drivers/STM32H7xx_HAL_Driver/Src/stm32h7xx_hal_dma_ex.c ****   The DMA Extension HAL driver can be used as follows:
  16:../../Drivers/STM32H7xx_HAL_Driver/Src/stm32h7xx_hal_dma_ex.c ****    (+) Start a multi buffer transfer using the HAL_DMA_MultiBufferStart() function
  17:../../Drivers/STM32H7xx_HAL_Driver/Src/stm32h7xx_hal_dma_ex.c ****        for polling mode or HAL_DMA_MultiBufferStart_IT() for interrupt mode.
  18:../../Drivers/STM32H7xx_HAL_Driver/Src/stm32h7xx_hal_dma_ex.c **** 
  19:../../Drivers/STM32H7xx_HAL_Driver/Src/stm32h7xx_hal_dma_ex.c ****    (+) Configure the DMA_MUX Synchronization Block using HAL_DMAEx_ConfigMuxSync function.
  20:../../Drivers/STM32H7xx_HAL_Driver/Src/stm32h7xx_hal_dma_ex.c ****    (+) Configure the DMA_MUX Request Generator Block using HAL_DMAEx_ConfigMuxRequestGenerator func
  21:../../Drivers/STM32H7xx_HAL_Driver/Src/stm32h7xx_hal_dma_ex.c ****        Functions HAL_DMAEx_EnableMuxRequestGenerator and HAL_DMAEx_DisableMuxRequestGenerator can t
  22:../../Drivers/STM32H7xx_HAL_Driver/Src/stm32h7xx_hal_dma_ex.c ****        to respectively enable/disable the request generator.
  23:../../Drivers/STM32H7xx_HAL_Driver/Src/stm32h7xx_hal_dma_ex.c **** 
  24:../../Drivers/STM32H7xx_HAL_Driver/Src/stm32h7xx_hal_dma_ex.c ****    (+) To handle the DMAMUX Interrupts, the function  HAL_DMAEx_MUX_IRQHandler should be called fro
  25:../../Drivers/STM32H7xx_HAL_Driver/Src/stm32h7xx_hal_dma_ex.c ****        the DMAMUX IRQ handler i.e DMAMUX1_OVR_IRQHandler or DMAMUX2_OVR_IRQHandler .
  26:../../Drivers/STM32H7xx_HAL_Driver/Src/stm32h7xx_hal_dma_ex.c ****        As only one interrupt line is available for all DMAMUX channels and request generators , HAL
  27:../../Drivers/STM32H7xx_HAL_Driver/Src/stm32h7xx_hal_dma_ex.c ****        called with, as parameter, the appropriate DMA handle as many as used DMAs in the user proje
  28:../../Drivers/STM32H7xx_HAL_Driver/Src/stm32h7xx_hal_dma_ex.c ****       (exception done if a given DMA is not using the DMAMUX SYNC block neither a request generator
  29:../../Drivers/STM32H7xx_HAL_Driver/Src/stm32h7xx_hal_dma_ex.c **** 
  30:../../Drivers/STM32H7xx_HAL_Driver/Src/stm32h7xx_hal_dma_ex.c ****      -@-  In Memory-to-Memory transfer mode, Multi (Double) Buffer mode is not allowed.
ARM GAS  /tmp/ccvjaD57.s 			page 2


  31:../../Drivers/STM32H7xx_HAL_Driver/Src/stm32h7xx_hal_dma_ex.c ****      -@-  When Multi (Double) Buffer mode is enabled, the transfer is circular by default.
  32:../../Drivers/STM32H7xx_HAL_Driver/Src/stm32h7xx_hal_dma_ex.c ****      -@-  In Multi (Double) buffer mode, it is possible to update the base address for
  33:../../Drivers/STM32H7xx_HAL_Driver/Src/stm32h7xx_hal_dma_ex.c ****           the AHB memory port on the fly (DMA_SxM0AR or DMA_SxM1AR) when the stream is enabled.
  34:../../Drivers/STM32H7xx_HAL_Driver/Src/stm32h7xx_hal_dma_ex.c ****      -@-  Multi (Double) buffer mode is possible with DMA and BDMA instances.
  35:../../Drivers/STM32H7xx_HAL_Driver/Src/stm32h7xx_hal_dma_ex.c **** 
  36:../../Drivers/STM32H7xx_HAL_Driver/Src/stm32h7xx_hal_dma_ex.c ****   @endverbatim
  37:../../Drivers/STM32H7xx_HAL_Driver/Src/stm32h7xx_hal_dma_ex.c ****   ******************************************************************************
  38:../../Drivers/STM32H7xx_HAL_Driver/Src/stm32h7xx_hal_dma_ex.c ****   * @attention
  39:../../Drivers/STM32H7xx_HAL_Driver/Src/stm32h7xx_hal_dma_ex.c ****   *
  40:../../Drivers/STM32H7xx_HAL_Driver/Src/stm32h7xx_hal_dma_ex.c ****   * Copyright (c) 2017 STMicroelectronics.
  41:../../Drivers/STM32H7xx_HAL_Driver/Src/stm32h7xx_hal_dma_ex.c ****   * All rights reserved.
  42:../../Drivers/STM32H7xx_HAL_Driver/Src/stm32h7xx_hal_dma_ex.c ****   *
  43:../../Drivers/STM32H7xx_HAL_Driver/Src/stm32h7xx_hal_dma_ex.c ****   * This software is licensed under terms that can be found in the LICENSE file
  44:../../Drivers/STM32H7xx_HAL_Driver/Src/stm32h7xx_hal_dma_ex.c ****   * in the root directory of this software component.
  45:../../Drivers/STM32H7xx_HAL_Driver/Src/stm32h7xx_hal_dma_ex.c ****   * If no LICENSE file comes with this software, it is provided AS-IS.
  46:../../Drivers/STM32H7xx_HAL_Driver/Src/stm32h7xx_hal_dma_ex.c ****   *
  47:../../Drivers/STM32H7xx_HAL_Driver/Src/stm32h7xx_hal_dma_ex.c ****   ******************************************************************************
  48:../../Drivers/STM32H7xx_HAL_Driver/Src/stm32h7xx_hal_dma_ex.c ****   */
  49:../../Drivers/STM32H7xx_HAL_Driver/Src/stm32h7xx_hal_dma_ex.c **** 
  50:../../Drivers/STM32H7xx_HAL_Driver/Src/stm32h7xx_hal_dma_ex.c **** /* Includes ------------------------------------------------------------------*/
  51:../../Drivers/STM32H7xx_HAL_Driver/Src/stm32h7xx_hal_dma_ex.c **** #include "stm32h7xx_hal.h"
  52:../../Drivers/STM32H7xx_HAL_Driver/Src/stm32h7xx_hal_dma_ex.c **** 
  53:../../Drivers/STM32H7xx_HAL_Driver/Src/stm32h7xx_hal_dma_ex.c **** /** @addtogroup STM32H7xx_HAL_Driver
  54:../../Drivers/STM32H7xx_HAL_Driver/Src/stm32h7xx_hal_dma_ex.c ****   * @{
  55:../../Drivers/STM32H7xx_HAL_Driver/Src/stm32h7xx_hal_dma_ex.c ****   */
  56:../../Drivers/STM32H7xx_HAL_Driver/Src/stm32h7xx_hal_dma_ex.c **** 
  57:../../Drivers/STM32H7xx_HAL_Driver/Src/stm32h7xx_hal_dma_ex.c **** /** @defgroup DMAEx DMAEx
  58:../../Drivers/STM32H7xx_HAL_Driver/Src/stm32h7xx_hal_dma_ex.c ****   * @brief DMA Extended HAL module driver
  59:../../Drivers/STM32H7xx_HAL_Driver/Src/stm32h7xx_hal_dma_ex.c ****   * @{
  60:../../Drivers/STM32H7xx_HAL_Driver/Src/stm32h7xx_hal_dma_ex.c ****   */
  61:../../Drivers/STM32H7xx_HAL_Driver/Src/stm32h7xx_hal_dma_ex.c **** 
  62:../../Drivers/STM32H7xx_HAL_Driver/Src/stm32h7xx_hal_dma_ex.c **** #ifdef HAL_DMA_MODULE_ENABLED
  63:../../Drivers/STM32H7xx_HAL_Driver/Src/stm32h7xx_hal_dma_ex.c **** 
  64:../../Drivers/STM32H7xx_HAL_Driver/Src/stm32h7xx_hal_dma_ex.c **** /* Private types -------------------------------------------------------------*/
  65:../../Drivers/STM32H7xx_HAL_Driver/Src/stm32h7xx_hal_dma_ex.c **** /* Private variables ---------------------------------------------------------*/
  66:../../Drivers/STM32H7xx_HAL_Driver/Src/stm32h7xx_hal_dma_ex.c **** /* Private Constants ---------------------------------------------------------*/
  67:../../Drivers/STM32H7xx_HAL_Driver/Src/stm32h7xx_hal_dma_ex.c **** /* Private macros ------------------------------------------------------------*/
  68:../../Drivers/STM32H7xx_HAL_Driver/Src/stm32h7xx_hal_dma_ex.c **** /* Private functions ---------------------------------------------------------*/
  69:../../Drivers/STM32H7xx_HAL_Driver/Src/stm32h7xx_hal_dma_ex.c **** /** @addtogroup DMAEx_Private_Functions
  70:../../Drivers/STM32H7xx_HAL_Driver/Src/stm32h7xx_hal_dma_ex.c ****   * @{
  71:../../Drivers/STM32H7xx_HAL_Driver/Src/stm32h7xx_hal_dma_ex.c ****   */
  72:../../Drivers/STM32H7xx_HAL_Driver/Src/stm32h7xx_hal_dma_ex.c **** 
  73:../../Drivers/STM32H7xx_HAL_Driver/Src/stm32h7xx_hal_dma_ex.c **** static void DMA_MultiBufferSetConfig(DMA_HandleTypeDef *hdma, uint32_t SrcAddress, uint32_t DstAddr
  74:../../Drivers/STM32H7xx_HAL_Driver/Src/stm32h7xx_hal_dma_ex.c **** 
  75:../../Drivers/STM32H7xx_HAL_Driver/Src/stm32h7xx_hal_dma_ex.c **** /**
  76:../../Drivers/STM32H7xx_HAL_Driver/Src/stm32h7xx_hal_dma_ex.c ****   * @}
  77:../../Drivers/STM32H7xx_HAL_Driver/Src/stm32h7xx_hal_dma_ex.c ****   */
  78:../../Drivers/STM32H7xx_HAL_Driver/Src/stm32h7xx_hal_dma_ex.c **** 
  79:../../Drivers/STM32H7xx_HAL_Driver/Src/stm32h7xx_hal_dma_ex.c **** /* Exported functions ---------------------------------------------------------*/
  80:../../Drivers/STM32H7xx_HAL_Driver/Src/stm32h7xx_hal_dma_ex.c **** 
  81:../../Drivers/STM32H7xx_HAL_Driver/Src/stm32h7xx_hal_dma_ex.c **** /** @addtogroup DMAEx_Exported_Functions
  82:../../Drivers/STM32H7xx_HAL_Driver/Src/stm32h7xx_hal_dma_ex.c ****   * @{
  83:../../Drivers/STM32H7xx_HAL_Driver/Src/stm32h7xx_hal_dma_ex.c ****   */
  84:../../Drivers/STM32H7xx_HAL_Driver/Src/stm32h7xx_hal_dma_ex.c **** 
  85:../../Drivers/STM32H7xx_HAL_Driver/Src/stm32h7xx_hal_dma_ex.c **** 
  86:../../Drivers/STM32H7xx_HAL_Driver/Src/stm32h7xx_hal_dma_ex.c **** /** @addtogroup DMAEx_Exported_Functions_Group1
  87:../../Drivers/STM32H7xx_HAL_Driver/Src/stm32h7xx_hal_dma_ex.c ****   *
ARM GAS  /tmp/ccvjaD57.s 			page 3


  88:../../Drivers/STM32H7xx_HAL_Driver/Src/stm32h7xx_hal_dma_ex.c **** @verbatim
  89:../../Drivers/STM32H7xx_HAL_Driver/Src/stm32h7xx_hal_dma_ex.c ****  ===============================================================================
  90:../../Drivers/STM32H7xx_HAL_Driver/Src/stm32h7xx_hal_dma_ex.c ****                 #####  Extended features functions  #####
  91:../../Drivers/STM32H7xx_HAL_Driver/Src/stm32h7xx_hal_dma_ex.c ****  ===============================================================================
  92:../../Drivers/STM32H7xx_HAL_Driver/Src/stm32h7xx_hal_dma_ex.c ****     [..]  This section provides functions allowing to:
  93:../../Drivers/STM32H7xx_HAL_Driver/Src/stm32h7xx_hal_dma_ex.c ****       (+) Configure the source, destination address and data length and
  94:../../Drivers/STM32H7xx_HAL_Driver/Src/stm32h7xx_hal_dma_ex.c ****           Start MultiBuffer DMA transfer
  95:../../Drivers/STM32H7xx_HAL_Driver/Src/stm32h7xx_hal_dma_ex.c ****       (+) Configure the source, destination address and data length and
  96:../../Drivers/STM32H7xx_HAL_Driver/Src/stm32h7xx_hal_dma_ex.c ****           Start MultiBuffer DMA transfer with interrupt
  97:../../Drivers/STM32H7xx_HAL_Driver/Src/stm32h7xx_hal_dma_ex.c ****       (+) Change on the fly the memory0 or memory1 address.
  98:../../Drivers/STM32H7xx_HAL_Driver/Src/stm32h7xx_hal_dma_ex.c ****       (+) Configure the DMA_MUX Synchronization Block using HAL_DMAEx_ConfigMuxSync function.
  99:../../Drivers/STM32H7xx_HAL_Driver/Src/stm32h7xx_hal_dma_ex.c ****       (+) Configure the DMA_MUX Request Generator Block using HAL_DMAEx_ConfigMuxRequestGenerator f
 100:../../Drivers/STM32H7xx_HAL_Driver/Src/stm32h7xx_hal_dma_ex.c ****       (+) Functions HAL_DMAEx_EnableMuxRequestGenerator and HAL_DMAEx_DisableMuxRequestGenerator ca
 101:../../Drivers/STM32H7xx_HAL_Driver/Src/stm32h7xx_hal_dma_ex.c ****           to respectively enable/disable the request generator.
 102:../../Drivers/STM32H7xx_HAL_Driver/Src/stm32h7xx_hal_dma_ex.c ****       (+) Handle DMAMUX interrupts using HAL_DMAEx_MUX_IRQHandler : should be called from
 103:../../Drivers/STM32H7xx_HAL_Driver/Src/stm32h7xx_hal_dma_ex.c ****           the DMAMUX IRQ handler i.e DMAMUX1_OVR_IRQHandler or DMAMUX2_OVR_IRQHandler
 104:../../Drivers/STM32H7xx_HAL_Driver/Src/stm32h7xx_hal_dma_ex.c **** 
 105:../../Drivers/STM32H7xx_HAL_Driver/Src/stm32h7xx_hal_dma_ex.c **** @endverbatim
 106:../../Drivers/STM32H7xx_HAL_Driver/Src/stm32h7xx_hal_dma_ex.c ****   * @{
 107:../../Drivers/STM32H7xx_HAL_Driver/Src/stm32h7xx_hal_dma_ex.c ****   */
 108:../../Drivers/STM32H7xx_HAL_Driver/Src/stm32h7xx_hal_dma_ex.c **** 
 109:../../Drivers/STM32H7xx_HAL_Driver/Src/stm32h7xx_hal_dma_ex.c **** 
 110:../../Drivers/STM32H7xx_HAL_Driver/Src/stm32h7xx_hal_dma_ex.c **** /**
 111:../../Drivers/STM32H7xx_HAL_Driver/Src/stm32h7xx_hal_dma_ex.c ****   * @brief  Starts the multi_buffer DMA Transfer.
 112:../../Drivers/STM32H7xx_HAL_Driver/Src/stm32h7xx_hal_dma_ex.c ****   * @param  hdma      : pointer to a DMA_HandleTypeDef structure that contains
 113:../../Drivers/STM32H7xx_HAL_Driver/Src/stm32h7xx_hal_dma_ex.c ****   *                     the configuration information for the specified DMA Stream.
 114:../../Drivers/STM32H7xx_HAL_Driver/Src/stm32h7xx_hal_dma_ex.c ****   * @param  SrcAddress: The source memory Buffer address
 115:../../Drivers/STM32H7xx_HAL_Driver/Src/stm32h7xx_hal_dma_ex.c ****   * @param  DstAddress: The destination memory Buffer address
 116:../../Drivers/STM32H7xx_HAL_Driver/Src/stm32h7xx_hal_dma_ex.c ****   * @param  SecondMemAddress: The second memory Buffer address in case of multi buffer Transfer
 117:../../Drivers/STM32H7xx_HAL_Driver/Src/stm32h7xx_hal_dma_ex.c ****   * @param  DataLength: The length of data to be transferred from source to destination
 118:../../Drivers/STM32H7xx_HAL_Driver/Src/stm32h7xx_hal_dma_ex.c ****   * @retval HAL status
 119:../../Drivers/STM32H7xx_HAL_Driver/Src/stm32h7xx_hal_dma_ex.c ****   */
 120:../../Drivers/STM32H7xx_HAL_Driver/Src/stm32h7xx_hal_dma_ex.c **** HAL_StatusTypeDef HAL_DMAEx_MultiBufferStart(DMA_HandleTypeDef *hdma, uint32_t SrcAddress, uint32_t
 121:../../Drivers/STM32H7xx_HAL_Driver/Src/stm32h7xx_hal_dma_ex.c **** {
 122:../../Drivers/STM32H7xx_HAL_Driver/Src/stm32h7xx_hal_dma_ex.c ****   HAL_StatusTypeDef status = HAL_OK;
 123:../../Drivers/STM32H7xx_HAL_Driver/Src/stm32h7xx_hal_dma_ex.c ****   __IO uint32_t *ifcRegister_Base; /* DMA Stream Interrupt Clear register */
 124:../../Drivers/STM32H7xx_HAL_Driver/Src/stm32h7xx_hal_dma_ex.c **** 
 125:../../Drivers/STM32H7xx_HAL_Driver/Src/stm32h7xx_hal_dma_ex.c ****   /* Check the parameters */
 126:../../Drivers/STM32H7xx_HAL_Driver/Src/stm32h7xx_hal_dma_ex.c ****   assert_param(IS_DMA_BUFFER_SIZE(DataLength));
 127:../../Drivers/STM32H7xx_HAL_Driver/Src/stm32h7xx_hal_dma_ex.c ****   assert_param(IS_DMA_ALL_INSTANCE(hdma->Instance));
 128:../../Drivers/STM32H7xx_HAL_Driver/Src/stm32h7xx_hal_dma_ex.c **** 
 129:../../Drivers/STM32H7xx_HAL_Driver/Src/stm32h7xx_hal_dma_ex.c ****   /* Memory-to-memory transfer not supported in double buffering mode */
 130:../../Drivers/STM32H7xx_HAL_Driver/Src/stm32h7xx_hal_dma_ex.c ****   if (hdma->Init.Direction == DMA_MEMORY_TO_MEMORY)
 131:../../Drivers/STM32H7xx_HAL_Driver/Src/stm32h7xx_hal_dma_ex.c ****   {
 132:../../Drivers/STM32H7xx_HAL_Driver/Src/stm32h7xx_hal_dma_ex.c ****     hdma->ErrorCode = HAL_DMA_ERROR_NOT_SUPPORTED;
 133:../../Drivers/STM32H7xx_HAL_Driver/Src/stm32h7xx_hal_dma_ex.c ****     status = HAL_ERROR;
 134:../../Drivers/STM32H7xx_HAL_Driver/Src/stm32h7xx_hal_dma_ex.c ****   }
 135:../../Drivers/STM32H7xx_HAL_Driver/Src/stm32h7xx_hal_dma_ex.c ****   else
 136:../../Drivers/STM32H7xx_HAL_Driver/Src/stm32h7xx_hal_dma_ex.c ****   {
 137:../../Drivers/STM32H7xx_HAL_Driver/Src/stm32h7xx_hal_dma_ex.c ****     /* Process Locked */
 138:../../Drivers/STM32H7xx_HAL_Driver/Src/stm32h7xx_hal_dma_ex.c ****     __HAL_LOCK(hdma);
 139:../../Drivers/STM32H7xx_HAL_Driver/Src/stm32h7xx_hal_dma_ex.c **** 
 140:../../Drivers/STM32H7xx_HAL_Driver/Src/stm32h7xx_hal_dma_ex.c ****     if(HAL_DMA_STATE_READY == hdma->State)
 141:../../Drivers/STM32H7xx_HAL_Driver/Src/stm32h7xx_hal_dma_ex.c ****     {
 142:../../Drivers/STM32H7xx_HAL_Driver/Src/stm32h7xx_hal_dma_ex.c ****       /* Change DMA peripheral state */
 143:../../Drivers/STM32H7xx_HAL_Driver/Src/stm32h7xx_hal_dma_ex.c ****       hdma->State = HAL_DMA_STATE_BUSY;
 144:../../Drivers/STM32H7xx_HAL_Driver/Src/stm32h7xx_hal_dma_ex.c **** 
ARM GAS  /tmp/ccvjaD57.s 			page 4


 145:../../Drivers/STM32H7xx_HAL_Driver/Src/stm32h7xx_hal_dma_ex.c ****       /* Initialize the error code */
 146:../../Drivers/STM32H7xx_HAL_Driver/Src/stm32h7xx_hal_dma_ex.c ****       hdma->ErrorCode = HAL_DMA_ERROR_NONE;
 147:../../Drivers/STM32H7xx_HAL_Driver/Src/stm32h7xx_hal_dma_ex.c **** 
 148:../../Drivers/STM32H7xx_HAL_Driver/Src/stm32h7xx_hal_dma_ex.c ****       if(IS_DMA_STREAM_INSTANCE(hdma->Instance) != 0U) /* DMA1 or DMA2 instance */
 149:../../Drivers/STM32H7xx_HAL_Driver/Src/stm32h7xx_hal_dma_ex.c ****       {
 150:../../Drivers/STM32H7xx_HAL_Driver/Src/stm32h7xx_hal_dma_ex.c ****         /* Enable the Double buffer mode */
 151:../../Drivers/STM32H7xx_HAL_Driver/Src/stm32h7xx_hal_dma_ex.c ****         ((DMA_Stream_TypeDef   *)hdma->Instance)->CR |= DMA_SxCR_DBM;
 152:../../Drivers/STM32H7xx_HAL_Driver/Src/stm32h7xx_hal_dma_ex.c **** 
 153:../../Drivers/STM32H7xx_HAL_Driver/Src/stm32h7xx_hal_dma_ex.c ****         /* Configure DMA Stream destination address */
 154:../../Drivers/STM32H7xx_HAL_Driver/Src/stm32h7xx_hal_dma_ex.c ****         ((DMA_Stream_TypeDef   *)hdma->Instance)->M1AR = SecondMemAddress;
 155:../../Drivers/STM32H7xx_HAL_Driver/Src/stm32h7xx_hal_dma_ex.c **** 
 156:../../Drivers/STM32H7xx_HAL_Driver/Src/stm32h7xx_hal_dma_ex.c ****         /* Calculate the interrupt clear flag register (IFCR) base address  */
 157:../../Drivers/STM32H7xx_HAL_Driver/Src/stm32h7xx_hal_dma_ex.c ****         ifcRegister_Base = (uint32_t *)((uint32_t)(hdma->StreamBaseAddress + 8U));
 158:../../Drivers/STM32H7xx_HAL_Driver/Src/stm32h7xx_hal_dma_ex.c **** 
 159:../../Drivers/STM32H7xx_HAL_Driver/Src/stm32h7xx_hal_dma_ex.c ****         /* Clear all flags */
 160:../../Drivers/STM32H7xx_HAL_Driver/Src/stm32h7xx_hal_dma_ex.c ****         *ifcRegister_Base = 0x3FUL << (hdma->StreamIndex & 0x1FU);
 161:../../Drivers/STM32H7xx_HAL_Driver/Src/stm32h7xx_hal_dma_ex.c ****       }
 162:../../Drivers/STM32H7xx_HAL_Driver/Src/stm32h7xx_hal_dma_ex.c ****       else /* BDMA instance(s) */
 163:../../Drivers/STM32H7xx_HAL_Driver/Src/stm32h7xx_hal_dma_ex.c ****       {
 164:../../Drivers/STM32H7xx_HAL_Driver/Src/stm32h7xx_hal_dma_ex.c ****         /* Enable the Double buffer mode */
 165:../../Drivers/STM32H7xx_HAL_Driver/Src/stm32h7xx_hal_dma_ex.c ****         ((BDMA_Channel_TypeDef   *)hdma->Instance)->CCR |= (BDMA_CCR_DBM | BDMA_CCR_CIRC);
 166:../../Drivers/STM32H7xx_HAL_Driver/Src/stm32h7xx_hal_dma_ex.c **** 
 167:../../Drivers/STM32H7xx_HAL_Driver/Src/stm32h7xx_hal_dma_ex.c ****         /* Configure DMA Stream destination address */
 168:../../Drivers/STM32H7xx_HAL_Driver/Src/stm32h7xx_hal_dma_ex.c ****         ((BDMA_Channel_TypeDef   *)hdma->Instance)->CM1AR = SecondMemAddress;
 169:../../Drivers/STM32H7xx_HAL_Driver/Src/stm32h7xx_hal_dma_ex.c **** 
 170:../../Drivers/STM32H7xx_HAL_Driver/Src/stm32h7xx_hal_dma_ex.c ****         /* Calculate the interrupt clear flag register (IFCR) base address  */
 171:../../Drivers/STM32H7xx_HAL_Driver/Src/stm32h7xx_hal_dma_ex.c ****         ifcRegister_Base = (uint32_t *)((uint32_t)(hdma->StreamBaseAddress + 4U));
 172:../../Drivers/STM32H7xx_HAL_Driver/Src/stm32h7xx_hal_dma_ex.c **** 
 173:../../Drivers/STM32H7xx_HAL_Driver/Src/stm32h7xx_hal_dma_ex.c ****         /* Clear all flags */
 174:../../Drivers/STM32H7xx_HAL_Driver/Src/stm32h7xx_hal_dma_ex.c ****         *ifcRegister_Base = (BDMA_ISR_GIF0) << (hdma->StreamIndex & 0x1FU);
 175:../../Drivers/STM32H7xx_HAL_Driver/Src/stm32h7xx_hal_dma_ex.c ****       }
 176:../../Drivers/STM32H7xx_HAL_Driver/Src/stm32h7xx_hal_dma_ex.c **** 
 177:../../Drivers/STM32H7xx_HAL_Driver/Src/stm32h7xx_hal_dma_ex.c ****       if(IS_DMA_DMAMUX_ALL_INSTANCE(hdma->Instance) != 0U) /* No DMAMUX available for BDMA1 */
 178:../../Drivers/STM32H7xx_HAL_Driver/Src/stm32h7xx_hal_dma_ex.c ****       {
 179:../../Drivers/STM32H7xx_HAL_Driver/Src/stm32h7xx_hal_dma_ex.c ****         /* Configure the source, destination address and the data length */
 180:../../Drivers/STM32H7xx_HAL_Driver/Src/stm32h7xx_hal_dma_ex.c ****         DMA_MultiBufferSetConfig(hdma, SrcAddress, DstAddress, DataLength);
 181:../../Drivers/STM32H7xx_HAL_Driver/Src/stm32h7xx_hal_dma_ex.c **** 
 182:../../Drivers/STM32H7xx_HAL_Driver/Src/stm32h7xx_hal_dma_ex.c ****         /* Clear the DMAMUX synchro overrun flag */
 183:../../Drivers/STM32H7xx_HAL_Driver/Src/stm32h7xx_hal_dma_ex.c ****         hdma->DMAmuxChannelStatus->CFR = hdma->DMAmuxChannelStatusMask;
 184:../../Drivers/STM32H7xx_HAL_Driver/Src/stm32h7xx_hal_dma_ex.c **** 
 185:../../Drivers/STM32H7xx_HAL_Driver/Src/stm32h7xx_hal_dma_ex.c ****         if(hdma->DMAmuxRequestGen != 0U)
 186:../../Drivers/STM32H7xx_HAL_Driver/Src/stm32h7xx_hal_dma_ex.c ****         {
 187:../../Drivers/STM32H7xx_HAL_Driver/Src/stm32h7xx_hal_dma_ex.c ****           /* Clear the DMAMUX request generator overrun flag */
 188:../../Drivers/STM32H7xx_HAL_Driver/Src/stm32h7xx_hal_dma_ex.c ****           hdma->DMAmuxRequestGenStatus->RGCFR = hdma->DMAmuxRequestGenStatusMask;
 189:../../Drivers/STM32H7xx_HAL_Driver/Src/stm32h7xx_hal_dma_ex.c ****         }
 190:../../Drivers/STM32H7xx_HAL_Driver/Src/stm32h7xx_hal_dma_ex.c ****       }
 191:../../Drivers/STM32H7xx_HAL_Driver/Src/stm32h7xx_hal_dma_ex.c **** 
 192:../../Drivers/STM32H7xx_HAL_Driver/Src/stm32h7xx_hal_dma_ex.c ****       /* Enable the peripheral */
 193:../../Drivers/STM32H7xx_HAL_Driver/Src/stm32h7xx_hal_dma_ex.c ****       __HAL_DMA_ENABLE(hdma);
 194:../../Drivers/STM32H7xx_HAL_Driver/Src/stm32h7xx_hal_dma_ex.c ****     }
 195:../../Drivers/STM32H7xx_HAL_Driver/Src/stm32h7xx_hal_dma_ex.c ****     else
 196:../../Drivers/STM32H7xx_HAL_Driver/Src/stm32h7xx_hal_dma_ex.c ****     {
 197:../../Drivers/STM32H7xx_HAL_Driver/Src/stm32h7xx_hal_dma_ex.c ****       /* Set the error code to busy */
 198:../../Drivers/STM32H7xx_HAL_Driver/Src/stm32h7xx_hal_dma_ex.c ****       hdma->ErrorCode = HAL_DMA_ERROR_BUSY;
 199:../../Drivers/STM32H7xx_HAL_Driver/Src/stm32h7xx_hal_dma_ex.c **** 
 200:../../Drivers/STM32H7xx_HAL_Driver/Src/stm32h7xx_hal_dma_ex.c ****       /* Return error status */
 201:../../Drivers/STM32H7xx_HAL_Driver/Src/stm32h7xx_hal_dma_ex.c ****       status = HAL_ERROR;
ARM GAS  /tmp/ccvjaD57.s 			page 5


 202:../../Drivers/STM32H7xx_HAL_Driver/Src/stm32h7xx_hal_dma_ex.c ****     }
 203:../../Drivers/STM32H7xx_HAL_Driver/Src/stm32h7xx_hal_dma_ex.c ****   }
 204:../../Drivers/STM32H7xx_HAL_Driver/Src/stm32h7xx_hal_dma_ex.c ****   return status;
 205:../../Drivers/STM32H7xx_HAL_Driver/Src/stm32h7xx_hal_dma_ex.c **** }
 206:../../Drivers/STM32H7xx_HAL_Driver/Src/stm32h7xx_hal_dma_ex.c **** 
 207:../../Drivers/STM32H7xx_HAL_Driver/Src/stm32h7xx_hal_dma_ex.c **** /**
 208:../../Drivers/STM32H7xx_HAL_Driver/Src/stm32h7xx_hal_dma_ex.c ****   * @brief  Starts the multi_buffer DMA Transfer with interrupt enabled.
 209:../../Drivers/STM32H7xx_HAL_Driver/Src/stm32h7xx_hal_dma_ex.c ****   * @param  hdma:       pointer to a DMA_HandleTypeDef structure that contains
 210:../../Drivers/STM32H7xx_HAL_Driver/Src/stm32h7xx_hal_dma_ex.c ****   *                     the configuration information for the specified DMA Stream.
 211:../../Drivers/STM32H7xx_HAL_Driver/Src/stm32h7xx_hal_dma_ex.c ****   * @param  SrcAddress: The source memory Buffer address
 212:../../Drivers/STM32H7xx_HAL_Driver/Src/stm32h7xx_hal_dma_ex.c ****   * @param  DstAddress: The destination memory Buffer address
 213:../../Drivers/STM32H7xx_HAL_Driver/Src/stm32h7xx_hal_dma_ex.c ****   * @param  SecondMemAddress: The second memory Buffer address in case of multi buffer Transfer
 214:../../Drivers/STM32H7xx_HAL_Driver/Src/stm32h7xx_hal_dma_ex.c ****   * @param  DataLength: The length of data to be transferred from source to destination
 215:../../Drivers/STM32H7xx_HAL_Driver/Src/stm32h7xx_hal_dma_ex.c ****   * @retval HAL status
 216:../../Drivers/STM32H7xx_HAL_Driver/Src/stm32h7xx_hal_dma_ex.c ****   */
 217:../../Drivers/STM32H7xx_HAL_Driver/Src/stm32h7xx_hal_dma_ex.c **** HAL_StatusTypeDef HAL_DMAEx_MultiBufferStart_IT(DMA_HandleTypeDef *hdma, uint32_t SrcAddress, uint3
 218:../../Drivers/STM32H7xx_HAL_Driver/Src/stm32h7xx_hal_dma_ex.c **** {
 219:../../Drivers/STM32H7xx_HAL_Driver/Src/stm32h7xx_hal_dma_ex.c ****   HAL_StatusTypeDef status = HAL_OK;
 220:../../Drivers/STM32H7xx_HAL_Driver/Src/stm32h7xx_hal_dma_ex.c ****   __IO uint32_t *ifcRegister_Base; /* DMA Stream Interrupt Clear register */
 221:../../Drivers/STM32H7xx_HAL_Driver/Src/stm32h7xx_hal_dma_ex.c **** 
 222:../../Drivers/STM32H7xx_HAL_Driver/Src/stm32h7xx_hal_dma_ex.c ****   /* Check the parameters */
 223:../../Drivers/STM32H7xx_HAL_Driver/Src/stm32h7xx_hal_dma_ex.c ****   assert_param(IS_DMA_BUFFER_SIZE(DataLength));
 224:../../Drivers/STM32H7xx_HAL_Driver/Src/stm32h7xx_hal_dma_ex.c ****   assert_param(IS_DMA_ALL_INSTANCE(hdma->Instance));
 225:../../Drivers/STM32H7xx_HAL_Driver/Src/stm32h7xx_hal_dma_ex.c **** 
 226:../../Drivers/STM32H7xx_HAL_Driver/Src/stm32h7xx_hal_dma_ex.c ****   /* Memory-to-memory transfer not supported in double buffering mode */
 227:../../Drivers/STM32H7xx_HAL_Driver/Src/stm32h7xx_hal_dma_ex.c ****   if(hdma->Init.Direction == DMA_MEMORY_TO_MEMORY)
 228:../../Drivers/STM32H7xx_HAL_Driver/Src/stm32h7xx_hal_dma_ex.c ****   {
 229:../../Drivers/STM32H7xx_HAL_Driver/Src/stm32h7xx_hal_dma_ex.c ****     hdma->ErrorCode = HAL_DMA_ERROR_NOT_SUPPORTED;
 230:../../Drivers/STM32H7xx_HAL_Driver/Src/stm32h7xx_hal_dma_ex.c ****     return HAL_ERROR;
 231:../../Drivers/STM32H7xx_HAL_Driver/Src/stm32h7xx_hal_dma_ex.c ****   }
 232:../../Drivers/STM32H7xx_HAL_Driver/Src/stm32h7xx_hal_dma_ex.c **** 
 233:../../Drivers/STM32H7xx_HAL_Driver/Src/stm32h7xx_hal_dma_ex.c ****   /* Process locked */
 234:../../Drivers/STM32H7xx_HAL_Driver/Src/stm32h7xx_hal_dma_ex.c ****   __HAL_LOCK(hdma);
 235:../../Drivers/STM32H7xx_HAL_Driver/Src/stm32h7xx_hal_dma_ex.c **** 
 236:../../Drivers/STM32H7xx_HAL_Driver/Src/stm32h7xx_hal_dma_ex.c ****   if(HAL_DMA_STATE_READY == hdma->State)
 237:../../Drivers/STM32H7xx_HAL_Driver/Src/stm32h7xx_hal_dma_ex.c ****   {
 238:../../Drivers/STM32H7xx_HAL_Driver/Src/stm32h7xx_hal_dma_ex.c ****     /* Change DMA peripheral state */
 239:../../Drivers/STM32H7xx_HAL_Driver/Src/stm32h7xx_hal_dma_ex.c ****     hdma->State = HAL_DMA_STATE_BUSY;
 240:../../Drivers/STM32H7xx_HAL_Driver/Src/stm32h7xx_hal_dma_ex.c **** 
 241:../../Drivers/STM32H7xx_HAL_Driver/Src/stm32h7xx_hal_dma_ex.c ****     /* Initialize the error code */
 242:../../Drivers/STM32H7xx_HAL_Driver/Src/stm32h7xx_hal_dma_ex.c ****     hdma->ErrorCode = HAL_DMA_ERROR_NONE;
 243:../../Drivers/STM32H7xx_HAL_Driver/Src/stm32h7xx_hal_dma_ex.c **** 
 244:../../Drivers/STM32H7xx_HAL_Driver/Src/stm32h7xx_hal_dma_ex.c ****     if(IS_DMA_STREAM_INSTANCE(hdma->Instance) != 0U) /* DMA1 or DMA2 instance */
 245:../../Drivers/STM32H7xx_HAL_Driver/Src/stm32h7xx_hal_dma_ex.c ****     {
 246:../../Drivers/STM32H7xx_HAL_Driver/Src/stm32h7xx_hal_dma_ex.c ****       /* Enable the Double buffer mode */
 247:../../Drivers/STM32H7xx_HAL_Driver/Src/stm32h7xx_hal_dma_ex.c ****       ((DMA_Stream_TypeDef   *)hdma->Instance)->CR |= DMA_SxCR_DBM;
 248:../../Drivers/STM32H7xx_HAL_Driver/Src/stm32h7xx_hal_dma_ex.c **** 
 249:../../Drivers/STM32H7xx_HAL_Driver/Src/stm32h7xx_hal_dma_ex.c ****       /* Configure DMA Stream destination address */
 250:../../Drivers/STM32H7xx_HAL_Driver/Src/stm32h7xx_hal_dma_ex.c ****       ((DMA_Stream_TypeDef   *)hdma->Instance)->M1AR = SecondMemAddress;
 251:../../Drivers/STM32H7xx_HAL_Driver/Src/stm32h7xx_hal_dma_ex.c **** 
 252:../../Drivers/STM32H7xx_HAL_Driver/Src/stm32h7xx_hal_dma_ex.c ****       /* Calculate the interrupt clear flag register (IFCR) base address  */
 253:../../Drivers/STM32H7xx_HAL_Driver/Src/stm32h7xx_hal_dma_ex.c ****       ifcRegister_Base = (uint32_t *)((uint32_t)(hdma->StreamBaseAddress + 8U));
 254:../../Drivers/STM32H7xx_HAL_Driver/Src/stm32h7xx_hal_dma_ex.c **** 
 255:../../Drivers/STM32H7xx_HAL_Driver/Src/stm32h7xx_hal_dma_ex.c ****       /* Clear all flags */
 256:../../Drivers/STM32H7xx_HAL_Driver/Src/stm32h7xx_hal_dma_ex.c ****       *ifcRegister_Base = 0x3FUL << (hdma->StreamIndex & 0x1FU);
 257:../../Drivers/STM32H7xx_HAL_Driver/Src/stm32h7xx_hal_dma_ex.c ****     }
 258:../../Drivers/STM32H7xx_HAL_Driver/Src/stm32h7xx_hal_dma_ex.c ****     else /* BDMA instance(s) */
ARM GAS  /tmp/ccvjaD57.s 			page 6


 259:../../Drivers/STM32H7xx_HAL_Driver/Src/stm32h7xx_hal_dma_ex.c ****     {
 260:../../Drivers/STM32H7xx_HAL_Driver/Src/stm32h7xx_hal_dma_ex.c ****       /* Enable the Double buffer mode */
 261:../../Drivers/STM32H7xx_HAL_Driver/Src/stm32h7xx_hal_dma_ex.c ****       ((BDMA_Channel_TypeDef   *)hdma->Instance)->CCR |= (BDMA_CCR_DBM | BDMA_CCR_CIRC);
 262:../../Drivers/STM32H7xx_HAL_Driver/Src/stm32h7xx_hal_dma_ex.c **** 
 263:../../Drivers/STM32H7xx_HAL_Driver/Src/stm32h7xx_hal_dma_ex.c ****       /* Configure DMA Stream destination address */
 264:../../Drivers/STM32H7xx_HAL_Driver/Src/stm32h7xx_hal_dma_ex.c ****       ((BDMA_Channel_TypeDef   *)hdma->Instance)->CM1AR = SecondMemAddress;
 265:../../Drivers/STM32H7xx_HAL_Driver/Src/stm32h7xx_hal_dma_ex.c **** 
 266:../../Drivers/STM32H7xx_HAL_Driver/Src/stm32h7xx_hal_dma_ex.c ****       /* Calculate the interrupt clear flag register (IFCR) base address  */
 267:../../Drivers/STM32H7xx_HAL_Driver/Src/stm32h7xx_hal_dma_ex.c ****       ifcRegister_Base = (uint32_t *)((uint32_t)(hdma->StreamBaseAddress + 4U));
 268:../../Drivers/STM32H7xx_HAL_Driver/Src/stm32h7xx_hal_dma_ex.c **** 
 269:../../Drivers/STM32H7xx_HAL_Driver/Src/stm32h7xx_hal_dma_ex.c ****       /* Clear all flags */
 270:../../Drivers/STM32H7xx_HAL_Driver/Src/stm32h7xx_hal_dma_ex.c ****       *ifcRegister_Base = (BDMA_ISR_GIF0) << (hdma->StreamIndex & 0x1FU);
 271:../../Drivers/STM32H7xx_HAL_Driver/Src/stm32h7xx_hal_dma_ex.c ****     }
 272:../../Drivers/STM32H7xx_HAL_Driver/Src/stm32h7xx_hal_dma_ex.c **** 
 273:../../Drivers/STM32H7xx_HAL_Driver/Src/stm32h7xx_hal_dma_ex.c ****     /* Configure the source, destination address and the data length */
 274:../../Drivers/STM32H7xx_HAL_Driver/Src/stm32h7xx_hal_dma_ex.c ****     DMA_MultiBufferSetConfig(hdma, SrcAddress, DstAddress, DataLength);
 275:../../Drivers/STM32H7xx_HAL_Driver/Src/stm32h7xx_hal_dma_ex.c **** 
 276:../../Drivers/STM32H7xx_HAL_Driver/Src/stm32h7xx_hal_dma_ex.c ****     if(IS_DMA_DMAMUX_ALL_INSTANCE(hdma->Instance) != 0U) /* No DMAMUX available for BDMA1 */
 277:../../Drivers/STM32H7xx_HAL_Driver/Src/stm32h7xx_hal_dma_ex.c ****     {
 278:../../Drivers/STM32H7xx_HAL_Driver/Src/stm32h7xx_hal_dma_ex.c ****       /* Clear the DMAMUX synchro overrun flag */
 279:../../Drivers/STM32H7xx_HAL_Driver/Src/stm32h7xx_hal_dma_ex.c ****       hdma->DMAmuxChannelStatus->CFR = hdma->DMAmuxChannelStatusMask;
 280:../../Drivers/STM32H7xx_HAL_Driver/Src/stm32h7xx_hal_dma_ex.c **** 
 281:../../Drivers/STM32H7xx_HAL_Driver/Src/stm32h7xx_hal_dma_ex.c ****       if(hdma->DMAmuxRequestGen != 0U)
 282:../../Drivers/STM32H7xx_HAL_Driver/Src/stm32h7xx_hal_dma_ex.c ****       {
 283:../../Drivers/STM32H7xx_HAL_Driver/Src/stm32h7xx_hal_dma_ex.c ****         /* Clear the DMAMUX request generator overrun flag */
 284:../../Drivers/STM32H7xx_HAL_Driver/Src/stm32h7xx_hal_dma_ex.c ****         hdma->DMAmuxRequestGenStatus->RGCFR = hdma->DMAmuxRequestGenStatusMask;
 285:../../Drivers/STM32H7xx_HAL_Driver/Src/stm32h7xx_hal_dma_ex.c ****       }
 286:../../Drivers/STM32H7xx_HAL_Driver/Src/stm32h7xx_hal_dma_ex.c ****     }
 287:../../Drivers/STM32H7xx_HAL_Driver/Src/stm32h7xx_hal_dma_ex.c **** 
 288:../../Drivers/STM32H7xx_HAL_Driver/Src/stm32h7xx_hal_dma_ex.c ****     if(IS_DMA_STREAM_INSTANCE(hdma->Instance) != 0U) /* DMA1 or DMA2 instance */
 289:../../Drivers/STM32H7xx_HAL_Driver/Src/stm32h7xx_hal_dma_ex.c ****     {
 290:../../Drivers/STM32H7xx_HAL_Driver/Src/stm32h7xx_hal_dma_ex.c ****       /* Enable Common interrupts*/
 291:../../Drivers/STM32H7xx_HAL_Driver/Src/stm32h7xx_hal_dma_ex.c ****       MODIFY_REG(((DMA_Stream_TypeDef   *)hdma->Instance)->CR, (DMA_IT_TC | DMA_IT_TE | DMA_IT_DME 
 292:../../Drivers/STM32H7xx_HAL_Driver/Src/stm32h7xx_hal_dma_ex.c ****       ((DMA_Stream_TypeDef   *)hdma->Instance)->FCR |= DMA_IT_FE;
 293:../../Drivers/STM32H7xx_HAL_Driver/Src/stm32h7xx_hal_dma_ex.c **** 
 294:../../Drivers/STM32H7xx_HAL_Driver/Src/stm32h7xx_hal_dma_ex.c ****       if((hdma->XferHalfCpltCallback != NULL) || (hdma->XferM1HalfCpltCallback != NULL))
 295:../../Drivers/STM32H7xx_HAL_Driver/Src/stm32h7xx_hal_dma_ex.c ****       {
 296:../../Drivers/STM32H7xx_HAL_Driver/Src/stm32h7xx_hal_dma_ex.c ****         /*Enable Half Transfer IT if corresponding Callback is set*/
 297:../../Drivers/STM32H7xx_HAL_Driver/Src/stm32h7xx_hal_dma_ex.c ****         ((DMA_Stream_TypeDef   *)hdma->Instance)->CR  |= DMA_IT_HT;
 298:../../Drivers/STM32H7xx_HAL_Driver/Src/stm32h7xx_hal_dma_ex.c ****       }
 299:../../Drivers/STM32H7xx_HAL_Driver/Src/stm32h7xx_hal_dma_ex.c ****     }
 300:../../Drivers/STM32H7xx_HAL_Driver/Src/stm32h7xx_hal_dma_ex.c ****     else /* BDMA instance(s) */
 301:../../Drivers/STM32H7xx_HAL_Driver/Src/stm32h7xx_hal_dma_ex.c ****     {
 302:../../Drivers/STM32H7xx_HAL_Driver/Src/stm32h7xx_hal_dma_ex.c ****       /* Enable Common interrupts*/
 303:../../Drivers/STM32H7xx_HAL_Driver/Src/stm32h7xx_hal_dma_ex.c ****       MODIFY_REG(((BDMA_Channel_TypeDef   *)hdma->Instance)->CCR, (BDMA_CCR_TCIE | BDMA_CCR_HTIE | 
 304:../../Drivers/STM32H7xx_HAL_Driver/Src/stm32h7xx_hal_dma_ex.c **** 
 305:../../Drivers/STM32H7xx_HAL_Driver/Src/stm32h7xx_hal_dma_ex.c ****       if((hdma->XferHalfCpltCallback != NULL) || (hdma->XferM1HalfCpltCallback != NULL))
 306:../../Drivers/STM32H7xx_HAL_Driver/Src/stm32h7xx_hal_dma_ex.c ****       {
 307:../../Drivers/STM32H7xx_HAL_Driver/Src/stm32h7xx_hal_dma_ex.c ****         /*Enable Half Transfer IT if corresponding Callback is set*/
 308:../../Drivers/STM32H7xx_HAL_Driver/Src/stm32h7xx_hal_dma_ex.c ****         ((BDMA_Channel_TypeDef   *)hdma->Instance)->CCR  |= BDMA_CCR_HTIE;
 309:../../Drivers/STM32H7xx_HAL_Driver/Src/stm32h7xx_hal_dma_ex.c ****       }
 310:../../Drivers/STM32H7xx_HAL_Driver/Src/stm32h7xx_hal_dma_ex.c ****     }
 311:../../Drivers/STM32H7xx_HAL_Driver/Src/stm32h7xx_hal_dma_ex.c **** 
 312:../../Drivers/STM32H7xx_HAL_Driver/Src/stm32h7xx_hal_dma_ex.c ****     if(IS_DMA_DMAMUX_ALL_INSTANCE(hdma->Instance) != 0U) /* No DMAMUX available for BDMA1 */
 313:../../Drivers/STM32H7xx_HAL_Driver/Src/stm32h7xx_hal_dma_ex.c ****     {
 314:../../Drivers/STM32H7xx_HAL_Driver/Src/stm32h7xx_hal_dma_ex.c ****       /* Check if DMAMUX Synchronization is enabled*/
 315:../../Drivers/STM32H7xx_HAL_Driver/Src/stm32h7xx_hal_dma_ex.c ****       if((hdma->DMAmuxChannel->CCR & DMAMUX_CxCR_SE) != 0U)
ARM GAS  /tmp/ccvjaD57.s 			page 7


 316:../../Drivers/STM32H7xx_HAL_Driver/Src/stm32h7xx_hal_dma_ex.c ****       {
 317:../../Drivers/STM32H7xx_HAL_Driver/Src/stm32h7xx_hal_dma_ex.c ****         /* Enable DMAMUX sync overrun IT*/
 318:../../Drivers/STM32H7xx_HAL_Driver/Src/stm32h7xx_hal_dma_ex.c ****         hdma->DMAmuxChannel->CCR |= DMAMUX_CxCR_SOIE;
 319:../../Drivers/STM32H7xx_HAL_Driver/Src/stm32h7xx_hal_dma_ex.c ****       }
 320:../../Drivers/STM32H7xx_HAL_Driver/Src/stm32h7xx_hal_dma_ex.c **** 
 321:../../Drivers/STM32H7xx_HAL_Driver/Src/stm32h7xx_hal_dma_ex.c ****       if(hdma->DMAmuxRequestGen != 0U)
 322:../../Drivers/STM32H7xx_HAL_Driver/Src/stm32h7xx_hal_dma_ex.c ****       {
 323:../../Drivers/STM32H7xx_HAL_Driver/Src/stm32h7xx_hal_dma_ex.c ****         /* if using DMAMUX request generator, enable the DMAMUX request generator overrun IT*/
 324:../../Drivers/STM32H7xx_HAL_Driver/Src/stm32h7xx_hal_dma_ex.c ****         /* enable the request gen overrun IT*/
 325:../../Drivers/STM32H7xx_HAL_Driver/Src/stm32h7xx_hal_dma_ex.c ****         hdma->DMAmuxRequestGen->RGCR |= DMAMUX_RGxCR_OIE;
 326:../../Drivers/STM32H7xx_HAL_Driver/Src/stm32h7xx_hal_dma_ex.c ****       }
 327:../../Drivers/STM32H7xx_HAL_Driver/Src/stm32h7xx_hal_dma_ex.c ****     }
 328:../../Drivers/STM32H7xx_HAL_Driver/Src/stm32h7xx_hal_dma_ex.c **** 
 329:../../Drivers/STM32H7xx_HAL_Driver/Src/stm32h7xx_hal_dma_ex.c ****     /* Enable the peripheral */
 330:../../Drivers/STM32H7xx_HAL_Driver/Src/stm32h7xx_hal_dma_ex.c ****     __HAL_DMA_ENABLE(hdma);
 331:../../Drivers/STM32H7xx_HAL_Driver/Src/stm32h7xx_hal_dma_ex.c ****   }
 332:../../Drivers/STM32H7xx_HAL_Driver/Src/stm32h7xx_hal_dma_ex.c ****   else
 333:../../Drivers/STM32H7xx_HAL_Driver/Src/stm32h7xx_hal_dma_ex.c ****   {
 334:../../Drivers/STM32H7xx_HAL_Driver/Src/stm32h7xx_hal_dma_ex.c ****     /* Set the error code to busy */
 335:../../Drivers/STM32H7xx_HAL_Driver/Src/stm32h7xx_hal_dma_ex.c ****     hdma->ErrorCode = HAL_DMA_ERROR_BUSY;
 336:../../Drivers/STM32H7xx_HAL_Driver/Src/stm32h7xx_hal_dma_ex.c **** 
 337:../../Drivers/STM32H7xx_HAL_Driver/Src/stm32h7xx_hal_dma_ex.c ****     /* Return error status */
 338:../../Drivers/STM32H7xx_HAL_Driver/Src/stm32h7xx_hal_dma_ex.c ****     status = HAL_ERROR;
 339:../../Drivers/STM32H7xx_HAL_Driver/Src/stm32h7xx_hal_dma_ex.c ****   }
 340:../../Drivers/STM32H7xx_HAL_Driver/Src/stm32h7xx_hal_dma_ex.c ****   return status;
 341:../../Drivers/STM32H7xx_HAL_Driver/Src/stm32h7xx_hal_dma_ex.c **** }
 342:../../Drivers/STM32H7xx_HAL_Driver/Src/stm32h7xx_hal_dma_ex.c **** 
 343:../../Drivers/STM32H7xx_HAL_Driver/Src/stm32h7xx_hal_dma_ex.c **** /**
 344:../../Drivers/STM32H7xx_HAL_Driver/Src/stm32h7xx_hal_dma_ex.c ****   * @brief  Change the memory0 or memory1 address on the fly.
 345:../../Drivers/STM32H7xx_HAL_Driver/Src/stm32h7xx_hal_dma_ex.c ****   * @param  hdma:       pointer to a DMA_HandleTypeDef structure that contains
 346:../../Drivers/STM32H7xx_HAL_Driver/Src/stm32h7xx_hal_dma_ex.c ****   *                     the configuration information for the specified DMA Stream.
 347:../../Drivers/STM32H7xx_HAL_Driver/Src/stm32h7xx_hal_dma_ex.c ****   * @param  Address:    The new address
 348:../../Drivers/STM32H7xx_HAL_Driver/Src/stm32h7xx_hal_dma_ex.c ****   * @param  memory:     the memory to be changed, This parameter can be one of
 349:../../Drivers/STM32H7xx_HAL_Driver/Src/stm32h7xx_hal_dma_ex.c ****   *                     the following values:
 350:../../Drivers/STM32H7xx_HAL_Driver/Src/stm32h7xx_hal_dma_ex.c ****   *                      MEMORY0 /
 351:../../Drivers/STM32H7xx_HAL_Driver/Src/stm32h7xx_hal_dma_ex.c ****   *                      MEMORY1
 352:../../Drivers/STM32H7xx_HAL_Driver/Src/stm32h7xx_hal_dma_ex.c ****   * @note   The MEMORY0 address can be changed only when the current transfer use
 353:../../Drivers/STM32H7xx_HAL_Driver/Src/stm32h7xx_hal_dma_ex.c ****   *         MEMORY1 and the MEMORY1 address can be changed only when the current
 354:../../Drivers/STM32H7xx_HAL_Driver/Src/stm32h7xx_hal_dma_ex.c ****   *         transfer use MEMORY0.
 355:../../Drivers/STM32H7xx_HAL_Driver/Src/stm32h7xx_hal_dma_ex.c ****   * @retval HAL status
 356:../../Drivers/STM32H7xx_HAL_Driver/Src/stm32h7xx_hal_dma_ex.c ****   */
 357:../../Drivers/STM32H7xx_HAL_Driver/Src/stm32h7xx_hal_dma_ex.c **** HAL_StatusTypeDef HAL_DMAEx_ChangeMemory(DMA_HandleTypeDef *hdma, uint32_t Address, HAL_DMA_MemoryT
 358:../../Drivers/STM32H7xx_HAL_Driver/Src/stm32h7xx_hal_dma_ex.c **** {
 359:../../Drivers/STM32H7xx_HAL_Driver/Src/stm32h7xx_hal_dma_ex.c ****   if(IS_DMA_STREAM_INSTANCE(hdma->Instance) != 0U) /* DMA1 or DMA2 instance */
 360:../../Drivers/STM32H7xx_HAL_Driver/Src/stm32h7xx_hal_dma_ex.c ****   {
 361:../../Drivers/STM32H7xx_HAL_Driver/Src/stm32h7xx_hal_dma_ex.c ****     if(memory == MEMORY0)
 362:../../Drivers/STM32H7xx_HAL_Driver/Src/stm32h7xx_hal_dma_ex.c ****     {
 363:../../Drivers/STM32H7xx_HAL_Driver/Src/stm32h7xx_hal_dma_ex.c ****       /* change the memory0 address */
 364:../../Drivers/STM32H7xx_HAL_Driver/Src/stm32h7xx_hal_dma_ex.c ****       ((DMA_Stream_TypeDef   *)hdma->Instance)->M0AR = Address;
 365:../../Drivers/STM32H7xx_HAL_Driver/Src/stm32h7xx_hal_dma_ex.c ****     }
 366:../../Drivers/STM32H7xx_HAL_Driver/Src/stm32h7xx_hal_dma_ex.c ****     else
 367:../../Drivers/STM32H7xx_HAL_Driver/Src/stm32h7xx_hal_dma_ex.c ****     {
 368:../../Drivers/STM32H7xx_HAL_Driver/Src/stm32h7xx_hal_dma_ex.c ****       /* change the memory1 address */
 369:../../Drivers/STM32H7xx_HAL_Driver/Src/stm32h7xx_hal_dma_ex.c ****       ((DMA_Stream_TypeDef   *)hdma->Instance)->M1AR = Address;
 370:../../Drivers/STM32H7xx_HAL_Driver/Src/stm32h7xx_hal_dma_ex.c ****     }
 371:../../Drivers/STM32H7xx_HAL_Driver/Src/stm32h7xx_hal_dma_ex.c ****   }
 372:../../Drivers/STM32H7xx_HAL_Driver/Src/stm32h7xx_hal_dma_ex.c ****   else /* BDMA instance(s) */
ARM GAS  /tmp/ccvjaD57.s 			page 8


 373:../../Drivers/STM32H7xx_HAL_Driver/Src/stm32h7xx_hal_dma_ex.c ****   {
 374:../../Drivers/STM32H7xx_HAL_Driver/Src/stm32h7xx_hal_dma_ex.c ****     if(memory == MEMORY0)
 375:../../Drivers/STM32H7xx_HAL_Driver/Src/stm32h7xx_hal_dma_ex.c ****     {
 376:../../Drivers/STM32H7xx_HAL_Driver/Src/stm32h7xx_hal_dma_ex.c ****       /* change the memory0 address */
 377:../../Drivers/STM32H7xx_HAL_Driver/Src/stm32h7xx_hal_dma_ex.c ****       ((BDMA_Channel_TypeDef   *)hdma->Instance)->CM0AR = Address;
 378:../../Drivers/STM32H7xx_HAL_Driver/Src/stm32h7xx_hal_dma_ex.c ****     }
 379:../../Drivers/STM32H7xx_HAL_Driver/Src/stm32h7xx_hal_dma_ex.c ****     else
 380:../../Drivers/STM32H7xx_HAL_Driver/Src/stm32h7xx_hal_dma_ex.c ****     {
 381:../../Drivers/STM32H7xx_HAL_Driver/Src/stm32h7xx_hal_dma_ex.c ****       /* change the memory1 address */
 382:../../Drivers/STM32H7xx_HAL_Driver/Src/stm32h7xx_hal_dma_ex.c ****       ((BDMA_Channel_TypeDef   *)hdma->Instance)->CM1AR = Address;
 383:../../Drivers/STM32H7xx_HAL_Driver/Src/stm32h7xx_hal_dma_ex.c ****     }
 384:../../Drivers/STM32H7xx_HAL_Driver/Src/stm32h7xx_hal_dma_ex.c ****   }
 385:../../Drivers/STM32H7xx_HAL_Driver/Src/stm32h7xx_hal_dma_ex.c **** 
 386:../../Drivers/STM32H7xx_HAL_Driver/Src/stm32h7xx_hal_dma_ex.c ****   return HAL_OK;
 387:../../Drivers/STM32H7xx_HAL_Driver/Src/stm32h7xx_hal_dma_ex.c **** }
 388:../../Drivers/STM32H7xx_HAL_Driver/Src/stm32h7xx_hal_dma_ex.c **** 
 389:../../Drivers/STM32H7xx_HAL_Driver/Src/stm32h7xx_hal_dma_ex.c **** /**
 390:../../Drivers/STM32H7xx_HAL_Driver/Src/stm32h7xx_hal_dma_ex.c ****   * @brief  Configure the DMAMUX synchronization parameters for a given DMA stream (instance).
 391:../../Drivers/STM32H7xx_HAL_Driver/Src/stm32h7xx_hal_dma_ex.c ****   * @param  hdma:       pointer to a DMA_HandleTypeDef structure that contains
 392:../../Drivers/STM32H7xx_HAL_Driver/Src/stm32h7xx_hal_dma_ex.c ****   *                     the configuration information for the specified DMA Stream.
 393:../../Drivers/STM32H7xx_HAL_Driver/Src/stm32h7xx_hal_dma_ex.c ****   * @param  pSyncConfig : pointer to HAL_DMA_MuxSyncConfigTypeDef : contains the DMAMUX synchroniza
 394:../../Drivers/STM32H7xx_HAL_Driver/Src/stm32h7xx_hal_dma_ex.c ****   * @retval HAL status
 395:../../Drivers/STM32H7xx_HAL_Driver/Src/stm32h7xx_hal_dma_ex.c ****   */
 396:../../Drivers/STM32H7xx_HAL_Driver/Src/stm32h7xx_hal_dma_ex.c **** HAL_StatusTypeDef HAL_DMAEx_ConfigMuxSync(DMA_HandleTypeDef *hdma, HAL_DMA_MuxSyncConfigTypeDef *pS
 397:../../Drivers/STM32H7xx_HAL_Driver/Src/stm32h7xx_hal_dma_ex.c **** {
 398:../../Drivers/STM32H7xx_HAL_Driver/Src/stm32h7xx_hal_dma_ex.c ****   uint32_t syncSignalID = 0;
 399:../../Drivers/STM32H7xx_HAL_Driver/Src/stm32h7xx_hal_dma_ex.c ****   uint32_t syncPolarity = 0;
 400:../../Drivers/STM32H7xx_HAL_Driver/Src/stm32h7xx_hal_dma_ex.c **** 
 401:../../Drivers/STM32H7xx_HAL_Driver/Src/stm32h7xx_hal_dma_ex.c ****   /* Check the parameters */
 402:../../Drivers/STM32H7xx_HAL_Driver/Src/stm32h7xx_hal_dma_ex.c ****   assert_param(IS_DMA_DMAMUX_ALL_INSTANCE(hdma->Instance));
 403:../../Drivers/STM32H7xx_HAL_Driver/Src/stm32h7xx_hal_dma_ex.c ****   assert_param(IS_DMAMUX_SYNC_STATE(pSyncConfig->SyncEnable));
 404:../../Drivers/STM32H7xx_HAL_Driver/Src/stm32h7xx_hal_dma_ex.c ****   assert_param(IS_DMAMUX_SYNC_EVENT(pSyncConfig->EventEnable));
 405:../../Drivers/STM32H7xx_HAL_Driver/Src/stm32h7xx_hal_dma_ex.c ****   assert_param(IS_DMAMUX_SYNC_REQUEST_NUMBER(pSyncConfig->RequestNumber));
 406:../../Drivers/STM32H7xx_HAL_Driver/Src/stm32h7xx_hal_dma_ex.c **** 
 407:../../Drivers/STM32H7xx_HAL_Driver/Src/stm32h7xx_hal_dma_ex.c ****   if(pSyncConfig->SyncEnable == ENABLE)
 408:../../Drivers/STM32H7xx_HAL_Driver/Src/stm32h7xx_hal_dma_ex.c ****   {
 409:../../Drivers/STM32H7xx_HAL_Driver/Src/stm32h7xx_hal_dma_ex.c ****     assert_param(IS_DMAMUX_SYNC_POLARITY(pSyncConfig->SyncPolarity));
 410:../../Drivers/STM32H7xx_HAL_Driver/Src/stm32h7xx_hal_dma_ex.c **** 
 411:../../Drivers/STM32H7xx_HAL_Driver/Src/stm32h7xx_hal_dma_ex.c ****     if(IS_DMA_STREAM_INSTANCE(hdma->Instance) != 0U) /* DMA1 or DMA2 instance */
 412:../../Drivers/STM32H7xx_HAL_Driver/Src/stm32h7xx_hal_dma_ex.c ****     {
 413:../../Drivers/STM32H7xx_HAL_Driver/Src/stm32h7xx_hal_dma_ex.c ****       assert_param(IS_DMA_DMAMUX_SYNC_SIGNAL_ID(pSyncConfig->SyncSignalID));
 414:../../Drivers/STM32H7xx_HAL_Driver/Src/stm32h7xx_hal_dma_ex.c ****     }
 415:../../Drivers/STM32H7xx_HAL_Driver/Src/stm32h7xx_hal_dma_ex.c ****     else
 416:../../Drivers/STM32H7xx_HAL_Driver/Src/stm32h7xx_hal_dma_ex.c ****     {
 417:../../Drivers/STM32H7xx_HAL_Driver/Src/stm32h7xx_hal_dma_ex.c ****       assert_param(IS_BDMA_DMAMUX_SYNC_SIGNAL_ID(pSyncConfig->SyncSignalID));
 418:../../Drivers/STM32H7xx_HAL_Driver/Src/stm32h7xx_hal_dma_ex.c ****     }
 419:../../Drivers/STM32H7xx_HAL_Driver/Src/stm32h7xx_hal_dma_ex.c ****     syncSignalID = pSyncConfig->SyncSignalID;
 420:../../Drivers/STM32H7xx_HAL_Driver/Src/stm32h7xx_hal_dma_ex.c ****     syncPolarity = pSyncConfig->SyncPolarity;
 421:../../Drivers/STM32H7xx_HAL_Driver/Src/stm32h7xx_hal_dma_ex.c ****   }
 422:../../Drivers/STM32H7xx_HAL_Driver/Src/stm32h7xx_hal_dma_ex.c **** 
 423:../../Drivers/STM32H7xx_HAL_Driver/Src/stm32h7xx_hal_dma_ex.c ****   /*Check if the DMA state is ready */
 424:../../Drivers/STM32H7xx_HAL_Driver/Src/stm32h7xx_hal_dma_ex.c ****   if(hdma->State == HAL_DMA_STATE_READY)
 425:../../Drivers/STM32H7xx_HAL_Driver/Src/stm32h7xx_hal_dma_ex.c ****   {
 426:../../Drivers/STM32H7xx_HAL_Driver/Src/stm32h7xx_hal_dma_ex.c ****     /* Process Locked */
 427:../../Drivers/STM32H7xx_HAL_Driver/Src/stm32h7xx_hal_dma_ex.c ****     __HAL_LOCK(hdma);
 428:../../Drivers/STM32H7xx_HAL_Driver/Src/stm32h7xx_hal_dma_ex.c **** 
 429:../../Drivers/STM32H7xx_HAL_Driver/Src/stm32h7xx_hal_dma_ex.c ****     /* Disable the synchronization and event generation before applying a new config */
ARM GAS  /tmp/ccvjaD57.s 			page 9


 430:../../Drivers/STM32H7xx_HAL_Driver/Src/stm32h7xx_hal_dma_ex.c ****     CLEAR_BIT(hdma->DMAmuxChannel->CCR,(DMAMUX_CxCR_SE | DMAMUX_CxCR_EGE));
 431:../../Drivers/STM32H7xx_HAL_Driver/Src/stm32h7xx_hal_dma_ex.c **** 
 432:../../Drivers/STM32H7xx_HAL_Driver/Src/stm32h7xx_hal_dma_ex.c ****     /* Set the new synchronization parameters (and keep the request ID filled during the Init)*/
 433:../../Drivers/STM32H7xx_HAL_Driver/Src/stm32h7xx_hal_dma_ex.c ****     MODIFY_REG( hdma->DMAmuxChannel->CCR, \
 434:../../Drivers/STM32H7xx_HAL_Driver/Src/stm32h7xx_hal_dma_ex.c ****                (~DMAMUX_CxCR_DMAREQ_ID) , \
 435:../../Drivers/STM32H7xx_HAL_Driver/Src/stm32h7xx_hal_dma_ex.c ****                (syncSignalID << DMAMUX_CxCR_SYNC_ID_Pos)       | \
 436:../../Drivers/STM32H7xx_HAL_Driver/Src/stm32h7xx_hal_dma_ex.c ****                ((pSyncConfig->RequestNumber - 1U) << DMAMUX_CxCR_NBREQ_Pos) | \
 437:../../Drivers/STM32H7xx_HAL_Driver/Src/stm32h7xx_hal_dma_ex.c ****                syncPolarity | ((uint32_t)pSyncConfig->SyncEnable << DMAMUX_CxCR_SE_Pos)    | \
 438:../../Drivers/STM32H7xx_HAL_Driver/Src/stm32h7xx_hal_dma_ex.c ****                ((uint32_t)pSyncConfig->EventEnable << DMAMUX_CxCR_EGE_Pos));
 439:../../Drivers/STM32H7xx_HAL_Driver/Src/stm32h7xx_hal_dma_ex.c **** 
 440:../../Drivers/STM32H7xx_HAL_Driver/Src/stm32h7xx_hal_dma_ex.c ****       /* Process Locked */
 441:../../Drivers/STM32H7xx_HAL_Driver/Src/stm32h7xx_hal_dma_ex.c ****     __HAL_UNLOCK(hdma);
 442:../../Drivers/STM32H7xx_HAL_Driver/Src/stm32h7xx_hal_dma_ex.c **** 
 443:../../Drivers/STM32H7xx_HAL_Driver/Src/stm32h7xx_hal_dma_ex.c ****     return HAL_OK;
 444:../../Drivers/STM32H7xx_HAL_Driver/Src/stm32h7xx_hal_dma_ex.c ****   }
 445:../../Drivers/STM32H7xx_HAL_Driver/Src/stm32h7xx_hal_dma_ex.c ****   else
 446:../../Drivers/STM32H7xx_HAL_Driver/Src/stm32h7xx_hal_dma_ex.c ****   {
 447:../../Drivers/STM32H7xx_HAL_Driver/Src/stm32h7xx_hal_dma_ex.c ****     /* Set the error code to busy */
 448:../../Drivers/STM32H7xx_HAL_Driver/Src/stm32h7xx_hal_dma_ex.c ****     hdma->ErrorCode = HAL_DMA_ERROR_BUSY;
 449:../../Drivers/STM32H7xx_HAL_Driver/Src/stm32h7xx_hal_dma_ex.c **** 
 450:../../Drivers/STM32H7xx_HAL_Driver/Src/stm32h7xx_hal_dma_ex.c ****     /* Return error status */
 451:../../Drivers/STM32H7xx_HAL_Driver/Src/stm32h7xx_hal_dma_ex.c ****     return HAL_ERROR;
 452:../../Drivers/STM32H7xx_HAL_Driver/Src/stm32h7xx_hal_dma_ex.c ****   }
 453:../../Drivers/STM32H7xx_HAL_Driver/Src/stm32h7xx_hal_dma_ex.c **** }
 454:../../Drivers/STM32H7xx_HAL_Driver/Src/stm32h7xx_hal_dma_ex.c **** 
 455:../../Drivers/STM32H7xx_HAL_Driver/Src/stm32h7xx_hal_dma_ex.c **** /**
 456:../../Drivers/STM32H7xx_HAL_Driver/Src/stm32h7xx_hal_dma_ex.c ****   * @brief  Configure the DMAMUX request generator block used by the given DMA stream (instance).
 457:../../Drivers/STM32H7xx_HAL_Driver/Src/stm32h7xx_hal_dma_ex.c ****   * @param  hdma:       pointer to a DMA_HandleTypeDef structure that contains
 458:../../Drivers/STM32H7xx_HAL_Driver/Src/stm32h7xx_hal_dma_ex.c ****   *                     the configuration information for the specified DMA Stream.
 459:../../Drivers/STM32H7xx_HAL_Driver/Src/stm32h7xx_hal_dma_ex.c ****   * @param  pRequestGeneratorConfig : pointer to HAL_DMA_MuxRequestGeneratorConfigTypeDef :
 460:../../Drivers/STM32H7xx_HAL_Driver/Src/stm32h7xx_hal_dma_ex.c ****   *         contains the request generator parameters.
 461:../../Drivers/STM32H7xx_HAL_Driver/Src/stm32h7xx_hal_dma_ex.c ****   *
 462:../../Drivers/STM32H7xx_HAL_Driver/Src/stm32h7xx_hal_dma_ex.c ****   * @retval HAL status
 463:../../Drivers/STM32H7xx_HAL_Driver/Src/stm32h7xx_hal_dma_ex.c ****   */
 464:../../Drivers/STM32H7xx_HAL_Driver/Src/stm32h7xx_hal_dma_ex.c **** HAL_StatusTypeDef HAL_DMAEx_ConfigMuxRequestGenerator (DMA_HandleTypeDef *hdma, HAL_DMA_MuxRequestG
 465:../../Drivers/STM32H7xx_HAL_Driver/Src/stm32h7xx_hal_dma_ex.c **** {
 466:../../Drivers/STM32H7xx_HAL_Driver/Src/stm32h7xx_hal_dma_ex.c ****   HAL_StatusTypeDef status;
 467:../../Drivers/STM32H7xx_HAL_Driver/Src/stm32h7xx_hal_dma_ex.c ****   HAL_DMA_StateTypeDef temp_state = hdma->State;
 468:../../Drivers/STM32H7xx_HAL_Driver/Src/stm32h7xx_hal_dma_ex.c **** 
 469:../../Drivers/STM32H7xx_HAL_Driver/Src/stm32h7xx_hal_dma_ex.c ****   /* Check the parameters */
 470:../../Drivers/STM32H7xx_HAL_Driver/Src/stm32h7xx_hal_dma_ex.c ****   assert_param(IS_DMA_DMAMUX_ALL_INSTANCE(hdma->Instance));
 471:../../Drivers/STM32H7xx_HAL_Driver/Src/stm32h7xx_hal_dma_ex.c **** 
 472:../../Drivers/STM32H7xx_HAL_Driver/Src/stm32h7xx_hal_dma_ex.c ****   if(IS_DMA_STREAM_INSTANCE(hdma->Instance) != 0U) /* DMA1 or DMA2 instance */
 473:../../Drivers/STM32H7xx_HAL_Driver/Src/stm32h7xx_hal_dma_ex.c ****   {
 474:../../Drivers/STM32H7xx_HAL_Driver/Src/stm32h7xx_hal_dma_ex.c ****     assert_param(IS_DMA_DMAMUX_REQUEST_GEN_SIGNAL_ID(pRequestGeneratorConfig->SignalID));
 475:../../Drivers/STM32H7xx_HAL_Driver/Src/stm32h7xx_hal_dma_ex.c ****   }
 476:../../Drivers/STM32H7xx_HAL_Driver/Src/stm32h7xx_hal_dma_ex.c ****   else
 477:../../Drivers/STM32H7xx_HAL_Driver/Src/stm32h7xx_hal_dma_ex.c ****   {
 478:../../Drivers/STM32H7xx_HAL_Driver/Src/stm32h7xx_hal_dma_ex.c ****     assert_param(IS_BDMA_DMAMUX_REQUEST_GEN_SIGNAL_ID(pRequestGeneratorConfig->SignalID));
 479:../../Drivers/STM32H7xx_HAL_Driver/Src/stm32h7xx_hal_dma_ex.c ****   }
 480:../../Drivers/STM32H7xx_HAL_Driver/Src/stm32h7xx_hal_dma_ex.c **** 
 481:../../Drivers/STM32H7xx_HAL_Driver/Src/stm32h7xx_hal_dma_ex.c **** 
 482:../../Drivers/STM32H7xx_HAL_Driver/Src/stm32h7xx_hal_dma_ex.c ****   assert_param(IS_DMAMUX_REQUEST_GEN_POLARITY(pRequestGeneratorConfig->Polarity));
 483:../../Drivers/STM32H7xx_HAL_Driver/Src/stm32h7xx_hal_dma_ex.c ****   assert_param(IS_DMAMUX_REQUEST_GEN_REQUEST_NUMBER(pRequestGeneratorConfig->RequestNumber));
 484:../../Drivers/STM32H7xx_HAL_Driver/Src/stm32h7xx_hal_dma_ex.c **** 
 485:../../Drivers/STM32H7xx_HAL_Driver/Src/stm32h7xx_hal_dma_ex.c ****   /* check if the DMA state is ready
 486:../../Drivers/STM32H7xx_HAL_Driver/Src/stm32h7xx_hal_dma_ex.c ****      and DMA is using a DMAMUX request generator block
ARM GAS  /tmp/ccvjaD57.s 			page 10


 487:../../Drivers/STM32H7xx_HAL_Driver/Src/stm32h7xx_hal_dma_ex.c ****   */
 488:../../Drivers/STM32H7xx_HAL_Driver/Src/stm32h7xx_hal_dma_ex.c ****   if(hdma->DMAmuxRequestGen == 0U)
 489:../../Drivers/STM32H7xx_HAL_Driver/Src/stm32h7xx_hal_dma_ex.c ****   {
 490:../../Drivers/STM32H7xx_HAL_Driver/Src/stm32h7xx_hal_dma_ex.c ****     /* Set the error code to busy */
 491:../../Drivers/STM32H7xx_HAL_Driver/Src/stm32h7xx_hal_dma_ex.c ****     hdma->ErrorCode = HAL_DMA_ERROR_PARAM;
 492:../../Drivers/STM32H7xx_HAL_Driver/Src/stm32h7xx_hal_dma_ex.c **** 
 493:../../Drivers/STM32H7xx_HAL_Driver/Src/stm32h7xx_hal_dma_ex.c ****     /* error status */
 494:../../Drivers/STM32H7xx_HAL_Driver/Src/stm32h7xx_hal_dma_ex.c ****     status = HAL_ERROR;
 495:../../Drivers/STM32H7xx_HAL_Driver/Src/stm32h7xx_hal_dma_ex.c ****   }
 496:../../Drivers/STM32H7xx_HAL_Driver/Src/stm32h7xx_hal_dma_ex.c ****   else if(((hdma->DMAmuxRequestGen->RGCR & DMAMUX_RGxCR_GE) == 0U) && (temp_state == HAL_DMA_STATE_
 497:../../Drivers/STM32H7xx_HAL_Driver/Src/stm32h7xx_hal_dma_ex.c ****   {
 498:../../Drivers/STM32H7xx_HAL_Driver/Src/stm32h7xx_hal_dma_ex.c ****     /* RequestGenerator must be disable prior to the configuration i.e GE bit is 0 */
 499:../../Drivers/STM32H7xx_HAL_Driver/Src/stm32h7xx_hal_dma_ex.c **** 
 500:../../Drivers/STM32H7xx_HAL_Driver/Src/stm32h7xx_hal_dma_ex.c ****     /* Process Locked */
 501:../../Drivers/STM32H7xx_HAL_Driver/Src/stm32h7xx_hal_dma_ex.c ****     __HAL_LOCK(hdma);
 502:../../Drivers/STM32H7xx_HAL_Driver/Src/stm32h7xx_hal_dma_ex.c **** 
 503:../../Drivers/STM32H7xx_HAL_Driver/Src/stm32h7xx_hal_dma_ex.c ****     /* Set the request generator new parameters */
 504:../../Drivers/STM32H7xx_HAL_Driver/Src/stm32h7xx_hal_dma_ex.c ****     hdma->DMAmuxRequestGen->RGCR = pRequestGeneratorConfig->SignalID | \
 505:../../Drivers/STM32H7xx_HAL_Driver/Src/stm32h7xx_hal_dma_ex.c ****                                   ((pRequestGeneratorConfig->RequestNumber - 1U) << DMAMUX_RGxCR_GN
 506:../../Drivers/STM32H7xx_HAL_Driver/Src/stm32h7xx_hal_dma_ex.c ****                                   pRequestGeneratorConfig->Polarity;
 507:../../Drivers/STM32H7xx_HAL_Driver/Src/stm32h7xx_hal_dma_ex.c ****     /* Process Locked */
 508:../../Drivers/STM32H7xx_HAL_Driver/Src/stm32h7xx_hal_dma_ex.c ****     __HAL_UNLOCK(hdma);
 509:../../Drivers/STM32H7xx_HAL_Driver/Src/stm32h7xx_hal_dma_ex.c **** 
 510:../../Drivers/STM32H7xx_HAL_Driver/Src/stm32h7xx_hal_dma_ex.c ****     return HAL_OK;
 511:../../Drivers/STM32H7xx_HAL_Driver/Src/stm32h7xx_hal_dma_ex.c ****   }
 512:../../Drivers/STM32H7xx_HAL_Driver/Src/stm32h7xx_hal_dma_ex.c ****   else
 513:../../Drivers/STM32H7xx_HAL_Driver/Src/stm32h7xx_hal_dma_ex.c ****   {
 514:../../Drivers/STM32H7xx_HAL_Driver/Src/stm32h7xx_hal_dma_ex.c ****     /* Set the error code to busy */
 515:../../Drivers/STM32H7xx_HAL_Driver/Src/stm32h7xx_hal_dma_ex.c ****     hdma->ErrorCode = HAL_DMA_ERROR_BUSY;
 516:../../Drivers/STM32H7xx_HAL_Driver/Src/stm32h7xx_hal_dma_ex.c **** 
 517:../../Drivers/STM32H7xx_HAL_Driver/Src/stm32h7xx_hal_dma_ex.c ****     /* error status */
 518:../../Drivers/STM32H7xx_HAL_Driver/Src/stm32h7xx_hal_dma_ex.c ****     status = HAL_ERROR;
 519:../../Drivers/STM32H7xx_HAL_Driver/Src/stm32h7xx_hal_dma_ex.c ****   }
 520:../../Drivers/STM32H7xx_HAL_Driver/Src/stm32h7xx_hal_dma_ex.c **** 
 521:../../Drivers/STM32H7xx_HAL_Driver/Src/stm32h7xx_hal_dma_ex.c ****   return status;
 522:../../Drivers/STM32H7xx_HAL_Driver/Src/stm32h7xx_hal_dma_ex.c **** }
 523:../../Drivers/STM32H7xx_HAL_Driver/Src/stm32h7xx_hal_dma_ex.c **** 
 524:../../Drivers/STM32H7xx_HAL_Driver/Src/stm32h7xx_hal_dma_ex.c **** /**
 525:../../Drivers/STM32H7xx_HAL_Driver/Src/stm32h7xx_hal_dma_ex.c ****   * @brief  Enable the DMAMUX request generator block used by the given DMA stream (instance).
 526:../../Drivers/STM32H7xx_HAL_Driver/Src/stm32h7xx_hal_dma_ex.c ****   * @param  hdma:       pointer to a DMA_HandleTypeDef structure that contains
 527:../../Drivers/STM32H7xx_HAL_Driver/Src/stm32h7xx_hal_dma_ex.c ****   *                     the configuration information for the specified DMA Stream.
 528:../../Drivers/STM32H7xx_HAL_Driver/Src/stm32h7xx_hal_dma_ex.c ****   * @retval HAL status
 529:../../Drivers/STM32H7xx_HAL_Driver/Src/stm32h7xx_hal_dma_ex.c ****   */
 530:../../Drivers/STM32H7xx_HAL_Driver/Src/stm32h7xx_hal_dma_ex.c **** HAL_StatusTypeDef HAL_DMAEx_EnableMuxRequestGenerator (DMA_HandleTypeDef *hdma)
 531:../../Drivers/STM32H7xx_HAL_Driver/Src/stm32h7xx_hal_dma_ex.c **** {
 532:../../Drivers/STM32H7xx_HAL_Driver/Src/stm32h7xx_hal_dma_ex.c ****   /* Check the parameters */
 533:../../Drivers/STM32H7xx_HAL_Driver/Src/stm32h7xx_hal_dma_ex.c ****   assert_param(IS_DMA_DMAMUX_ALL_INSTANCE(hdma->Instance));
 534:../../Drivers/STM32H7xx_HAL_Driver/Src/stm32h7xx_hal_dma_ex.c **** 
 535:../../Drivers/STM32H7xx_HAL_Driver/Src/stm32h7xx_hal_dma_ex.c ****   /* check if the DMA state is ready
 536:../../Drivers/STM32H7xx_HAL_Driver/Src/stm32h7xx_hal_dma_ex.c ****      and DMA is using a DMAMUX request generator block */
 537:../../Drivers/STM32H7xx_HAL_Driver/Src/stm32h7xx_hal_dma_ex.c ****   if((hdma->State != HAL_DMA_STATE_RESET) && (hdma->DMAmuxRequestGen != 0U))
 538:../../Drivers/STM32H7xx_HAL_Driver/Src/stm32h7xx_hal_dma_ex.c ****   {
 539:../../Drivers/STM32H7xx_HAL_Driver/Src/stm32h7xx_hal_dma_ex.c ****     /* Enable the request generator*/
 540:../../Drivers/STM32H7xx_HAL_Driver/Src/stm32h7xx_hal_dma_ex.c ****     hdma->DMAmuxRequestGen->RGCR |= DMAMUX_RGxCR_GE;
 541:../../Drivers/STM32H7xx_HAL_Driver/Src/stm32h7xx_hal_dma_ex.c **** 
 542:../../Drivers/STM32H7xx_HAL_Driver/Src/stm32h7xx_hal_dma_ex.c ****    return HAL_OK;
 543:../../Drivers/STM32H7xx_HAL_Driver/Src/stm32h7xx_hal_dma_ex.c ****  }
ARM GAS  /tmp/ccvjaD57.s 			page 11


 544:../../Drivers/STM32H7xx_HAL_Driver/Src/stm32h7xx_hal_dma_ex.c ****  else
 545:../../Drivers/STM32H7xx_HAL_Driver/Src/stm32h7xx_hal_dma_ex.c ****  {
 546:../../Drivers/STM32H7xx_HAL_Driver/Src/stm32h7xx_hal_dma_ex.c ****    return HAL_ERROR;
 547:../../Drivers/STM32H7xx_HAL_Driver/Src/stm32h7xx_hal_dma_ex.c ****  }
 548:../../Drivers/STM32H7xx_HAL_Driver/Src/stm32h7xx_hal_dma_ex.c **** }
 549:../../Drivers/STM32H7xx_HAL_Driver/Src/stm32h7xx_hal_dma_ex.c **** 
 550:../../Drivers/STM32H7xx_HAL_Driver/Src/stm32h7xx_hal_dma_ex.c **** /**
 551:../../Drivers/STM32H7xx_HAL_Driver/Src/stm32h7xx_hal_dma_ex.c ****   * @brief  Disable the DMAMUX request generator block used by the given DMA stream (instance).
 552:../../Drivers/STM32H7xx_HAL_Driver/Src/stm32h7xx_hal_dma_ex.c ****   * @param  hdma:       pointer to a DMA_HandleTypeDef structure that contains
 553:../../Drivers/STM32H7xx_HAL_Driver/Src/stm32h7xx_hal_dma_ex.c ****   *                     the configuration information for the specified DMA Stream.
 554:../../Drivers/STM32H7xx_HAL_Driver/Src/stm32h7xx_hal_dma_ex.c ****   * @retval HAL status
 555:../../Drivers/STM32H7xx_HAL_Driver/Src/stm32h7xx_hal_dma_ex.c ****   */
 556:../../Drivers/STM32H7xx_HAL_Driver/Src/stm32h7xx_hal_dma_ex.c **** HAL_StatusTypeDef HAL_DMAEx_DisableMuxRequestGenerator (DMA_HandleTypeDef *hdma)
 557:../../Drivers/STM32H7xx_HAL_Driver/Src/stm32h7xx_hal_dma_ex.c **** {
 558:../../Drivers/STM32H7xx_HAL_Driver/Src/stm32h7xx_hal_dma_ex.c ****   /* Check the parameters */
 559:../../Drivers/STM32H7xx_HAL_Driver/Src/stm32h7xx_hal_dma_ex.c ****   assert_param(IS_DMA_DMAMUX_ALL_INSTANCE(hdma->Instance));
 560:../../Drivers/STM32H7xx_HAL_Driver/Src/stm32h7xx_hal_dma_ex.c **** 
 561:../../Drivers/STM32H7xx_HAL_Driver/Src/stm32h7xx_hal_dma_ex.c ****   /* check if the DMA state is ready
 562:../../Drivers/STM32H7xx_HAL_Driver/Src/stm32h7xx_hal_dma_ex.c ****      and DMA is using a DMAMUX request generator block */
 563:../../Drivers/STM32H7xx_HAL_Driver/Src/stm32h7xx_hal_dma_ex.c ****   if((hdma->State != HAL_DMA_STATE_RESET) && (hdma->DMAmuxRequestGen != 0U))
 564:../../Drivers/STM32H7xx_HAL_Driver/Src/stm32h7xx_hal_dma_ex.c ****   {
 565:../../Drivers/STM32H7xx_HAL_Driver/Src/stm32h7xx_hal_dma_ex.c ****     /* Disable the request generator*/
 566:../../Drivers/STM32H7xx_HAL_Driver/Src/stm32h7xx_hal_dma_ex.c ****     hdma->DMAmuxRequestGen->RGCR &= ~DMAMUX_RGxCR_GE;
 567:../../Drivers/STM32H7xx_HAL_Driver/Src/stm32h7xx_hal_dma_ex.c **** 
 568:../../Drivers/STM32H7xx_HAL_Driver/Src/stm32h7xx_hal_dma_ex.c ****    return HAL_OK;
 569:../../Drivers/STM32H7xx_HAL_Driver/Src/stm32h7xx_hal_dma_ex.c ****  }
 570:../../Drivers/STM32H7xx_HAL_Driver/Src/stm32h7xx_hal_dma_ex.c ****  else
 571:../../Drivers/STM32H7xx_HAL_Driver/Src/stm32h7xx_hal_dma_ex.c ****  {
 572:../../Drivers/STM32H7xx_HAL_Driver/Src/stm32h7xx_hal_dma_ex.c ****    return HAL_ERROR;
 573:../../Drivers/STM32H7xx_HAL_Driver/Src/stm32h7xx_hal_dma_ex.c ****  }
 574:../../Drivers/STM32H7xx_HAL_Driver/Src/stm32h7xx_hal_dma_ex.c **** }
 575:../../Drivers/STM32H7xx_HAL_Driver/Src/stm32h7xx_hal_dma_ex.c **** 
 576:../../Drivers/STM32H7xx_HAL_Driver/Src/stm32h7xx_hal_dma_ex.c **** /**
 577:../../Drivers/STM32H7xx_HAL_Driver/Src/stm32h7xx_hal_dma_ex.c ****   * @brief  Handles DMAMUX interrupt request.
 578:../../Drivers/STM32H7xx_HAL_Driver/Src/stm32h7xx_hal_dma_ex.c ****   * @param  hdma: pointer to a DMA_HandleTypeDef structure that contains
 579:../../Drivers/STM32H7xx_HAL_Driver/Src/stm32h7xx_hal_dma_ex.c ****   *               the configuration information for the specified DMA Stream.
 580:../../Drivers/STM32H7xx_HAL_Driver/Src/stm32h7xx_hal_dma_ex.c ****   * @retval None
 581:../../Drivers/STM32H7xx_HAL_Driver/Src/stm32h7xx_hal_dma_ex.c ****   */
 582:../../Drivers/STM32H7xx_HAL_Driver/Src/stm32h7xx_hal_dma_ex.c **** void HAL_DMAEx_MUX_IRQHandler(DMA_HandleTypeDef *hdma)
 583:../../Drivers/STM32H7xx_HAL_Driver/Src/stm32h7xx_hal_dma_ex.c **** {
 584:../../Drivers/STM32H7xx_HAL_Driver/Src/stm32h7xx_hal_dma_ex.c ****   /* Check for DMAMUX Synchronization overrun */
 585:../../Drivers/STM32H7xx_HAL_Driver/Src/stm32h7xx_hal_dma_ex.c ****   if((hdma->DMAmuxChannelStatus->CSR & hdma->DMAmuxChannelStatusMask) != 0U)
 586:../../Drivers/STM32H7xx_HAL_Driver/Src/stm32h7xx_hal_dma_ex.c ****   {
 587:../../Drivers/STM32H7xx_HAL_Driver/Src/stm32h7xx_hal_dma_ex.c ****     /* Disable the synchro overrun interrupt */
 588:../../Drivers/STM32H7xx_HAL_Driver/Src/stm32h7xx_hal_dma_ex.c ****     hdma->DMAmuxChannel->CCR &= ~DMAMUX_CxCR_SOIE;
 589:../../Drivers/STM32H7xx_HAL_Driver/Src/stm32h7xx_hal_dma_ex.c **** 
 590:../../Drivers/STM32H7xx_HAL_Driver/Src/stm32h7xx_hal_dma_ex.c ****     /* Clear the DMAMUX synchro overrun flag */
 591:../../Drivers/STM32H7xx_HAL_Driver/Src/stm32h7xx_hal_dma_ex.c ****     hdma->DMAmuxChannelStatus->CFR = hdma->DMAmuxChannelStatusMask;
 592:../../Drivers/STM32H7xx_HAL_Driver/Src/stm32h7xx_hal_dma_ex.c **** 
 593:../../Drivers/STM32H7xx_HAL_Driver/Src/stm32h7xx_hal_dma_ex.c ****     /* Update error code */
 594:../../Drivers/STM32H7xx_HAL_Driver/Src/stm32h7xx_hal_dma_ex.c ****     hdma->ErrorCode |= HAL_DMA_ERROR_SYNC;
 595:../../Drivers/STM32H7xx_HAL_Driver/Src/stm32h7xx_hal_dma_ex.c **** 
 596:../../Drivers/STM32H7xx_HAL_Driver/Src/stm32h7xx_hal_dma_ex.c ****     if(hdma->XferErrorCallback != NULL)
 597:../../Drivers/STM32H7xx_HAL_Driver/Src/stm32h7xx_hal_dma_ex.c ****     {
 598:../../Drivers/STM32H7xx_HAL_Driver/Src/stm32h7xx_hal_dma_ex.c ****       /* Transfer error callback */
 599:../../Drivers/STM32H7xx_HAL_Driver/Src/stm32h7xx_hal_dma_ex.c ****       hdma->XferErrorCallback(hdma);
 600:../../Drivers/STM32H7xx_HAL_Driver/Src/stm32h7xx_hal_dma_ex.c ****     }
ARM GAS  /tmp/ccvjaD57.s 			page 12


 601:../../Drivers/STM32H7xx_HAL_Driver/Src/stm32h7xx_hal_dma_ex.c ****   }
 602:../../Drivers/STM32H7xx_HAL_Driver/Src/stm32h7xx_hal_dma_ex.c **** 
 603:../../Drivers/STM32H7xx_HAL_Driver/Src/stm32h7xx_hal_dma_ex.c ****   if(hdma->DMAmuxRequestGen != 0)
 604:../../Drivers/STM32H7xx_HAL_Driver/Src/stm32h7xx_hal_dma_ex.c ****   {
 605:../../Drivers/STM32H7xx_HAL_Driver/Src/stm32h7xx_hal_dma_ex.c ****    /* if using a DMAMUX request generator block Check for DMAMUX request generator overrun */
 606:../../Drivers/STM32H7xx_HAL_Driver/Src/stm32h7xx_hal_dma_ex.c ****     if((hdma->DMAmuxRequestGenStatus->RGSR & hdma->DMAmuxRequestGenStatusMask) != 0U)
 607:../../Drivers/STM32H7xx_HAL_Driver/Src/stm32h7xx_hal_dma_ex.c ****     {
 608:../../Drivers/STM32H7xx_HAL_Driver/Src/stm32h7xx_hal_dma_ex.c ****       /* Disable the request gen overrun interrupt */
 609:../../Drivers/STM32H7xx_HAL_Driver/Src/stm32h7xx_hal_dma_ex.c ****       hdma->DMAmuxRequestGen->RGCR &= ~DMAMUX_RGxCR_OIE;
 610:../../Drivers/STM32H7xx_HAL_Driver/Src/stm32h7xx_hal_dma_ex.c **** 
 611:../../Drivers/STM32H7xx_HAL_Driver/Src/stm32h7xx_hal_dma_ex.c ****       /* Clear the DMAMUX request generator overrun flag */
 612:../../Drivers/STM32H7xx_HAL_Driver/Src/stm32h7xx_hal_dma_ex.c ****       hdma->DMAmuxRequestGenStatus->RGCFR = hdma->DMAmuxRequestGenStatusMask;
 613:../../Drivers/STM32H7xx_HAL_Driver/Src/stm32h7xx_hal_dma_ex.c **** 
 614:../../Drivers/STM32H7xx_HAL_Driver/Src/stm32h7xx_hal_dma_ex.c ****       /* Update error code */
 615:../../Drivers/STM32H7xx_HAL_Driver/Src/stm32h7xx_hal_dma_ex.c ****       hdma->ErrorCode |= HAL_DMA_ERROR_REQGEN;
 616:../../Drivers/STM32H7xx_HAL_Driver/Src/stm32h7xx_hal_dma_ex.c **** 
 617:../../Drivers/STM32H7xx_HAL_Driver/Src/stm32h7xx_hal_dma_ex.c ****       if(hdma->XferErrorCallback != NULL)
 618:../../Drivers/STM32H7xx_HAL_Driver/Src/stm32h7xx_hal_dma_ex.c ****       {
 619:../../Drivers/STM32H7xx_HAL_Driver/Src/stm32h7xx_hal_dma_ex.c ****         /* Transfer error callback */
 620:../../Drivers/STM32H7xx_HAL_Driver/Src/stm32h7xx_hal_dma_ex.c ****         hdma->XferErrorCallback(hdma);
 621:../../Drivers/STM32H7xx_HAL_Driver/Src/stm32h7xx_hal_dma_ex.c ****       }
 622:../../Drivers/STM32H7xx_HAL_Driver/Src/stm32h7xx_hal_dma_ex.c ****     }
 623:../../Drivers/STM32H7xx_HAL_Driver/Src/stm32h7xx_hal_dma_ex.c ****   }
 624:../../Drivers/STM32H7xx_HAL_Driver/Src/stm32h7xx_hal_dma_ex.c **** }
 625:../../Drivers/STM32H7xx_HAL_Driver/Src/stm32h7xx_hal_dma_ex.c **** 
 626:../../Drivers/STM32H7xx_HAL_Driver/Src/stm32h7xx_hal_dma_ex.c **** 
 627:../../Drivers/STM32H7xx_HAL_Driver/Src/stm32h7xx_hal_dma_ex.c **** /**
 628:../../Drivers/STM32H7xx_HAL_Driver/Src/stm32h7xx_hal_dma_ex.c ****   * @}
 629:../../Drivers/STM32H7xx_HAL_Driver/Src/stm32h7xx_hal_dma_ex.c ****   */
 630:../../Drivers/STM32H7xx_HAL_Driver/Src/stm32h7xx_hal_dma_ex.c **** 
 631:../../Drivers/STM32H7xx_HAL_Driver/Src/stm32h7xx_hal_dma_ex.c **** /**
 632:../../Drivers/STM32H7xx_HAL_Driver/Src/stm32h7xx_hal_dma_ex.c ****   * @}
 633:../../Drivers/STM32H7xx_HAL_Driver/Src/stm32h7xx_hal_dma_ex.c ****   */
 634:../../Drivers/STM32H7xx_HAL_Driver/Src/stm32h7xx_hal_dma_ex.c **** 
 635:../../Drivers/STM32H7xx_HAL_Driver/Src/stm32h7xx_hal_dma_ex.c **** /** @addtogroup DMAEx_Private_Functions
 636:../../Drivers/STM32H7xx_HAL_Driver/Src/stm32h7xx_hal_dma_ex.c ****   * @{
 637:../../Drivers/STM32H7xx_HAL_Driver/Src/stm32h7xx_hal_dma_ex.c ****   */
 638:../../Drivers/STM32H7xx_HAL_Driver/Src/stm32h7xx_hal_dma_ex.c **** 
 639:../../Drivers/STM32H7xx_HAL_Driver/Src/stm32h7xx_hal_dma_ex.c **** /**
 640:../../Drivers/STM32H7xx_HAL_Driver/Src/stm32h7xx_hal_dma_ex.c ****   * @brief  Set the DMA Transfer parameter.
 641:../../Drivers/STM32H7xx_HAL_Driver/Src/stm32h7xx_hal_dma_ex.c ****   * @param  hdma:       pointer to a DMA_HandleTypeDef structure that contains
 642:../../Drivers/STM32H7xx_HAL_Driver/Src/stm32h7xx_hal_dma_ex.c ****   *                     the configuration information for the specified DMA Stream.
 643:../../Drivers/STM32H7xx_HAL_Driver/Src/stm32h7xx_hal_dma_ex.c ****   * @param  SrcAddress: The source memory Buffer address
 644:../../Drivers/STM32H7xx_HAL_Driver/Src/stm32h7xx_hal_dma_ex.c ****   * @param  DstAddress: The destination memory Buffer address
 645:../../Drivers/STM32H7xx_HAL_Driver/Src/stm32h7xx_hal_dma_ex.c ****   * @param  DataLength: The length of data to be transferred from source to destination
 646:../../Drivers/STM32H7xx_HAL_Driver/Src/stm32h7xx_hal_dma_ex.c ****   * @retval HAL status
 647:../../Drivers/STM32H7xx_HAL_Driver/Src/stm32h7xx_hal_dma_ex.c ****   */
 648:../../Drivers/STM32H7xx_HAL_Driver/Src/stm32h7xx_hal_dma_ex.c **** static void DMA_MultiBufferSetConfig(DMA_HandleTypeDef *hdma, uint32_t SrcAddress, uint32_t DstAddr
 649:../../Drivers/STM32H7xx_HAL_Driver/Src/stm32h7xx_hal_dma_ex.c **** {
  29              		.loc 1 649 1 view -0
  30              		.cfi_startproc
  31              		@ args = 0, pretend = 0, frame = 0
  32              		@ frame_needed = 0, uses_anonymous_args = 0
  33              		@ link register save eliminated.
  34              		.loc 1 649 1 is_stmt 0 view .LVU1
  35 0000 70B4     		push	{r4, r5, r6}
  36              	.LCFI0:
ARM GAS  /tmp/ccvjaD57.s 			page 13


  37              		.cfi_def_cfa_offset 12
  38              		.cfi_offset 4, -12
  39              		.cfi_offset 5, -8
  40              		.cfi_offset 6, -4
 650:../../Drivers/STM32H7xx_HAL_Driver/Src/stm32h7xx_hal_dma_ex.c ****   if(IS_DMA_STREAM_INSTANCE(hdma->Instance) != 0U) /* DMA1 or DMA2 instance */
  41              		.loc 1 650 3 is_stmt 1 view .LVU2
  42              		.loc 1 650 6 is_stmt 0 view .LVU3
  43 0002 0468     		ldr	r4, [r0]
  44 0004 264E     		ldr	r6, .L11
  45 0006 274D     		ldr	r5, .L11+4
  46 0008 AC42     		cmp	r4, r5
  47 000a 18BF     		it	ne
  48 000c B442     		cmpne	r4, r6
  49 000e 33D0     		beq	.L2
  50              		.loc 1 650 6 discriminator 2 view .LVU4
  51 0010 1835     		adds	r5, r5, #24
  52 0012 AC42     		cmp	r4, r5
  53 0014 30D0     		beq	.L2
  54              		.loc 1 650 6 discriminator 4 view .LVU5
  55 0016 1835     		adds	r5, r5, #24
  56 0018 AC42     		cmp	r4, r5
  57 001a 2DD0     		beq	.L2
  58              		.loc 1 650 6 discriminator 6 view .LVU6
  59 001c 1835     		adds	r5, r5, #24
  60 001e AC42     		cmp	r4, r5
  61 0020 2AD0     		beq	.L2
  62              		.loc 1 650 6 discriminator 8 view .LVU7
  63 0022 1835     		adds	r5, r5, #24
  64 0024 AC42     		cmp	r4, r5
  65 0026 27D0     		beq	.L2
  66              		.loc 1 650 6 discriminator 10 view .LVU8
  67 0028 1835     		adds	r5, r5, #24
  68 002a AC42     		cmp	r4, r5
  69 002c 24D0     		beq	.L2
  70              		.loc 1 650 6 discriminator 12 view .LVU9
  71 002e 1835     		adds	r5, r5, #24
  72 0030 AC42     		cmp	r4, r5
  73 0032 21D0     		beq	.L2
  74              		.loc 1 650 6 discriminator 14 view .LVU10
  75 0034 05F55675 		add	r5, r5, #856
  76 0038 AC42     		cmp	r4, r5
  77 003a 1DD0     		beq	.L2
  78              		.loc 1 650 6 discriminator 16 view .LVU11
  79 003c 1835     		adds	r5, r5, #24
  80 003e AC42     		cmp	r4, r5
  81 0040 1AD0     		beq	.L2
  82              		.loc 1 650 6 discriminator 18 view .LVU12
  83 0042 1835     		adds	r5, r5, #24
  84 0044 AC42     		cmp	r4, r5
  85 0046 17D0     		beq	.L2
  86              		.loc 1 650 6 discriminator 20 view .LVU13
  87 0048 1835     		adds	r5, r5, #24
  88 004a AC42     		cmp	r4, r5
  89 004c 14D0     		beq	.L2
  90              		.loc 1 650 6 discriminator 22 view .LVU14
  91 004e 1835     		adds	r5, r5, #24
  92 0050 AC42     		cmp	r4, r5
ARM GAS  /tmp/ccvjaD57.s 			page 14


  93 0052 11D0     		beq	.L2
  94              		.loc 1 650 6 discriminator 24 view .LVU15
  95 0054 1835     		adds	r5, r5, #24
  96 0056 AC42     		cmp	r4, r5
  97 0058 0ED0     		beq	.L2
  98              		.loc 1 650 6 discriminator 26 view .LVU16
  99 005a 1835     		adds	r5, r5, #24
 100 005c AC42     		cmp	r4, r5
 101 005e 0BD0     		beq	.L2
 102              		.loc 1 650 6 discriminator 28 view .LVU17
 103 0060 1835     		adds	r5, r5, #24
 104 0062 AC42     		cmp	r4, r5
 105 0064 08D0     		beq	.L2
 651:../../Drivers/STM32H7xx_HAL_Driver/Src/stm32h7xx_hal_dma_ex.c ****   {
 652:../../Drivers/STM32H7xx_HAL_Driver/Src/stm32h7xx_hal_dma_ex.c ****     /* Configure DMA Stream data length */
 653:../../Drivers/STM32H7xx_HAL_Driver/Src/stm32h7xx_hal_dma_ex.c ****     ((DMA_Stream_TypeDef   *)hdma->Instance)->NDTR = DataLength;
 654:../../Drivers/STM32H7xx_HAL_Driver/Src/stm32h7xx_hal_dma_ex.c **** 
 655:../../Drivers/STM32H7xx_HAL_Driver/Src/stm32h7xx_hal_dma_ex.c ****     /* Peripheral to Memory */
 656:../../Drivers/STM32H7xx_HAL_Driver/Src/stm32h7xx_hal_dma_ex.c ****     if((hdma->Init.Direction) == DMA_MEMORY_TO_PERIPH)
 657:../../Drivers/STM32H7xx_HAL_Driver/Src/stm32h7xx_hal_dma_ex.c ****     {
 658:../../Drivers/STM32H7xx_HAL_Driver/Src/stm32h7xx_hal_dma_ex.c ****       /* Configure DMA Stream destination address */
 659:../../Drivers/STM32H7xx_HAL_Driver/Src/stm32h7xx_hal_dma_ex.c ****       ((DMA_Stream_TypeDef   *)hdma->Instance)->PAR = DstAddress;
 660:../../Drivers/STM32H7xx_HAL_Driver/Src/stm32h7xx_hal_dma_ex.c **** 
 661:../../Drivers/STM32H7xx_HAL_Driver/Src/stm32h7xx_hal_dma_ex.c ****       /* Configure DMA Stream source address */
 662:../../Drivers/STM32H7xx_HAL_Driver/Src/stm32h7xx_hal_dma_ex.c ****       ((DMA_Stream_TypeDef   *)hdma->Instance)->M0AR = SrcAddress;
 663:../../Drivers/STM32H7xx_HAL_Driver/Src/stm32h7xx_hal_dma_ex.c ****     }
 664:../../Drivers/STM32H7xx_HAL_Driver/Src/stm32h7xx_hal_dma_ex.c ****     /* Memory to Peripheral */
 665:../../Drivers/STM32H7xx_HAL_Driver/Src/stm32h7xx_hal_dma_ex.c ****     else
 666:../../Drivers/STM32H7xx_HAL_Driver/Src/stm32h7xx_hal_dma_ex.c ****     {
 667:../../Drivers/STM32H7xx_HAL_Driver/Src/stm32h7xx_hal_dma_ex.c ****       /* Configure DMA Stream source address */
 668:../../Drivers/STM32H7xx_HAL_Driver/Src/stm32h7xx_hal_dma_ex.c ****       ((DMA_Stream_TypeDef   *)hdma->Instance)->PAR = SrcAddress;
 669:../../Drivers/STM32H7xx_HAL_Driver/Src/stm32h7xx_hal_dma_ex.c **** 
 670:../../Drivers/STM32H7xx_HAL_Driver/Src/stm32h7xx_hal_dma_ex.c ****       /* Configure DMA Stream destination address */
 671:../../Drivers/STM32H7xx_HAL_Driver/Src/stm32h7xx_hal_dma_ex.c ****       ((DMA_Stream_TypeDef   *)hdma->Instance)->M0AR = DstAddress;
 672:../../Drivers/STM32H7xx_HAL_Driver/Src/stm32h7xx_hal_dma_ex.c ****     }
 673:../../Drivers/STM32H7xx_HAL_Driver/Src/stm32h7xx_hal_dma_ex.c ****   }
 674:../../Drivers/STM32H7xx_HAL_Driver/Src/stm32h7xx_hal_dma_ex.c ****   else /* BDMA instance(s) */
 675:../../Drivers/STM32H7xx_HAL_Driver/Src/stm32h7xx_hal_dma_ex.c ****   {
 676:../../Drivers/STM32H7xx_HAL_Driver/Src/stm32h7xx_hal_dma_ex.c ****     /* Configure DMA Stream data length */
 677:../../Drivers/STM32H7xx_HAL_Driver/Src/stm32h7xx_hal_dma_ex.c ****     ((BDMA_Channel_TypeDef   *)hdma->Instance)->CNDTR = DataLength;
 106              		.loc 1 677 5 is_stmt 1 view .LVU18
 107              		.loc 1 677 55 is_stmt 0 view .LVU19
 108 0066 6360     		str	r3, [r4, #4]
 678:../../Drivers/STM32H7xx_HAL_Driver/Src/stm32h7xx_hal_dma_ex.c **** 
 679:../../Drivers/STM32H7xx_HAL_Driver/Src/stm32h7xx_hal_dma_ex.c ****     /* Peripheral to Memory */
 680:../../Drivers/STM32H7xx_HAL_Driver/Src/stm32h7xx_hal_dma_ex.c ****     if((hdma->Init.Direction) == DMA_MEMORY_TO_PERIPH)
 109              		.loc 1 680 5 is_stmt 1 view .LVU20
 110              		.loc 1 680 19 is_stmt 0 view .LVU21
 111 0068 8368     		ldr	r3, [r0, #8]
 112              	.LVL1:
 113              		.loc 1 680 7 view .LVU22
 114 006a 402B     		cmp	r3, #64
 115 006c 13D0     		beq	.L9
 681:../../Drivers/STM32H7xx_HAL_Driver/Src/stm32h7xx_hal_dma_ex.c ****     {
 682:../../Drivers/STM32H7xx_HAL_Driver/Src/stm32h7xx_hal_dma_ex.c ****       /* Configure DMA Stream destination address */
 683:../../Drivers/STM32H7xx_HAL_Driver/Src/stm32h7xx_hal_dma_ex.c ****       ((BDMA_Channel_TypeDef   *)hdma->Instance)->CPAR = DstAddress;
 684:../../Drivers/STM32H7xx_HAL_Driver/Src/stm32h7xx_hal_dma_ex.c **** 
ARM GAS  /tmp/ccvjaD57.s 			page 15


 685:../../Drivers/STM32H7xx_HAL_Driver/Src/stm32h7xx_hal_dma_ex.c ****       /* Configure DMA Stream source address */
 686:../../Drivers/STM32H7xx_HAL_Driver/Src/stm32h7xx_hal_dma_ex.c ****       ((BDMA_Channel_TypeDef   *)hdma->Instance)->CM0AR = SrcAddress;
 687:../../Drivers/STM32H7xx_HAL_Driver/Src/stm32h7xx_hal_dma_ex.c ****     }
 688:../../Drivers/STM32H7xx_HAL_Driver/Src/stm32h7xx_hal_dma_ex.c ****     /* Memory to Peripheral */
 689:../../Drivers/STM32H7xx_HAL_Driver/Src/stm32h7xx_hal_dma_ex.c ****     else
 690:../../Drivers/STM32H7xx_HAL_Driver/Src/stm32h7xx_hal_dma_ex.c ****     {
 691:../../Drivers/STM32H7xx_HAL_Driver/Src/stm32h7xx_hal_dma_ex.c ****       /* Configure DMA Stream source address */
 692:../../Drivers/STM32H7xx_HAL_Driver/Src/stm32h7xx_hal_dma_ex.c ****       ((BDMA_Channel_TypeDef   *)hdma->Instance)->CPAR = SrcAddress;
 116              		.loc 1 692 7 is_stmt 1 view .LVU23
 117              		.loc 1 692 38 is_stmt 0 view .LVU24
 118 006e 0368     		ldr	r3, [r0]
 119              		.loc 1 692 56 view .LVU25
 120 0070 9960     		str	r1, [r3, #8]
 121              	.LVL2:
 693:../../Drivers/STM32H7xx_HAL_Driver/Src/stm32h7xx_hal_dma_ex.c **** 
 694:../../Drivers/STM32H7xx_HAL_Driver/Src/stm32h7xx_hal_dma_ex.c ****       /* Configure DMA Stream destination address */
 695:../../Drivers/STM32H7xx_HAL_Driver/Src/stm32h7xx_hal_dma_ex.c ****       ((BDMA_Channel_TypeDef   *)hdma->Instance)->CM0AR = DstAddress;
 122              		.loc 1 695 7 is_stmt 1 view .LVU26
 123              		.loc 1 695 38 is_stmt 0 view .LVU27
 124 0072 0368     		ldr	r3, [r0]
 125              		.loc 1 695 57 view .LVU28
 126 0074 DA60     		str	r2, [r3, #12]
 696:../../Drivers/STM32H7xx_HAL_Driver/Src/stm32h7xx_hal_dma_ex.c ****     }
 697:../../Drivers/STM32H7xx_HAL_Driver/Src/stm32h7xx_hal_dma_ex.c ****   }
 698:../../Drivers/STM32H7xx_HAL_Driver/Src/stm32h7xx_hal_dma_ex.c **** }
 127              		.loc 1 698 1 view .LVU29
 128 0076 07E0     		b	.L1
 129              	.LVL3:
 130              	.L2:
 653:../../Drivers/STM32H7xx_HAL_Driver/Src/stm32h7xx_hal_dma_ex.c **** 
 131              		.loc 1 653 5 is_stmt 1 view .LVU30
 653:../../Drivers/STM32H7xx_HAL_Driver/Src/stm32h7xx_hal_dma_ex.c **** 
 132              		.loc 1 653 52 is_stmt 0 view .LVU31
 133 0078 6360     		str	r3, [r4, #4]
 656:../../Drivers/STM32H7xx_HAL_Driver/Src/stm32h7xx_hal_dma_ex.c ****     {
 134              		.loc 1 656 5 is_stmt 1 view .LVU32
 656:../../Drivers/STM32H7xx_HAL_Driver/Src/stm32h7xx_hal_dma_ex.c ****     {
 135              		.loc 1 656 19 is_stmt 0 view .LVU33
 136 007a 8368     		ldr	r3, [r0, #8]
 137              	.LVL4:
 656:../../Drivers/STM32H7xx_HAL_Driver/Src/stm32h7xx_hal_dma_ex.c ****     {
 138              		.loc 1 656 7 view .LVU34
 139 007c 402B     		cmp	r3, #64
 140 007e 05D0     		beq	.L10
 668:../../Drivers/STM32H7xx_HAL_Driver/Src/stm32h7xx_hal_dma_ex.c **** 
 141              		.loc 1 668 7 is_stmt 1 view .LVU35
 668:../../Drivers/STM32H7xx_HAL_Driver/Src/stm32h7xx_hal_dma_ex.c **** 
 142              		.loc 1 668 36 is_stmt 0 view .LVU36
 143 0080 0368     		ldr	r3, [r0]
 668:../../Drivers/STM32H7xx_HAL_Driver/Src/stm32h7xx_hal_dma_ex.c **** 
 144              		.loc 1 668 53 view .LVU37
 145 0082 9960     		str	r1, [r3, #8]
 146              	.LVL5:
 671:../../Drivers/STM32H7xx_HAL_Driver/Src/stm32h7xx_hal_dma_ex.c ****     }
 147              		.loc 1 671 7 is_stmt 1 view .LVU38
 671:../../Drivers/STM32H7xx_HAL_Driver/Src/stm32h7xx_hal_dma_ex.c ****     }
 148              		.loc 1 671 36 is_stmt 0 view .LVU39
ARM GAS  /tmp/ccvjaD57.s 			page 16


 149 0084 0368     		ldr	r3, [r0]
 671:../../Drivers/STM32H7xx_HAL_Driver/Src/stm32h7xx_hal_dma_ex.c ****     }
 150              		.loc 1 671 54 view .LVU40
 151 0086 DA60     		str	r2, [r3, #12]
 152              	.L1:
 153              		.loc 1 698 1 view .LVU41
 154 0088 70BC     		pop	{r4, r5, r6}
 155              	.LCFI1:
 156              		.cfi_remember_state
 157              		.cfi_restore 6
 158              		.cfi_restore 5
 159              		.cfi_restore 4
 160              		.cfi_def_cfa_offset 0
 161 008a 7047     		bx	lr
 162              	.LVL6:
 163              	.L10:
 164              	.LCFI2:
 165              		.cfi_restore_state
 659:../../Drivers/STM32H7xx_HAL_Driver/Src/stm32h7xx_hal_dma_ex.c **** 
 166              		.loc 1 659 7 is_stmt 1 view .LVU42
 659:../../Drivers/STM32H7xx_HAL_Driver/Src/stm32h7xx_hal_dma_ex.c **** 
 167              		.loc 1 659 36 is_stmt 0 view .LVU43
 168 008c 0368     		ldr	r3, [r0]
 659:../../Drivers/STM32H7xx_HAL_Driver/Src/stm32h7xx_hal_dma_ex.c **** 
 169              		.loc 1 659 53 view .LVU44
 170 008e 9A60     		str	r2, [r3, #8]
 171              	.LVL7:
 662:../../Drivers/STM32H7xx_HAL_Driver/Src/stm32h7xx_hal_dma_ex.c ****     }
 172              		.loc 1 662 7 is_stmt 1 view .LVU45
 662:../../Drivers/STM32H7xx_HAL_Driver/Src/stm32h7xx_hal_dma_ex.c ****     }
 173              		.loc 1 662 36 is_stmt 0 view .LVU46
 174 0090 0368     		ldr	r3, [r0]
 662:../../Drivers/STM32H7xx_HAL_Driver/Src/stm32h7xx_hal_dma_ex.c ****     }
 175              		.loc 1 662 54 view .LVU47
 176 0092 D960     		str	r1, [r3, #12]
 177 0094 F8E7     		b	.L1
 178              	.LVL8:
 179              	.L9:
 683:../../Drivers/STM32H7xx_HAL_Driver/Src/stm32h7xx_hal_dma_ex.c **** 
 180              		.loc 1 683 7 is_stmt 1 view .LVU48
 683:../../Drivers/STM32H7xx_HAL_Driver/Src/stm32h7xx_hal_dma_ex.c **** 
 181              		.loc 1 683 38 is_stmt 0 view .LVU49
 182 0096 0368     		ldr	r3, [r0]
 683:../../Drivers/STM32H7xx_HAL_Driver/Src/stm32h7xx_hal_dma_ex.c **** 
 183              		.loc 1 683 56 view .LVU50
 184 0098 9A60     		str	r2, [r3, #8]
 185              	.LVL9:
 686:../../Drivers/STM32H7xx_HAL_Driver/Src/stm32h7xx_hal_dma_ex.c ****     }
 186              		.loc 1 686 7 is_stmt 1 view .LVU51
 686:../../Drivers/STM32H7xx_HAL_Driver/Src/stm32h7xx_hal_dma_ex.c ****     }
 187              		.loc 1 686 38 is_stmt 0 view .LVU52
 188 009a 0368     		ldr	r3, [r0]
 686:../../Drivers/STM32H7xx_HAL_Driver/Src/stm32h7xx_hal_dma_ex.c ****     }
 189              		.loc 1 686 57 view .LVU53
 190 009c D960     		str	r1, [r3, #12]
 191 009e F3E7     		b	.L1
 192              	.L12:
ARM GAS  /tmp/ccvjaD57.s 			page 17


 193              		.align	2
 194              	.L11:
 195 00a0 10000240 		.word	1073872912
 196 00a4 28000240 		.word	1073872936
 197              		.cfi_endproc
 198              	.LFE140:
 200              		.section	.text.HAL_DMAEx_MultiBufferStart,"ax",%progbits
 201              		.align	1
 202              		.global	HAL_DMAEx_MultiBufferStart
 203              		.syntax unified
 204              		.thumb
 205              		.thumb_func
 206              		.fpu fpv4-sp-d16
 208              	HAL_DMAEx_MultiBufferStart:
 209              	.LVL10:
 210              	.LFB132:
 121:../../Drivers/STM32H7xx_HAL_Driver/Src/stm32h7xx_hal_dma_ex.c ****   HAL_StatusTypeDef status = HAL_OK;
 211              		.loc 1 121 1 is_stmt 1 view -0
 212              		.cfi_startproc
 213              		@ args = 4, pretend = 0, frame = 0
 214              		@ frame_needed = 0, uses_anonymous_args = 0
 121:../../Drivers/STM32H7xx_HAL_Driver/Src/stm32h7xx_hal_dma_ex.c ****   HAL_StatusTypeDef status = HAL_OK;
 215              		.loc 1 121 1 is_stmt 0 view .LVU55
 216 0000 70B5     		push	{r4, r5, r6, lr}
 217              	.LCFI3:
 218              		.cfi_def_cfa_offset 16
 219              		.cfi_offset 4, -16
 220              		.cfi_offset 5, -12
 221              		.cfi_offset 6, -8
 222              		.cfi_offset 14, -4
 223 0002 0446     		mov	r4, r0
 122:../../Drivers/STM32H7xx_HAL_Driver/Src/stm32h7xx_hal_dma_ex.c ****   __IO uint32_t *ifcRegister_Base; /* DMA Stream Interrupt Clear register */
 224              		.loc 1 122 3 is_stmt 1 view .LVU56
 225              	.LVL11:
 123:../../Drivers/STM32H7xx_HAL_Driver/Src/stm32h7xx_hal_dma_ex.c **** 
 226              		.loc 1 123 3 view .LVU57
 126:../../Drivers/STM32H7xx_HAL_Driver/Src/stm32h7xx_hal_dma_ex.c ****   assert_param(IS_DMA_ALL_INSTANCE(hdma->Instance));
 227              		.loc 1 126 3 view .LVU58
 127:../../Drivers/STM32H7xx_HAL_Driver/Src/stm32h7xx_hal_dma_ex.c **** 
 228              		.loc 1 127 3 view .LVU59
 130:../../Drivers/STM32H7xx_HAL_Driver/Src/stm32h7xx_hal_dma_ex.c ****   {
 229              		.loc 1 130 3 view .LVU60
 130:../../Drivers/STM32H7xx_HAL_Driver/Src/stm32h7xx_hal_dma_ex.c ****   {
 230              		.loc 1 130 17 is_stmt 0 view .LVU61
 231 0004 8068     		ldr	r0, [r0, #8]
 232              	.LVL12:
 130:../../Drivers/STM32H7xx_HAL_Driver/Src/stm32h7xx_hal_dma_ex.c ****   {
 233              		.loc 1 130 6 view .LVU62
 234 0006 8028     		cmp	r0, #128
 235 0008 11D0     		beq	.L25
 138:../../Drivers/STM32H7xx_HAL_Driver/Src/stm32h7xx_hal_dma_ex.c **** 
 236              		.loc 1 138 5 is_stmt 1 view .LVU63
 138:../../Drivers/STM32H7xx_HAL_Driver/Src/stm32h7xx_hal_dma_ex.c **** 
 237              		.loc 1 138 5 view .LVU64
 238 000a 94F83400 		ldrb	r0, [r4, #52]	@ zero_extendqisi2
 239 000e 0128     		cmp	r0, #1
 240 0010 00F0F980 		beq	.L23
ARM GAS  /tmp/ccvjaD57.s 			page 18


 138:../../Drivers/STM32H7xx_HAL_Driver/Src/stm32h7xx_hal_dma_ex.c **** 
 241              		.loc 1 138 5 discriminator 2 view .LVU65
 242 0014 0120     		movs	r0, #1
 243 0016 84F83400 		strb	r0, [r4, #52]
 138:../../Drivers/STM32H7xx_HAL_Driver/Src/stm32h7xx_hal_dma_ex.c **** 
 244              		.loc 1 138 5 discriminator 2 view .LVU66
 140:../../Drivers/STM32H7xx_HAL_Driver/Src/stm32h7xx_hal_dma_ex.c ****     {
 245              		.loc 1 140 5 discriminator 2 view .LVU67
 140:../../Drivers/STM32H7xx_HAL_Driver/Src/stm32h7xx_hal_dma_ex.c ****     {
 246              		.loc 1 140 35 is_stmt 0 discriminator 2 view .LVU68
 247 001a 94F83500 		ldrb	r0, [r4, #53]	@ zero_extendqisi2
 248 001e C0B2     		uxtb	r0, r0
 140:../../Drivers/STM32H7xx_HAL_Driver/Src/stm32h7xx_hal_dma_ex.c ****     {
 249              		.loc 1 140 7 discriminator 2 view .LVU69
 250 0020 0128     		cmp	r0, #1
 251 0022 09D0     		beq	.L26
 198:../../Drivers/STM32H7xx_HAL_Driver/Src/stm32h7xx_hal_dma_ex.c **** 
 252              		.loc 1 198 7 is_stmt 1 view .LVU70
 198:../../Drivers/STM32H7xx_HAL_Driver/Src/stm32h7xx_hal_dma_ex.c **** 
 253              		.loc 1 198 23 is_stmt 0 view .LVU71
 254 0024 4FF40063 		mov	r3, #2048
 255              	.LVL13:
 198:../../Drivers/STM32H7xx_HAL_Driver/Src/stm32h7xx_hal_dma_ex.c **** 
 256              		.loc 1 198 23 view .LVU72
 257 0028 6365     		str	r3, [r4, #84]
 201:../../Drivers/STM32H7xx_HAL_Driver/Src/stm32h7xx_hal_dma_ex.c ****     }
 258              		.loc 1 201 7 is_stmt 1 view .LVU73
 259              	.LVL14:
 201:../../Drivers/STM32H7xx_HAL_Driver/Src/stm32h7xx_hal_dma_ex.c ****     }
 260              		.loc 1 201 14 is_stmt 0 view .LVU74
 261 002a 0120     		movs	r0, #1
 262              	.LVL15:
 263              	.L15:
 205:../../Drivers/STM32H7xx_HAL_Driver/Src/stm32h7xx_hal_dma_ex.c **** 
 264              		.loc 1 205 1 view .LVU75
 265 002c 70BD     		pop	{r4, r5, r6, pc}
 266              	.LVL16:
 267              	.L25:
 132:../../Drivers/STM32H7xx_HAL_Driver/Src/stm32h7xx_hal_dma_ex.c ****     status = HAL_ERROR;
 268              		.loc 1 132 5 is_stmt 1 view .LVU76
 132:../../Drivers/STM32H7xx_HAL_Driver/Src/stm32h7xx_hal_dma_ex.c ****     status = HAL_ERROR;
 269              		.loc 1 132 21 is_stmt 0 view .LVU77
 270 002e 4FF48073 		mov	r3, #256
 271              	.LVL17:
 132:../../Drivers/STM32H7xx_HAL_Driver/Src/stm32h7xx_hal_dma_ex.c ****     status = HAL_ERROR;
 272              		.loc 1 132 21 view .LVU78
 273 0032 6365     		str	r3, [r4, #84]
 133:../../Drivers/STM32H7xx_HAL_Driver/Src/stm32h7xx_hal_dma_ex.c ****   }
 274              		.loc 1 133 5 is_stmt 1 view .LVU79
 275              	.LVL18:
 133:../../Drivers/STM32H7xx_HAL_Driver/Src/stm32h7xx_hal_dma_ex.c ****   }
 276              		.loc 1 133 12 is_stmt 0 view .LVU80
 277 0034 0120     		movs	r0, #1
 278 0036 F9E7     		b	.L15
 279              	.LVL19:
 280              	.L26:
 143:../../Drivers/STM32H7xx_HAL_Driver/Src/stm32h7xx_hal_dma_ex.c **** 
ARM GAS  /tmp/ccvjaD57.s 			page 19


 281              		.loc 1 143 7 is_stmt 1 view .LVU81
 143:../../Drivers/STM32H7xx_HAL_Driver/Src/stm32h7xx_hal_dma_ex.c **** 
 282              		.loc 1 143 19 is_stmt 0 view .LVU82
 283 0038 0220     		movs	r0, #2
 284 003a 84F83500 		strb	r0, [r4, #53]
 146:../../Drivers/STM32H7xx_HAL_Driver/Src/stm32h7xx_hal_dma_ex.c **** 
 285              		.loc 1 146 7 is_stmt 1 view .LVU83
 146:../../Drivers/STM32H7xx_HAL_Driver/Src/stm32h7xx_hal_dma_ex.c **** 
 286              		.loc 1 146 23 is_stmt 0 view .LVU84
 287 003e 0020     		movs	r0, #0
 288 0040 6065     		str	r0, [r4, #84]
 148:../../Drivers/STM32H7xx_HAL_Driver/Src/stm32h7xx_hal_dma_ex.c ****       {
 289              		.loc 1 148 7 is_stmt 1 view .LVU85
 148:../../Drivers/STM32H7xx_HAL_Driver/Src/stm32h7xx_hal_dma_ex.c ****       {
 290              		.loc 1 148 10 is_stmt 0 view .LVU86
 291 0042 2068     		ldr	r0, [r4]
 292 0044 714E     		ldr	r6, .L27
 293 0046 724D     		ldr	r5, .L27+4
 294 0048 A842     		cmp	r0, r5
 295 004a 18BF     		it	ne
 296 004c B042     		cmpne	r0, r6
 297 004e 39D0     		beq	.L17
 148:../../Drivers/STM32H7xx_HAL_Driver/Src/stm32h7xx_hal_dma_ex.c ****       {
 298              		.loc 1 148 10 discriminator 2 view .LVU87
 299 0050 1835     		adds	r5, r5, #24
 300 0052 A842     		cmp	r0, r5
 301 0054 36D0     		beq	.L17
 148:../../Drivers/STM32H7xx_HAL_Driver/Src/stm32h7xx_hal_dma_ex.c ****       {
 302              		.loc 1 148 10 discriminator 4 view .LVU88
 303 0056 1835     		adds	r5, r5, #24
 304 0058 A842     		cmp	r0, r5
 305 005a 33D0     		beq	.L17
 148:../../Drivers/STM32H7xx_HAL_Driver/Src/stm32h7xx_hal_dma_ex.c ****       {
 306              		.loc 1 148 10 discriminator 6 view .LVU89
 307 005c 1835     		adds	r5, r5, #24
 308 005e A842     		cmp	r0, r5
 309 0060 30D0     		beq	.L17
 148:../../Drivers/STM32H7xx_HAL_Driver/Src/stm32h7xx_hal_dma_ex.c ****       {
 310              		.loc 1 148 10 discriminator 8 view .LVU90
 311 0062 1835     		adds	r5, r5, #24
 312 0064 A842     		cmp	r0, r5
 313 0066 2DD0     		beq	.L17
 148:../../Drivers/STM32H7xx_HAL_Driver/Src/stm32h7xx_hal_dma_ex.c ****       {
 314              		.loc 1 148 10 discriminator 10 view .LVU91
 315 0068 1835     		adds	r5, r5, #24
 316 006a A842     		cmp	r0, r5
 317 006c 2AD0     		beq	.L17
 148:../../Drivers/STM32H7xx_HAL_Driver/Src/stm32h7xx_hal_dma_ex.c ****       {
 318              		.loc 1 148 10 discriminator 12 view .LVU92
 319 006e 1835     		adds	r5, r5, #24
 320 0070 A842     		cmp	r0, r5
 321 0072 27D0     		beq	.L17
 148:../../Drivers/STM32H7xx_HAL_Driver/Src/stm32h7xx_hal_dma_ex.c ****       {
 322              		.loc 1 148 10 discriminator 14 view .LVU93
 323 0074 05F55675 		add	r5, r5, #856
 324 0078 A842     		cmp	r0, r5
 325 007a 23D0     		beq	.L17
ARM GAS  /tmp/ccvjaD57.s 			page 20


 148:../../Drivers/STM32H7xx_HAL_Driver/Src/stm32h7xx_hal_dma_ex.c ****       {
 326              		.loc 1 148 10 discriminator 16 view .LVU94
 327 007c 1835     		adds	r5, r5, #24
 328 007e A842     		cmp	r0, r5
 329 0080 20D0     		beq	.L17
 148:../../Drivers/STM32H7xx_HAL_Driver/Src/stm32h7xx_hal_dma_ex.c ****       {
 330              		.loc 1 148 10 discriminator 18 view .LVU95
 331 0082 1835     		adds	r5, r5, #24
 332 0084 A842     		cmp	r0, r5
 333 0086 1DD0     		beq	.L17
 148:../../Drivers/STM32H7xx_HAL_Driver/Src/stm32h7xx_hal_dma_ex.c ****       {
 334              		.loc 1 148 10 discriminator 20 view .LVU96
 335 0088 1835     		adds	r5, r5, #24
 336 008a A842     		cmp	r0, r5
 337 008c 1AD0     		beq	.L17
 148:../../Drivers/STM32H7xx_HAL_Driver/Src/stm32h7xx_hal_dma_ex.c ****       {
 338              		.loc 1 148 10 discriminator 22 view .LVU97
 339 008e 1835     		adds	r5, r5, #24
 340 0090 A842     		cmp	r0, r5
 341 0092 17D0     		beq	.L17
 148:../../Drivers/STM32H7xx_HAL_Driver/Src/stm32h7xx_hal_dma_ex.c ****       {
 342              		.loc 1 148 10 discriminator 24 view .LVU98
 343 0094 1835     		adds	r5, r5, #24
 344 0096 A842     		cmp	r0, r5
 345 0098 14D0     		beq	.L17
 148:../../Drivers/STM32H7xx_HAL_Driver/Src/stm32h7xx_hal_dma_ex.c ****       {
 346              		.loc 1 148 10 discriminator 26 view .LVU99
 347 009a 1835     		adds	r5, r5, #24
 348 009c A842     		cmp	r0, r5
 349 009e 11D0     		beq	.L17
 148:../../Drivers/STM32H7xx_HAL_Driver/Src/stm32h7xx_hal_dma_ex.c ****       {
 350              		.loc 1 148 10 discriminator 28 view .LVU100
 351 00a0 1835     		adds	r5, r5, #24
 352 00a2 A842     		cmp	r0, r5
 353 00a4 0ED0     		beq	.L17
 165:../../Drivers/STM32H7xx_HAL_Driver/Src/stm32h7xx_hal_dma_ex.c **** 
 354              		.loc 1 165 9 is_stmt 1 view .LVU101
 165:../../Drivers/STM32H7xx_HAL_Driver/Src/stm32h7xx_hal_dma_ex.c **** 
 355              		.loc 1 165 57 is_stmt 0 view .LVU102
 356 00a6 0668     		ldr	r6, [r0]
 357 00a8 48F22005 		movw	r5, #32800
 358 00ac 3543     		orrs	r5, r5, r6
 359 00ae 0560     		str	r5, [r0]
 168:../../Drivers/STM32H7xx_HAL_Driver/Src/stm32h7xx_hal_dma_ex.c **** 
 360              		.loc 1 168 9 is_stmt 1 view .LVU103
 168:../../Drivers/STM32H7xx_HAL_Driver/Src/stm32h7xx_hal_dma_ex.c **** 
 361              		.loc 1 168 40 is_stmt 0 view .LVU104
 362 00b0 2068     		ldr	r0, [r4]
 168:../../Drivers/STM32H7xx_HAL_Driver/Src/stm32h7xx_hal_dma_ex.c **** 
 363              		.loc 1 168 59 view .LVU105
 364 00b2 0361     		str	r3, [r0, #16]
 171:../../Drivers/STM32H7xx_HAL_Driver/Src/stm32h7xx_hal_dma_ex.c **** 
 365              		.loc 1 171 9 is_stmt 1 view .LVU106
 171:../../Drivers/STM32H7xx_HAL_Driver/Src/stm32h7xx_hal_dma_ex.c **** 
 366              		.loc 1 171 56 is_stmt 0 view .LVU107
 367 00b4 A56D     		ldr	r5, [r4, #88]
 368              	.LVL20:
ARM GAS  /tmp/ccvjaD57.s 			page 21


 174:../../Drivers/STM32H7xx_HAL_Driver/Src/stm32h7xx_hal_dma_ex.c ****       }
 369              		.loc 1 174 9 is_stmt 1 view .LVU108
 174:../../Drivers/STM32H7xx_HAL_Driver/Src/stm32h7xx_hal_dma_ex.c ****       }
 370              		.loc 1 174 53 is_stmt 0 view .LVU109
 371 00b6 E36D     		ldr	r3, [r4, #92]
 372              	.LVL21:
 174:../../Drivers/STM32H7xx_HAL_Driver/Src/stm32h7xx_hal_dma_ex.c ****       }
 373              		.loc 1 174 67 view .LVU110
 374 00b8 03F01F00 		and	r0, r3, #31
 375              	.LVL22:
 174:../../Drivers/STM32H7xx_HAL_Driver/Src/stm32h7xx_hal_dma_ex.c ****       }
 376              		.loc 1 174 45 view .LVU111
 377 00bc 0123     		movs	r3, #1
 378 00be 8340     		lsls	r3, r3, r0
 174:../../Drivers/STM32H7xx_HAL_Driver/Src/stm32h7xx_hal_dma_ex.c ****       }
 379              		.loc 1 174 27 view .LVU112
 380 00c0 6B60     		str	r3, [r5, #4]
 381 00c2 0CE0     		b	.L18
 382              	.LVL23:
 383              	.L17:
 151:../../Drivers/STM32H7xx_HAL_Driver/Src/stm32h7xx_hal_dma_ex.c **** 
 384              		.loc 1 151 9 is_stmt 1 view .LVU113
 151:../../Drivers/STM32H7xx_HAL_Driver/Src/stm32h7xx_hal_dma_ex.c **** 
 385              		.loc 1 151 54 is_stmt 0 view .LVU114
 386 00c4 0568     		ldr	r5, [r0]
 387 00c6 45F48025 		orr	r5, r5, #262144
 388 00ca 0560     		str	r5, [r0]
 154:../../Drivers/STM32H7xx_HAL_Driver/Src/stm32h7xx_hal_dma_ex.c **** 
 389              		.loc 1 154 9 is_stmt 1 view .LVU115
 154:../../Drivers/STM32H7xx_HAL_Driver/Src/stm32h7xx_hal_dma_ex.c **** 
 390              		.loc 1 154 38 is_stmt 0 view .LVU116
 391 00cc 2068     		ldr	r0, [r4]
 154:../../Drivers/STM32H7xx_HAL_Driver/Src/stm32h7xx_hal_dma_ex.c **** 
 392              		.loc 1 154 56 view .LVU117
 393 00ce 0361     		str	r3, [r0, #16]
 157:../../Drivers/STM32H7xx_HAL_Driver/Src/stm32h7xx_hal_dma_ex.c **** 
 394              		.loc 1 157 9 is_stmt 1 view .LVU118
 157:../../Drivers/STM32H7xx_HAL_Driver/Src/stm32h7xx_hal_dma_ex.c **** 
 395              		.loc 1 157 56 is_stmt 0 view .LVU119
 396 00d0 A56D     		ldr	r5, [r4, #88]
 397              	.LVL24:
 160:../../Drivers/STM32H7xx_HAL_Driver/Src/stm32h7xx_hal_dma_ex.c ****       }
 398              		.loc 1 160 9 is_stmt 1 view .LVU120
 160:../../Drivers/STM32H7xx_HAL_Driver/Src/stm32h7xx_hal_dma_ex.c ****       }
 399              		.loc 1 160 44 is_stmt 0 view .LVU121
 400 00d2 E36D     		ldr	r3, [r4, #92]
 401              	.LVL25:
 160:../../Drivers/STM32H7xx_HAL_Driver/Src/stm32h7xx_hal_dma_ex.c ****       }
 402              		.loc 1 160 58 view .LVU122
 403 00d4 03F01F00 		and	r0, r3, #31
 404              	.LVL26:
 160:../../Drivers/STM32H7xx_HAL_Driver/Src/stm32h7xx_hal_dma_ex.c ****       }
 405              		.loc 1 160 36 view .LVU123
 406 00d8 3F23     		movs	r3, #63
 407 00da 8340     		lsls	r3, r3, r0
 160:../../Drivers/STM32H7xx_HAL_Driver/Src/stm32h7xx_hal_dma_ex.c ****       }
 408              		.loc 1 160 27 view .LVU124
ARM GAS  /tmp/ccvjaD57.s 			page 22


 409 00dc AB60     		str	r3, [r5, #8]
 410              	.LVL27:
 411              	.L18:
 177:../../Drivers/STM32H7xx_HAL_Driver/Src/stm32h7xx_hal_dma_ex.c ****       {
 412              		.loc 1 177 7 is_stmt 1 view .LVU125
 177:../../Drivers/STM32H7xx_HAL_Driver/Src/stm32h7xx_hal_dma_ex.c ****       {
 413              		.loc 1 177 10 is_stmt 0 view .LVU126
 414 00de 2368     		ldr	r3, [r4]
 415 00e0 4A4D     		ldr	r5, .L27
 416 00e2 4B48     		ldr	r0, .L27+4
 417 00e4 8342     		cmp	r3, r0
 418 00e6 18BF     		it	ne
 419 00e8 AB42     		cmpne	r3, r5
 420 00ea 42D0     		beq	.L19
 177:../../Drivers/STM32H7xx_HAL_Driver/Src/stm32h7xx_hal_dma_ex.c ****       {
 421              		.loc 1 177 10 discriminator 2 view .LVU127
 422 00ec 1830     		adds	r0, r0, #24
 423 00ee 8342     		cmp	r3, r0
 424 00f0 3FD0     		beq	.L19
 177:../../Drivers/STM32H7xx_HAL_Driver/Src/stm32h7xx_hal_dma_ex.c ****       {
 425              		.loc 1 177 10 discriminator 4 view .LVU128
 426 00f2 1830     		adds	r0, r0, #24
 427 00f4 8342     		cmp	r3, r0
 428 00f6 3CD0     		beq	.L19
 177:../../Drivers/STM32H7xx_HAL_Driver/Src/stm32h7xx_hal_dma_ex.c ****       {
 429              		.loc 1 177 10 discriminator 6 view .LVU129
 430 00f8 1830     		adds	r0, r0, #24
 431 00fa 8342     		cmp	r3, r0
 432 00fc 39D0     		beq	.L19
 177:../../Drivers/STM32H7xx_HAL_Driver/Src/stm32h7xx_hal_dma_ex.c ****       {
 433              		.loc 1 177 10 discriminator 8 view .LVU130
 434 00fe 1830     		adds	r0, r0, #24
 435 0100 8342     		cmp	r3, r0
 436 0102 36D0     		beq	.L19
 177:../../Drivers/STM32H7xx_HAL_Driver/Src/stm32h7xx_hal_dma_ex.c ****       {
 437              		.loc 1 177 10 discriminator 10 view .LVU131
 438 0104 1830     		adds	r0, r0, #24
 439 0106 8342     		cmp	r3, r0
 440 0108 33D0     		beq	.L19
 177:../../Drivers/STM32H7xx_HAL_Driver/Src/stm32h7xx_hal_dma_ex.c ****       {
 441              		.loc 1 177 10 discriminator 12 view .LVU132
 442 010a 1830     		adds	r0, r0, #24
 443 010c 8342     		cmp	r3, r0
 444 010e 30D0     		beq	.L19
 177:../../Drivers/STM32H7xx_HAL_Driver/Src/stm32h7xx_hal_dma_ex.c ****       {
 445              		.loc 1 177 10 discriminator 14 view .LVU133
 446 0110 00F55670 		add	r0, r0, #856
 447 0114 8342     		cmp	r3, r0
 448 0116 2CD0     		beq	.L19
 177:../../Drivers/STM32H7xx_HAL_Driver/Src/stm32h7xx_hal_dma_ex.c ****       {
 449              		.loc 1 177 10 discriminator 16 view .LVU134
 450 0118 1830     		adds	r0, r0, #24
 451 011a 8342     		cmp	r3, r0
 452 011c 29D0     		beq	.L19
 177:../../Drivers/STM32H7xx_HAL_Driver/Src/stm32h7xx_hal_dma_ex.c ****       {
 453              		.loc 1 177 10 discriminator 18 view .LVU135
 454 011e 1830     		adds	r0, r0, #24
ARM GAS  /tmp/ccvjaD57.s 			page 23


 455 0120 8342     		cmp	r3, r0
 456 0122 26D0     		beq	.L19
 177:../../Drivers/STM32H7xx_HAL_Driver/Src/stm32h7xx_hal_dma_ex.c ****       {
 457              		.loc 1 177 10 discriminator 20 view .LVU136
 458 0124 1830     		adds	r0, r0, #24
 459 0126 8342     		cmp	r3, r0
 460 0128 23D0     		beq	.L19
 177:../../Drivers/STM32H7xx_HAL_Driver/Src/stm32h7xx_hal_dma_ex.c ****       {
 461              		.loc 1 177 10 discriminator 22 view .LVU137
 462 012a 1830     		adds	r0, r0, #24
 463 012c 8342     		cmp	r3, r0
 464 012e 20D0     		beq	.L19
 177:../../Drivers/STM32H7xx_HAL_Driver/Src/stm32h7xx_hal_dma_ex.c ****       {
 465              		.loc 1 177 10 discriminator 24 view .LVU138
 466 0130 1830     		adds	r0, r0, #24
 467 0132 8342     		cmp	r3, r0
 468 0134 1DD0     		beq	.L19
 177:../../Drivers/STM32H7xx_HAL_Driver/Src/stm32h7xx_hal_dma_ex.c ****       {
 469              		.loc 1 177 10 discriminator 26 view .LVU139
 470 0136 1830     		adds	r0, r0, #24
 471 0138 8342     		cmp	r3, r0
 472 013a 1AD0     		beq	.L19
 177:../../Drivers/STM32H7xx_HAL_Driver/Src/stm32h7xx_hal_dma_ex.c ****       {
 473              		.loc 1 177 10 discriminator 28 view .LVU140
 474 013c 1830     		adds	r0, r0, #24
 475 013e 8342     		cmp	r3, r0
 476 0140 17D0     		beq	.L19
 177:../../Drivers/STM32H7xx_HAL_Driver/Src/stm32h7xx_hal_dma_ex.c ****       {
 477              		.loc 1 177 10 discriminator 30 view .LVU141
 478 0142 3448     		ldr	r0, .L27+8
 479 0144 8342     		cmp	r3, r0
 480 0146 14D0     		beq	.L19
 177:../../Drivers/STM32H7xx_HAL_Driver/Src/stm32h7xx_hal_dma_ex.c ****       {
 481              		.loc 1 177 10 discriminator 32 view .LVU142
 482 0148 1430     		adds	r0, r0, #20
 483 014a 8342     		cmp	r3, r0
 484 014c 11D0     		beq	.L19
 177:../../Drivers/STM32H7xx_HAL_Driver/Src/stm32h7xx_hal_dma_ex.c ****       {
 485              		.loc 1 177 10 discriminator 34 view .LVU143
 486 014e 1430     		adds	r0, r0, #20
 487 0150 8342     		cmp	r3, r0
 488 0152 0ED0     		beq	.L19
 177:../../Drivers/STM32H7xx_HAL_Driver/Src/stm32h7xx_hal_dma_ex.c ****       {
 489              		.loc 1 177 10 discriminator 36 view .LVU144
 490 0154 1430     		adds	r0, r0, #20
 491 0156 8342     		cmp	r3, r0
 492 0158 0BD0     		beq	.L19
 177:../../Drivers/STM32H7xx_HAL_Driver/Src/stm32h7xx_hal_dma_ex.c ****       {
 493              		.loc 1 177 10 discriminator 38 view .LVU145
 494 015a 1430     		adds	r0, r0, #20
 495 015c 8342     		cmp	r3, r0
 496 015e 08D0     		beq	.L19
 177:../../Drivers/STM32H7xx_HAL_Driver/Src/stm32h7xx_hal_dma_ex.c ****       {
 497              		.loc 1 177 10 discriminator 40 view .LVU146
 498 0160 1430     		adds	r0, r0, #20
 499 0162 8342     		cmp	r3, r0
 500 0164 05D0     		beq	.L19
ARM GAS  /tmp/ccvjaD57.s 			page 24


 177:../../Drivers/STM32H7xx_HAL_Driver/Src/stm32h7xx_hal_dma_ex.c ****       {
 501              		.loc 1 177 10 discriminator 42 view .LVU147
 502 0166 1430     		adds	r0, r0, #20
 503 0168 8342     		cmp	r3, r0
 504 016a 02D0     		beq	.L19
 177:../../Drivers/STM32H7xx_HAL_Driver/Src/stm32h7xx_hal_dma_ex.c ****       {
 505              		.loc 1 177 10 discriminator 44 view .LVU148
 506 016c 1430     		adds	r0, r0, #20
 507 016e 8342     		cmp	r3, r0
 508 0170 0BD1     		bne	.L20
 509              	.L19:
 180:../../Drivers/STM32H7xx_HAL_Driver/Src/stm32h7xx_hal_dma_ex.c **** 
 510              		.loc 1 180 9 is_stmt 1 view .LVU149
 511 0172 049B     		ldr	r3, [sp, #16]
 512 0174 2046     		mov	r0, r4
 513 0176 FFF7FEFF 		bl	DMA_MultiBufferSetConfig
 514              	.LVL28:
 183:../../Drivers/STM32H7xx_HAL_Driver/Src/stm32h7xx_hal_dma_ex.c **** 
 515              		.loc 1 183 9 view .LVU150
 183:../../Drivers/STM32H7xx_HAL_Driver/Src/stm32h7xx_hal_dma_ex.c **** 
 516              		.loc 1 183 13 is_stmt 0 view .LVU151
 517 017a 636E     		ldr	r3, [r4, #100]
 183:../../Drivers/STM32H7xx_HAL_Driver/Src/stm32h7xx_hal_dma_ex.c **** 
 518              		.loc 1 183 46 view .LVU152
 519 017c A26E     		ldr	r2, [r4, #104]
 183:../../Drivers/STM32H7xx_HAL_Driver/Src/stm32h7xx_hal_dma_ex.c **** 
 520              		.loc 1 183 40 view .LVU153
 521 017e 5A60     		str	r2, [r3, #4]
 185:../../Drivers/STM32H7xx_HAL_Driver/Src/stm32h7xx_hal_dma_ex.c ****         {
 522              		.loc 1 185 9 is_stmt 1 view .LVU154
 185:../../Drivers/STM32H7xx_HAL_Driver/Src/stm32h7xx_hal_dma_ex.c ****         {
 523              		.loc 1 185 16 is_stmt 0 view .LVU155
 524 0180 E36E     		ldr	r3, [r4, #108]
 185:../../Drivers/STM32H7xx_HAL_Driver/Src/stm32h7xx_hal_dma_ex.c ****         {
 525              		.loc 1 185 11 view .LVU156
 526 0182 13B1     		cbz	r3, .L20
 188:../../Drivers/STM32H7xx_HAL_Driver/Src/stm32h7xx_hal_dma_ex.c ****         }
 527              		.loc 1 188 11 is_stmt 1 view .LVU157
 188:../../Drivers/STM32H7xx_HAL_Driver/Src/stm32h7xx_hal_dma_ex.c ****         }
 528              		.loc 1 188 15 is_stmt 0 view .LVU158
 529 0184 236F     		ldr	r3, [r4, #112]
 188:../../Drivers/STM32H7xx_HAL_Driver/Src/stm32h7xx_hal_dma_ex.c ****         }
 530              		.loc 1 188 53 view .LVU159
 531 0186 626F     		ldr	r2, [r4, #116]
 188:../../Drivers/STM32H7xx_HAL_Driver/Src/stm32h7xx_hal_dma_ex.c ****         }
 532              		.loc 1 188 47 view .LVU160
 533 0188 5A60     		str	r2, [r3, #4]
 534              	.L20:
 193:../../Drivers/STM32H7xx_HAL_Driver/Src/stm32h7xx_hal_dma_ex.c ****     }
 535              		.loc 1 193 7 is_stmt 1 view .LVU161
 536 018a 2368     		ldr	r3, [r4]
 537 018c 1F49     		ldr	r1, .L27
 538 018e 204A     		ldr	r2, .L27+4
 539 0190 9342     		cmp	r3, r2
 540 0192 18BF     		it	ne
 541 0194 8B42     		cmpne	r3, r1
 542 0196 30D0     		beq	.L21
ARM GAS  /tmp/ccvjaD57.s 			page 25


 193:../../Drivers/STM32H7xx_HAL_Driver/Src/stm32h7xx_hal_dma_ex.c ****     }
 543              		.loc 1 193 7 is_stmt 0 discriminator 2 view .LVU162
 544 0198 1832     		adds	r2, r2, #24
 545 019a 9342     		cmp	r3, r2
 546 019c 2DD0     		beq	.L21
 193:../../Drivers/STM32H7xx_HAL_Driver/Src/stm32h7xx_hal_dma_ex.c ****     }
 547              		.loc 1 193 7 discriminator 4 view .LVU163
 548 019e 1832     		adds	r2, r2, #24
 549 01a0 9342     		cmp	r3, r2
 550 01a2 2AD0     		beq	.L21
 193:../../Drivers/STM32H7xx_HAL_Driver/Src/stm32h7xx_hal_dma_ex.c ****     }
 551              		.loc 1 193 7 discriminator 6 view .LVU164
 552 01a4 1832     		adds	r2, r2, #24
 553 01a6 9342     		cmp	r3, r2
 554 01a8 27D0     		beq	.L21
 193:../../Drivers/STM32H7xx_HAL_Driver/Src/stm32h7xx_hal_dma_ex.c ****     }
 555              		.loc 1 193 7 discriminator 8 view .LVU165
 556 01aa 1832     		adds	r2, r2, #24
 557 01ac 9342     		cmp	r3, r2
 558 01ae 24D0     		beq	.L21
 193:../../Drivers/STM32H7xx_HAL_Driver/Src/stm32h7xx_hal_dma_ex.c ****     }
 559              		.loc 1 193 7 discriminator 10 view .LVU166
 560 01b0 1832     		adds	r2, r2, #24
 561 01b2 9342     		cmp	r3, r2
 562 01b4 21D0     		beq	.L21
 193:../../Drivers/STM32H7xx_HAL_Driver/Src/stm32h7xx_hal_dma_ex.c ****     }
 563              		.loc 1 193 7 discriminator 12 view .LVU167
 564 01b6 1832     		adds	r2, r2, #24
 565 01b8 9342     		cmp	r3, r2
 566 01ba 1ED0     		beq	.L21
 193:../../Drivers/STM32H7xx_HAL_Driver/Src/stm32h7xx_hal_dma_ex.c ****     }
 567              		.loc 1 193 7 discriminator 14 view .LVU168
 568 01bc 02F55672 		add	r2, r2, #856
 569 01c0 9342     		cmp	r3, r2
 570 01c2 1AD0     		beq	.L21
 193:../../Drivers/STM32H7xx_HAL_Driver/Src/stm32h7xx_hal_dma_ex.c ****     }
 571              		.loc 1 193 7 discriminator 16 view .LVU169
 572 01c4 1832     		adds	r2, r2, #24
 573 01c6 9342     		cmp	r3, r2
 574 01c8 17D0     		beq	.L21
 193:../../Drivers/STM32H7xx_HAL_Driver/Src/stm32h7xx_hal_dma_ex.c ****     }
 575              		.loc 1 193 7 discriminator 18 view .LVU170
 576 01ca 1832     		adds	r2, r2, #24
 577 01cc 9342     		cmp	r3, r2
 578 01ce 14D0     		beq	.L21
 193:../../Drivers/STM32H7xx_HAL_Driver/Src/stm32h7xx_hal_dma_ex.c ****     }
 579              		.loc 1 193 7 discriminator 20 view .LVU171
 580 01d0 1832     		adds	r2, r2, #24
 581 01d2 9342     		cmp	r3, r2
 582 01d4 11D0     		beq	.L21
 193:../../Drivers/STM32H7xx_HAL_Driver/Src/stm32h7xx_hal_dma_ex.c ****     }
 583              		.loc 1 193 7 discriminator 22 view .LVU172
 584 01d6 1832     		adds	r2, r2, #24
 585 01d8 9342     		cmp	r3, r2
 586 01da 0ED0     		beq	.L21
 193:../../Drivers/STM32H7xx_HAL_Driver/Src/stm32h7xx_hal_dma_ex.c ****     }
 587              		.loc 1 193 7 discriminator 24 view .LVU173
ARM GAS  /tmp/ccvjaD57.s 			page 26


 588 01dc 1832     		adds	r2, r2, #24
 589 01de 9342     		cmp	r3, r2
 590 01e0 0BD0     		beq	.L21
 193:../../Drivers/STM32H7xx_HAL_Driver/Src/stm32h7xx_hal_dma_ex.c ****     }
 591              		.loc 1 193 7 discriminator 26 view .LVU174
 592 01e2 1832     		adds	r2, r2, #24
 593 01e4 9342     		cmp	r3, r2
 594 01e6 08D0     		beq	.L21
 193:../../Drivers/STM32H7xx_HAL_Driver/Src/stm32h7xx_hal_dma_ex.c ****     }
 595              		.loc 1 193 7 discriminator 28 view .LVU175
 596 01e8 1832     		adds	r2, r2, #24
 597 01ea 9342     		cmp	r3, r2
 598 01ec 05D0     		beq	.L21
 193:../../Drivers/STM32H7xx_HAL_Driver/Src/stm32h7xx_hal_dma_ex.c ****     }
 599              		.loc 1 193 7 discriminator 30 view .LVU176
 600 01ee 1A68     		ldr	r2, [r3]
 601 01f0 42F00102 		orr	r2, r2, #1
 602 01f4 1A60     		str	r2, [r3]
 122:../../Drivers/STM32H7xx_HAL_Driver/Src/stm32h7xx_hal_dma_ex.c ****   __IO uint32_t *ifcRegister_Base; /* DMA Stream Interrupt Clear register */
 603              		.loc 1 122 21 discriminator 30 view .LVU177
 604 01f6 0020     		movs	r0, #0
 605 01f8 18E7     		b	.L15
 606              	.L21:
 193:../../Drivers/STM32H7xx_HAL_Driver/Src/stm32h7xx_hal_dma_ex.c ****     }
 607              		.loc 1 193 7 discriminator 29 view .LVU178
 608 01fa 1A68     		ldr	r2, [r3]
 609 01fc 42F00102 		orr	r2, r2, #1
 610 0200 1A60     		str	r2, [r3]
 122:../../Drivers/STM32H7xx_HAL_Driver/Src/stm32h7xx_hal_dma_ex.c ****   __IO uint32_t *ifcRegister_Base; /* DMA Stream Interrupt Clear register */
 611              		.loc 1 122 21 discriminator 29 view .LVU179
 612 0202 0020     		movs	r0, #0
 193:../../Drivers/STM32H7xx_HAL_Driver/Src/stm32h7xx_hal_dma_ex.c ****     }
 613              		.loc 1 193 7 discriminator 29 view .LVU180
 614 0204 12E7     		b	.L15
 615              	.LVL29:
 616              	.L23:
 138:../../Drivers/STM32H7xx_HAL_Driver/Src/stm32h7xx_hal_dma_ex.c **** 
 617              		.loc 1 138 5 view .LVU181
 618 0206 0220     		movs	r0, #2
 619 0208 10E7     		b	.L15
 620              	.L28:
 621 020a 00BF     		.align	2
 622              	.L27:
 623 020c 10000240 		.word	1073872912
 624 0210 28000240 		.word	1073872936
 625 0214 08540258 		.word	1476547592
 626              		.cfi_endproc
 627              	.LFE132:
 629              		.section	.text.HAL_DMAEx_MultiBufferStart_IT,"ax",%progbits
 630              		.align	1
 631              		.global	HAL_DMAEx_MultiBufferStart_IT
 632              		.syntax unified
 633              		.thumb
 634              		.thumb_func
 635              		.fpu fpv4-sp-d16
 637              	HAL_DMAEx_MultiBufferStart_IT:
 638              	.LVL30:
ARM GAS  /tmp/ccvjaD57.s 			page 27


 639              	.LFB133:
 218:../../Drivers/STM32H7xx_HAL_Driver/Src/stm32h7xx_hal_dma_ex.c ****   HAL_StatusTypeDef status = HAL_OK;
 640              		.loc 1 218 1 is_stmt 1 view -0
 641              		.cfi_startproc
 642              		@ args = 4, pretend = 0, frame = 0
 643              		@ frame_needed = 0, uses_anonymous_args = 0
 218:../../Drivers/STM32H7xx_HAL_Driver/Src/stm32h7xx_hal_dma_ex.c ****   HAL_StatusTypeDef status = HAL_OK;
 644              		.loc 1 218 1 is_stmt 0 view .LVU183
 645 0000 70B5     		push	{r4, r5, r6, lr}
 646              	.LCFI4:
 647              		.cfi_def_cfa_offset 16
 648              		.cfi_offset 4, -16
 649              		.cfi_offset 5, -12
 650              		.cfi_offset 6, -8
 651              		.cfi_offset 14, -4
 652 0002 0446     		mov	r4, r0
 219:../../Drivers/STM32H7xx_HAL_Driver/Src/stm32h7xx_hal_dma_ex.c ****   __IO uint32_t *ifcRegister_Base; /* DMA Stream Interrupt Clear register */
 653              		.loc 1 219 3 is_stmt 1 view .LVU184
 654              	.LVL31:
 220:../../Drivers/STM32H7xx_HAL_Driver/Src/stm32h7xx_hal_dma_ex.c **** 
 655              		.loc 1 220 3 view .LVU185
 223:../../Drivers/STM32H7xx_HAL_Driver/Src/stm32h7xx_hal_dma_ex.c ****   assert_param(IS_DMA_ALL_INSTANCE(hdma->Instance));
 656              		.loc 1 223 3 view .LVU186
 224:../../Drivers/STM32H7xx_HAL_Driver/Src/stm32h7xx_hal_dma_ex.c **** 
 657              		.loc 1 224 3 view .LVU187
 227:../../Drivers/STM32H7xx_HAL_Driver/Src/stm32h7xx_hal_dma_ex.c ****   {
 658              		.loc 1 227 3 view .LVU188
 227:../../Drivers/STM32H7xx_HAL_Driver/Src/stm32h7xx_hal_dma_ex.c ****   {
 659              		.loc 1 227 16 is_stmt 0 view .LVU189
 660 0004 8068     		ldr	r0, [r0, #8]
 661              	.LVL32:
 227:../../Drivers/STM32H7xx_HAL_Driver/Src/stm32h7xx_hal_dma_ex.c ****   {
 662              		.loc 1 227 5 view .LVU190
 663 0006 8028     		cmp	r0, #128
 664 0008 11D0     		beq	.L50
 234:../../Drivers/STM32H7xx_HAL_Driver/Src/stm32h7xx_hal_dma_ex.c **** 
 665              		.loc 1 234 3 is_stmt 1 view .LVU191
 234:../../Drivers/STM32H7xx_HAL_Driver/Src/stm32h7xx_hal_dma_ex.c **** 
 666              		.loc 1 234 3 view .LVU192
 667 000a 94F83400 		ldrb	r0, [r4, #52]	@ zero_extendqisi2
 668 000e 0128     		cmp	r0, #1
 669 0010 00F0B981 		beq	.L47
 234:../../Drivers/STM32H7xx_HAL_Driver/Src/stm32h7xx_hal_dma_ex.c **** 
 670              		.loc 1 234 3 discriminator 2 view .LVU193
 671 0014 0120     		movs	r0, #1
 672 0016 84F83400 		strb	r0, [r4, #52]
 234:../../Drivers/STM32H7xx_HAL_Driver/Src/stm32h7xx_hal_dma_ex.c **** 
 673              		.loc 1 234 3 discriminator 2 view .LVU194
 236:../../Drivers/STM32H7xx_HAL_Driver/Src/stm32h7xx_hal_dma_ex.c ****   {
 674              		.loc 1 236 3 discriminator 2 view .LVU195
 236:../../Drivers/STM32H7xx_HAL_Driver/Src/stm32h7xx_hal_dma_ex.c ****   {
 675              		.loc 1 236 33 is_stmt 0 discriminator 2 view .LVU196
 676 001a 94F83500 		ldrb	r0, [r4, #53]	@ zero_extendqisi2
 677 001e C0B2     		uxtb	r0, r0
 236:../../Drivers/STM32H7xx_HAL_Driver/Src/stm32h7xx_hal_dma_ex.c ****   {
 678              		.loc 1 236 5 discriminator 2 view .LVU197
 679 0020 0128     		cmp	r0, #1
ARM GAS  /tmp/ccvjaD57.s 			page 28


 680 0022 09D0     		beq	.L51
 335:../../Drivers/STM32H7xx_HAL_Driver/Src/stm32h7xx_hal_dma_ex.c **** 
 681              		.loc 1 335 5 is_stmt 1 view .LVU198
 335:../../Drivers/STM32H7xx_HAL_Driver/Src/stm32h7xx_hal_dma_ex.c **** 
 682              		.loc 1 335 21 is_stmt 0 view .LVU199
 683 0024 4FF40063 		mov	r3, #2048
 684              	.LVL33:
 335:../../Drivers/STM32H7xx_HAL_Driver/Src/stm32h7xx_hal_dma_ex.c **** 
 685              		.loc 1 335 21 view .LVU200
 686 0028 6365     		str	r3, [r4, #84]
 338:../../Drivers/STM32H7xx_HAL_Driver/Src/stm32h7xx_hal_dma_ex.c ****   }
 687              		.loc 1 338 5 is_stmt 1 view .LVU201
 688              	.LVL34:
 338:../../Drivers/STM32H7xx_HAL_Driver/Src/stm32h7xx_hal_dma_ex.c ****   }
 689              		.loc 1 338 12 is_stmt 0 view .LVU202
 690 002a 0120     		movs	r0, #1
 691              	.LVL35:
 692              	.L31:
 341:../../Drivers/STM32H7xx_HAL_Driver/Src/stm32h7xx_hal_dma_ex.c **** 
 693              		.loc 1 341 1 view .LVU203
 694 002c 70BD     		pop	{r4, r5, r6, pc}
 695              	.LVL36:
 696              	.L50:
 229:../../Drivers/STM32H7xx_HAL_Driver/Src/stm32h7xx_hal_dma_ex.c ****     return HAL_ERROR;
 697              		.loc 1 229 5 is_stmt 1 view .LVU204
 229:../../Drivers/STM32H7xx_HAL_Driver/Src/stm32h7xx_hal_dma_ex.c ****     return HAL_ERROR;
 698              		.loc 1 229 21 is_stmt 0 view .LVU205
 699 002e 4FF48073 		mov	r3, #256
 700              	.LVL37:
 229:../../Drivers/STM32H7xx_HAL_Driver/Src/stm32h7xx_hal_dma_ex.c ****     return HAL_ERROR;
 701              		.loc 1 229 21 view .LVU206
 702 0032 6365     		str	r3, [r4, #84]
 230:../../Drivers/STM32H7xx_HAL_Driver/Src/stm32h7xx_hal_dma_ex.c ****   }
 703              		.loc 1 230 5 is_stmt 1 view .LVU207
 230:../../Drivers/STM32H7xx_HAL_Driver/Src/stm32h7xx_hal_dma_ex.c ****   }
 704              		.loc 1 230 12 is_stmt 0 view .LVU208
 705 0034 0120     		movs	r0, #1
 706 0036 F9E7     		b	.L31
 707              	.LVL38:
 708              	.L51:
 239:../../Drivers/STM32H7xx_HAL_Driver/Src/stm32h7xx_hal_dma_ex.c **** 
 709              		.loc 1 239 5 is_stmt 1 view .LVU209
 239:../../Drivers/STM32H7xx_HAL_Driver/Src/stm32h7xx_hal_dma_ex.c **** 
 710              		.loc 1 239 17 is_stmt 0 view .LVU210
 711 0038 0220     		movs	r0, #2
 712 003a 84F83500 		strb	r0, [r4, #53]
 242:../../Drivers/STM32H7xx_HAL_Driver/Src/stm32h7xx_hal_dma_ex.c **** 
 713              		.loc 1 242 5 is_stmt 1 view .LVU211
 242:../../Drivers/STM32H7xx_HAL_Driver/Src/stm32h7xx_hal_dma_ex.c **** 
 714              		.loc 1 242 21 is_stmt 0 view .LVU212
 715 003e 0020     		movs	r0, #0
 716 0040 6065     		str	r0, [r4, #84]
 244:../../Drivers/STM32H7xx_HAL_Driver/Src/stm32h7xx_hal_dma_ex.c ****     {
 717              		.loc 1 244 5 is_stmt 1 view .LVU213
 244:../../Drivers/STM32H7xx_HAL_Driver/Src/stm32h7xx_hal_dma_ex.c ****     {
 718              		.loc 1 244 8 is_stmt 0 view .LVU214
 719 0042 2068     		ldr	r0, [r4]
ARM GAS  /tmp/ccvjaD57.s 			page 29


 720 0044 724E     		ldr	r6, .L54
 721 0046 734D     		ldr	r5, .L54+4
 722 0048 A842     		cmp	r0, r5
 723 004a 18BF     		it	ne
 724 004c B042     		cmpne	r0, r6
 725 004e 39D0     		beq	.L33
 244:../../Drivers/STM32H7xx_HAL_Driver/Src/stm32h7xx_hal_dma_ex.c ****     {
 726              		.loc 1 244 8 discriminator 2 view .LVU215
 727 0050 1835     		adds	r5, r5, #24
 728 0052 A842     		cmp	r0, r5
 729 0054 36D0     		beq	.L33
 244:../../Drivers/STM32H7xx_HAL_Driver/Src/stm32h7xx_hal_dma_ex.c ****     {
 730              		.loc 1 244 8 discriminator 4 view .LVU216
 731 0056 1835     		adds	r5, r5, #24
 732 0058 A842     		cmp	r0, r5
 733 005a 33D0     		beq	.L33
 244:../../Drivers/STM32H7xx_HAL_Driver/Src/stm32h7xx_hal_dma_ex.c ****     {
 734              		.loc 1 244 8 discriminator 6 view .LVU217
 735 005c 1835     		adds	r5, r5, #24
 736 005e A842     		cmp	r0, r5
 737 0060 30D0     		beq	.L33
 244:../../Drivers/STM32H7xx_HAL_Driver/Src/stm32h7xx_hal_dma_ex.c ****     {
 738              		.loc 1 244 8 discriminator 8 view .LVU218
 739 0062 1835     		adds	r5, r5, #24
 740 0064 A842     		cmp	r0, r5
 741 0066 2DD0     		beq	.L33
 244:../../Drivers/STM32H7xx_HAL_Driver/Src/stm32h7xx_hal_dma_ex.c ****     {
 742              		.loc 1 244 8 discriminator 10 view .LVU219
 743 0068 1835     		adds	r5, r5, #24
 744 006a A842     		cmp	r0, r5
 745 006c 2AD0     		beq	.L33
 244:../../Drivers/STM32H7xx_HAL_Driver/Src/stm32h7xx_hal_dma_ex.c ****     {
 746              		.loc 1 244 8 discriminator 12 view .LVU220
 747 006e 1835     		adds	r5, r5, #24
 748 0070 A842     		cmp	r0, r5
 749 0072 27D0     		beq	.L33
 244:../../Drivers/STM32H7xx_HAL_Driver/Src/stm32h7xx_hal_dma_ex.c ****     {
 750              		.loc 1 244 8 discriminator 14 view .LVU221
 751 0074 05F55675 		add	r5, r5, #856
 752 0078 A842     		cmp	r0, r5
 753 007a 23D0     		beq	.L33
 244:../../Drivers/STM32H7xx_HAL_Driver/Src/stm32h7xx_hal_dma_ex.c ****     {
 754              		.loc 1 244 8 discriminator 16 view .LVU222
 755 007c 1835     		adds	r5, r5, #24
 756 007e A842     		cmp	r0, r5
 757 0080 20D0     		beq	.L33
 244:../../Drivers/STM32H7xx_HAL_Driver/Src/stm32h7xx_hal_dma_ex.c ****     {
 758              		.loc 1 244 8 discriminator 18 view .LVU223
 759 0082 1835     		adds	r5, r5, #24
 760 0084 A842     		cmp	r0, r5
 761 0086 1DD0     		beq	.L33
 244:../../Drivers/STM32H7xx_HAL_Driver/Src/stm32h7xx_hal_dma_ex.c ****     {
 762              		.loc 1 244 8 discriminator 20 view .LVU224
 763 0088 1835     		adds	r5, r5, #24
 764 008a A842     		cmp	r0, r5
 765 008c 1AD0     		beq	.L33
 244:../../Drivers/STM32H7xx_HAL_Driver/Src/stm32h7xx_hal_dma_ex.c ****     {
ARM GAS  /tmp/ccvjaD57.s 			page 30


 766              		.loc 1 244 8 discriminator 22 view .LVU225
 767 008e 1835     		adds	r5, r5, #24
 768 0090 A842     		cmp	r0, r5
 769 0092 17D0     		beq	.L33
 244:../../Drivers/STM32H7xx_HAL_Driver/Src/stm32h7xx_hal_dma_ex.c ****     {
 770              		.loc 1 244 8 discriminator 24 view .LVU226
 771 0094 1835     		adds	r5, r5, #24
 772 0096 A842     		cmp	r0, r5
 773 0098 14D0     		beq	.L33
 244:../../Drivers/STM32H7xx_HAL_Driver/Src/stm32h7xx_hal_dma_ex.c ****     {
 774              		.loc 1 244 8 discriminator 26 view .LVU227
 775 009a 1835     		adds	r5, r5, #24
 776 009c A842     		cmp	r0, r5
 777 009e 11D0     		beq	.L33
 244:../../Drivers/STM32H7xx_HAL_Driver/Src/stm32h7xx_hal_dma_ex.c ****     {
 778              		.loc 1 244 8 discriminator 28 view .LVU228
 779 00a0 1835     		adds	r5, r5, #24
 780 00a2 A842     		cmp	r0, r5
 781 00a4 0ED0     		beq	.L33
 261:../../Drivers/STM32H7xx_HAL_Driver/Src/stm32h7xx_hal_dma_ex.c **** 
 782              		.loc 1 261 7 is_stmt 1 view .LVU229
 261:../../Drivers/STM32H7xx_HAL_Driver/Src/stm32h7xx_hal_dma_ex.c **** 
 783              		.loc 1 261 55 is_stmt 0 view .LVU230
 784 00a6 0668     		ldr	r6, [r0]
 785 00a8 48F22005 		movw	r5, #32800
 786 00ac 3543     		orrs	r5, r5, r6
 787 00ae 0560     		str	r5, [r0]
 264:../../Drivers/STM32H7xx_HAL_Driver/Src/stm32h7xx_hal_dma_ex.c **** 
 788              		.loc 1 264 7 is_stmt 1 view .LVU231
 264:../../Drivers/STM32H7xx_HAL_Driver/Src/stm32h7xx_hal_dma_ex.c **** 
 789              		.loc 1 264 38 is_stmt 0 view .LVU232
 790 00b0 2068     		ldr	r0, [r4]
 264:../../Drivers/STM32H7xx_HAL_Driver/Src/stm32h7xx_hal_dma_ex.c **** 
 791              		.loc 1 264 57 view .LVU233
 792 00b2 0361     		str	r3, [r0, #16]
 267:../../Drivers/STM32H7xx_HAL_Driver/Src/stm32h7xx_hal_dma_ex.c **** 
 793              		.loc 1 267 7 is_stmt 1 view .LVU234
 267:../../Drivers/STM32H7xx_HAL_Driver/Src/stm32h7xx_hal_dma_ex.c **** 
 794              		.loc 1 267 54 is_stmt 0 view .LVU235
 795 00b4 A56D     		ldr	r5, [r4, #88]
 796              	.LVL39:
 270:../../Drivers/STM32H7xx_HAL_Driver/Src/stm32h7xx_hal_dma_ex.c ****     }
 797              		.loc 1 270 7 is_stmt 1 view .LVU236
 270:../../Drivers/STM32H7xx_HAL_Driver/Src/stm32h7xx_hal_dma_ex.c ****     }
 798              		.loc 1 270 51 is_stmt 0 view .LVU237
 799 00b6 E36D     		ldr	r3, [r4, #92]
 800              	.LVL40:
 270:../../Drivers/STM32H7xx_HAL_Driver/Src/stm32h7xx_hal_dma_ex.c ****     }
 801              		.loc 1 270 65 view .LVU238
 802 00b8 03F01F00 		and	r0, r3, #31
 803              	.LVL41:
 270:../../Drivers/STM32H7xx_HAL_Driver/Src/stm32h7xx_hal_dma_ex.c ****     }
 804              		.loc 1 270 43 view .LVU239
 805 00bc 0123     		movs	r3, #1
 806 00be 8340     		lsls	r3, r3, r0
 270:../../Drivers/STM32H7xx_HAL_Driver/Src/stm32h7xx_hal_dma_ex.c ****     }
 807              		.loc 1 270 25 view .LVU240
ARM GAS  /tmp/ccvjaD57.s 			page 31


 808 00c0 6B60     		str	r3, [r5, #4]
 809 00c2 0CE0     		b	.L34
 810              	.LVL42:
 811              	.L33:
 247:../../Drivers/STM32H7xx_HAL_Driver/Src/stm32h7xx_hal_dma_ex.c **** 
 812              		.loc 1 247 7 is_stmt 1 view .LVU241
 247:../../Drivers/STM32H7xx_HAL_Driver/Src/stm32h7xx_hal_dma_ex.c **** 
 813              		.loc 1 247 52 is_stmt 0 view .LVU242
 814 00c4 0568     		ldr	r5, [r0]
 815 00c6 45F48025 		orr	r5, r5, #262144
 816 00ca 0560     		str	r5, [r0]
 250:../../Drivers/STM32H7xx_HAL_Driver/Src/stm32h7xx_hal_dma_ex.c **** 
 817              		.loc 1 250 7 is_stmt 1 view .LVU243
 250:../../Drivers/STM32H7xx_HAL_Driver/Src/stm32h7xx_hal_dma_ex.c **** 
 818              		.loc 1 250 36 is_stmt 0 view .LVU244
 819 00cc 2068     		ldr	r0, [r4]
 250:../../Drivers/STM32H7xx_HAL_Driver/Src/stm32h7xx_hal_dma_ex.c **** 
 820              		.loc 1 250 54 view .LVU245
 821 00ce 0361     		str	r3, [r0, #16]
 253:../../Drivers/STM32H7xx_HAL_Driver/Src/stm32h7xx_hal_dma_ex.c **** 
 822              		.loc 1 253 7 is_stmt 1 view .LVU246
 253:../../Drivers/STM32H7xx_HAL_Driver/Src/stm32h7xx_hal_dma_ex.c **** 
 823              		.loc 1 253 54 is_stmt 0 view .LVU247
 824 00d0 A56D     		ldr	r5, [r4, #88]
 825              	.LVL43:
 256:../../Drivers/STM32H7xx_HAL_Driver/Src/stm32h7xx_hal_dma_ex.c ****     }
 826              		.loc 1 256 7 is_stmt 1 view .LVU248
 256:../../Drivers/STM32H7xx_HAL_Driver/Src/stm32h7xx_hal_dma_ex.c ****     }
 827              		.loc 1 256 42 is_stmt 0 view .LVU249
 828 00d2 E36D     		ldr	r3, [r4, #92]
 829              	.LVL44:
 256:../../Drivers/STM32H7xx_HAL_Driver/Src/stm32h7xx_hal_dma_ex.c ****     }
 830              		.loc 1 256 56 view .LVU250
 831 00d4 03F01F00 		and	r0, r3, #31
 832              	.LVL45:
 256:../../Drivers/STM32H7xx_HAL_Driver/Src/stm32h7xx_hal_dma_ex.c ****     }
 833              		.loc 1 256 34 view .LVU251
 834 00d8 3F23     		movs	r3, #63
 835 00da 8340     		lsls	r3, r3, r0
 256:../../Drivers/STM32H7xx_HAL_Driver/Src/stm32h7xx_hal_dma_ex.c ****     }
 836              		.loc 1 256 25 view .LVU252
 837 00dc AB60     		str	r3, [r5, #8]
 838              	.LVL46:
 839              	.L34:
 274:../../Drivers/STM32H7xx_HAL_Driver/Src/stm32h7xx_hal_dma_ex.c **** 
 840              		.loc 1 274 5 is_stmt 1 view .LVU253
 841 00de 049B     		ldr	r3, [sp, #16]
 842 00e0 2046     		mov	r0, r4
 843 00e2 FFF7FEFF 		bl	DMA_MultiBufferSetConfig
 844              	.LVL47:
 276:../../Drivers/STM32H7xx_HAL_Driver/Src/stm32h7xx_hal_dma_ex.c ****     {
 845              		.loc 1 276 5 view .LVU254
 276:../../Drivers/STM32H7xx_HAL_Driver/Src/stm32h7xx_hal_dma_ex.c ****     {
 846              		.loc 1 276 8 is_stmt 0 view .LVU255
 847 00e6 2368     		ldr	r3, [r4]
 848 00e8 4949     		ldr	r1, .L54
 849 00ea 4A4A     		ldr	r2, .L54+4
ARM GAS  /tmp/ccvjaD57.s 			page 32


 850 00ec 9342     		cmp	r3, r2
 851 00ee 18BF     		it	ne
 852 00f0 8B42     		cmpne	r3, r1
 853 00f2 42D0     		beq	.L35
 276:../../Drivers/STM32H7xx_HAL_Driver/Src/stm32h7xx_hal_dma_ex.c ****     {
 854              		.loc 1 276 8 discriminator 2 view .LVU256
 855 00f4 1832     		adds	r2, r2, #24
 856 00f6 9342     		cmp	r3, r2
 857 00f8 3FD0     		beq	.L35
 276:../../Drivers/STM32H7xx_HAL_Driver/Src/stm32h7xx_hal_dma_ex.c ****     {
 858              		.loc 1 276 8 discriminator 4 view .LVU257
 859 00fa 1832     		adds	r2, r2, #24
 860 00fc 9342     		cmp	r3, r2
 861 00fe 3CD0     		beq	.L35
 276:../../Drivers/STM32H7xx_HAL_Driver/Src/stm32h7xx_hal_dma_ex.c ****     {
 862              		.loc 1 276 8 discriminator 6 view .LVU258
 863 0100 1832     		adds	r2, r2, #24
 864 0102 9342     		cmp	r3, r2
 865 0104 39D0     		beq	.L35
 276:../../Drivers/STM32H7xx_HAL_Driver/Src/stm32h7xx_hal_dma_ex.c ****     {
 866              		.loc 1 276 8 discriminator 8 view .LVU259
 867 0106 1832     		adds	r2, r2, #24
 868 0108 9342     		cmp	r3, r2
 869 010a 36D0     		beq	.L35
 276:../../Drivers/STM32H7xx_HAL_Driver/Src/stm32h7xx_hal_dma_ex.c ****     {
 870              		.loc 1 276 8 discriminator 10 view .LVU260
 871 010c 1832     		adds	r2, r2, #24
 872 010e 9342     		cmp	r3, r2
 873 0110 33D0     		beq	.L35
 276:../../Drivers/STM32H7xx_HAL_Driver/Src/stm32h7xx_hal_dma_ex.c ****     {
 874              		.loc 1 276 8 discriminator 12 view .LVU261
 875 0112 1832     		adds	r2, r2, #24
 876 0114 9342     		cmp	r3, r2
 877 0116 30D0     		beq	.L35
 276:../../Drivers/STM32H7xx_HAL_Driver/Src/stm32h7xx_hal_dma_ex.c ****     {
 878              		.loc 1 276 8 discriminator 14 view .LVU262
 879 0118 02F55672 		add	r2, r2, #856
 880 011c 9342     		cmp	r3, r2
 881 011e 2CD0     		beq	.L35
 276:../../Drivers/STM32H7xx_HAL_Driver/Src/stm32h7xx_hal_dma_ex.c ****     {
 882              		.loc 1 276 8 discriminator 16 view .LVU263
 883 0120 1832     		adds	r2, r2, #24
 884 0122 9342     		cmp	r3, r2
 885 0124 29D0     		beq	.L35
 276:../../Drivers/STM32H7xx_HAL_Driver/Src/stm32h7xx_hal_dma_ex.c ****     {
 886              		.loc 1 276 8 discriminator 18 view .LVU264
 887 0126 1832     		adds	r2, r2, #24
 888 0128 9342     		cmp	r3, r2
 889 012a 26D0     		beq	.L35
 276:../../Drivers/STM32H7xx_HAL_Driver/Src/stm32h7xx_hal_dma_ex.c ****     {
 890              		.loc 1 276 8 discriminator 20 view .LVU265
 891 012c 1832     		adds	r2, r2, #24
 892 012e 9342     		cmp	r3, r2
 893 0130 23D0     		beq	.L35
 276:../../Drivers/STM32H7xx_HAL_Driver/Src/stm32h7xx_hal_dma_ex.c ****     {
 894              		.loc 1 276 8 discriminator 22 view .LVU266
 895 0132 1832     		adds	r2, r2, #24
ARM GAS  /tmp/ccvjaD57.s 			page 33


 896 0134 9342     		cmp	r3, r2
 897 0136 20D0     		beq	.L35
 276:../../Drivers/STM32H7xx_HAL_Driver/Src/stm32h7xx_hal_dma_ex.c ****     {
 898              		.loc 1 276 8 discriminator 24 view .LVU267
 899 0138 1832     		adds	r2, r2, #24
 900 013a 9342     		cmp	r3, r2
 901 013c 1DD0     		beq	.L35
 276:../../Drivers/STM32H7xx_HAL_Driver/Src/stm32h7xx_hal_dma_ex.c ****     {
 902              		.loc 1 276 8 discriminator 26 view .LVU268
 903 013e 1832     		adds	r2, r2, #24
 904 0140 9342     		cmp	r3, r2
 905 0142 1AD0     		beq	.L35
 276:../../Drivers/STM32H7xx_HAL_Driver/Src/stm32h7xx_hal_dma_ex.c ****     {
 906              		.loc 1 276 8 discriminator 28 view .LVU269
 907 0144 1832     		adds	r2, r2, #24
 908 0146 9342     		cmp	r3, r2
 909 0148 17D0     		beq	.L35
 276:../../Drivers/STM32H7xx_HAL_Driver/Src/stm32h7xx_hal_dma_ex.c ****     {
 910              		.loc 1 276 8 discriminator 30 view .LVU270
 911 014a 334A     		ldr	r2, .L54+8
 912 014c 9342     		cmp	r3, r2
 913 014e 14D0     		beq	.L35
 276:../../Drivers/STM32H7xx_HAL_Driver/Src/stm32h7xx_hal_dma_ex.c ****     {
 914              		.loc 1 276 8 discriminator 32 view .LVU271
 915 0150 1432     		adds	r2, r2, #20
 916 0152 9342     		cmp	r3, r2
 917 0154 11D0     		beq	.L35
 276:../../Drivers/STM32H7xx_HAL_Driver/Src/stm32h7xx_hal_dma_ex.c ****     {
 918              		.loc 1 276 8 discriminator 34 view .LVU272
 919 0156 1432     		adds	r2, r2, #20
 920 0158 9342     		cmp	r3, r2
 921 015a 0ED0     		beq	.L35
 276:../../Drivers/STM32H7xx_HAL_Driver/Src/stm32h7xx_hal_dma_ex.c ****     {
 922              		.loc 1 276 8 discriminator 36 view .LVU273
 923 015c 1432     		adds	r2, r2, #20
 924 015e 9342     		cmp	r3, r2
 925 0160 0BD0     		beq	.L35
 276:../../Drivers/STM32H7xx_HAL_Driver/Src/stm32h7xx_hal_dma_ex.c ****     {
 926              		.loc 1 276 8 discriminator 38 view .LVU274
 927 0162 1432     		adds	r2, r2, #20
 928 0164 9342     		cmp	r3, r2
 929 0166 08D0     		beq	.L35
 276:../../Drivers/STM32H7xx_HAL_Driver/Src/stm32h7xx_hal_dma_ex.c ****     {
 930              		.loc 1 276 8 discriminator 40 view .LVU275
 931 0168 1432     		adds	r2, r2, #20
 932 016a 9342     		cmp	r3, r2
 933 016c 05D0     		beq	.L35
 276:../../Drivers/STM32H7xx_HAL_Driver/Src/stm32h7xx_hal_dma_ex.c ****     {
 934              		.loc 1 276 8 discriminator 42 view .LVU276
 935 016e 1432     		adds	r2, r2, #20
 936 0170 9342     		cmp	r3, r2
 937 0172 02D0     		beq	.L35
 276:../../Drivers/STM32H7xx_HAL_Driver/Src/stm32h7xx_hal_dma_ex.c ****     {
 938              		.loc 1 276 8 discriminator 44 view .LVU277
 939 0174 1432     		adds	r2, r2, #20
 940 0176 9342     		cmp	r3, r2
 941 0178 07D1     		bne	.L36
ARM GAS  /tmp/ccvjaD57.s 			page 34


 942              	.L35:
 279:../../Drivers/STM32H7xx_HAL_Driver/Src/stm32h7xx_hal_dma_ex.c **** 
 943              		.loc 1 279 7 is_stmt 1 view .LVU278
 279:../../Drivers/STM32H7xx_HAL_Driver/Src/stm32h7xx_hal_dma_ex.c **** 
 944              		.loc 1 279 11 is_stmt 0 view .LVU279
 945 017a 636E     		ldr	r3, [r4, #100]
 279:../../Drivers/STM32H7xx_HAL_Driver/Src/stm32h7xx_hal_dma_ex.c **** 
 946              		.loc 1 279 44 view .LVU280
 947 017c A26E     		ldr	r2, [r4, #104]
 279:../../Drivers/STM32H7xx_HAL_Driver/Src/stm32h7xx_hal_dma_ex.c **** 
 948              		.loc 1 279 38 view .LVU281
 949 017e 5A60     		str	r2, [r3, #4]
 281:../../Drivers/STM32H7xx_HAL_Driver/Src/stm32h7xx_hal_dma_ex.c ****       {
 950              		.loc 1 281 7 is_stmt 1 view .LVU282
 281:../../Drivers/STM32H7xx_HAL_Driver/Src/stm32h7xx_hal_dma_ex.c ****       {
 951              		.loc 1 281 14 is_stmt 0 view .LVU283
 952 0180 E36E     		ldr	r3, [r4, #108]
 281:../../Drivers/STM32H7xx_HAL_Driver/Src/stm32h7xx_hal_dma_ex.c ****       {
 953              		.loc 1 281 9 view .LVU284
 954 0182 13B1     		cbz	r3, .L36
 284:../../Drivers/STM32H7xx_HAL_Driver/Src/stm32h7xx_hal_dma_ex.c ****       }
 955              		.loc 1 284 9 is_stmt 1 view .LVU285
 284:../../Drivers/STM32H7xx_HAL_Driver/Src/stm32h7xx_hal_dma_ex.c ****       }
 956              		.loc 1 284 13 is_stmt 0 view .LVU286
 957 0184 236F     		ldr	r3, [r4, #112]
 284:../../Drivers/STM32H7xx_HAL_Driver/Src/stm32h7xx_hal_dma_ex.c ****       }
 958              		.loc 1 284 51 view .LVU287
 959 0186 626F     		ldr	r2, [r4, #116]
 284:../../Drivers/STM32H7xx_HAL_Driver/Src/stm32h7xx_hal_dma_ex.c ****       }
 960              		.loc 1 284 45 view .LVU288
 961 0188 5A60     		str	r2, [r3, #4]
 962              	.L36:
 288:../../Drivers/STM32H7xx_HAL_Driver/Src/stm32h7xx_hal_dma_ex.c ****     {
 963              		.loc 1 288 5 is_stmt 1 view .LVU289
 288:../../Drivers/STM32H7xx_HAL_Driver/Src/stm32h7xx_hal_dma_ex.c ****     {
 964              		.loc 1 288 8 is_stmt 0 view .LVU290
 965 018a 2368     		ldr	r3, [r4]
 966 018c 2049     		ldr	r1, .L54
 967 018e 214A     		ldr	r2, .L54+4
 968 0190 9342     		cmp	r3, r2
 969 0192 18BF     		it	ne
 970 0194 8B42     		cmpne	r3, r1
 971 0196 41D0     		beq	.L37
 288:../../Drivers/STM32H7xx_HAL_Driver/Src/stm32h7xx_hal_dma_ex.c ****     {
 972              		.loc 1 288 8 discriminator 2 view .LVU291
 973 0198 1832     		adds	r2, r2, #24
 974 019a 9342     		cmp	r3, r2
 975 019c 3ED0     		beq	.L37
 288:../../Drivers/STM32H7xx_HAL_Driver/Src/stm32h7xx_hal_dma_ex.c ****     {
 976              		.loc 1 288 8 discriminator 4 view .LVU292
 977 019e 1832     		adds	r2, r2, #24
 978 01a0 9342     		cmp	r3, r2
 979 01a2 3BD0     		beq	.L37
 288:../../Drivers/STM32H7xx_HAL_Driver/Src/stm32h7xx_hal_dma_ex.c ****     {
 980              		.loc 1 288 8 discriminator 6 view .LVU293
 981 01a4 1832     		adds	r2, r2, #24
 982 01a6 9342     		cmp	r3, r2
ARM GAS  /tmp/ccvjaD57.s 			page 35


 983 01a8 38D0     		beq	.L37
 288:../../Drivers/STM32H7xx_HAL_Driver/Src/stm32h7xx_hal_dma_ex.c ****     {
 984              		.loc 1 288 8 discriminator 8 view .LVU294
 985 01aa 1832     		adds	r2, r2, #24
 986 01ac 9342     		cmp	r3, r2
 987 01ae 35D0     		beq	.L37
 288:../../Drivers/STM32H7xx_HAL_Driver/Src/stm32h7xx_hal_dma_ex.c ****     {
 988              		.loc 1 288 8 discriminator 10 view .LVU295
 989 01b0 1832     		adds	r2, r2, #24
 990 01b2 9342     		cmp	r3, r2
 991 01b4 32D0     		beq	.L37
 288:../../Drivers/STM32H7xx_HAL_Driver/Src/stm32h7xx_hal_dma_ex.c ****     {
 992              		.loc 1 288 8 discriminator 12 view .LVU296
 993 01b6 1832     		adds	r2, r2, #24
 994 01b8 9342     		cmp	r3, r2
 995 01ba 2FD0     		beq	.L37
 288:../../Drivers/STM32H7xx_HAL_Driver/Src/stm32h7xx_hal_dma_ex.c ****     {
 996              		.loc 1 288 8 discriminator 14 view .LVU297
 997 01bc 02F55672 		add	r2, r2, #856
 998 01c0 9342     		cmp	r3, r2
 999 01c2 2BD0     		beq	.L37
 288:../../Drivers/STM32H7xx_HAL_Driver/Src/stm32h7xx_hal_dma_ex.c ****     {
 1000              		.loc 1 288 8 discriminator 16 view .LVU298
 1001 01c4 1832     		adds	r2, r2, #24
 1002 01c6 9342     		cmp	r3, r2
 1003 01c8 28D0     		beq	.L37
 288:../../Drivers/STM32H7xx_HAL_Driver/Src/stm32h7xx_hal_dma_ex.c ****     {
 1004              		.loc 1 288 8 discriminator 18 view .LVU299
 1005 01ca 1832     		adds	r2, r2, #24
 1006 01cc 9342     		cmp	r3, r2
 1007 01ce 25D0     		beq	.L37
 288:../../Drivers/STM32H7xx_HAL_Driver/Src/stm32h7xx_hal_dma_ex.c ****     {
 1008              		.loc 1 288 8 discriminator 20 view .LVU300
 1009 01d0 1832     		adds	r2, r2, #24
 1010 01d2 9342     		cmp	r3, r2
 1011 01d4 22D0     		beq	.L37
 288:../../Drivers/STM32H7xx_HAL_Driver/Src/stm32h7xx_hal_dma_ex.c ****     {
 1012              		.loc 1 288 8 discriminator 22 view .LVU301
 1013 01d6 1832     		adds	r2, r2, #24
 1014 01d8 9342     		cmp	r3, r2
 1015 01da 1FD0     		beq	.L37
 288:../../Drivers/STM32H7xx_HAL_Driver/Src/stm32h7xx_hal_dma_ex.c ****     {
 1016              		.loc 1 288 8 discriminator 24 view .LVU302
 1017 01dc 1832     		adds	r2, r2, #24
 1018 01de 9342     		cmp	r3, r2
 1019 01e0 1CD0     		beq	.L37
 288:../../Drivers/STM32H7xx_HAL_Driver/Src/stm32h7xx_hal_dma_ex.c ****     {
 1020              		.loc 1 288 8 discriminator 26 view .LVU303
 1021 01e2 1832     		adds	r2, r2, #24
 1022 01e4 9342     		cmp	r3, r2
 1023 01e6 19D0     		beq	.L37
 288:../../Drivers/STM32H7xx_HAL_Driver/Src/stm32h7xx_hal_dma_ex.c ****     {
 1024              		.loc 1 288 8 discriminator 28 view .LVU304
 1025 01e8 1832     		adds	r2, r2, #24
 1026 01ea 9342     		cmp	r3, r2
 1027 01ec 16D0     		beq	.L37
 303:../../Drivers/STM32H7xx_HAL_Driver/Src/stm32h7xx_hal_dma_ex.c **** 
ARM GAS  /tmp/ccvjaD57.s 			page 36


 1028              		.loc 1 303 7 is_stmt 1 view .LVU305
 1029 01ee 1A68     		ldr	r2, [r3]
 1030 01f0 22F00E02 		bic	r2, r2, #14
 1031 01f4 42F00A02 		orr	r2, r2, #10
 1032 01f8 1A60     		str	r2, [r3]
 305:../../Drivers/STM32H7xx_HAL_Driver/Src/stm32h7xx_hal_dma_ex.c ****       {
 1033              		.loc 1 305 7 view .LVU306
 305:../../Drivers/STM32H7xx_HAL_Driver/Src/stm32h7xx_hal_dma_ex.c ****       {
 1034              		.loc 1 305 15 is_stmt 0 view .LVU307
 1035 01fa 236C     		ldr	r3, [r4, #64]
 305:../../Drivers/STM32H7xx_HAL_Driver/Src/stm32h7xx_hal_dma_ex.c ****       {
 1036              		.loc 1 305 9 view .LVU308
 1037 01fc 002B     		cmp	r3, #0
 1038 01fe 00F0B780 		beq	.L52
 1039              	.L38:
 308:../../Drivers/STM32H7xx_HAL_Driver/Src/stm32h7xx_hal_dma_ex.c ****       }
 1040              		.loc 1 308 9 is_stmt 1 view .LVU309
 308:../../Drivers/STM32H7xx_HAL_Driver/Src/stm32h7xx_hal_dma_ex.c ****       }
 1041              		.loc 1 308 40 is_stmt 0 view .LVU310
 1042 0202 2268     		ldr	r2, [r4]
 308:../../Drivers/STM32H7xx_HAL_Driver/Src/stm32h7xx_hal_dma_ex.c ****       }
 1043              		.loc 1 308 58 view .LVU311
 1044 0204 1368     		ldr	r3, [r2]
 1045 0206 43F00403 		orr	r3, r3, #4
 1046 020a 1360     		str	r3, [r2]
 1047 020c 1AE0     		b	.L41
 1048              	.L55:
 1049 020e 00BF     		.align	2
 1050              	.L54:
 1051 0210 10000240 		.word	1073872912
 1052 0214 28000240 		.word	1073872936
 1053 0218 08540258 		.word	1476547592
 1054              	.L37:
 291:../../Drivers/STM32H7xx_HAL_Driver/Src/stm32h7xx_hal_dma_ex.c ****       ((DMA_Stream_TypeDef   *)hdma->Instance)->FCR |= DMA_IT_FE;
 1055              		.loc 1 291 7 is_stmt 1 view .LVU312
 1056 021c 1A68     		ldr	r2, [r3]
 1057 021e 22F01E02 		bic	r2, r2, #30
 1058 0222 42F01602 		orr	r2, r2, #22
 1059 0226 1A60     		str	r2, [r3]
 292:../../Drivers/STM32H7xx_HAL_Driver/Src/stm32h7xx_hal_dma_ex.c **** 
 1060              		.loc 1 292 7 view .LVU313
 292:../../Drivers/STM32H7xx_HAL_Driver/Src/stm32h7xx_hal_dma_ex.c **** 
 1061              		.loc 1 292 36 is_stmt 0 view .LVU314
 1062 0228 2268     		ldr	r2, [r4]
 292:../../Drivers/STM32H7xx_HAL_Driver/Src/stm32h7xx_hal_dma_ex.c **** 
 1063              		.loc 1 292 53 view .LVU315
 1064 022a 5369     		ldr	r3, [r2, #20]
 1065 022c 43F08003 		orr	r3, r3, #128
 1066 0230 5361     		str	r3, [r2, #20]
 294:../../Drivers/STM32H7xx_HAL_Driver/Src/stm32h7xx_hal_dma_ex.c ****       {
 1067              		.loc 1 294 7 is_stmt 1 view .LVU316
 294:../../Drivers/STM32H7xx_HAL_Driver/Src/stm32h7xx_hal_dma_ex.c ****       {
 1068              		.loc 1 294 15 is_stmt 0 view .LVU317
 1069 0232 236C     		ldr	r3, [r4, #64]
 294:../../Drivers/STM32H7xx_HAL_Driver/Src/stm32h7xx_hal_dma_ex.c ****       {
 1070              		.loc 1 294 9 view .LVU318
 1071 0234 002B     		cmp	r3, #0
ARM GAS  /tmp/ccvjaD57.s 			page 37


 1072 0236 00F09680 		beq	.L53
 1073              	.L40:
 297:../../Drivers/STM32H7xx_HAL_Driver/Src/stm32h7xx_hal_dma_ex.c ****       }
 1074              		.loc 1 297 9 is_stmt 1 view .LVU319
 297:../../Drivers/STM32H7xx_HAL_Driver/Src/stm32h7xx_hal_dma_ex.c ****       }
 1075              		.loc 1 297 38 is_stmt 0 view .LVU320
 1076 023a 2268     		ldr	r2, [r4]
 297:../../Drivers/STM32H7xx_HAL_Driver/Src/stm32h7xx_hal_dma_ex.c ****       }
 1077              		.loc 1 297 55 view .LVU321
 1078 023c 1368     		ldr	r3, [r2]
 1079 023e 43F00803 		orr	r3, r3, #8
 1080 0242 1360     		str	r3, [r2]
 1081              	.L41:
 312:../../Drivers/STM32H7xx_HAL_Driver/Src/stm32h7xx_hal_dma_ex.c ****     {
 1082              		.loc 1 312 5 is_stmt 1 view .LVU322
 312:../../Drivers/STM32H7xx_HAL_Driver/Src/stm32h7xx_hal_dma_ex.c ****     {
 1083              		.loc 1 312 8 is_stmt 0 view .LVU323
 1084 0244 2368     		ldr	r3, [r4]
 1085 0246 5149     		ldr	r1, .L56
 1086 0248 514A     		ldr	r2, .L56+4
 1087 024a 9342     		cmp	r3, r2
 1088 024c 18BF     		it	ne
 1089 024e 8B42     		cmpne	r3, r1
 1090 0250 42D0     		beq	.L42
 312:../../Drivers/STM32H7xx_HAL_Driver/Src/stm32h7xx_hal_dma_ex.c ****     {
 1091              		.loc 1 312 8 discriminator 2 view .LVU324
 1092 0252 1832     		adds	r2, r2, #24
 1093 0254 9342     		cmp	r3, r2
 1094 0256 3FD0     		beq	.L42
 312:../../Drivers/STM32H7xx_HAL_Driver/Src/stm32h7xx_hal_dma_ex.c ****     {
 1095              		.loc 1 312 8 discriminator 4 view .LVU325
 1096 0258 1832     		adds	r2, r2, #24
 1097 025a 9342     		cmp	r3, r2
 1098 025c 3CD0     		beq	.L42
 312:../../Drivers/STM32H7xx_HAL_Driver/Src/stm32h7xx_hal_dma_ex.c ****     {
 1099              		.loc 1 312 8 discriminator 6 view .LVU326
 1100 025e 1832     		adds	r2, r2, #24
 1101 0260 9342     		cmp	r3, r2
 1102 0262 39D0     		beq	.L42
 312:../../Drivers/STM32H7xx_HAL_Driver/Src/stm32h7xx_hal_dma_ex.c ****     {
 1103              		.loc 1 312 8 discriminator 8 view .LVU327
 1104 0264 1832     		adds	r2, r2, #24
 1105 0266 9342     		cmp	r3, r2
 1106 0268 36D0     		beq	.L42
 312:../../Drivers/STM32H7xx_HAL_Driver/Src/stm32h7xx_hal_dma_ex.c ****     {
 1107              		.loc 1 312 8 discriminator 10 view .LVU328
 1108 026a 1832     		adds	r2, r2, #24
 1109 026c 9342     		cmp	r3, r2
 1110 026e 33D0     		beq	.L42
 312:../../Drivers/STM32H7xx_HAL_Driver/Src/stm32h7xx_hal_dma_ex.c ****     {
 1111              		.loc 1 312 8 discriminator 12 view .LVU329
 1112 0270 1832     		adds	r2, r2, #24
 1113 0272 9342     		cmp	r3, r2
 1114 0274 30D0     		beq	.L42
 312:../../Drivers/STM32H7xx_HAL_Driver/Src/stm32h7xx_hal_dma_ex.c ****     {
 1115              		.loc 1 312 8 discriminator 14 view .LVU330
 1116 0276 02F55672 		add	r2, r2, #856
ARM GAS  /tmp/ccvjaD57.s 			page 38


 1117 027a 9342     		cmp	r3, r2
 1118 027c 2CD0     		beq	.L42
 312:../../Drivers/STM32H7xx_HAL_Driver/Src/stm32h7xx_hal_dma_ex.c ****     {
 1119              		.loc 1 312 8 discriminator 16 view .LVU331
 1120 027e 1832     		adds	r2, r2, #24
 1121 0280 9342     		cmp	r3, r2
 1122 0282 29D0     		beq	.L42
 312:../../Drivers/STM32H7xx_HAL_Driver/Src/stm32h7xx_hal_dma_ex.c ****     {
 1123              		.loc 1 312 8 discriminator 18 view .LVU332
 1124 0284 1832     		adds	r2, r2, #24
 1125 0286 9342     		cmp	r3, r2
 1126 0288 26D0     		beq	.L42
 312:../../Drivers/STM32H7xx_HAL_Driver/Src/stm32h7xx_hal_dma_ex.c ****     {
 1127              		.loc 1 312 8 discriminator 20 view .LVU333
 1128 028a 1832     		adds	r2, r2, #24
 1129 028c 9342     		cmp	r3, r2
 1130 028e 23D0     		beq	.L42
 312:../../Drivers/STM32H7xx_HAL_Driver/Src/stm32h7xx_hal_dma_ex.c ****     {
 1131              		.loc 1 312 8 discriminator 22 view .LVU334
 1132 0290 1832     		adds	r2, r2, #24
 1133 0292 9342     		cmp	r3, r2
 1134 0294 20D0     		beq	.L42
 312:../../Drivers/STM32H7xx_HAL_Driver/Src/stm32h7xx_hal_dma_ex.c ****     {
 1135              		.loc 1 312 8 discriminator 24 view .LVU335
 1136 0296 1832     		adds	r2, r2, #24
 1137 0298 9342     		cmp	r3, r2
 1138 029a 1DD0     		beq	.L42
 312:../../Drivers/STM32H7xx_HAL_Driver/Src/stm32h7xx_hal_dma_ex.c ****     {
 1139              		.loc 1 312 8 discriminator 26 view .LVU336
 1140 029c 1832     		adds	r2, r2, #24
 1141 029e 9342     		cmp	r3, r2
 1142 02a0 1AD0     		beq	.L42
 312:../../Drivers/STM32H7xx_HAL_Driver/Src/stm32h7xx_hal_dma_ex.c ****     {
 1143              		.loc 1 312 8 discriminator 28 view .LVU337
 1144 02a2 1832     		adds	r2, r2, #24
 1145 02a4 9342     		cmp	r3, r2
 1146 02a6 17D0     		beq	.L42
 312:../../Drivers/STM32H7xx_HAL_Driver/Src/stm32h7xx_hal_dma_ex.c ****     {
 1147              		.loc 1 312 8 discriminator 30 view .LVU338
 1148 02a8 3A4A     		ldr	r2, .L56+8
 1149 02aa 9342     		cmp	r3, r2
 1150 02ac 14D0     		beq	.L42
 312:../../Drivers/STM32H7xx_HAL_Driver/Src/stm32h7xx_hal_dma_ex.c ****     {
 1151              		.loc 1 312 8 discriminator 32 view .LVU339
 1152 02ae 1432     		adds	r2, r2, #20
 1153 02b0 9342     		cmp	r3, r2
 1154 02b2 11D0     		beq	.L42
 312:../../Drivers/STM32H7xx_HAL_Driver/Src/stm32h7xx_hal_dma_ex.c ****     {
 1155              		.loc 1 312 8 discriminator 34 view .LVU340
 1156 02b4 1432     		adds	r2, r2, #20
 1157 02b6 9342     		cmp	r3, r2
 1158 02b8 0ED0     		beq	.L42
 312:../../Drivers/STM32H7xx_HAL_Driver/Src/stm32h7xx_hal_dma_ex.c ****     {
 1159              		.loc 1 312 8 discriminator 36 view .LVU341
 1160 02ba 1432     		adds	r2, r2, #20
 1161 02bc 9342     		cmp	r3, r2
 1162 02be 0BD0     		beq	.L42
ARM GAS  /tmp/ccvjaD57.s 			page 39


 312:../../Drivers/STM32H7xx_HAL_Driver/Src/stm32h7xx_hal_dma_ex.c ****     {
 1163              		.loc 1 312 8 discriminator 38 view .LVU342
 1164 02c0 1432     		adds	r2, r2, #20
 1165 02c2 9342     		cmp	r3, r2
 1166 02c4 08D0     		beq	.L42
 312:../../Drivers/STM32H7xx_HAL_Driver/Src/stm32h7xx_hal_dma_ex.c ****     {
 1167              		.loc 1 312 8 discriminator 40 view .LVU343
 1168 02c6 1432     		adds	r2, r2, #20
 1169 02c8 9342     		cmp	r3, r2
 1170 02ca 05D0     		beq	.L42
 312:../../Drivers/STM32H7xx_HAL_Driver/Src/stm32h7xx_hal_dma_ex.c ****     {
 1171              		.loc 1 312 8 discriminator 42 view .LVU344
 1172 02cc 1432     		adds	r2, r2, #20
 1173 02ce 9342     		cmp	r3, r2
 1174 02d0 02D0     		beq	.L42
 312:../../Drivers/STM32H7xx_HAL_Driver/Src/stm32h7xx_hal_dma_ex.c ****     {
 1175              		.loc 1 312 8 discriminator 44 view .LVU345
 1176 02d2 1432     		adds	r2, r2, #20
 1177 02d4 9342     		cmp	r3, r2
 1178 02d6 0ED1     		bne	.L43
 1179              	.L42:
 315:../../Drivers/STM32H7xx_HAL_Driver/Src/stm32h7xx_hal_dma_ex.c ****       {
 1180              		.loc 1 315 7 is_stmt 1 view .LVU346
 315:../../Drivers/STM32H7xx_HAL_Driver/Src/stm32h7xx_hal_dma_ex.c ****       {
 1181              		.loc 1 315 15 is_stmt 0 view .LVU347
 1182 02d8 236E     		ldr	r3, [r4, #96]
 315:../../Drivers/STM32H7xx_HAL_Driver/Src/stm32h7xx_hal_dma_ex.c ****       {
 1183              		.loc 1 315 30 view .LVU348
 1184 02da 1A68     		ldr	r2, [r3]
 315:../../Drivers/STM32H7xx_HAL_Driver/Src/stm32h7xx_hal_dma_ex.c ****       {
 1185              		.loc 1 315 9 view .LVU349
 1186 02dc 12F4803F 		tst	r2, #65536
 1187 02e0 03D0     		beq	.L44
 318:../../Drivers/STM32H7xx_HAL_Driver/Src/stm32h7xx_hal_dma_ex.c ****       }
 1188              		.loc 1 318 9 is_stmt 1 view .LVU350
 318:../../Drivers/STM32H7xx_HAL_Driver/Src/stm32h7xx_hal_dma_ex.c ****       }
 1189              		.loc 1 318 34 is_stmt 0 view .LVU351
 1190 02e2 1A68     		ldr	r2, [r3]
 1191 02e4 42F48072 		orr	r2, r2, #256
 1192 02e8 1A60     		str	r2, [r3]
 1193              	.L44:
 321:../../Drivers/STM32H7xx_HAL_Driver/Src/stm32h7xx_hal_dma_ex.c ****       {
 1194              		.loc 1 321 7 is_stmt 1 view .LVU352
 321:../../Drivers/STM32H7xx_HAL_Driver/Src/stm32h7xx_hal_dma_ex.c ****       {
 1195              		.loc 1 321 14 is_stmt 0 view .LVU353
 1196 02ea E36E     		ldr	r3, [r4, #108]
 321:../../Drivers/STM32H7xx_HAL_Driver/Src/stm32h7xx_hal_dma_ex.c ****       {
 1197              		.loc 1 321 9 view .LVU354
 1198 02ec 1BB1     		cbz	r3, .L43
 325:../../Drivers/STM32H7xx_HAL_Driver/Src/stm32h7xx_hal_dma_ex.c ****       }
 1199              		.loc 1 325 9 is_stmt 1 view .LVU355
 325:../../Drivers/STM32H7xx_HAL_Driver/Src/stm32h7xx_hal_dma_ex.c ****       }
 1200              		.loc 1 325 38 is_stmt 0 view .LVU356
 1201 02ee 1A68     		ldr	r2, [r3]
 1202 02f0 42F48072 		orr	r2, r2, #256
 1203 02f4 1A60     		str	r2, [r3]
 1204              	.L43:
ARM GAS  /tmp/ccvjaD57.s 			page 40


 330:../../Drivers/STM32H7xx_HAL_Driver/Src/stm32h7xx_hal_dma_ex.c ****   }
 1205              		.loc 1 330 5 is_stmt 1 view .LVU357
 1206 02f6 2368     		ldr	r3, [r4]
 1207 02f8 2449     		ldr	r1, .L56
 1208 02fa 254A     		ldr	r2, .L56+4
 1209 02fc 9342     		cmp	r3, r2
 1210 02fe 18BF     		it	ne
 1211 0300 8B42     		cmpne	r3, r1
 1212 0302 3AD0     		beq	.L45
 330:../../Drivers/STM32H7xx_HAL_Driver/Src/stm32h7xx_hal_dma_ex.c ****   }
 1213              		.loc 1 330 5 is_stmt 0 discriminator 2 view .LVU358
 1214 0304 1832     		adds	r2, r2, #24
 1215 0306 9342     		cmp	r3, r2
 1216 0308 37D0     		beq	.L45
 330:../../Drivers/STM32H7xx_HAL_Driver/Src/stm32h7xx_hal_dma_ex.c ****   }
 1217              		.loc 1 330 5 discriminator 4 view .LVU359
 1218 030a 1832     		adds	r2, r2, #24
 1219 030c 9342     		cmp	r3, r2
 1220 030e 34D0     		beq	.L45
 330:../../Drivers/STM32H7xx_HAL_Driver/Src/stm32h7xx_hal_dma_ex.c ****   }
 1221              		.loc 1 330 5 discriminator 6 view .LVU360
 1222 0310 1832     		adds	r2, r2, #24
 1223 0312 9342     		cmp	r3, r2
 1224 0314 31D0     		beq	.L45
 330:../../Drivers/STM32H7xx_HAL_Driver/Src/stm32h7xx_hal_dma_ex.c ****   }
 1225              		.loc 1 330 5 discriminator 8 view .LVU361
 1226 0316 1832     		adds	r2, r2, #24
 1227 0318 9342     		cmp	r3, r2
 1228 031a 2ED0     		beq	.L45
 330:../../Drivers/STM32H7xx_HAL_Driver/Src/stm32h7xx_hal_dma_ex.c ****   }
 1229              		.loc 1 330 5 discriminator 10 view .LVU362
 1230 031c 1832     		adds	r2, r2, #24
 1231 031e 9342     		cmp	r3, r2
 1232 0320 2BD0     		beq	.L45
 330:../../Drivers/STM32H7xx_HAL_Driver/Src/stm32h7xx_hal_dma_ex.c ****   }
 1233              		.loc 1 330 5 discriminator 12 view .LVU363
 1234 0322 1832     		adds	r2, r2, #24
 1235 0324 9342     		cmp	r3, r2
 1236 0326 28D0     		beq	.L45
 330:../../Drivers/STM32H7xx_HAL_Driver/Src/stm32h7xx_hal_dma_ex.c ****   }
 1237              		.loc 1 330 5 discriminator 14 view .LVU364
 1238 0328 02F55672 		add	r2, r2, #856
 1239 032c 9342     		cmp	r3, r2
 1240 032e 24D0     		beq	.L45
 330:../../Drivers/STM32H7xx_HAL_Driver/Src/stm32h7xx_hal_dma_ex.c ****   }
 1241              		.loc 1 330 5 discriminator 16 view .LVU365
 1242 0330 1832     		adds	r2, r2, #24
 1243 0332 9342     		cmp	r3, r2
 1244 0334 21D0     		beq	.L45
 330:../../Drivers/STM32H7xx_HAL_Driver/Src/stm32h7xx_hal_dma_ex.c ****   }
 1245              		.loc 1 330 5 discriminator 18 view .LVU366
 1246 0336 1832     		adds	r2, r2, #24
 1247 0338 9342     		cmp	r3, r2
 1248 033a 1ED0     		beq	.L45
 330:../../Drivers/STM32H7xx_HAL_Driver/Src/stm32h7xx_hal_dma_ex.c ****   }
 1249              		.loc 1 330 5 discriminator 20 view .LVU367
 1250 033c 1832     		adds	r2, r2, #24
ARM GAS  /tmp/ccvjaD57.s 			page 41


 1251 033e 9342     		cmp	r3, r2
 1252 0340 1BD0     		beq	.L45
 330:../../Drivers/STM32H7xx_HAL_Driver/Src/stm32h7xx_hal_dma_ex.c ****   }
 1253              		.loc 1 330 5 discriminator 22 view .LVU368
 1254 0342 1832     		adds	r2, r2, #24
 1255 0344 9342     		cmp	r3, r2
 1256 0346 18D0     		beq	.L45
 330:../../Drivers/STM32H7xx_HAL_Driver/Src/stm32h7xx_hal_dma_ex.c ****   }
 1257              		.loc 1 330 5 discriminator 24 view .LVU369
 1258 0348 1832     		adds	r2, r2, #24
 1259 034a 9342     		cmp	r3, r2
 1260 034c 15D0     		beq	.L45
 330:../../Drivers/STM32H7xx_HAL_Driver/Src/stm32h7xx_hal_dma_ex.c ****   }
 1261              		.loc 1 330 5 discriminator 26 view .LVU370
 1262 034e 1832     		adds	r2, r2, #24
 1263 0350 9342     		cmp	r3, r2
 1264 0352 12D0     		beq	.L45
 330:../../Drivers/STM32H7xx_HAL_Driver/Src/stm32h7xx_hal_dma_ex.c ****   }
 1265              		.loc 1 330 5 discriminator 28 view .LVU371
 1266 0354 1832     		adds	r2, r2, #24
 1267 0356 9342     		cmp	r3, r2
 1268 0358 0FD0     		beq	.L45
 330:../../Drivers/STM32H7xx_HAL_Driver/Src/stm32h7xx_hal_dma_ex.c ****   }
 1269              		.loc 1 330 5 discriminator 30 view .LVU372
 1270 035a 1A68     		ldr	r2, [r3]
 1271 035c 42F00102 		orr	r2, r2, #1
 1272 0360 1A60     		str	r2, [r3]
 219:../../Drivers/STM32H7xx_HAL_Driver/Src/stm32h7xx_hal_dma_ex.c ****   __IO uint32_t *ifcRegister_Base; /* DMA Stream Interrupt Clear register */
 1273              		.loc 1 219 21 discriminator 30 view .LVU373
 1274 0362 0020     		movs	r0, #0
 1275 0364 62E6     		b	.L31
 1276              	.L53:
 294:../../Drivers/STM32H7xx_HAL_Driver/Src/stm32h7xx_hal_dma_ex.c ****       {
 1277              		.loc 1 294 55 discriminator 1 view .LVU374
 1278 0366 A36C     		ldr	r3, [r4, #72]
 294:../../Drivers/STM32H7xx_HAL_Driver/Src/stm32h7xx_hal_dma_ex.c ****       {
 1279              		.loc 1 294 47 discriminator 1 view .LVU375
 1280 0368 002B     		cmp	r3, #0
 1281 036a 7FF466AF 		bne	.L40
 1282 036e 69E7     		b	.L41
 1283              	.L52:
 305:../../Drivers/STM32H7xx_HAL_Driver/Src/stm32h7xx_hal_dma_ex.c ****       {
 1284              		.loc 1 305 55 discriminator 1 view .LVU376
 1285 0370 A36C     		ldr	r3, [r4, #72]
 305:../../Drivers/STM32H7xx_HAL_Driver/Src/stm32h7xx_hal_dma_ex.c ****       {
 1286              		.loc 1 305 47 discriminator 1 view .LVU377
 1287 0372 002B     		cmp	r3, #0
 1288 0374 7FF445AF 		bne	.L38
 1289 0378 64E7     		b	.L41
 1290              	.L45:
 330:../../Drivers/STM32H7xx_HAL_Driver/Src/stm32h7xx_hal_dma_ex.c ****   }
 1291              		.loc 1 330 5 discriminator 29 view .LVU378
 1292 037a 1A68     		ldr	r2, [r3]
 1293 037c 42F00102 		orr	r2, r2, #1
 1294 0380 1A60     		str	r2, [r3]
 219:../../Drivers/STM32H7xx_HAL_Driver/Src/stm32h7xx_hal_dma_ex.c ****   __IO uint32_t *ifcRegister_Base; /* DMA Stream Interrupt Clear register */
 1295              		.loc 1 219 21 discriminator 29 view .LVU379
ARM GAS  /tmp/ccvjaD57.s 			page 42


 1296 0382 0020     		movs	r0, #0
 330:../../Drivers/STM32H7xx_HAL_Driver/Src/stm32h7xx_hal_dma_ex.c ****   }
 1297              		.loc 1 330 5 discriminator 29 view .LVU380
 1298 0384 52E6     		b	.L31
 1299              	.LVL48:
 1300              	.L47:
 234:../../Drivers/STM32H7xx_HAL_Driver/Src/stm32h7xx_hal_dma_ex.c **** 
 1301              		.loc 1 234 3 view .LVU381
 1302 0386 0220     		movs	r0, #2
 1303 0388 50E6     		b	.L31
 1304              	.L57:
 1305 038a 00BF     		.align	2
 1306              	.L56:
 1307 038c 10000240 		.word	1073872912
 1308 0390 28000240 		.word	1073872936
 1309 0394 08540258 		.word	1476547592
 1310              		.cfi_endproc
 1311              	.LFE133:
 1313              		.section	.text.HAL_DMAEx_ChangeMemory,"ax",%progbits
 1314              		.align	1
 1315              		.global	HAL_DMAEx_ChangeMemory
 1316              		.syntax unified
 1317              		.thumb
 1318              		.thumb_func
 1319              		.fpu fpv4-sp-d16
 1321              	HAL_DMAEx_ChangeMemory:
 1322              	.LVL49:
 1323              	.LFB134:
 358:../../Drivers/STM32H7xx_HAL_Driver/Src/stm32h7xx_hal_dma_ex.c ****   if(IS_DMA_STREAM_INSTANCE(hdma->Instance) != 0U) /* DMA1 or DMA2 instance */
 1324              		.loc 1 358 1 is_stmt 1 view -0
 1325              		.cfi_startproc
 1326              		@ args = 0, pretend = 0, frame = 0
 1327              		@ frame_needed = 0, uses_anonymous_args = 0
 1328              		@ link register save eliminated.
 358:../../Drivers/STM32H7xx_HAL_Driver/Src/stm32h7xx_hal_dma_ex.c ****   if(IS_DMA_STREAM_INSTANCE(hdma->Instance) != 0U) /* DMA1 or DMA2 instance */
 1329              		.loc 1 358 1 is_stmt 0 view .LVU383
 1330 0000 10B4     		push	{r4}
 1331              	.LCFI5:
 1332              		.cfi_def_cfa_offset 4
 1333              		.cfi_offset 4, -4
 359:../../Drivers/STM32H7xx_HAL_Driver/Src/stm32h7xx_hal_dma_ex.c ****   {
 1334              		.loc 1 359 3 is_stmt 1 view .LVU384
 359:../../Drivers/STM32H7xx_HAL_Driver/Src/stm32h7xx_hal_dma_ex.c ****   {
 1335              		.loc 1 359 6 is_stmt 0 view .LVU385
 1336 0002 0368     		ldr	r3, [r0]
 1337 0004 1E4C     		ldr	r4, .L66
 1338 0006 1F48     		ldr	r0, .L66+4
 1339              	.LVL50:
 359:../../Drivers/STM32H7xx_HAL_Driver/Src/stm32h7xx_hal_dma_ex.c ****   {
 1340              		.loc 1 359 6 view .LVU386
 1341 0008 8342     		cmp	r3, r0
 1342 000a 18BF     		it	ne
 1343 000c A342     		cmpne	r3, r4
 1344 000e 2DD0     		beq	.L59
 359:../../Drivers/STM32H7xx_HAL_Driver/Src/stm32h7xx_hal_dma_ex.c ****   {
 1345              		.loc 1 359 6 discriminator 2 view .LVU387
 1346 0010 1830     		adds	r0, r0, #24
ARM GAS  /tmp/ccvjaD57.s 			page 43


 1347 0012 8342     		cmp	r3, r0
 1348 0014 2AD0     		beq	.L59
 359:../../Drivers/STM32H7xx_HAL_Driver/Src/stm32h7xx_hal_dma_ex.c ****   {
 1349              		.loc 1 359 6 discriminator 4 view .LVU388
 1350 0016 1830     		adds	r0, r0, #24
 1351 0018 8342     		cmp	r3, r0
 1352 001a 27D0     		beq	.L59
 359:../../Drivers/STM32H7xx_HAL_Driver/Src/stm32h7xx_hal_dma_ex.c ****   {
 1353              		.loc 1 359 6 discriminator 6 view .LVU389
 1354 001c 1830     		adds	r0, r0, #24
 1355 001e 8342     		cmp	r3, r0
 1356 0020 24D0     		beq	.L59
 359:../../Drivers/STM32H7xx_HAL_Driver/Src/stm32h7xx_hal_dma_ex.c ****   {
 1357              		.loc 1 359 6 discriminator 8 view .LVU390
 1358 0022 1830     		adds	r0, r0, #24
 1359 0024 8342     		cmp	r3, r0
 1360 0026 21D0     		beq	.L59
 359:../../Drivers/STM32H7xx_HAL_Driver/Src/stm32h7xx_hal_dma_ex.c ****   {
 1361              		.loc 1 359 6 discriminator 10 view .LVU391
 1362 0028 1830     		adds	r0, r0, #24
 1363 002a 8342     		cmp	r3, r0
 1364 002c 1ED0     		beq	.L59
 359:../../Drivers/STM32H7xx_HAL_Driver/Src/stm32h7xx_hal_dma_ex.c ****   {
 1365              		.loc 1 359 6 discriminator 12 view .LVU392
 1366 002e 1830     		adds	r0, r0, #24
 1367 0030 8342     		cmp	r3, r0
 1368 0032 1BD0     		beq	.L59
 359:../../Drivers/STM32H7xx_HAL_Driver/Src/stm32h7xx_hal_dma_ex.c ****   {
 1369              		.loc 1 359 6 discriminator 14 view .LVU393
 1370 0034 00F55670 		add	r0, r0, #856
 1371 0038 8342     		cmp	r3, r0
 1372 003a 17D0     		beq	.L59
 359:../../Drivers/STM32H7xx_HAL_Driver/Src/stm32h7xx_hal_dma_ex.c ****   {
 1373              		.loc 1 359 6 discriminator 16 view .LVU394
 1374 003c 1830     		adds	r0, r0, #24
 1375 003e 8342     		cmp	r3, r0
 1376 0040 14D0     		beq	.L59
 359:../../Drivers/STM32H7xx_HAL_Driver/Src/stm32h7xx_hal_dma_ex.c ****   {
 1377              		.loc 1 359 6 discriminator 18 view .LVU395
 1378 0042 1830     		adds	r0, r0, #24
 1379 0044 8342     		cmp	r3, r0
 1380 0046 11D0     		beq	.L59
 359:../../Drivers/STM32H7xx_HAL_Driver/Src/stm32h7xx_hal_dma_ex.c ****   {
 1381              		.loc 1 359 6 discriminator 20 view .LVU396
 1382 0048 1830     		adds	r0, r0, #24
 1383 004a 8342     		cmp	r3, r0
 1384 004c 0ED0     		beq	.L59
 359:../../Drivers/STM32H7xx_HAL_Driver/Src/stm32h7xx_hal_dma_ex.c ****   {
 1385              		.loc 1 359 6 discriminator 22 view .LVU397
 1386 004e 1830     		adds	r0, r0, #24
 1387 0050 8342     		cmp	r3, r0
 1388 0052 0BD0     		beq	.L59
 359:../../Drivers/STM32H7xx_HAL_Driver/Src/stm32h7xx_hal_dma_ex.c ****   {
 1389              		.loc 1 359 6 discriminator 24 view .LVU398
 1390 0054 1830     		adds	r0, r0, #24
 1391 0056 8342     		cmp	r3, r0
 1392 0058 08D0     		beq	.L59
ARM GAS  /tmp/ccvjaD57.s 			page 44


 359:../../Drivers/STM32H7xx_HAL_Driver/Src/stm32h7xx_hal_dma_ex.c ****   {
 1393              		.loc 1 359 6 discriminator 26 view .LVU399
 1394 005a 1830     		adds	r0, r0, #24
 1395 005c 8342     		cmp	r3, r0
 1396 005e 05D0     		beq	.L59
 359:../../Drivers/STM32H7xx_HAL_Driver/Src/stm32h7xx_hal_dma_ex.c ****   {
 1397              		.loc 1 359 6 discriminator 28 view .LVU400
 1398 0060 1830     		adds	r0, r0, #24
 1399 0062 8342     		cmp	r3, r0
 1400 0064 02D0     		beq	.L59
 374:../../Drivers/STM32H7xx_HAL_Driver/Src/stm32h7xx_hal_dma_ex.c ****     {
 1401              		.loc 1 374 5 is_stmt 1 view .LVU401
 374:../../Drivers/STM32H7xx_HAL_Driver/Src/stm32h7xx_hal_dma_ex.c ****     {
 1402              		.loc 1 374 7 is_stmt 0 view .LVU402
 1403 0066 4AB1     		cbz	r2, .L60
 382:../../Drivers/STM32H7xx_HAL_Driver/Src/stm32h7xx_hal_dma_ex.c ****     }
 1404              		.loc 1 382 7 is_stmt 1 view .LVU403
 382:../../Drivers/STM32H7xx_HAL_Driver/Src/stm32h7xx_hal_dma_ex.c ****     }
 1405              		.loc 1 382 57 is_stmt 0 view .LVU404
 1406 0068 1961     		str	r1, [r3, #16]
 1407 006a 01E0     		b	.L63
 1408              	.L59:
 361:../../Drivers/STM32H7xx_HAL_Driver/Src/stm32h7xx_hal_dma_ex.c ****     {
 1409              		.loc 1 361 5 is_stmt 1 view .LVU405
 361:../../Drivers/STM32H7xx_HAL_Driver/Src/stm32h7xx_hal_dma_ex.c ****     {
 1410              		.loc 1 361 7 is_stmt 0 view .LVU406
 1411 006c 22B9     		cbnz	r2, .L62
 364:../../Drivers/STM32H7xx_HAL_Driver/Src/stm32h7xx_hal_dma_ex.c ****     }
 1412              		.loc 1 364 7 is_stmt 1 view .LVU407
 364:../../Drivers/STM32H7xx_HAL_Driver/Src/stm32h7xx_hal_dma_ex.c ****     }
 1413              		.loc 1 364 54 is_stmt 0 view .LVU408
 1414 006e D960     		str	r1, [r3, #12]
 1415              	.L63:
 386:../../Drivers/STM32H7xx_HAL_Driver/Src/stm32h7xx_hal_dma_ex.c **** }
 1416              		.loc 1 386 3 is_stmt 1 view .LVU409
 387:../../Drivers/STM32H7xx_HAL_Driver/Src/stm32h7xx_hal_dma_ex.c **** 
 1417              		.loc 1 387 1 is_stmt 0 view .LVU410
 1418 0070 0020     		movs	r0, #0
 1419 0072 5DF8044B 		ldr	r4, [sp], #4
 1420              	.LCFI6:
 1421              		.cfi_remember_state
 1422              		.cfi_restore 4
 1423              		.cfi_def_cfa_offset 0
 1424 0076 7047     		bx	lr
 1425              	.L62:
 1426              	.LCFI7:
 1427              		.cfi_restore_state
 369:../../Drivers/STM32H7xx_HAL_Driver/Src/stm32h7xx_hal_dma_ex.c ****     }
 1428              		.loc 1 369 7 is_stmt 1 view .LVU411
 369:../../Drivers/STM32H7xx_HAL_Driver/Src/stm32h7xx_hal_dma_ex.c ****     }
 1429              		.loc 1 369 54 is_stmt 0 view .LVU412
 1430 0078 1961     		str	r1, [r3, #16]
 1431 007a F9E7     		b	.L63
 1432              	.L60:
 377:../../Drivers/STM32H7xx_HAL_Driver/Src/stm32h7xx_hal_dma_ex.c ****     }
 1433              		.loc 1 377 7 is_stmt 1 view .LVU413
 377:../../Drivers/STM32H7xx_HAL_Driver/Src/stm32h7xx_hal_dma_ex.c ****     }
ARM GAS  /tmp/ccvjaD57.s 			page 45


 1434              		.loc 1 377 57 is_stmt 0 view .LVU414
 1435 007c D960     		str	r1, [r3, #12]
 1436 007e F7E7     		b	.L63
 1437              	.L67:
 1438              		.align	2
 1439              	.L66:
 1440 0080 10000240 		.word	1073872912
 1441 0084 28000240 		.word	1073872936
 1442              		.cfi_endproc
 1443              	.LFE134:
 1445              		.section	.text.HAL_DMAEx_ConfigMuxSync,"ax",%progbits
 1446              		.align	1
 1447              		.global	HAL_DMAEx_ConfigMuxSync
 1448              		.syntax unified
 1449              		.thumb
 1450              		.thumb_func
 1451              		.fpu fpv4-sp-d16
 1453              	HAL_DMAEx_ConfigMuxSync:
 1454              	.LVL51:
 1455              	.LFB135:
 397:../../Drivers/STM32H7xx_HAL_Driver/Src/stm32h7xx_hal_dma_ex.c ****   uint32_t syncSignalID = 0;
 1456              		.loc 1 397 1 is_stmt 1 view -0
 1457              		.cfi_startproc
 1458              		@ args = 0, pretend = 0, frame = 0
 1459              		@ frame_needed = 0, uses_anonymous_args = 0
 1460              		@ link register save eliminated.
 397:../../Drivers/STM32H7xx_HAL_Driver/Src/stm32h7xx_hal_dma_ex.c ****   uint32_t syncSignalID = 0;
 1461              		.loc 1 397 1 is_stmt 0 view .LVU416
 1462 0000 70B4     		push	{r4, r5, r6}
 1463              	.LCFI8:
 1464              		.cfi_def_cfa_offset 12
 1465              		.cfi_offset 4, -12
 1466              		.cfi_offset 5, -8
 1467              		.cfi_offset 6, -4
 398:../../Drivers/STM32H7xx_HAL_Driver/Src/stm32h7xx_hal_dma_ex.c ****   uint32_t syncPolarity = 0;
 1468              		.loc 1 398 3 is_stmt 1 view .LVU417
 1469              	.LVL52:
 399:../../Drivers/STM32H7xx_HAL_Driver/Src/stm32h7xx_hal_dma_ex.c **** 
 1470              		.loc 1 399 3 view .LVU418
 402:../../Drivers/STM32H7xx_HAL_Driver/Src/stm32h7xx_hal_dma_ex.c ****   assert_param(IS_DMAMUX_SYNC_STATE(pSyncConfig->SyncEnable));
 1471              		.loc 1 402 3 view .LVU419
 403:../../Drivers/STM32H7xx_HAL_Driver/Src/stm32h7xx_hal_dma_ex.c ****   assert_param(IS_DMAMUX_SYNC_EVENT(pSyncConfig->EventEnable));
 1472              		.loc 1 403 3 view .LVU420
 404:../../Drivers/STM32H7xx_HAL_Driver/Src/stm32h7xx_hal_dma_ex.c ****   assert_param(IS_DMAMUX_SYNC_REQUEST_NUMBER(pSyncConfig->RequestNumber));
 1473              		.loc 1 404 3 view .LVU421
 405:../../Drivers/STM32H7xx_HAL_Driver/Src/stm32h7xx_hal_dma_ex.c **** 
 1474              		.loc 1 405 3 view .LVU422
 407:../../Drivers/STM32H7xx_HAL_Driver/Src/stm32h7xx_hal_dma_ex.c ****   {
 1475              		.loc 1 407 3 view .LVU423
 407:../../Drivers/STM32H7xx_HAL_Driver/Src/stm32h7xx_hal_dma_ex.c ****   {
 1476              		.loc 1 407 17 is_stmt 0 view .LVU424
 1477 0002 0B7A     		ldrb	r3, [r1, #8]	@ zero_extendqisi2
 407:../../Drivers/STM32H7xx_HAL_Driver/Src/stm32h7xx_hal_dma_ex.c ****   {
 1478              		.loc 1 407 5 view .LVU425
 1479 0004 012B     		cmp	r3, #1
 1480 0006 28D0     		beq	.L75
 399:../../Drivers/STM32H7xx_HAL_Driver/Src/stm32h7xx_hal_dma_ex.c **** 
ARM GAS  /tmp/ccvjaD57.s 			page 46


 1481              		.loc 1 399 12 view .LVU426
 1482 0008 0024     		movs	r4, #0
 398:../../Drivers/STM32H7xx_HAL_Driver/Src/stm32h7xx_hal_dma_ex.c ****   uint32_t syncPolarity = 0;
 1483              		.loc 1 398 12 view .LVU427
 1484 000a 2546     		mov	r5, r4
 1485              	.LVL53:
 1486              	.L69:
 424:../../Drivers/STM32H7xx_HAL_Driver/Src/stm32h7xx_hal_dma_ex.c ****   {
 1487              		.loc 1 424 3 is_stmt 1 view .LVU428
 424:../../Drivers/STM32H7xx_HAL_Driver/Src/stm32h7xx_hal_dma_ex.c ****   {
 1488              		.loc 1 424 10 is_stmt 0 view .LVU429
 1489 000c 90F83520 		ldrb	r2, [r0, #53]	@ zero_extendqisi2
 1490 0010 D2B2     		uxtb	r2, r2
 424:../../Drivers/STM32H7xx_HAL_Driver/Src/stm32h7xx_hal_dma_ex.c ****   {
 1491              		.loc 1 424 5 view .LVU430
 1492 0012 012A     		cmp	r2, #1
 1493 0014 24D1     		bne	.L70
 427:../../Drivers/STM32H7xx_HAL_Driver/Src/stm32h7xx_hal_dma_ex.c **** 
 1494              		.loc 1 427 5 is_stmt 1 view .LVU431
 427:../../Drivers/STM32H7xx_HAL_Driver/Src/stm32h7xx_hal_dma_ex.c **** 
 1495              		.loc 1 427 5 view .LVU432
 1496 0016 90F83430 		ldrb	r3, [r0, #52]	@ zero_extendqisi2
 1497 001a 012B     		cmp	r3, #1
 1498 001c 26D0     		beq	.L73
 427:../../Drivers/STM32H7xx_HAL_Driver/Src/stm32h7xx_hal_dma_ex.c **** 
 1499              		.loc 1 427 5 discriminator 2 view .LVU433
 1500 001e 0123     		movs	r3, #1
 1501 0020 80F83430 		strb	r3, [r0, #52]
 427:../../Drivers/STM32H7xx_HAL_Driver/Src/stm32h7xx_hal_dma_ex.c **** 
 1502              		.loc 1 427 5 discriminator 2 view .LVU434
 430:../../Drivers/STM32H7xx_HAL_Driver/Src/stm32h7xx_hal_dma_ex.c **** 
 1503              		.loc 1 430 5 discriminator 2 view .LVU435
 1504 0024 036E     		ldr	r3, [r0, #96]
 1505 0026 1A68     		ldr	r2, [r3]
 1506 0028 22F48132 		bic	r2, r2, #66048
 1507 002c 1A60     		str	r2, [r3]
 433:../../Drivers/STM32H7xx_HAL_Driver/Src/stm32h7xx_hal_dma_ex.c ****                (~DMAMUX_CxCR_DMAREQ_ID) , \
 1508              		.loc 1 433 5 discriminator 2 view .LVU436
 1509 002e 066E     		ldr	r6, [r0, #96]
 1510 0030 3268     		ldr	r2, [r6]
 1511 0032 D2B2     		uxtb	r2, r2
 1512 0034 CB68     		ldr	r3, [r1, #12]
 1513 0036 013B     		subs	r3, r3, #1
 1514 0038 DB04     		lsls	r3, r3, #19
 1515 003a 43EA0563 		orr	r3, r3, r5, lsl #24
 1516 003e 2343     		orrs	r3, r3, r4
 1517 0040 0C7A     		ldrb	r4, [r1, #8]	@ zero_extendqisi2
 1518              	.LVL54:
 433:../../Drivers/STM32H7xx_HAL_Driver/Src/stm32h7xx_hal_dma_ex.c ****                (~DMAMUX_CxCR_DMAREQ_ID) , \
 1519              		.loc 1 433 5 is_stmt 0 discriminator 2 view .LVU437
 1520 0042 43EA0443 		orr	r3, r3, r4, lsl #16
 1521 0046 497A     		ldrb	r1, [r1, #9]	@ zero_extendqisi2
 1522              	.LVL55:
 433:../../Drivers/STM32H7xx_HAL_Driver/Src/stm32h7xx_hal_dma_ex.c ****                (~DMAMUX_CxCR_DMAREQ_ID) , \
 1523              		.loc 1 433 5 discriminator 2 view .LVU438
 1524 0048 43EA4123 		orr	r3, r3, r1, lsl #9
 1525 004c 1343     		orrs	r3, r3, r2
ARM GAS  /tmp/ccvjaD57.s 			page 47


 1526 004e 3360     		str	r3, [r6]
 441:../../Drivers/STM32H7xx_HAL_Driver/Src/stm32h7xx_hal_dma_ex.c **** 
 1527              		.loc 1 441 5 is_stmt 1 discriminator 2 view .LVU439
 441:../../Drivers/STM32H7xx_HAL_Driver/Src/stm32h7xx_hal_dma_ex.c **** 
 1528              		.loc 1 441 5 discriminator 2 view .LVU440
 1529 0050 0023     		movs	r3, #0
 1530 0052 80F83430 		strb	r3, [r0, #52]
 441:../../Drivers/STM32H7xx_HAL_Driver/Src/stm32h7xx_hal_dma_ex.c **** 
 1531              		.loc 1 441 5 discriminator 2 view .LVU441
 443:../../Drivers/STM32H7xx_HAL_Driver/Src/stm32h7xx_hal_dma_ex.c ****   }
 1532              		.loc 1 443 5 discriminator 2 view .LVU442
 443:../../Drivers/STM32H7xx_HAL_Driver/Src/stm32h7xx_hal_dma_ex.c ****   }
 1533              		.loc 1 443 12 is_stmt 0 discriminator 2 view .LVU443
 1534 0056 1846     		mov	r0, r3
 1535              	.LVL56:
 443:../../Drivers/STM32H7xx_HAL_Driver/Src/stm32h7xx_hal_dma_ex.c ****   }
 1536              		.loc 1 443 12 discriminator 2 view .LVU444
 1537 0058 06E0     		b	.L71
 1538              	.LVL57:
 1539              	.L75:
 409:../../Drivers/STM32H7xx_HAL_Driver/Src/stm32h7xx_hal_dma_ex.c **** 
 1540              		.loc 1 409 5 is_stmt 1 view .LVU445
 411:../../Drivers/STM32H7xx_HAL_Driver/Src/stm32h7xx_hal_dma_ex.c ****     {
 1541              		.loc 1 411 5 view .LVU446
 417:../../Drivers/STM32H7xx_HAL_Driver/Src/stm32h7xx_hal_dma_ex.c ****     }
 1542              		.loc 1 417 7 view .LVU447
 419:../../Drivers/STM32H7xx_HAL_Driver/Src/stm32h7xx_hal_dma_ex.c ****     syncPolarity = pSyncConfig->SyncPolarity;
 1543              		.loc 1 419 5 view .LVU448
 419:../../Drivers/STM32H7xx_HAL_Driver/Src/stm32h7xx_hal_dma_ex.c ****     syncPolarity = pSyncConfig->SyncPolarity;
 1544              		.loc 1 419 18 is_stmt 0 view .LVU449
 1545 005a 0D68     		ldr	r5, [r1]
 1546              	.LVL58:
 420:../../Drivers/STM32H7xx_HAL_Driver/Src/stm32h7xx_hal_dma_ex.c ****   }
 1547              		.loc 1 420 5 is_stmt 1 view .LVU450
 420:../../Drivers/STM32H7xx_HAL_Driver/Src/stm32h7xx_hal_dma_ex.c ****   }
 1548              		.loc 1 420 18 is_stmt 0 view .LVU451
 1549 005c 4C68     		ldr	r4, [r1, #4]
 1550              	.LVL59:
 420:../../Drivers/STM32H7xx_HAL_Driver/Src/stm32h7xx_hal_dma_ex.c ****   }
 1551              		.loc 1 420 18 view .LVU452
 1552 005e D5E7     		b	.L69
 1553              	.L70:
 448:../../Drivers/STM32H7xx_HAL_Driver/Src/stm32h7xx_hal_dma_ex.c **** 
 1554              		.loc 1 448 5 is_stmt 1 view .LVU453
 448:../../Drivers/STM32H7xx_HAL_Driver/Src/stm32h7xx_hal_dma_ex.c **** 
 1555              		.loc 1 448 21 is_stmt 0 view .LVU454
 1556 0060 4FF40063 		mov	r3, #2048
 1557 0064 4365     		str	r3, [r0, #84]
 451:../../Drivers/STM32H7xx_HAL_Driver/Src/stm32h7xx_hal_dma_ex.c ****   }
 1558              		.loc 1 451 5 is_stmt 1 view .LVU455
 451:../../Drivers/STM32H7xx_HAL_Driver/Src/stm32h7xx_hal_dma_ex.c ****   }
 1559              		.loc 1 451 12 is_stmt 0 view .LVU456
 1560 0066 0120     		movs	r0, #1
 1561              	.LVL60:
 1562              	.L71:
 453:../../Drivers/STM32H7xx_HAL_Driver/Src/stm32h7xx_hal_dma_ex.c **** 
 1563              		.loc 1 453 1 view .LVU457
ARM GAS  /tmp/ccvjaD57.s 			page 48


 1564 0068 70BC     		pop	{r4, r5, r6}
 1565              	.LCFI9:
 1566              		.cfi_remember_state
 1567              		.cfi_restore 6
 1568              		.cfi_restore 5
 1569              		.cfi_restore 4
 1570              		.cfi_def_cfa_offset 0
 1571              	.LVL61:
 453:../../Drivers/STM32H7xx_HAL_Driver/Src/stm32h7xx_hal_dma_ex.c **** 
 1572              		.loc 1 453 1 view .LVU458
 1573 006a 7047     		bx	lr
 1574              	.LVL62:
 1575              	.L73:
 1576              	.LCFI10:
 1577              		.cfi_restore_state
 427:../../Drivers/STM32H7xx_HAL_Driver/Src/stm32h7xx_hal_dma_ex.c **** 
 1578              		.loc 1 427 5 view .LVU459
 1579 006c 0220     		movs	r0, #2
 1580              	.LVL63:
 427:../../Drivers/STM32H7xx_HAL_Driver/Src/stm32h7xx_hal_dma_ex.c **** 
 1581              		.loc 1 427 5 view .LVU460
 1582 006e FBE7     		b	.L71
 1583              		.cfi_endproc
 1584              	.LFE135:
 1586              		.section	.text.HAL_DMAEx_ConfigMuxRequestGenerator,"ax",%progbits
 1587              		.align	1
 1588              		.global	HAL_DMAEx_ConfigMuxRequestGenerator
 1589              		.syntax unified
 1590              		.thumb
 1591              		.thumb_func
 1592              		.fpu fpv4-sp-d16
 1594              	HAL_DMAEx_ConfigMuxRequestGenerator:
 1595              	.LVL64:
 1596              	.LFB136:
 465:../../Drivers/STM32H7xx_HAL_Driver/Src/stm32h7xx_hal_dma_ex.c ****   HAL_StatusTypeDef status;
 1597              		.loc 1 465 1 is_stmt 1 view -0
 1598              		.cfi_startproc
 1599              		@ args = 0, pretend = 0, frame = 0
 1600              		@ frame_needed = 0, uses_anonymous_args = 0
 1601              		@ link register save eliminated.
 466:../../Drivers/STM32H7xx_HAL_Driver/Src/stm32h7xx_hal_dma_ex.c ****   HAL_DMA_StateTypeDef temp_state = hdma->State;
 1602              		.loc 1 466 3 view .LVU462
 467:../../Drivers/STM32H7xx_HAL_Driver/Src/stm32h7xx_hal_dma_ex.c **** 
 1603              		.loc 1 467 3 view .LVU463
 467:../../Drivers/STM32H7xx_HAL_Driver/Src/stm32h7xx_hal_dma_ex.c **** 
 1604              		.loc 1 467 24 is_stmt 0 view .LVU464
 1605 0000 90F83530 		ldrb	r3, [r0, #53]	@ zero_extendqisi2
 1606              	.LVL65:
 470:../../Drivers/STM32H7xx_HAL_Driver/Src/stm32h7xx_hal_dma_ex.c **** 
 1607              		.loc 1 470 3 is_stmt 1 view .LVU465
 472:../../Drivers/STM32H7xx_HAL_Driver/Src/stm32h7xx_hal_dma_ex.c ****   {
 1608              		.loc 1 472 3 view .LVU466
 478:../../Drivers/STM32H7xx_HAL_Driver/Src/stm32h7xx_hal_dma_ex.c ****   }
 1609              		.loc 1 478 5 view .LVU467
 482:../../Drivers/STM32H7xx_HAL_Driver/Src/stm32h7xx_hal_dma_ex.c ****   assert_param(IS_DMAMUX_REQUEST_GEN_REQUEST_NUMBER(pRequestGeneratorConfig->RequestNumber));
 1610              		.loc 1 482 3 view .LVU468
 483:../../Drivers/STM32H7xx_HAL_Driver/Src/stm32h7xx_hal_dma_ex.c **** 
ARM GAS  /tmp/ccvjaD57.s 			page 49


 1611              		.loc 1 483 3 view .LVU469
 488:../../Drivers/STM32H7xx_HAL_Driver/Src/stm32h7xx_hal_dma_ex.c ****   {
 1612              		.loc 1 488 3 view .LVU470
 488:../../Drivers/STM32H7xx_HAL_Driver/Src/stm32h7xx_hal_dma_ex.c ****   {
 1613              		.loc 1 488 10 is_stmt 0 view .LVU471
 1614 0004 C26E     		ldr	r2, [r0, #108]
 488:../../Drivers/STM32H7xx_HAL_Driver/Src/stm32h7xx_hal_dma_ex.c ****   {
 1615              		.loc 1 488 5 view .LVU472
 1616 0006 72B1     		cbz	r2, .L84
 465:../../Drivers/STM32H7xx_HAL_Driver/Src/stm32h7xx_hal_dma_ex.c ****   HAL_StatusTypeDef status;
 1617              		.loc 1 465 1 view .LVU473
 1618 0008 10B4     		push	{r4}
 1619              	.LCFI11:
 1620              		.cfi_def_cfa_offset 4
 1621              		.cfi_offset 4, -4
 1622 000a DBB2     		uxtb	r3, r3
 496:../../Drivers/STM32H7xx_HAL_Driver/Src/stm32h7xx_hal_dma_ex.c ****   {
 1623              		.loc 1 496 8 is_stmt 1 view .LVU474
 496:../../Drivers/STM32H7xx_HAL_Driver/Src/stm32h7xx_hal_dma_ex.c ****   {
 1624              		.loc 1 496 35 is_stmt 0 view .LVU475
 1625 000c 1468     		ldr	r4, [r2]
 496:../../Drivers/STM32H7xx_HAL_Driver/Src/stm32h7xx_hal_dma_ex.c ****   {
 1626              		.loc 1 496 10 view .LVU476
 1627 000e 14F4803F 		tst	r4, #65536
 1628 0012 01D1     		bne	.L79
 496:../../Drivers/STM32H7xx_HAL_Driver/Src/stm32h7xx_hal_dma_ex.c ****   {
 1629              		.loc 1 496 68 discriminator 1 view .LVU477
 1630 0014 012B     		cmp	r3, #1
 1631 0016 0AD0     		beq	.L85
 1632              	.L79:
 515:../../Drivers/STM32H7xx_HAL_Driver/Src/stm32h7xx_hal_dma_ex.c **** 
 1633              		.loc 1 515 5 is_stmt 1 view .LVU478
 515:../../Drivers/STM32H7xx_HAL_Driver/Src/stm32h7xx_hal_dma_ex.c **** 
 1634              		.loc 1 515 21 is_stmt 0 view .LVU479
 1635 0018 4FF40063 		mov	r3, #2048
 1636              	.LVL66:
 515:../../Drivers/STM32H7xx_HAL_Driver/Src/stm32h7xx_hal_dma_ex.c **** 
 1637              		.loc 1 515 21 view .LVU480
 1638 001c 4365     		str	r3, [r0, #84]
 518:../../Drivers/STM32H7xx_HAL_Driver/Src/stm32h7xx_hal_dma_ex.c ****   }
 1639              		.loc 1 518 5 is_stmt 1 view .LVU481
 1640              	.LVL67:
 521:../../Drivers/STM32H7xx_HAL_Driver/Src/stm32h7xx_hal_dma_ex.c **** }
 1641              		.loc 1 521 10 is_stmt 0 view .LVU482
 1642 001e 0120     		movs	r0, #1
 1643              	.LVL68:
 1644              	.L78:
 522:../../Drivers/STM32H7xx_HAL_Driver/Src/stm32h7xx_hal_dma_ex.c **** 
 1645              		.loc 1 522 1 view .LVU483
 1646 0020 5DF8044B 		ldr	r4, [sp], #4
 1647              	.LCFI12:
 1648              		.cfi_restore 4
 1649              		.cfi_def_cfa_offset 0
 1650 0024 7047     		bx	lr
 1651              	.LVL69:
 1652              	.L84:
 491:../../Drivers/STM32H7xx_HAL_Driver/Src/stm32h7xx_hal_dma_ex.c **** 
ARM GAS  /tmp/ccvjaD57.s 			page 50


 1653              		.loc 1 491 5 is_stmt 1 view .LVU484
 491:../../Drivers/STM32H7xx_HAL_Driver/Src/stm32h7xx_hal_dma_ex.c **** 
 1654              		.loc 1 491 21 is_stmt 0 view .LVU485
 1655 0026 4023     		movs	r3, #64
 1656              	.LVL70:
 491:../../Drivers/STM32H7xx_HAL_Driver/Src/stm32h7xx_hal_dma_ex.c **** 
 1657              		.loc 1 491 21 view .LVU486
 1658 0028 4365     		str	r3, [r0, #84]
 494:../../Drivers/STM32H7xx_HAL_Driver/Src/stm32h7xx_hal_dma_ex.c ****   }
 1659              		.loc 1 494 5 is_stmt 1 view .LVU487
 1660              	.LVL71:
 521:../../Drivers/STM32H7xx_HAL_Driver/Src/stm32h7xx_hal_dma_ex.c **** }
 1661              		.loc 1 521 10 is_stmt 0 view .LVU488
 1662 002a 0120     		movs	r0, #1
 1663              	.LVL72:
 522:../../Drivers/STM32H7xx_HAL_Driver/Src/stm32h7xx_hal_dma_ex.c **** 
 1664              		.loc 1 522 1 view .LVU489
 1665 002c 7047     		bx	lr
 1666              	.LVL73:
 1667              	.L85:
 1668              	.LCFI13:
 1669              		.cfi_def_cfa_offset 4
 1670              		.cfi_offset 4, -4
 501:../../Drivers/STM32H7xx_HAL_Driver/Src/stm32h7xx_hal_dma_ex.c **** 
 1671              		.loc 1 501 5 is_stmt 1 view .LVU490
 501:../../Drivers/STM32H7xx_HAL_Driver/Src/stm32h7xx_hal_dma_ex.c **** 
 1672              		.loc 1 501 5 view .LVU491
 1673 002e 90F83430 		ldrb	r3, [r0, #52]	@ zero_extendqisi2
 1674              	.LVL74:
 501:../../Drivers/STM32H7xx_HAL_Driver/Src/stm32h7xx_hal_dma_ex.c **** 
 1675              		.loc 1 501 5 is_stmt 0 view .LVU492
 1676 0032 012B     		cmp	r3, #1
 1677 0034 0FD0     		beq	.L80
 501:../../Drivers/STM32H7xx_HAL_Driver/Src/stm32h7xx_hal_dma_ex.c **** 
 1678              		.loc 1 501 5 is_stmt 1 discriminator 2 view .LVU493
 1679 0036 0123     		movs	r3, #1
 1680 0038 80F83430 		strb	r3, [r0, #52]
 501:../../Drivers/STM32H7xx_HAL_Driver/Src/stm32h7xx_hal_dma_ex.c **** 
 1681              		.loc 1 501 5 discriminator 2 view .LVU494
 504:../../Drivers/STM32H7xx_HAL_Driver/Src/stm32h7xx_hal_dma_ex.c ****                                   ((pRequestGeneratorConfig->RequestNumber - 1U) << DMAMUX_RGxCR_GN
 1682              		.loc 1 504 5 discriminator 2 view .LVU495
 504:../../Drivers/STM32H7xx_HAL_Driver/Src/stm32h7xx_hal_dma_ex.c ****                                   ((pRequestGeneratorConfig->RequestNumber - 1U) << DMAMUX_RGxCR_GN
 1683              		.loc 1 504 59 is_stmt 0 discriminator 2 view .LVU496
 1684 003c 0B68     		ldr	r3, [r1]
 505:../../Drivers/STM32H7xx_HAL_Driver/Src/stm32h7xx_hal_dma_ex.c ****                                   pRequestGeneratorConfig->Polarity;
 1685              		.loc 1 505 60 discriminator 2 view .LVU497
 1686 003e 8C68     		ldr	r4, [r1, #8]
 505:../../Drivers/STM32H7xx_HAL_Driver/Src/stm32h7xx_hal_dma_ex.c ****                                   pRequestGeneratorConfig->Polarity;
 1687              		.loc 1 505 76 discriminator 2 view .LVU498
 1688 0040 013C     		subs	r4, r4, #1
 504:../../Drivers/STM32H7xx_HAL_Driver/Src/stm32h7xx_hal_dma_ex.c ****                                   ((pRequestGeneratorConfig->RequestNumber - 1U) << DMAMUX_RGxCR_GN
 1689              		.loc 1 504 70 discriminator 2 view .LVU499
 1690 0042 43EAC443 		orr	r3, r3, r4, lsl #19
 506:../../Drivers/STM32H7xx_HAL_Driver/Src/stm32h7xx_hal_dma_ex.c ****     /* Process Locked */
 1691              		.loc 1 506 58 discriminator 2 view .LVU500
 1692 0046 4968     		ldr	r1, [r1, #4]
 1693              	.LVL75:
ARM GAS  /tmp/ccvjaD57.s 			page 51


 505:../../Drivers/STM32H7xx_HAL_Driver/Src/stm32h7xx_hal_dma_ex.c ****                                   pRequestGeneratorConfig->Polarity;
 1694              		.loc 1 505 109 discriminator 2 view .LVU501
 1695 0048 0B43     		orrs	r3, r3, r1
 504:../../Drivers/STM32H7xx_HAL_Driver/Src/stm32h7xx_hal_dma_ex.c ****                                   ((pRequestGeneratorConfig->RequestNumber - 1U) << DMAMUX_RGxCR_GN
 1696              		.loc 1 504 34 discriminator 2 view .LVU502
 1697 004a 1360     		str	r3, [r2]
 508:../../Drivers/STM32H7xx_HAL_Driver/Src/stm32h7xx_hal_dma_ex.c **** 
 1698              		.loc 1 508 5 is_stmt 1 discriminator 2 view .LVU503
 508:../../Drivers/STM32H7xx_HAL_Driver/Src/stm32h7xx_hal_dma_ex.c **** 
 1699              		.loc 1 508 5 discriminator 2 view .LVU504
 1700 004c 0023     		movs	r3, #0
 1701 004e 80F83430 		strb	r3, [r0, #52]
 508:../../Drivers/STM32H7xx_HAL_Driver/Src/stm32h7xx_hal_dma_ex.c **** 
 1702              		.loc 1 508 5 discriminator 2 view .LVU505
 510:../../Drivers/STM32H7xx_HAL_Driver/Src/stm32h7xx_hal_dma_ex.c ****   }
 1703              		.loc 1 510 5 discriminator 2 view .LVU506
 510:../../Drivers/STM32H7xx_HAL_Driver/Src/stm32h7xx_hal_dma_ex.c ****   }
 1704              		.loc 1 510 12 is_stmt 0 discriminator 2 view .LVU507
 1705 0052 1846     		mov	r0, r3
 1706              	.LVL76:
 510:../../Drivers/STM32H7xx_HAL_Driver/Src/stm32h7xx_hal_dma_ex.c ****   }
 1707              		.loc 1 510 12 discriminator 2 view .LVU508
 1708 0054 E4E7     		b	.L78
 1709              	.LVL77:
 1710              	.L80:
 501:../../Drivers/STM32H7xx_HAL_Driver/Src/stm32h7xx_hal_dma_ex.c **** 
 1711              		.loc 1 501 5 view .LVU509
 1712 0056 0220     		movs	r0, #2
 1713              	.LVL78:
 501:../../Drivers/STM32H7xx_HAL_Driver/Src/stm32h7xx_hal_dma_ex.c **** 
 1714              		.loc 1 501 5 view .LVU510
 1715 0058 E2E7     		b	.L78
 1716              		.cfi_endproc
 1717              	.LFE136:
 1719              		.section	.text.HAL_DMAEx_EnableMuxRequestGenerator,"ax",%progbits
 1720              		.align	1
 1721              		.global	HAL_DMAEx_EnableMuxRequestGenerator
 1722              		.syntax unified
 1723              		.thumb
 1724              		.thumb_func
 1725              		.fpu fpv4-sp-d16
 1727              	HAL_DMAEx_EnableMuxRequestGenerator:
 1728              	.LVL79:
 1729              	.LFB137:
 531:../../Drivers/STM32H7xx_HAL_Driver/Src/stm32h7xx_hal_dma_ex.c ****   /* Check the parameters */
 1730              		.loc 1 531 1 is_stmt 1 view -0
 1731              		.cfi_startproc
 1732              		@ args = 0, pretend = 0, frame = 0
 1733              		@ frame_needed = 0, uses_anonymous_args = 0
 1734              		@ link register save eliminated.
 533:../../Drivers/STM32H7xx_HAL_Driver/Src/stm32h7xx_hal_dma_ex.c **** 
 1735              		.loc 1 533 3 view .LVU512
 537:../../Drivers/STM32H7xx_HAL_Driver/Src/stm32h7xx_hal_dma_ex.c ****   {
 1736              		.loc 1 537 3 view .LVU513
 537:../../Drivers/STM32H7xx_HAL_Driver/Src/stm32h7xx_hal_dma_ex.c ****   {
 1737              		.loc 1 537 11 is_stmt 0 view .LVU514
 1738 0000 90F83530 		ldrb	r3, [r0, #53]	@ zero_extendqisi2
ARM GAS  /tmp/ccvjaD57.s 			page 52


 537:../../Drivers/STM32H7xx_HAL_Driver/Src/stm32h7xx_hal_dma_ex.c ****   {
 1739              		.loc 1 537 5 view .LVU515
 1740 0004 3BB1     		cbz	r3, .L88
 537:../../Drivers/STM32H7xx_HAL_Driver/Src/stm32h7xx_hal_dma_ex.c ****   {
 1741              		.loc 1 537 51 discriminator 1 view .LVU516
 1742 0006 C36E     		ldr	r3, [r0, #108]
 537:../../Drivers/STM32H7xx_HAL_Driver/Src/stm32h7xx_hal_dma_ex.c ****   {
 1743              		.loc 1 537 43 discriminator 1 view .LVU517
 1744 0008 3BB1     		cbz	r3, .L89
 540:../../Drivers/STM32H7xx_HAL_Driver/Src/stm32h7xx_hal_dma_ex.c **** 
 1745              		.loc 1 540 5 is_stmt 1 view .LVU518
 540:../../Drivers/STM32H7xx_HAL_Driver/Src/stm32h7xx_hal_dma_ex.c **** 
 1746              		.loc 1 540 34 is_stmt 0 view .LVU519
 1747 000a 1A68     		ldr	r2, [r3]
 1748 000c 42F48032 		orr	r2, r2, #65536
 1749 0010 1A60     		str	r2, [r3]
 542:../../Drivers/STM32H7xx_HAL_Driver/Src/stm32h7xx_hal_dma_ex.c ****  }
 1750              		.loc 1 542 4 is_stmt 1 view .LVU520
 542:../../Drivers/STM32H7xx_HAL_Driver/Src/stm32h7xx_hal_dma_ex.c ****  }
 1751              		.loc 1 542 11 is_stmt 0 view .LVU521
 1752 0012 0020     		movs	r0, #0
 1753              	.LVL80:
 542:../../Drivers/STM32H7xx_HAL_Driver/Src/stm32h7xx_hal_dma_ex.c ****  }
 1754              		.loc 1 542 11 view .LVU522
 1755 0014 7047     		bx	lr
 1756              	.LVL81:
 1757              	.L88:
 546:../../Drivers/STM32H7xx_HAL_Driver/Src/stm32h7xx_hal_dma_ex.c ****  }
 1758              		.loc 1 546 11 view .LVU523
 1759 0016 0120     		movs	r0, #1
 1760              	.LVL82:
 546:../../Drivers/STM32H7xx_HAL_Driver/Src/stm32h7xx_hal_dma_ex.c ****  }
 1761              		.loc 1 546 11 view .LVU524
 1762 0018 7047     		bx	lr
 1763              	.LVL83:
 1764              	.L89:
 546:../../Drivers/STM32H7xx_HAL_Driver/Src/stm32h7xx_hal_dma_ex.c ****  }
 1765              		.loc 1 546 11 view .LVU525
 1766 001a 0120     		movs	r0, #1
 1767              	.LVL84:
 548:../../Drivers/STM32H7xx_HAL_Driver/Src/stm32h7xx_hal_dma_ex.c **** 
 1768              		.loc 1 548 1 view .LVU526
 1769 001c 7047     		bx	lr
 1770              		.cfi_endproc
 1771              	.LFE137:
 1773              		.section	.text.HAL_DMAEx_DisableMuxRequestGenerator,"ax",%progbits
 1774              		.align	1
 1775              		.global	HAL_DMAEx_DisableMuxRequestGenerator
 1776              		.syntax unified
 1777              		.thumb
 1778              		.thumb_func
 1779              		.fpu fpv4-sp-d16
 1781              	HAL_DMAEx_DisableMuxRequestGenerator:
 1782              	.LVL85:
 1783              	.LFB138:
 557:../../Drivers/STM32H7xx_HAL_Driver/Src/stm32h7xx_hal_dma_ex.c ****   /* Check the parameters */
 1784              		.loc 1 557 1 is_stmt 1 view -0
ARM GAS  /tmp/ccvjaD57.s 			page 53


 1785              		.cfi_startproc
 1786              		@ args = 0, pretend = 0, frame = 0
 1787              		@ frame_needed = 0, uses_anonymous_args = 0
 1788              		@ link register save eliminated.
 559:../../Drivers/STM32H7xx_HAL_Driver/Src/stm32h7xx_hal_dma_ex.c **** 
 1789              		.loc 1 559 3 view .LVU528
 563:../../Drivers/STM32H7xx_HAL_Driver/Src/stm32h7xx_hal_dma_ex.c ****   {
 1790              		.loc 1 563 3 view .LVU529
 563:../../Drivers/STM32H7xx_HAL_Driver/Src/stm32h7xx_hal_dma_ex.c ****   {
 1791              		.loc 1 563 11 is_stmt 0 view .LVU530
 1792 0000 90F83530 		ldrb	r3, [r0, #53]	@ zero_extendqisi2
 563:../../Drivers/STM32H7xx_HAL_Driver/Src/stm32h7xx_hal_dma_ex.c ****   {
 1793              		.loc 1 563 5 view .LVU531
 1794 0004 3BB1     		cbz	r3, .L92
 563:../../Drivers/STM32H7xx_HAL_Driver/Src/stm32h7xx_hal_dma_ex.c ****   {
 1795              		.loc 1 563 51 discriminator 1 view .LVU532
 1796 0006 C36E     		ldr	r3, [r0, #108]
 563:../../Drivers/STM32H7xx_HAL_Driver/Src/stm32h7xx_hal_dma_ex.c ****   {
 1797              		.loc 1 563 43 discriminator 1 view .LVU533
 1798 0008 3BB1     		cbz	r3, .L93
 566:../../Drivers/STM32H7xx_HAL_Driver/Src/stm32h7xx_hal_dma_ex.c **** 
 1799              		.loc 1 566 5 is_stmt 1 view .LVU534
 566:../../Drivers/STM32H7xx_HAL_Driver/Src/stm32h7xx_hal_dma_ex.c **** 
 1800              		.loc 1 566 34 is_stmt 0 view .LVU535
 1801 000a 1A68     		ldr	r2, [r3]
 1802 000c 22F48032 		bic	r2, r2, #65536
 1803 0010 1A60     		str	r2, [r3]
 568:../../Drivers/STM32H7xx_HAL_Driver/Src/stm32h7xx_hal_dma_ex.c ****  }
 1804              		.loc 1 568 4 is_stmt 1 view .LVU536
 568:../../Drivers/STM32H7xx_HAL_Driver/Src/stm32h7xx_hal_dma_ex.c ****  }
 1805              		.loc 1 568 11 is_stmt 0 view .LVU537
 1806 0012 0020     		movs	r0, #0
 1807              	.LVL86:
 568:../../Drivers/STM32H7xx_HAL_Driver/Src/stm32h7xx_hal_dma_ex.c ****  }
 1808              		.loc 1 568 11 view .LVU538
 1809 0014 7047     		bx	lr
 1810              	.LVL87:
 1811              	.L92:
 572:../../Drivers/STM32H7xx_HAL_Driver/Src/stm32h7xx_hal_dma_ex.c ****  }
 1812              		.loc 1 572 11 view .LVU539
 1813 0016 0120     		movs	r0, #1
 1814              	.LVL88:
 572:../../Drivers/STM32H7xx_HAL_Driver/Src/stm32h7xx_hal_dma_ex.c ****  }
 1815              		.loc 1 572 11 view .LVU540
 1816 0018 7047     		bx	lr
 1817              	.LVL89:
 1818              	.L93:
 572:../../Drivers/STM32H7xx_HAL_Driver/Src/stm32h7xx_hal_dma_ex.c ****  }
 1819              		.loc 1 572 11 view .LVU541
 1820 001a 0120     		movs	r0, #1
 1821              	.LVL90:
 574:../../Drivers/STM32H7xx_HAL_Driver/Src/stm32h7xx_hal_dma_ex.c **** 
 1822              		.loc 1 574 1 view .LVU542
 1823 001c 7047     		bx	lr
 1824              		.cfi_endproc
 1825              	.LFE138:
 1827              		.section	.text.HAL_DMAEx_MUX_IRQHandler,"ax",%progbits
ARM GAS  /tmp/ccvjaD57.s 			page 54


 1828              		.align	1
 1829              		.global	HAL_DMAEx_MUX_IRQHandler
 1830              		.syntax unified
 1831              		.thumb
 1832              		.thumb_func
 1833              		.fpu fpv4-sp-d16
 1835              	HAL_DMAEx_MUX_IRQHandler:
 1836              	.LVL91:
 1837              	.LFB139:
 583:../../Drivers/STM32H7xx_HAL_Driver/Src/stm32h7xx_hal_dma_ex.c ****   /* Check for DMAMUX Synchronization overrun */
 1838              		.loc 1 583 1 is_stmt 1 view -0
 1839              		.cfi_startproc
 1840              		@ args = 0, pretend = 0, frame = 0
 1841              		@ frame_needed = 0, uses_anonymous_args = 0
 583:../../Drivers/STM32H7xx_HAL_Driver/Src/stm32h7xx_hal_dma_ex.c ****   /* Check for DMAMUX Synchronization overrun */
 1842              		.loc 1 583 1 is_stmt 0 view .LVU544
 1843 0000 10B5     		push	{r4, lr}
 1844              	.LCFI14:
 1845              		.cfi_def_cfa_offset 8
 1846              		.cfi_offset 4, -8
 1847              		.cfi_offset 14, -4
 1848 0002 0446     		mov	r4, r0
 585:../../Drivers/STM32H7xx_HAL_Driver/Src/stm32h7xx_hal_dma_ex.c ****   {
 1849              		.loc 1 585 3 is_stmt 1 view .LVU545
 585:../../Drivers/STM32H7xx_HAL_Driver/Src/stm32h7xx_hal_dma_ex.c ****   {
 1850              		.loc 1 585 11 is_stmt 0 view .LVU546
 1851 0004 436E     		ldr	r3, [r0, #100]
 585:../../Drivers/STM32H7xx_HAL_Driver/Src/stm32h7xx_hal_dma_ex.c ****   {
 1852              		.loc 1 585 32 view .LVU547
 1853 0006 1A68     		ldr	r2, [r3]
 585:../../Drivers/STM32H7xx_HAL_Driver/Src/stm32h7xx_hal_dma_ex.c ****   {
 1854              		.loc 1 585 44 view .LVU548
 1855 0008 836E     		ldr	r3, [r0, #104]
 585:../../Drivers/STM32H7xx_HAL_Driver/Src/stm32h7xx_hal_dma_ex.c ****   {
 1856              		.loc 1 585 5 view .LVU549
 1857 000a 1A42     		tst	r2, r3
 1858 000c 0ED0     		beq	.L95
 588:../../Drivers/STM32H7xx_HAL_Driver/Src/stm32h7xx_hal_dma_ex.c **** 
 1859              		.loc 1 588 5 is_stmt 1 view .LVU550
 588:../../Drivers/STM32H7xx_HAL_Driver/Src/stm32h7xx_hal_dma_ex.c **** 
 1860              		.loc 1 588 9 is_stmt 0 view .LVU551
 1861 000e 026E     		ldr	r2, [r0, #96]
 588:../../Drivers/STM32H7xx_HAL_Driver/Src/stm32h7xx_hal_dma_ex.c **** 
 1862              		.loc 1 588 30 view .LVU552
 1863 0010 1368     		ldr	r3, [r2]
 1864 0012 23F48073 		bic	r3, r3, #256
 1865 0016 1360     		str	r3, [r2]
 591:../../Drivers/STM32H7xx_HAL_Driver/Src/stm32h7xx_hal_dma_ex.c **** 
 1866              		.loc 1 591 5 is_stmt 1 view .LVU553
 591:../../Drivers/STM32H7xx_HAL_Driver/Src/stm32h7xx_hal_dma_ex.c **** 
 1867              		.loc 1 591 9 is_stmt 0 view .LVU554
 1868 0018 436E     		ldr	r3, [r0, #100]
 591:../../Drivers/STM32H7xx_HAL_Driver/Src/stm32h7xx_hal_dma_ex.c **** 
 1869              		.loc 1 591 42 view .LVU555
 1870 001a 826E     		ldr	r2, [r0, #104]
 591:../../Drivers/STM32H7xx_HAL_Driver/Src/stm32h7xx_hal_dma_ex.c **** 
 1871              		.loc 1 591 36 view .LVU556
ARM GAS  /tmp/ccvjaD57.s 			page 55


 1872 001c 5A60     		str	r2, [r3, #4]
 594:../../Drivers/STM32H7xx_HAL_Driver/Src/stm32h7xx_hal_dma_ex.c **** 
 1873              		.loc 1 594 5 is_stmt 1 view .LVU557
 594:../../Drivers/STM32H7xx_HAL_Driver/Src/stm32h7xx_hal_dma_ex.c **** 
 1874              		.loc 1 594 21 is_stmt 0 view .LVU558
 1875 001e 436D     		ldr	r3, [r0, #84]
 1876 0020 43F40073 		orr	r3, r3, #512
 1877 0024 4365     		str	r3, [r0, #84]
 596:../../Drivers/STM32H7xx_HAL_Driver/Src/stm32h7xx_hal_dma_ex.c ****     {
 1878              		.loc 1 596 5 is_stmt 1 view .LVU559
 596:../../Drivers/STM32H7xx_HAL_Driver/Src/stm32h7xx_hal_dma_ex.c ****     {
 1879              		.loc 1 596 12 is_stmt 0 view .LVU560
 1880 0026 C36C     		ldr	r3, [r0, #76]
 596:../../Drivers/STM32H7xx_HAL_Driver/Src/stm32h7xx_hal_dma_ex.c ****     {
 1881              		.loc 1 596 7 view .LVU561
 1882 0028 03B1     		cbz	r3, .L95
 599:../../Drivers/STM32H7xx_HAL_Driver/Src/stm32h7xx_hal_dma_ex.c ****     }
 1883              		.loc 1 599 7 is_stmt 1 view .LVU562
 1884 002a 9847     		blx	r3
 1885              	.LVL92:
 1886              	.L95:
 603:../../Drivers/STM32H7xx_HAL_Driver/Src/stm32h7xx_hal_dma_ex.c ****   {
 1887              		.loc 1 603 3 view .LVU563
 603:../../Drivers/STM32H7xx_HAL_Driver/Src/stm32h7xx_hal_dma_ex.c ****   {
 1888              		.loc 1 603 10 is_stmt 0 view .LVU564
 1889 002c E36E     		ldr	r3, [r4, #108]
 603:../../Drivers/STM32H7xx_HAL_Driver/Src/stm32h7xx_hal_dma_ex.c ****   {
 1890              		.loc 1 603 5 view .LVU565
 1891 002e 9BB1     		cbz	r3, .L94
 606:../../Drivers/STM32H7xx_HAL_Driver/Src/stm32h7xx_hal_dma_ex.c ****     {
 1892              		.loc 1 606 5 is_stmt 1 view .LVU566
 606:../../Drivers/STM32H7xx_HAL_Driver/Src/stm32h7xx_hal_dma_ex.c ****     {
 1893              		.loc 1 606 13 is_stmt 0 view .LVU567
 1894 0030 226F     		ldr	r2, [r4, #112]
 606:../../Drivers/STM32H7xx_HAL_Driver/Src/stm32h7xx_hal_dma_ex.c ****     {
 1895              		.loc 1 606 37 view .LVU568
 1896 0032 1168     		ldr	r1, [r2]
 606:../../Drivers/STM32H7xx_HAL_Driver/Src/stm32h7xx_hal_dma_ex.c ****     {
 1897              		.loc 1 606 50 view .LVU569
 1898 0034 626F     		ldr	r2, [r4, #116]
 606:../../Drivers/STM32H7xx_HAL_Driver/Src/stm32h7xx_hal_dma_ex.c ****     {
 1899              		.loc 1 606 7 view .LVU570
 1900 0036 1142     		tst	r1, r2
 1901 0038 0ED0     		beq	.L94
 609:../../Drivers/STM32H7xx_HAL_Driver/Src/stm32h7xx_hal_dma_ex.c **** 
 1902              		.loc 1 609 7 is_stmt 1 view .LVU571
 609:../../Drivers/STM32H7xx_HAL_Driver/Src/stm32h7xx_hal_dma_ex.c **** 
 1903              		.loc 1 609 36 is_stmt 0 view .LVU572
 1904 003a 1A68     		ldr	r2, [r3]
 1905 003c 22F48072 		bic	r2, r2, #256
 1906 0040 1A60     		str	r2, [r3]
 612:../../Drivers/STM32H7xx_HAL_Driver/Src/stm32h7xx_hal_dma_ex.c **** 
 1907              		.loc 1 612 7 is_stmt 1 view .LVU573
 612:../../Drivers/STM32H7xx_HAL_Driver/Src/stm32h7xx_hal_dma_ex.c **** 
 1908              		.loc 1 612 11 is_stmt 0 view .LVU574
 1909 0042 236F     		ldr	r3, [r4, #112]
 612:../../Drivers/STM32H7xx_HAL_Driver/Src/stm32h7xx_hal_dma_ex.c **** 
ARM GAS  /tmp/ccvjaD57.s 			page 56


 1910              		.loc 1 612 49 view .LVU575
 1911 0044 626F     		ldr	r2, [r4, #116]
 612:../../Drivers/STM32H7xx_HAL_Driver/Src/stm32h7xx_hal_dma_ex.c **** 
 1912              		.loc 1 612 43 view .LVU576
 1913 0046 5A60     		str	r2, [r3, #4]
 615:../../Drivers/STM32H7xx_HAL_Driver/Src/stm32h7xx_hal_dma_ex.c **** 
 1914              		.loc 1 615 7 is_stmt 1 view .LVU577
 615:../../Drivers/STM32H7xx_HAL_Driver/Src/stm32h7xx_hal_dma_ex.c **** 
 1915              		.loc 1 615 23 is_stmt 0 view .LVU578
 1916 0048 636D     		ldr	r3, [r4, #84]
 1917 004a 43F48063 		orr	r3, r3, #1024
 1918 004e 6365     		str	r3, [r4, #84]
 617:../../Drivers/STM32H7xx_HAL_Driver/Src/stm32h7xx_hal_dma_ex.c ****       {
 1919              		.loc 1 617 7 is_stmt 1 view .LVU579
 617:../../Drivers/STM32H7xx_HAL_Driver/Src/stm32h7xx_hal_dma_ex.c ****       {
 1920              		.loc 1 617 14 is_stmt 0 view .LVU580
 1921 0050 E36C     		ldr	r3, [r4, #76]
 617:../../Drivers/STM32H7xx_HAL_Driver/Src/stm32h7xx_hal_dma_ex.c ****       {
 1922              		.loc 1 617 9 view .LVU581
 1923 0052 0BB1     		cbz	r3, .L94
 620:../../Drivers/STM32H7xx_HAL_Driver/Src/stm32h7xx_hal_dma_ex.c ****       }
 1924              		.loc 1 620 9 is_stmt 1 view .LVU582
 1925 0054 2046     		mov	r0, r4
 1926 0056 9847     		blx	r3
 1927              	.LVL93:
 1928              	.L94:
 624:../../Drivers/STM32H7xx_HAL_Driver/Src/stm32h7xx_hal_dma_ex.c **** 
 1929              		.loc 1 624 1 is_stmt 0 view .LVU583
 1930 0058 10BD     		pop	{r4, pc}
 624:../../Drivers/STM32H7xx_HAL_Driver/Src/stm32h7xx_hal_dma_ex.c **** 
 1931              		.loc 1 624 1 view .LVU584
 1932              		.cfi_endproc
 1933              	.LFE139:
 1935              		.text
 1936              	.Letext0:
 1937              		.file 2 "../../Drivers/CMSIS/Device/ST/STM32H7xx/Include/stm32h755xx.h"
 1938              		.file 3 "/usr/lib/gcc/arm-none-eabi/10.3.1/include/stdint.h"
 1939              		.file 4 "../../Drivers/CMSIS/Device/ST/STM32H7xx/Include/stm32h7xx.h"
 1940              		.file 5 "../../Drivers/STM32H7xx_HAL_Driver/Inc/stm32h7xx_hal_def.h"
 1941              		.file 6 "../../Drivers/STM32H7xx_HAL_Driver/Inc/stm32h7xx_hal_dma.h"
 1942              		.file 7 "../../Drivers/STM32H7xx_HAL_Driver/Inc/stm32h7xx_hal_dma_ex.h"
ARM GAS  /tmp/ccvjaD57.s 			page 57

