ARM GAS  /tmp/ccjOvRAM.s 			page 1


   1              		.cpu cortex-m7
   2              		.eabi_attribute 27, 1
   3              		.eabi_attribute 28, 1
   4              		.eabi_attribute 20, 1
   5              		.eabi_attribute 21, 1
   6              		.eabi_attribute 23, 3
   7              		.eabi_attribute 24, 1
   8              		.eabi_attribute 25, 1
   9              		.eabi_attribute 26, 1
  10              		.eabi_attribute 30, 1
  11              		.eabi_attribute 34, 1
  12              		.eabi_attribute 18, 4
  13              		.file	"stm32h7xx_hal.c"
  14              		.text
  15              	.Ltext0:
  16              		.cfi_sections	.debug_frame
  17              		.section	.text.HAL_MspInit,"ax",%progbits
  18              		.align	1
  19              		.weak	HAL_MspInit
  20              		.arch armv7e-m
  21              		.syntax unified
  22              		.thumb
  23              		.thumb_func
  24              		.fpu fpv4-sp-d16
  26              	HAL_MspInit:
  27              	.LFB134:
  28              		.file 1 "../../Drivers/STM32H7xx_HAL_Driver/Src/stm32h7xx_hal.c"
   1:../../Drivers/STM32H7xx_HAL_Driver/Src/stm32h7xx_hal.c **** /**
   2:../../Drivers/STM32H7xx_HAL_Driver/Src/stm32h7xx_hal.c ****   ******************************************************************************
   3:../../Drivers/STM32H7xx_HAL_Driver/Src/stm32h7xx_hal.c ****   * @file    stm32h7xx_hal.c
   4:../../Drivers/STM32H7xx_HAL_Driver/Src/stm32h7xx_hal.c ****   * @author  MCD Application Team
   5:../../Drivers/STM32H7xx_HAL_Driver/Src/stm32h7xx_hal.c ****   * @brief   HAL module driver.
   6:../../Drivers/STM32H7xx_HAL_Driver/Src/stm32h7xx_hal.c ****   *          This is the common part of the HAL initialization
   7:../../Drivers/STM32H7xx_HAL_Driver/Src/stm32h7xx_hal.c ****   *
   8:../../Drivers/STM32H7xx_HAL_Driver/Src/stm32h7xx_hal.c ****   ******************************************************************************
   9:../../Drivers/STM32H7xx_HAL_Driver/Src/stm32h7xx_hal.c ****   * @attention
  10:../../Drivers/STM32H7xx_HAL_Driver/Src/stm32h7xx_hal.c ****   *
  11:../../Drivers/STM32H7xx_HAL_Driver/Src/stm32h7xx_hal.c ****   * Copyright (c) 2017 STMicroelectronics.
  12:../../Drivers/STM32H7xx_HAL_Driver/Src/stm32h7xx_hal.c ****   * All rights reserved.
  13:../../Drivers/STM32H7xx_HAL_Driver/Src/stm32h7xx_hal.c ****   *
  14:../../Drivers/STM32H7xx_HAL_Driver/Src/stm32h7xx_hal.c ****   * This software is licensed under terms that can be found in the LICENSE file
  15:../../Drivers/STM32H7xx_HAL_Driver/Src/stm32h7xx_hal.c ****   * in the root directory of this software component.
  16:../../Drivers/STM32H7xx_HAL_Driver/Src/stm32h7xx_hal.c ****   * If no LICENSE file comes with this software, it is provided AS-IS.
  17:../../Drivers/STM32H7xx_HAL_Driver/Src/stm32h7xx_hal.c ****   *
  18:../../Drivers/STM32H7xx_HAL_Driver/Src/stm32h7xx_hal.c ****   ******************************************************************************
  19:../../Drivers/STM32H7xx_HAL_Driver/Src/stm32h7xx_hal.c ****   @verbatim
  20:../../Drivers/STM32H7xx_HAL_Driver/Src/stm32h7xx_hal.c ****   ==============================================================================
  21:../../Drivers/STM32H7xx_HAL_Driver/Src/stm32h7xx_hal.c ****                      ##### How to use this driver #####
  22:../../Drivers/STM32H7xx_HAL_Driver/Src/stm32h7xx_hal.c ****   ==============================================================================
  23:../../Drivers/STM32H7xx_HAL_Driver/Src/stm32h7xx_hal.c ****     [..]
  24:../../Drivers/STM32H7xx_HAL_Driver/Src/stm32h7xx_hal.c ****     The common HAL driver contains a set of generic and common APIs that can be
  25:../../Drivers/STM32H7xx_HAL_Driver/Src/stm32h7xx_hal.c ****     used by the PPP peripheral drivers and the user to start using the HAL.
  26:../../Drivers/STM32H7xx_HAL_Driver/Src/stm32h7xx_hal.c ****     [..]
  27:../../Drivers/STM32H7xx_HAL_Driver/Src/stm32h7xx_hal.c ****     The HAL contains two APIs' categories:
  28:../../Drivers/STM32H7xx_HAL_Driver/Src/stm32h7xx_hal.c ****          (+) Common HAL APIs
  29:../../Drivers/STM32H7xx_HAL_Driver/Src/stm32h7xx_hal.c ****          (+) Services HAL APIs
  30:../../Drivers/STM32H7xx_HAL_Driver/Src/stm32h7xx_hal.c **** 
ARM GAS  /tmp/ccjOvRAM.s 			page 2


  31:../../Drivers/STM32H7xx_HAL_Driver/Src/stm32h7xx_hal.c ****   @endverbatim
  32:../../Drivers/STM32H7xx_HAL_Driver/Src/stm32h7xx_hal.c ****   ******************************************************************************
  33:../../Drivers/STM32H7xx_HAL_Driver/Src/stm32h7xx_hal.c ****   */
  34:../../Drivers/STM32H7xx_HAL_Driver/Src/stm32h7xx_hal.c **** 
  35:../../Drivers/STM32H7xx_HAL_Driver/Src/stm32h7xx_hal.c **** /* Includes ------------------------------------------------------------------*/
  36:../../Drivers/STM32H7xx_HAL_Driver/Src/stm32h7xx_hal.c **** #include "stm32h7xx_hal.h"
  37:../../Drivers/STM32H7xx_HAL_Driver/Src/stm32h7xx_hal.c **** 
  38:../../Drivers/STM32H7xx_HAL_Driver/Src/stm32h7xx_hal.c **** /** @addtogroup STM32H7xx_HAL_Driver
  39:../../Drivers/STM32H7xx_HAL_Driver/Src/stm32h7xx_hal.c ****   * @{
  40:../../Drivers/STM32H7xx_HAL_Driver/Src/stm32h7xx_hal.c ****   */
  41:../../Drivers/STM32H7xx_HAL_Driver/Src/stm32h7xx_hal.c **** 
  42:../../Drivers/STM32H7xx_HAL_Driver/Src/stm32h7xx_hal.c **** /** @defgroup HAL  HAL
  43:../../Drivers/STM32H7xx_HAL_Driver/Src/stm32h7xx_hal.c ****   * @brief HAL module driver.
  44:../../Drivers/STM32H7xx_HAL_Driver/Src/stm32h7xx_hal.c ****   * @{
  45:../../Drivers/STM32H7xx_HAL_Driver/Src/stm32h7xx_hal.c ****   */
  46:../../Drivers/STM32H7xx_HAL_Driver/Src/stm32h7xx_hal.c **** 
  47:../../Drivers/STM32H7xx_HAL_Driver/Src/stm32h7xx_hal.c **** /* Private typedef -----------------------------------------------------------*/
  48:../../Drivers/STM32H7xx_HAL_Driver/Src/stm32h7xx_hal.c **** /* Private define ------------------------------------------------------------*/
  49:../../Drivers/STM32H7xx_HAL_Driver/Src/stm32h7xx_hal.c **** /**
  50:../../Drivers/STM32H7xx_HAL_Driver/Src/stm32h7xx_hal.c ****  * @brief STM32H7xx HAL Driver version number V1.11.1
  51:../../Drivers/STM32H7xx_HAL_Driver/Src/stm32h7xx_hal.c ****    */
  52:../../Drivers/STM32H7xx_HAL_Driver/Src/stm32h7xx_hal.c **** #define __STM32H7xx_HAL_VERSION_MAIN   (0x01UL) /*!< [31:24] main version */
  53:../../Drivers/STM32H7xx_HAL_Driver/Src/stm32h7xx_hal.c **** #define __STM32H7xx_HAL_VERSION_SUB1   (0x0BUL) /*!< [23:16] sub1 version */
  54:../../Drivers/STM32H7xx_HAL_Driver/Src/stm32h7xx_hal.c **** #define __STM32H7xx_HAL_VERSION_SUB2   (0x01UL) /*!< [15:8]  sub2 version */
  55:../../Drivers/STM32H7xx_HAL_Driver/Src/stm32h7xx_hal.c **** #define __STM32H7xx_HAL_VERSION_RC     (0x00UL) /*!< [7:0]  release candidate */
  56:../../Drivers/STM32H7xx_HAL_Driver/Src/stm32h7xx_hal.c **** #define __STM32H7xx_HAL_VERSION         ((__STM32H7xx_HAL_VERSION_MAIN << 24)\
  57:../../Drivers/STM32H7xx_HAL_Driver/Src/stm32h7xx_hal.c ****                                         |(__STM32H7xx_HAL_VERSION_SUB1 << 16)\
  58:../../Drivers/STM32H7xx_HAL_Driver/Src/stm32h7xx_hal.c ****                                         |(__STM32H7xx_HAL_VERSION_SUB2 << 8 )\
  59:../../Drivers/STM32H7xx_HAL_Driver/Src/stm32h7xx_hal.c ****                                         |(__STM32H7xx_HAL_VERSION_RC))
  60:../../Drivers/STM32H7xx_HAL_Driver/Src/stm32h7xx_hal.c **** 
  61:../../Drivers/STM32H7xx_HAL_Driver/Src/stm32h7xx_hal.c **** #define IDCODE_DEVID_MASK    ((uint32_t)0x00000FFF)
  62:../../Drivers/STM32H7xx_HAL_Driver/Src/stm32h7xx_hal.c **** #define VREFBUF_TIMEOUT_VALUE     (uint32_t)10   /* 10 ms  */
  63:../../Drivers/STM32H7xx_HAL_Driver/Src/stm32h7xx_hal.c **** 
  64:../../Drivers/STM32H7xx_HAL_Driver/Src/stm32h7xx_hal.c **** /* Private macro -------------------------------------------------------------*/
  65:../../Drivers/STM32H7xx_HAL_Driver/Src/stm32h7xx_hal.c **** /* Private variables ---------------------------------------------------------*/
  66:../../Drivers/STM32H7xx_HAL_Driver/Src/stm32h7xx_hal.c **** /* Exported variables --------------------------------------------------------*/
  67:../../Drivers/STM32H7xx_HAL_Driver/Src/stm32h7xx_hal.c **** 
  68:../../Drivers/STM32H7xx_HAL_Driver/Src/stm32h7xx_hal.c **** /** @defgroup HAL_Exported_Variables HAL Exported Variables
  69:../../Drivers/STM32H7xx_HAL_Driver/Src/stm32h7xx_hal.c ****   * @{
  70:../../Drivers/STM32H7xx_HAL_Driver/Src/stm32h7xx_hal.c ****   */
  71:../../Drivers/STM32H7xx_HAL_Driver/Src/stm32h7xx_hal.c **** __IO uint32_t uwTick;
  72:../../Drivers/STM32H7xx_HAL_Driver/Src/stm32h7xx_hal.c **** uint32_t uwTickPrio   = (1UL << __NVIC_PRIO_BITS); /* Invalid PRIO */
  73:../../Drivers/STM32H7xx_HAL_Driver/Src/stm32h7xx_hal.c **** HAL_TickFreqTypeDef uwTickFreq = HAL_TICK_FREQ_DEFAULT;  /* 1KHz */
  74:../../Drivers/STM32H7xx_HAL_Driver/Src/stm32h7xx_hal.c **** /**
  75:../../Drivers/STM32H7xx_HAL_Driver/Src/stm32h7xx_hal.c ****   * @}
  76:../../Drivers/STM32H7xx_HAL_Driver/Src/stm32h7xx_hal.c ****   */
  77:../../Drivers/STM32H7xx_HAL_Driver/Src/stm32h7xx_hal.c **** 
  78:../../Drivers/STM32H7xx_HAL_Driver/Src/stm32h7xx_hal.c **** /* Private function prototypes -----------------------------------------------*/
  79:../../Drivers/STM32H7xx_HAL_Driver/Src/stm32h7xx_hal.c **** /* Private functions ---------------------------------------------------------*/
  80:../../Drivers/STM32H7xx_HAL_Driver/Src/stm32h7xx_hal.c **** 
  81:../../Drivers/STM32H7xx_HAL_Driver/Src/stm32h7xx_hal.c **** /** @addtogroup HAL_Exported_Functions
  82:../../Drivers/STM32H7xx_HAL_Driver/Src/stm32h7xx_hal.c ****   * @{
  83:../../Drivers/STM32H7xx_HAL_Driver/Src/stm32h7xx_hal.c ****   */
  84:../../Drivers/STM32H7xx_HAL_Driver/Src/stm32h7xx_hal.c **** 
  85:../../Drivers/STM32H7xx_HAL_Driver/Src/stm32h7xx_hal.c **** /** @addtogroup HAL_Group1
  86:../../Drivers/STM32H7xx_HAL_Driver/Src/stm32h7xx_hal.c ****  *  @brief    Initialization and de-initialization functions
  87:../../Drivers/STM32H7xx_HAL_Driver/Src/stm32h7xx_hal.c ****  *
ARM GAS  /tmp/ccjOvRAM.s 			page 3


  88:../../Drivers/STM32H7xx_HAL_Driver/Src/stm32h7xx_hal.c **** @verbatim
  89:../../Drivers/STM32H7xx_HAL_Driver/Src/stm32h7xx_hal.c ****  ===============================================================================
  90:../../Drivers/STM32H7xx_HAL_Driver/Src/stm32h7xx_hal.c ****               ##### Initialization and de-initialization functions #####
  91:../../Drivers/STM32H7xx_HAL_Driver/Src/stm32h7xx_hal.c ****  ===============================================================================
  92:../../Drivers/STM32H7xx_HAL_Driver/Src/stm32h7xx_hal.c ****     [..]  This section provides functions allowing to:
  93:../../Drivers/STM32H7xx_HAL_Driver/Src/stm32h7xx_hal.c ****       (+) Initializes the Flash interface the NVIC allocation and initial clock
  94:../../Drivers/STM32H7xx_HAL_Driver/Src/stm32h7xx_hal.c ****           configuration. It initializes the systick also when timeout is needed
  95:../../Drivers/STM32H7xx_HAL_Driver/Src/stm32h7xx_hal.c ****           and the backup domain when enabled.
  96:../../Drivers/STM32H7xx_HAL_Driver/Src/stm32h7xx_hal.c ****       (+) De-Initializes common part of the HAL.
  97:../../Drivers/STM32H7xx_HAL_Driver/Src/stm32h7xx_hal.c ****       (+) Configure The time base source to have 1ms time base with a dedicated
  98:../../Drivers/STM32H7xx_HAL_Driver/Src/stm32h7xx_hal.c ****           Tick interrupt priority.
  99:../../Drivers/STM32H7xx_HAL_Driver/Src/stm32h7xx_hal.c ****         (++) SysTick timer is used by default as source of time base, but user
 100:../../Drivers/STM32H7xx_HAL_Driver/Src/stm32h7xx_hal.c ****              can eventually implement his proper time base source (a general purpose
 101:../../Drivers/STM32H7xx_HAL_Driver/Src/stm32h7xx_hal.c ****              timer for example or other time source), keeping in mind that Time base
 102:../../Drivers/STM32H7xx_HAL_Driver/Src/stm32h7xx_hal.c ****              duration should be kept 1ms since PPP_TIMEOUT_VALUEs are defined and
 103:../../Drivers/STM32H7xx_HAL_Driver/Src/stm32h7xx_hal.c ****              handled in milliseconds basis.
 104:../../Drivers/STM32H7xx_HAL_Driver/Src/stm32h7xx_hal.c ****         (++) Time base configuration function (HAL_InitTick ()) is called automatically
 105:../../Drivers/STM32H7xx_HAL_Driver/Src/stm32h7xx_hal.c ****              at the beginning of the program after reset by HAL_Init() or at any time
 106:../../Drivers/STM32H7xx_HAL_Driver/Src/stm32h7xx_hal.c ****              when clock is configured, by HAL_RCC_ClockConfig().
 107:../../Drivers/STM32H7xx_HAL_Driver/Src/stm32h7xx_hal.c ****         (++) Source of time base is configured  to generate interrupts at regular
 108:../../Drivers/STM32H7xx_HAL_Driver/Src/stm32h7xx_hal.c ****              time intervals. Care must be taken if HAL_Delay() is called from a
 109:../../Drivers/STM32H7xx_HAL_Driver/Src/stm32h7xx_hal.c ****              peripheral ISR process, the Tick interrupt line must have higher priority
 110:../../Drivers/STM32H7xx_HAL_Driver/Src/stm32h7xx_hal.c ****             (numerically lower) than the peripheral interrupt. Otherwise the caller
 111:../../Drivers/STM32H7xx_HAL_Driver/Src/stm32h7xx_hal.c ****             ISR process will be blocked.
 112:../../Drivers/STM32H7xx_HAL_Driver/Src/stm32h7xx_hal.c ****        (++) functions affecting time base configurations are declared as __weak
 113:../../Drivers/STM32H7xx_HAL_Driver/Src/stm32h7xx_hal.c ****              to make  override possible  in case of other  implementations in user file.
 114:../../Drivers/STM32H7xx_HAL_Driver/Src/stm32h7xx_hal.c **** @endverbatim
 115:../../Drivers/STM32H7xx_HAL_Driver/Src/stm32h7xx_hal.c ****   * @{
 116:../../Drivers/STM32H7xx_HAL_Driver/Src/stm32h7xx_hal.c ****   */
 117:../../Drivers/STM32H7xx_HAL_Driver/Src/stm32h7xx_hal.c **** 
 118:../../Drivers/STM32H7xx_HAL_Driver/Src/stm32h7xx_hal.c **** /**
 119:../../Drivers/STM32H7xx_HAL_Driver/Src/stm32h7xx_hal.c ****   * @brief  This function is used to initialize the HAL Library; it must be the first
 120:../../Drivers/STM32H7xx_HAL_Driver/Src/stm32h7xx_hal.c ****   *         instruction to be executed in the main program (before to call any other
 121:../../Drivers/STM32H7xx_HAL_Driver/Src/stm32h7xx_hal.c ****   *         HAL function), it performs the following:
 122:../../Drivers/STM32H7xx_HAL_Driver/Src/stm32h7xx_hal.c ****   *           Configures the SysTick to generate an interrupt each 1 millisecond,
 123:../../Drivers/STM32H7xx_HAL_Driver/Src/stm32h7xx_hal.c ****   *           which is clocked by the HSI (at this stage, the clock is not yet
 124:../../Drivers/STM32H7xx_HAL_Driver/Src/stm32h7xx_hal.c ****   *           configured and thus the system is running from the internal HSI at 16 MHz).
 125:../../Drivers/STM32H7xx_HAL_Driver/Src/stm32h7xx_hal.c ****   *           Set NVIC Group Priority to 4.
 126:../../Drivers/STM32H7xx_HAL_Driver/Src/stm32h7xx_hal.c ****   *           Calls the HAL_MspInit() callback function defined in user file
 127:../../Drivers/STM32H7xx_HAL_Driver/Src/stm32h7xx_hal.c ****   *           "stm32h7xx_hal_msp.c" to do the global low level hardware initialization
 128:../../Drivers/STM32H7xx_HAL_Driver/Src/stm32h7xx_hal.c ****   *
 129:../../Drivers/STM32H7xx_HAL_Driver/Src/stm32h7xx_hal.c ****   * @note   SysTick is used as time base for the HAL_Delay() function, the application
 130:../../Drivers/STM32H7xx_HAL_Driver/Src/stm32h7xx_hal.c ****   *         need to ensure that the SysTick time base is always set to 1 millisecond
 131:../../Drivers/STM32H7xx_HAL_Driver/Src/stm32h7xx_hal.c ****   *         to have correct HAL operation.
 132:../../Drivers/STM32H7xx_HAL_Driver/Src/stm32h7xx_hal.c ****   * @retval HAL status
 133:../../Drivers/STM32H7xx_HAL_Driver/Src/stm32h7xx_hal.c ****   */
 134:../../Drivers/STM32H7xx_HAL_Driver/Src/stm32h7xx_hal.c **** HAL_StatusTypeDef HAL_Init(void)
 135:../../Drivers/STM32H7xx_HAL_Driver/Src/stm32h7xx_hal.c **** {
 136:../../Drivers/STM32H7xx_HAL_Driver/Src/stm32h7xx_hal.c **** 
 137:../../Drivers/STM32H7xx_HAL_Driver/Src/stm32h7xx_hal.c **** uint32_t common_system_clock;
 138:../../Drivers/STM32H7xx_HAL_Driver/Src/stm32h7xx_hal.c **** 
 139:../../Drivers/STM32H7xx_HAL_Driver/Src/stm32h7xx_hal.c **** #if defined(DUAL_CORE) && defined(CORE_CM4)
 140:../../Drivers/STM32H7xx_HAL_Driver/Src/stm32h7xx_hal.c ****    /* Configure Cortex-M4 Instruction cache through ART accelerator */
 141:../../Drivers/STM32H7xx_HAL_Driver/Src/stm32h7xx_hal.c ****    __HAL_RCC_ART_CLK_ENABLE();                   /* Enable the Cortex-M4 ART Clock */
 142:../../Drivers/STM32H7xx_HAL_Driver/Src/stm32h7xx_hal.c ****    __HAL_ART_CONFIG_BASE_ADDRESS(0x08100000UL);  /* Configure the Cortex-M4 ART Base address to the
 143:../../Drivers/STM32H7xx_HAL_Driver/Src/stm32h7xx_hal.c ****    __HAL_ART_ENABLE();                           /* Enable the Cortex-M4 ART */
 144:../../Drivers/STM32H7xx_HAL_Driver/Src/stm32h7xx_hal.c **** #endif /* DUAL_CORE &&  CORE_CM4 */
ARM GAS  /tmp/ccjOvRAM.s 			page 4


 145:../../Drivers/STM32H7xx_HAL_Driver/Src/stm32h7xx_hal.c **** 
 146:../../Drivers/STM32H7xx_HAL_Driver/Src/stm32h7xx_hal.c ****   /* Set Interrupt Group Priority */
 147:../../Drivers/STM32H7xx_HAL_Driver/Src/stm32h7xx_hal.c ****   HAL_NVIC_SetPriorityGrouping(NVIC_PRIORITYGROUP_4);
 148:../../Drivers/STM32H7xx_HAL_Driver/Src/stm32h7xx_hal.c **** 
 149:../../Drivers/STM32H7xx_HAL_Driver/Src/stm32h7xx_hal.c ****   /* Update the SystemCoreClock global variable */
 150:../../Drivers/STM32H7xx_HAL_Driver/Src/stm32h7xx_hal.c **** #if defined(RCC_D1CFGR_D1CPRE)
 151:../../Drivers/STM32H7xx_HAL_Driver/Src/stm32h7xx_hal.c ****   common_system_clock = HAL_RCC_GetSysClockFreq() >> ((D1CorePrescTable[(RCC->D1CFGR & RCC_D1CFGR_D
 152:../../Drivers/STM32H7xx_HAL_Driver/Src/stm32h7xx_hal.c **** #else
 153:../../Drivers/STM32H7xx_HAL_Driver/Src/stm32h7xx_hal.c ****   common_system_clock = HAL_RCC_GetSysClockFreq() >> ((D1CorePrescTable[(RCC->CDCFGR1 & RCC_CDCFGR1
 154:../../Drivers/STM32H7xx_HAL_Driver/Src/stm32h7xx_hal.c **** #endif
 155:../../Drivers/STM32H7xx_HAL_Driver/Src/stm32h7xx_hal.c **** 
 156:../../Drivers/STM32H7xx_HAL_Driver/Src/stm32h7xx_hal.c ****   /* Update the SystemD2Clock global variable */
 157:../../Drivers/STM32H7xx_HAL_Driver/Src/stm32h7xx_hal.c **** #if defined(RCC_D1CFGR_HPRE)
 158:../../Drivers/STM32H7xx_HAL_Driver/Src/stm32h7xx_hal.c ****   SystemD2Clock = (common_system_clock >> ((D1CorePrescTable[(RCC->D1CFGR & RCC_D1CFGR_HPRE)>> RCC_
 159:../../Drivers/STM32H7xx_HAL_Driver/Src/stm32h7xx_hal.c **** #else
 160:../../Drivers/STM32H7xx_HAL_Driver/Src/stm32h7xx_hal.c ****   SystemD2Clock = (common_system_clock >> ((D1CorePrescTable[(RCC->CDCFGR1 & RCC_CDCFGR1_HPRE)>> RC
 161:../../Drivers/STM32H7xx_HAL_Driver/Src/stm32h7xx_hal.c **** #endif
 162:../../Drivers/STM32H7xx_HAL_Driver/Src/stm32h7xx_hal.c **** 
 163:../../Drivers/STM32H7xx_HAL_Driver/Src/stm32h7xx_hal.c **** #if defined(DUAL_CORE) && defined(CORE_CM4)
 164:../../Drivers/STM32H7xx_HAL_Driver/Src/stm32h7xx_hal.c ****   SystemCoreClock = SystemD2Clock;
 165:../../Drivers/STM32H7xx_HAL_Driver/Src/stm32h7xx_hal.c **** #else
 166:../../Drivers/STM32H7xx_HAL_Driver/Src/stm32h7xx_hal.c ****   SystemCoreClock = common_system_clock;
 167:../../Drivers/STM32H7xx_HAL_Driver/Src/stm32h7xx_hal.c **** #endif /* DUAL_CORE && CORE_CM4 */
 168:../../Drivers/STM32H7xx_HAL_Driver/Src/stm32h7xx_hal.c **** 
 169:../../Drivers/STM32H7xx_HAL_Driver/Src/stm32h7xx_hal.c ****   /* Use systick as time base source and configure 1ms tick (default clock after Reset is HSI) */
 170:../../Drivers/STM32H7xx_HAL_Driver/Src/stm32h7xx_hal.c ****   if(HAL_InitTick(TICK_INT_PRIORITY) != HAL_OK)
 171:../../Drivers/STM32H7xx_HAL_Driver/Src/stm32h7xx_hal.c ****   {
 172:../../Drivers/STM32H7xx_HAL_Driver/Src/stm32h7xx_hal.c ****     return HAL_ERROR;
 173:../../Drivers/STM32H7xx_HAL_Driver/Src/stm32h7xx_hal.c ****   }
 174:../../Drivers/STM32H7xx_HAL_Driver/Src/stm32h7xx_hal.c **** 
 175:../../Drivers/STM32H7xx_HAL_Driver/Src/stm32h7xx_hal.c ****   /* Init the low level hardware */
 176:../../Drivers/STM32H7xx_HAL_Driver/Src/stm32h7xx_hal.c ****   HAL_MspInit();
 177:../../Drivers/STM32H7xx_HAL_Driver/Src/stm32h7xx_hal.c **** 
 178:../../Drivers/STM32H7xx_HAL_Driver/Src/stm32h7xx_hal.c ****   /* Return function status */
 179:../../Drivers/STM32H7xx_HAL_Driver/Src/stm32h7xx_hal.c ****   return HAL_OK;
 180:../../Drivers/STM32H7xx_HAL_Driver/Src/stm32h7xx_hal.c **** }
 181:../../Drivers/STM32H7xx_HAL_Driver/Src/stm32h7xx_hal.c **** 
 182:../../Drivers/STM32H7xx_HAL_Driver/Src/stm32h7xx_hal.c **** /**
 183:../../Drivers/STM32H7xx_HAL_Driver/Src/stm32h7xx_hal.c ****   * @brief  This function de-Initializes common part of the HAL and stops the systick.
 184:../../Drivers/STM32H7xx_HAL_Driver/Src/stm32h7xx_hal.c ****   *         This function is optional.
 185:../../Drivers/STM32H7xx_HAL_Driver/Src/stm32h7xx_hal.c ****   * @retval HAL status
 186:../../Drivers/STM32H7xx_HAL_Driver/Src/stm32h7xx_hal.c ****   */
 187:../../Drivers/STM32H7xx_HAL_Driver/Src/stm32h7xx_hal.c **** HAL_StatusTypeDef HAL_DeInit(void)
 188:../../Drivers/STM32H7xx_HAL_Driver/Src/stm32h7xx_hal.c **** {
 189:../../Drivers/STM32H7xx_HAL_Driver/Src/stm32h7xx_hal.c ****   /* Reset of all peripherals */
 190:../../Drivers/STM32H7xx_HAL_Driver/Src/stm32h7xx_hal.c ****   __HAL_RCC_AHB3_FORCE_RESET();
 191:../../Drivers/STM32H7xx_HAL_Driver/Src/stm32h7xx_hal.c ****   __HAL_RCC_AHB3_RELEASE_RESET();
 192:../../Drivers/STM32H7xx_HAL_Driver/Src/stm32h7xx_hal.c **** 
 193:../../Drivers/STM32H7xx_HAL_Driver/Src/stm32h7xx_hal.c ****   __HAL_RCC_AHB1_FORCE_RESET();
 194:../../Drivers/STM32H7xx_HAL_Driver/Src/stm32h7xx_hal.c ****   __HAL_RCC_AHB1_RELEASE_RESET();
 195:../../Drivers/STM32H7xx_HAL_Driver/Src/stm32h7xx_hal.c **** 
 196:../../Drivers/STM32H7xx_HAL_Driver/Src/stm32h7xx_hal.c ****   __HAL_RCC_AHB2_FORCE_RESET();
 197:../../Drivers/STM32H7xx_HAL_Driver/Src/stm32h7xx_hal.c ****   __HAL_RCC_AHB2_RELEASE_RESET();
 198:../../Drivers/STM32H7xx_HAL_Driver/Src/stm32h7xx_hal.c **** 
 199:../../Drivers/STM32H7xx_HAL_Driver/Src/stm32h7xx_hal.c ****   __HAL_RCC_AHB4_FORCE_RESET();
 200:../../Drivers/STM32H7xx_HAL_Driver/Src/stm32h7xx_hal.c ****  __HAL_RCC_AHB4_RELEASE_RESET();
 201:../../Drivers/STM32H7xx_HAL_Driver/Src/stm32h7xx_hal.c **** 
ARM GAS  /tmp/ccjOvRAM.s 			page 5


 202:../../Drivers/STM32H7xx_HAL_Driver/Src/stm32h7xx_hal.c ****   __HAL_RCC_APB3_FORCE_RESET();
 203:../../Drivers/STM32H7xx_HAL_Driver/Src/stm32h7xx_hal.c ****   __HAL_RCC_APB3_RELEASE_RESET();
 204:../../Drivers/STM32H7xx_HAL_Driver/Src/stm32h7xx_hal.c **** 
 205:../../Drivers/STM32H7xx_HAL_Driver/Src/stm32h7xx_hal.c ****   __HAL_RCC_APB1L_FORCE_RESET();
 206:../../Drivers/STM32H7xx_HAL_Driver/Src/stm32h7xx_hal.c ****   __HAL_RCC_APB1L_RELEASE_RESET();
 207:../../Drivers/STM32H7xx_HAL_Driver/Src/stm32h7xx_hal.c **** 
 208:../../Drivers/STM32H7xx_HAL_Driver/Src/stm32h7xx_hal.c ****   __HAL_RCC_APB1H_FORCE_RESET();
 209:../../Drivers/STM32H7xx_HAL_Driver/Src/stm32h7xx_hal.c ****   __HAL_RCC_APB1H_RELEASE_RESET();
 210:../../Drivers/STM32H7xx_HAL_Driver/Src/stm32h7xx_hal.c **** 
 211:../../Drivers/STM32H7xx_HAL_Driver/Src/stm32h7xx_hal.c ****    __HAL_RCC_APB2_FORCE_RESET();
 212:../../Drivers/STM32H7xx_HAL_Driver/Src/stm32h7xx_hal.c ****    __HAL_RCC_APB2_RELEASE_RESET();
 213:../../Drivers/STM32H7xx_HAL_Driver/Src/stm32h7xx_hal.c **** 
 214:../../Drivers/STM32H7xx_HAL_Driver/Src/stm32h7xx_hal.c ****   __HAL_RCC_APB4_FORCE_RESET();
 215:../../Drivers/STM32H7xx_HAL_Driver/Src/stm32h7xx_hal.c ****   __HAL_RCC_APB4_RELEASE_RESET();
 216:../../Drivers/STM32H7xx_HAL_Driver/Src/stm32h7xx_hal.c **** 
 217:../../Drivers/STM32H7xx_HAL_Driver/Src/stm32h7xx_hal.c ****   /* De-Init the low level hardware */
 218:../../Drivers/STM32H7xx_HAL_Driver/Src/stm32h7xx_hal.c ****   HAL_MspDeInit();
 219:../../Drivers/STM32H7xx_HAL_Driver/Src/stm32h7xx_hal.c **** 
 220:../../Drivers/STM32H7xx_HAL_Driver/Src/stm32h7xx_hal.c ****   /* Return function status */
 221:../../Drivers/STM32H7xx_HAL_Driver/Src/stm32h7xx_hal.c ****   return HAL_OK;
 222:../../Drivers/STM32H7xx_HAL_Driver/Src/stm32h7xx_hal.c **** }
 223:../../Drivers/STM32H7xx_HAL_Driver/Src/stm32h7xx_hal.c **** 
 224:../../Drivers/STM32H7xx_HAL_Driver/Src/stm32h7xx_hal.c **** /**
 225:../../Drivers/STM32H7xx_HAL_Driver/Src/stm32h7xx_hal.c ****   * @brief  Initializes the MSP.
 226:../../Drivers/STM32H7xx_HAL_Driver/Src/stm32h7xx_hal.c ****   * @retval None
 227:../../Drivers/STM32H7xx_HAL_Driver/Src/stm32h7xx_hal.c ****   */
 228:../../Drivers/STM32H7xx_HAL_Driver/Src/stm32h7xx_hal.c **** __weak void HAL_MspInit(void)
 229:../../Drivers/STM32H7xx_HAL_Driver/Src/stm32h7xx_hal.c **** {
  29              		.loc 1 229 1 view -0
  30              		.cfi_startproc
  31              		@ args = 0, pretend = 0, frame = 0
  32              		@ frame_needed = 0, uses_anonymous_args = 0
  33              		@ link register save eliminated.
 230:../../Drivers/STM32H7xx_HAL_Driver/Src/stm32h7xx_hal.c ****   /* NOTE : This function Should not be modified, when the callback is needed,
 231:../../Drivers/STM32H7xx_HAL_Driver/Src/stm32h7xx_hal.c ****             the HAL_MspInit could be implemented in the user file
 232:../../Drivers/STM32H7xx_HAL_Driver/Src/stm32h7xx_hal.c ****    */
 233:../../Drivers/STM32H7xx_HAL_Driver/Src/stm32h7xx_hal.c **** }
  34              		.loc 1 233 1 view .LVU1
  35 0000 7047     		bx	lr
  36              		.cfi_endproc
  37              	.LFE134:
  39              		.section	.text.HAL_MspDeInit,"ax",%progbits
  40              		.align	1
  41              		.weak	HAL_MspDeInit
  42              		.syntax unified
  43              		.thumb
  44              		.thumb_func
  45              		.fpu fpv4-sp-d16
  47              	HAL_MspDeInit:
  48              	.LFB135:
 234:../../Drivers/STM32H7xx_HAL_Driver/Src/stm32h7xx_hal.c **** 
 235:../../Drivers/STM32H7xx_HAL_Driver/Src/stm32h7xx_hal.c **** /**
 236:../../Drivers/STM32H7xx_HAL_Driver/Src/stm32h7xx_hal.c ****   * @brief  DeInitializes the MSP.
 237:../../Drivers/STM32H7xx_HAL_Driver/Src/stm32h7xx_hal.c ****   * @retval None
 238:../../Drivers/STM32H7xx_HAL_Driver/Src/stm32h7xx_hal.c ****   */
 239:../../Drivers/STM32H7xx_HAL_Driver/Src/stm32h7xx_hal.c **** __weak void HAL_MspDeInit(void)
 240:../../Drivers/STM32H7xx_HAL_Driver/Src/stm32h7xx_hal.c **** {
ARM GAS  /tmp/ccjOvRAM.s 			page 6


  49              		.loc 1 240 1 view -0
  50              		.cfi_startproc
  51              		@ args = 0, pretend = 0, frame = 0
  52              		@ frame_needed = 0, uses_anonymous_args = 0
  53              		@ link register save eliminated.
 241:../../Drivers/STM32H7xx_HAL_Driver/Src/stm32h7xx_hal.c ****   /* NOTE : This function Should not be modified, when the callback is needed,
 242:../../Drivers/STM32H7xx_HAL_Driver/Src/stm32h7xx_hal.c ****             the HAL_MspDeInit could be implemented in the user file
 243:../../Drivers/STM32H7xx_HAL_Driver/Src/stm32h7xx_hal.c ****    */
 244:../../Drivers/STM32H7xx_HAL_Driver/Src/stm32h7xx_hal.c **** }
  54              		.loc 1 244 1 view .LVU3
  55 0000 7047     		bx	lr
  56              		.cfi_endproc
  57              	.LFE135:
  59              		.section	.text.HAL_DeInit,"ax",%progbits
  60              		.align	1
  61              		.global	HAL_DeInit
  62              		.syntax unified
  63              		.thumb
  64              		.thumb_func
  65              		.fpu fpv4-sp-d16
  67              	HAL_DeInit:
  68              	.LFB133:
 188:../../Drivers/STM32H7xx_HAL_Driver/Src/stm32h7xx_hal.c ****   /* Reset of all peripherals */
  69              		.loc 1 188 1 view -0
  70              		.cfi_startproc
  71              		@ args = 0, pretend = 0, frame = 0
  72              		@ frame_needed = 0, uses_anonymous_args = 0
  73 0000 10B5     		push	{r4, lr}
  74              	.LCFI0:
  75              		.cfi_def_cfa_offset 8
  76              		.cfi_offset 4, -8
  77              		.cfi_offset 14, -4
 190:../../Drivers/STM32H7xx_HAL_Driver/Src/stm32h7xx_hal.c ****   __HAL_RCC_AHB3_RELEASE_RESET();
  78              		.loc 1 190 3 view .LVU5
  79 0002 194B     		ldr	r3, .L5
  80 0004 194A     		ldr	r2, .L5+4
  81 0006 DA67     		str	r2, [r3, #124]
 191:../../Drivers/STM32H7xx_HAL_Driver/Src/stm32h7xx_hal.c **** 
  82              		.loc 1 191 3 view .LVU6
  83 0008 0024     		movs	r4, #0
  84 000a DC67     		str	r4, [r3, #124]
 193:../../Drivers/STM32H7xx_HAL_Driver/Src/stm32h7xx_hal.c ****   __HAL_RCC_AHB1_RELEASE_RESET();
  85              		.loc 1 193 3 view .LVU7
  86 000c 184A     		ldr	r2, .L5+8
  87 000e C3F88020 		str	r2, [r3, #128]
 194:../../Drivers/STM32H7xx_HAL_Driver/Src/stm32h7xx_hal.c **** 
  88              		.loc 1 194 3 view .LVU8
  89 0012 C3F88040 		str	r4, [r3, #128]
 196:../../Drivers/STM32H7xx_HAL_Driver/Src/stm32h7xx_hal.c ****   __HAL_RCC_AHB2_RELEASE_RESET();
  90              		.loc 1 196 3 view .LVU9
  91 0016 40F27122 		movw	r2, #625
  92 001a C3F88420 		str	r2, [r3, #132]
 197:../../Drivers/STM32H7xx_HAL_Driver/Src/stm32h7xx_hal.c **** 
  93              		.loc 1 197 3 view .LVU10
  94 001e C3F88440 		str	r4, [r3, #132]
 199:../../Drivers/STM32H7xx_HAL_Driver/Src/stm32h7xx_hal.c ****  __HAL_RCC_AHB4_RELEASE_RESET();
  95              		.loc 1 199 3 view .LVU11
ARM GAS  /tmp/ccjOvRAM.s 			page 7


  96 0022 144A     		ldr	r2, .L5+12
  97 0024 C3F88820 		str	r2, [r3, #136]
 200:../../Drivers/STM32H7xx_HAL_Driver/Src/stm32h7xx_hal.c **** 
  98              		.loc 1 200 2 view .LVU12
  99 0028 C3F88840 		str	r4, [r3, #136]
 202:../../Drivers/STM32H7xx_HAL_Driver/Src/stm32h7xx_hal.c ****   __HAL_RCC_APB3_RELEASE_RESET();
 100              		.loc 1 202 3 view .LVU13
 101 002c 1822     		movs	r2, #24
 102 002e C3F88C20 		str	r2, [r3, #140]
 203:../../Drivers/STM32H7xx_HAL_Driver/Src/stm32h7xx_hal.c **** 
 103              		.loc 1 203 3 view .LVU14
 104 0032 C3F88C40 		str	r4, [r3, #140]
 205:../../Drivers/STM32H7xx_HAL_Driver/Src/stm32h7xx_hal.c ****   __HAL_RCC_APB1L_RELEASE_RESET();
 105              		.loc 1 205 3 view .LVU15
 106 0036 104A     		ldr	r2, .L5+16
 107 0038 C3F89020 		str	r2, [r3, #144]
 206:../../Drivers/STM32H7xx_HAL_Driver/Src/stm32h7xx_hal.c **** 
 108              		.loc 1 206 3 view .LVU16
 109 003c C3F89040 		str	r4, [r3, #144]
 208:../../Drivers/STM32H7xx_HAL_Driver/Src/stm32h7xx_hal.c ****   __HAL_RCC_APB1H_RELEASE_RESET();
 110              		.loc 1 208 3 view .LVU17
 111 0040 4FF49B72 		mov	r2, #310
 112 0044 C3F89420 		str	r2, [r3, #148]
 209:../../Drivers/STM32H7xx_HAL_Driver/Src/stm32h7xx_hal.c **** 
 113              		.loc 1 209 3 view .LVU18
 114 0048 C3F89440 		str	r4, [r3, #148]
 211:../../Drivers/STM32H7xx_HAL_Driver/Src/stm32h7xx_hal.c ****    __HAL_RCC_APB2_RELEASE_RESET();
 115              		.loc 1 211 4 view .LVU19
 116 004c 0B4A     		ldr	r2, .L5+20
 117 004e C3F89820 		str	r2, [r3, #152]
 212:../../Drivers/STM32H7xx_HAL_Driver/Src/stm32h7xx_hal.c **** 
 118              		.loc 1 212 4 view .LVU20
 119 0052 C3F89840 		str	r4, [r3, #152]
 214:../../Drivers/STM32H7xx_HAL_Driver/Src/stm32h7xx_hal.c ****   __HAL_RCC_APB4_RELEASE_RESET();
 120              		.loc 1 214 3 view .LVU21
 121 0056 0A4A     		ldr	r2, .L5+24
 122 0058 C3F89C20 		str	r2, [r3, #156]
 215:../../Drivers/STM32H7xx_HAL_Driver/Src/stm32h7xx_hal.c **** 
 123              		.loc 1 215 3 view .LVU22
 124 005c C3F89C40 		str	r4, [r3, #156]
 218:../../Drivers/STM32H7xx_HAL_Driver/Src/stm32h7xx_hal.c **** 
 125              		.loc 1 218 3 view .LVU23
 126 0060 FFF7FEFF 		bl	HAL_MspDeInit
 127              	.LVL0:
 221:../../Drivers/STM32H7xx_HAL_Driver/Src/stm32h7xx_hal.c **** }
 128              		.loc 1 221 3 view .LVU24
 222:../../Drivers/STM32H7xx_HAL_Driver/Src/stm32h7xx_hal.c **** 
 129              		.loc 1 222 1 is_stmt 0 view .LVU25
 130 0064 2046     		mov	r0, r4
 131 0066 10BD     		pop	{r4, pc}
 132              	.L6:
 133              		.align	2
 134              	.L5:
 135 0068 00440258 		.word	1476543488
 136 006c 31500100 		.word	86065
 137 0070 23C0000A 		.word	167821347
 138 0074 FF072803 		.word	52955135
ARM GAS  /tmp/ccjOvRAM.s 			page 8


 139 0078 FFC3FFE8 		.word	-385891329
 140 007c 3330D731 		.word	836186163
 141 0080 AADE2000 		.word	2154154
 142              		.cfi_endproc
 143              	.LFE133:
 145              		.section	.text.HAL_InitTick,"ax",%progbits
 146              		.align	1
 147              		.weak	HAL_InitTick
 148              		.syntax unified
 149              		.thumb
 150              		.thumb_func
 151              		.fpu fpv4-sp-d16
 153              	HAL_InitTick:
 154              	.LVL1:
 155              	.LFB136:
 245:../../Drivers/STM32H7xx_HAL_Driver/Src/stm32h7xx_hal.c **** 
 246:../../Drivers/STM32H7xx_HAL_Driver/Src/stm32h7xx_hal.c **** /**
 247:../../Drivers/STM32H7xx_HAL_Driver/Src/stm32h7xx_hal.c ****   * @brief This function configures the source of the time base.
 248:../../Drivers/STM32H7xx_HAL_Driver/Src/stm32h7xx_hal.c ****   *        The time source is configured  to have 1ms time base with a dedicated
 249:../../Drivers/STM32H7xx_HAL_Driver/Src/stm32h7xx_hal.c ****   *        Tick interrupt priority.
 250:../../Drivers/STM32H7xx_HAL_Driver/Src/stm32h7xx_hal.c ****   * @note This function is called  automatically at the beginning of program after
 251:../../Drivers/STM32H7xx_HAL_Driver/Src/stm32h7xx_hal.c ****   *       reset by HAL_Init() or at any time when clock is reconfigured  by HAL_RCC_ClockConfig().
 252:../../Drivers/STM32H7xx_HAL_Driver/Src/stm32h7xx_hal.c ****   * @note In the default implementation, SysTick timer is the source of time base.
 253:../../Drivers/STM32H7xx_HAL_Driver/Src/stm32h7xx_hal.c ****   *       It is used to generate interrupts at regular time intervals.
 254:../../Drivers/STM32H7xx_HAL_Driver/Src/stm32h7xx_hal.c ****   *       Care must be taken if HAL_Delay() is called from a peripheral ISR process,
 255:../../Drivers/STM32H7xx_HAL_Driver/Src/stm32h7xx_hal.c ****   *       the SysTick interrupt must have higher priority (numerically lower)
 256:../../Drivers/STM32H7xx_HAL_Driver/Src/stm32h7xx_hal.c ****   *       than the peripheral interrupt. Otherwise the caller ISR process will be blocked.
 257:../../Drivers/STM32H7xx_HAL_Driver/Src/stm32h7xx_hal.c ****   *       The function is declared as __weak  to be overwritten  in case of other
 258:../../Drivers/STM32H7xx_HAL_Driver/Src/stm32h7xx_hal.c ****   *       implementation  in user file.
 259:../../Drivers/STM32H7xx_HAL_Driver/Src/stm32h7xx_hal.c ****   * @param TickPriority: Tick interrupt priority.
 260:../../Drivers/STM32H7xx_HAL_Driver/Src/stm32h7xx_hal.c ****   * @retval HAL status
 261:../../Drivers/STM32H7xx_HAL_Driver/Src/stm32h7xx_hal.c ****   */
 262:../../Drivers/STM32H7xx_HAL_Driver/Src/stm32h7xx_hal.c **** __weak HAL_StatusTypeDef HAL_InitTick(uint32_t TickPriority)
 263:../../Drivers/STM32H7xx_HAL_Driver/Src/stm32h7xx_hal.c **** {
 156              		.loc 1 263 1 is_stmt 1 view -0
 157              		.cfi_startproc
 158              		@ args = 0, pretend = 0, frame = 0
 159              		@ frame_needed = 0, uses_anonymous_args = 0
 264:../../Drivers/STM32H7xx_HAL_Driver/Src/stm32h7xx_hal.c ****   /* Check uwTickFreq for MisraC 2012 (even if uwTickFreq is a enum type that don't take the value 
 265:../../Drivers/STM32H7xx_HAL_Driver/Src/stm32h7xx_hal.c ****   if((uint32_t)uwTickFreq == 0UL)
 160              		.loc 1 265 3 view .LVU27
 161              		.loc 1 265 27 is_stmt 0 view .LVU28
 162 0000 104B     		ldr	r3, .L18
 163 0002 1B78     		ldrb	r3, [r3]	@ zero_extendqisi2
 164              		.loc 1 265 5 view .LVU29
 165 0004 0BB9     		cbnz	r3, .L16
 266:../../Drivers/STM32H7xx_HAL_Driver/Src/stm32h7xx_hal.c ****   {
 267:../../Drivers/STM32H7xx_HAL_Driver/Src/stm32h7xx_hal.c ****     return HAL_ERROR;
 166              		.loc 1 267 12 view .LVU30
 167 0006 0120     		movs	r0, #1
 168              	.LVL2:
 268:../../Drivers/STM32H7xx_HAL_Driver/Src/stm32h7xx_hal.c ****   }
 269:../../Drivers/STM32H7xx_HAL_Driver/Src/stm32h7xx_hal.c **** 
 270:../../Drivers/STM32H7xx_HAL_Driver/Src/stm32h7xx_hal.c ****     /* Configure the SysTick to have interrupt in 1ms time basis*/
 271:../../Drivers/STM32H7xx_HAL_Driver/Src/stm32h7xx_hal.c ****     if (HAL_SYSTICK_Config(SystemCoreClock / (1000UL / (uint32_t)uwTickFreq)) > 0U)
 272:../../Drivers/STM32H7xx_HAL_Driver/Src/stm32h7xx_hal.c ****     {
 273:../../Drivers/STM32H7xx_HAL_Driver/Src/stm32h7xx_hal.c ****       return HAL_ERROR;
ARM GAS  /tmp/ccjOvRAM.s 			page 9


 274:../../Drivers/STM32H7xx_HAL_Driver/Src/stm32h7xx_hal.c ****     }
 275:../../Drivers/STM32H7xx_HAL_Driver/Src/stm32h7xx_hal.c **** 
 276:../../Drivers/STM32H7xx_HAL_Driver/Src/stm32h7xx_hal.c ****   /* Configure the SysTick IRQ priority */
 277:../../Drivers/STM32H7xx_HAL_Driver/Src/stm32h7xx_hal.c ****   if (TickPriority < (1UL << __NVIC_PRIO_BITS))
 278:../../Drivers/STM32H7xx_HAL_Driver/Src/stm32h7xx_hal.c ****   {
 279:../../Drivers/STM32H7xx_HAL_Driver/Src/stm32h7xx_hal.c ****     HAL_NVIC_SetPriority(SysTick_IRQn, TickPriority, 0U);
 280:../../Drivers/STM32H7xx_HAL_Driver/Src/stm32h7xx_hal.c ****     uwTickPrio = TickPriority;
 281:../../Drivers/STM32H7xx_HAL_Driver/Src/stm32h7xx_hal.c ****   }
 282:../../Drivers/STM32H7xx_HAL_Driver/Src/stm32h7xx_hal.c ****   else
 283:../../Drivers/STM32H7xx_HAL_Driver/Src/stm32h7xx_hal.c ****   {
 284:../../Drivers/STM32H7xx_HAL_Driver/Src/stm32h7xx_hal.c ****     return HAL_ERROR;
 285:../../Drivers/STM32H7xx_HAL_Driver/Src/stm32h7xx_hal.c ****   }
 286:../../Drivers/STM32H7xx_HAL_Driver/Src/stm32h7xx_hal.c **** 
 287:../../Drivers/STM32H7xx_HAL_Driver/Src/stm32h7xx_hal.c ****   /* Return function status */
 288:../../Drivers/STM32H7xx_HAL_Driver/Src/stm32h7xx_hal.c ****   return HAL_OK;
 289:../../Drivers/STM32H7xx_HAL_Driver/Src/stm32h7xx_hal.c **** }
 169              		.loc 1 289 1 view .LVU31
 170 0008 7047     		bx	lr
 171              	.LVL3:
 172              	.L16:
 263:../../Drivers/STM32H7xx_HAL_Driver/Src/stm32h7xx_hal.c ****   /* Check uwTickFreq for MisraC 2012 (even if uwTickFreq is a enum type that don't take the value 
 173              		.loc 1 263 1 view .LVU32
 174 000a 10B5     		push	{r4, lr}
 175              	.LCFI1:
 176              		.cfi_def_cfa_offset 8
 177              		.cfi_offset 4, -8
 178              		.cfi_offset 14, -4
 179 000c 0446     		mov	r4, r0
 271:../../Drivers/STM32H7xx_HAL_Driver/Src/stm32h7xx_hal.c ****     {
 180              		.loc 1 271 5 is_stmt 1 view .LVU33
 271:../../Drivers/STM32H7xx_HAL_Driver/Src/stm32h7xx_hal.c ****     {
 181              		.loc 1 271 54 is_stmt 0 view .LVU34
 182 000e 4FF47A70 		mov	r0, #1000
 183              	.LVL4:
 271:../../Drivers/STM32H7xx_HAL_Driver/Src/stm32h7xx_hal.c ****     {
 184              		.loc 1 271 54 view .LVU35
 185 0012 B0FBF3F3 		udiv	r3, r0, r3
 271:../../Drivers/STM32H7xx_HAL_Driver/Src/stm32h7xx_hal.c ****     {
 186              		.loc 1 271 9 view .LVU36
 187 0016 0C4A     		ldr	r2, .L18+4
 188 0018 1068     		ldr	r0, [r2]
 189 001a B0FBF3F0 		udiv	r0, r0, r3
 190 001e FFF7FEFF 		bl	HAL_SYSTICK_Config
 191              	.LVL5:
 271:../../Drivers/STM32H7xx_HAL_Driver/Src/stm32h7xx_hal.c ****     {
 192              		.loc 1 271 8 view .LVU37
 193 0022 68B9     		cbnz	r0, .L10
 277:../../Drivers/STM32H7xx_HAL_Driver/Src/stm32h7xx_hal.c ****   {
 194              		.loc 1 277 3 is_stmt 1 view .LVU38
 277:../../Drivers/STM32H7xx_HAL_Driver/Src/stm32h7xx_hal.c ****   {
 195              		.loc 1 277 6 is_stmt 0 view .LVU39
 196 0024 0F2C     		cmp	r4, #15
 197 0026 01D9     		bls	.L17
 284:../../Drivers/STM32H7xx_HAL_Driver/Src/stm32h7xx_hal.c ****   }
 198              		.loc 1 284 12 view .LVU40
 199 0028 0120     		movs	r0, #1
 200 002a 0AE0     		b	.L8
ARM GAS  /tmp/ccjOvRAM.s 			page 10


 201              	.L17:
 279:../../Drivers/STM32H7xx_HAL_Driver/Src/stm32h7xx_hal.c ****     uwTickPrio = TickPriority;
 202              		.loc 1 279 5 is_stmt 1 view .LVU41
 203 002c 0022     		movs	r2, #0
 204 002e 2146     		mov	r1, r4
 205 0030 4FF0FF30 		mov	r0, #-1
 206 0034 FFF7FEFF 		bl	HAL_NVIC_SetPriority
 207              	.LVL6:
 280:../../Drivers/STM32H7xx_HAL_Driver/Src/stm32h7xx_hal.c ****   }
 208              		.loc 1 280 5 view .LVU42
 280:../../Drivers/STM32H7xx_HAL_Driver/Src/stm32h7xx_hal.c ****   }
 209              		.loc 1 280 16 is_stmt 0 view .LVU43
 210 0038 044B     		ldr	r3, .L18+8
 211 003a 1C60     		str	r4, [r3]
 288:../../Drivers/STM32H7xx_HAL_Driver/Src/stm32h7xx_hal.c **** }
 212              		.loc 1 288 3 is_stmt 1 view .LVU44
 288:../../Drivers/STM32H7xx_HAL_Driver/Src/stm32h7xx_hal.c **** }
 213              		.loc 1 288 10 is_stmt 0 view .LVU45
 214 003c 0020     		movs	r0, #0
 215 003e 00E0     		b	.L8
 216              	.L10:
 273:../../Drivers/STM32H7xx_HAL_Driver/Src/stm32h7xx_hal.c ****     }
 217              		.loc 1 273 14 view .LVU46
 218 0040 0120     		movs	r0, #1
 219              	.L8:
 220              		.loc 1 289 1 view .LVU47
 221 0042 10BD     		pop	{r4, pc}
 222              	.LVL7:
 223              	.L19:
 224              		.loc 1 289 1 view .LVU48
 225              		.align	2
 226              	.L18:
 227 0044 00000000 		.word	.LANCHOR0
 228 0048 00000000 		.word	SystemCoreClock
 229 004c 00000000 		.word	.LANCHOR1
 230              		.cfi_endproc
 231              	.LFE136:
 233              		.section	.text.HAL_Init,"ax",%progbits
 234              		.align	1
 235              		.global	HAL_Init
 236              		.syntax unified
 237              		.thumb
 238              		.thumb_func
 239              		.fpu fpv4-sp-d16
 241              	HAL_Init:
 242              	.LFB132:
 135:../../Drivers/STM32H7xx_HAL_Driver/Src/stm32h7xx_hal.c **** 
 243              		.loc 1 135 1 is_stmt 1 view -0
 244              		.cfi_startproc
 245              		@ args = 0, pretend = 0, frame = 8
 246              		@ frame_needed = 0, uses_anonymous_args = 0
 247 0000 10B5     		push	{r4, lr}
 248              	.LCFI2:
 249              		.cfi_def_cfa_offset 8
 250              		.cfi_offset 4, -8
 251              		.cfi_offset 14, -4
 252 0002 82B0     		sub	sp, sp, #8
ARM GAS  /tmp/ccjOvRAM.s 			page 11


 253              	.LCFI3:
 254              		.cfi_def_cfa_offset 16
 137:../../Drivers/STM32H7xx_HAL_Driver/Src/stm32h7xx_hal.c **** 
 255              		.loc 1 137 1 view .LVU50
 141:../../Drivers/STM32H7xx_HAL_Driver/Src/stm32h7xx_hal.c ****    __HAL_ART_CONFIG_BASE_ADDRESS(0x08100000UL);  /* Configure the Cortex-M4 ART Base address to the
 256              		.loc 1 141 4 view .LVU51
 257              	.LBB2:
 141:../../Drivers/STM32H7xx_HAL_Driver/Src/stm32h7xx_hal.c ****    __HAL_ART_CONFIG_BASE_ADDRESS(0x08100000UL);  /* Configure the Cortex-M4 ART Base address to the
 258              		.loc 1 141 4 view .LVU52
 141:../../Drivers/STM32H7xx_HAL_Driver/Src/stm32h7xx_hal.c ****    __HAL_ART_CONFIG_BASE_ADDRESS(0x08100000UL);  /* Configure the Cortex-M4 ART Base address to the
 259              		.loc 1 141 4 view .LVU53
 260 0004 1F4C     		ldr	r4, .L25
 261 0006 D4F8D830 		ldr	r3, [r4, #216]
 262 000a 43F48043 		orr	r3, r3, #16384
 263 000e C4F8D830 		str	r3, [r4, #216]
 141:../../Drivers/STM32H7xx_HAL_Driver/Src/stm32h7xx_hal.c ****    __HAL_ART_CONFIG_BASE_ADDRESS(0x08100000UL);  /* Configure the Cortex-M4 ART Base address to the
 264              		.loc 1 141 4 view .LVU54
 265 0012 D4F8D830 		ldr	r3, [r4, #216]
 266 0016 03F48043 		and	r3, r3, #16384
 267 001a 0193     		str	r3, [sp, #4]
 141:../../Drivers/STM32H7xx_HAL_Driver/Src/stm32h7xx_hal.c ****    __HAL_ART_CONFIG_BASE_ADDRESS(0x08100000UL);  /* Configure the Cortex-M4 ART Base address to the
 268              		.loc 1 141 4 view .LVU55
 269 001c 019B     		ldr	r3, [sp, #4]
 270              	.LBE2:
 141:../../Drivers/STM32H7xx_HAL_Driver/Src/stm32h7xx_hal.c ****    __HAL_ART_CONFIG_BASE_ADDRESS(0x08100000UL);  /* Configure the Cortex-M4 ART Base address to the
 271              		.loc 1 141 4 view .LVU56
 142:../../Drivers/STM32H7xx_HAL_Driver/Src/stm32h7xx_hal.c ****    __HAL_ART_ENABLE();                           /* Enable the Cortex-M4 ART */
 272              		.loc 1 142 4 view .LVU57
 273 001e 1A4A     		ldr	r2, .L25+4
 274 0020 D2F80014 		ldr	r1, [r2, #1024]
 275 0024 194B     		ldr	r3, .L25+8
 276 0026 0B40     		ands	r3, r3, r1
 277 0028 43F40143 		orr	r3, r3, #33024
 278 002c C2F80034 		str	r3, [r2, #1024]
 143:../../Drivers/STM32H7xx_HAL_Driver/Src/stm32h7xx_hal.c **** #endif /* DUAL_CORE &&  CORE_CM4 */
 279              		.loc 1 143 4 view .LVU58
 280 0030 D2F80034 		ldr	r3, [r2, #1024]
 281 0034 43F00103 		orr	r3, r3, #1
 282 0038 C2F80034 		str	r3, [r2, #1024]
 147:../../Drivers/STM32H7xx_HAL_Driver/Src/stm32h7xx_hal.c **** 
 283              		.loc 1 147 3 view .LVU59
 284 003c 0320     		movs	r0, #3
 285 003e FFF7FEFF 		bl	HAL_NVIC_SetPriorityGrouping
 286              	.LVL8:
 151:../../Drivers/STM32H7xx_HAL_Driver/Src/stm32h7xx_hal.c **** #else
 287              		.loc 1 151 3 view .LVU60
 151:../../Drivers/STM32H7xx_HAL_Driver/Src/stm32h7xx_hal.c **** #else
 288              		.loc 1 151 25 is_stmt 0 view .LVU61
 289 0042 FFF7FEFF 		bl	HAL_RCC_GetSysClockFreq
 290              	.LVL9:
 151:../../Drivers/STM32H7xx_HAL_Driver/Src/stm32h7xx_hal.c **** #else
 291              		.loc 1 151 77 view .LVU62
 292 0046 A369     		ldr	r3, [r4, #24]
 151:../../Drivers/STM32H7xx_HAL_Driver/Src/stm32h7xx_hal.c **** #else
 293              		.loc 1 151 106 view .LVU63
 294 0048 C3F30323 		ubfx	r3, r3, #8, #4
 151:../../Drivers/STM32H7xx_HAL_Driver/Src/stm32h7xx_hal.c **** #else
ARM GAS  /tmp/ccjOvRAM.s 			page 12


 295              		.loc 1 151 72 view .LVU64
 296 004c 104A     		ldr	r2, .L25+12
 297 004e D35C     		ldrb	r3, [r2, r3]	@ zero_extendqisi2
 151:../../Drivers/STM32H7xx_HAL_Driver/Src/stm32h7xx_hal.c **** #else
 298              		.loc 1 151 133 view .LVU65
 299 0050 03F01F03 		and	r3, r3, #31
 151:../../Drivers/STM32H7xx_HAL_Driver/Src/stm32h7xx_hal.c **** #else
 300              		.loc 1 151 23 view .LVU66
 301 0054 D840     		lsrs	r0, r0, r3
 302              	.LVL10:
 158:../../Drivers/STM32H7xx_HAL_Driver/Src/stm32h7xx_hal.c **** #else
 303              		.loc 1 158 3 is_stmt 1 view .LVU67
 158:../../Drivers/STM32H7xx_HAL_Driver/Src/stm32h7xx_hal.c **** #else
 304              		.loc 1 158 66 is_stmt 0 view .LVU68
 305 0056 A369     		ldr	r3, [r4, #24]
 158:../../Drivers/STM32H7xx_HAL_Driver/Src/stm32h7xx_hal.c **** #else
 306              		.loc 1 158 93 view .LVU69
 307 0058 03F00F03 		and	r3, r3, #15
 158:../../Drivers/STM32H7xx_HAL_Driver/Src/stm32h7xx_hal.c **** #else
 308              		.loc 1 158 61 view .LVU70
 309 005c D35C     		ldrb	r3, [r2, r3]	@ zero_extendqisi2
 158:../../Drivers/STM32H7xx_HAL_Driver/Src/stm32h7xx_hal.c **** #else
 310              		.loc 1 158 118 view .LVU71
 311 005e 03F01F03 		and	r3, r3, #31
 158:../../Drivers/STM32H7xx_HAL_Driver/Src/stm32h7xx_hal.c **** #else
 312              		.loc 1 158 40 view .LVU72
 313 0062 D840     		lsrs	r0, r0, r3
 314              	.LVL11:
 158:../../Drivers/STM32H7xx_HAL_Driver/Src/stm32h7xx_hal.c **** #else
 315              		.loc 1 158 17 view .LVU73
 316 0064 0B4B     		ldr	r3, .L25+16
 317 0066 1860     		str	r0, [r3]
 164:../../Drivers/STM32H7xx_HAL_Driver/Src/stm32h7xx_hal.c **** #else
 318              		.loc 1 164 3 is_stmt 1 view .LVU74
 164:../../Drivers/STM32H7xx_HAL_Driver/Src/stm32h7xx_hal.c **** #else
 319              		.loc 1 164 19 is_stmt 0 view .LVU75
 320 0068 0B4B     		ldr	r3, .L25+20
 321 006a 1860     		str	r0, [r3]
 170:../../Drivers/STM32H7xx_HAL_Driver/Src/stm32h7xx_hal.c ****   {
 322              		.loc 1 170 3 is_stmt 1 view .LVU76
 170:../../Drivers/STM32H7xx_HAL_Driver/Src/stm32h7xx_hal.c ****   {
 323              		.loc 1 170 6 is_stmt 0 view .LVU77
 324 006c 0020     		movs	r0, #0
 325 006e FFF7FEFF 		bl	HAL_InitTick
 326              	.LVL12:
 170:../../Drivers/STM32H7xx_HAL_Driver/Src/stm32h7xx_hal.c ****   {
 327              		.loc 1 170 5 view .LVU78
 328 0072 18B1     		cbz	r0, .L24
 172:../../Drivers/STM32H7xx_HAL_Driver/Src/stm32h7xx_hal.c ****   }
 329              		.loc 1 172 12 view .LVU79
 330 0074 0124     		movs	r4, #1
 331              	.L21:
 180:../../Drivers/STM32H7xx_HAL_Driver/Src/stm32h7xx_hal.c **** 
 332              		.loc 1 180 1 view .LVU80
 333 0076 2046     		mov	r0, r4
 334 0078 02B0     		add	sp, sp, #8
 335              	.LCFI4:
ARM GAS  /tmp/ccjOvRAM.s 			page 13


 336              		.cfi_remember_state
 337              		.cfi_def_cfa_offset 8
 338              		@ sp needed
 339 007a 10BD     		pop	{r4, pc}
 340              	.L24:
 341              	.LCFI5:
 342              		.cfi_restore_state
 343 007c 0446     		mov	r4, r0
 176:../../Drivers/STM32H7xx_HAL_Driver/Src/stm32h7xx_hal.c **** 
 344              		.loc 1 176 3 is_stmt 1 view .LVU81
 345 007e FFF7FEFF 		bl	HAL_MspInit
 346              	.LVL13:
 179:../../Drivers/STM32H7xx_HAL_Driver/Src/stm32h7xx_hal.c **** }
 347              		.loc 1 179 3 view .LVU82
 179:../../Drivers/STM32H7xx_HAL_Driver/Src/stm32h7xx_hal.c **** }
 348              		.loc 1 179 10 is_stmt 0 view .LVU83
 349 0082 F8E7     		b	.L21
 350              	.L26:
 351              		.align	2
 352              	.L25:
 353 0084 00440258 		.word	1476543488
 354 0088 00400240 		.word	1073889280
 355 008c FF00F0FF 		.word	-1048321
 356 0090 00000000 		.word	D1CorePrescTable
 357 0094 00000000 		.word	SystemD2Clock
 358 0098 00000000 		.word	SystemCoreClock
 359              		.cfi_endproc
 360              	.LFE132:
 362              		.section	.text.HAL_IncTick,"ax",%progbits
 363              		.align	1
 364              		.weak	HAL_IncTick
 365              		.syntax unified
 366              		.thumb
 367              		.thumb_func
 368              		.fpu fpv4-sp-d16
 370              	HAL_IncTick:
 371              	.LFB137:
 290:../../Drivers/STM32H7xx_HAL_Driver/Src/stm32h7xx_hal.c **** 
 291:../../Drivers/STM32H7xx_HAL_Driver/Src/stm32h7xx_hal.c **** /**
 292:../../Drivers/STM32H7xx_HAL_Driver/Src/stm32h7xx_hal.c ****   * @}
 293:../../Drivers/STM32H7xx_HAL_Driver/Src/stm32h7xx_hal.c ****   */
 294:../../Drivers/STM32H7xx_HAL_Driver/Src/stm32h7xx_hal.c **** 
 295:../../Drivers/STM32H7xx_HAL_Driver/Src/stm32h7xx_hal.c **** /** @addtogroup HAL_Group2
 296:../../Drivers/STM32H7xx_HAL_Driver/Src/stm32h7xx_hal.c ****  *  @brief    HAL Control functions
 297:../../Drivers/STM32H7xx_HAL_Driver/Src/stm32h7xx_hal.c ****  *
 298:../../Drivers/STM32H7xx_HAL_Driver/Src/stm32h7xx_hal.c **** @verbatim
 299:../../Drivers/STM32H7xx_HAL_Driver/Src/stm32h7xx_hal.c ****  ===============================================================================
 300:../../Drivers/STM32H7xx_HAL_Driver/Src/stm32h7xx_hal.c ****                       ##### HAL Control functions #####
 301:../../Drivers/STM32H7xx_HAL_Driver/Src/stm32h7xx_hal.c ****  ===============================================================================
 302:../../Drivers/STM32H7xx_HAL_Driver/Src/stm32h7xx_hal.c ****     [..]  This section provides functions allowing to:
 303:../../Drivers/STM32H7xx_HAL_Driver/Src/stm32h7xx_hal.c ****       (+) Provide a tick value in millisecond
 304:../../Drivers/STM32H7xx_HAL_Driver/Src/stm32h7xx_hal.c ****       (+) Provide a blocking delay in millisecond
 305:../../Drivers/STM32H7xx_HAL_Driver/Src/stm32h7xx_hal.c ****       (+) Suspend the time base source interrupt
 306:../../Drivers/STM32H7xx_HAL_Driver/Src/stm32h7xx_hal.c ****       (+) Resume the time base source interrupt
 307:../../Drivers/STM32H7xx_HAL_Driver/Src/stm32h7xx_hal.c ****       (+) Get the HAL API driver version
 308:../../Drivers/STM32H7xx_HAL_Driver/Src/stm32h7xx_hal.c ****       (+) Get the device identifier
 309:../../Drivers/STM32H7xx_HAL_Driver/Src/stm32h7xx_hal.c ****       (+) Get the device revision identifier
ARM GAS  /tmp/ccjOvRAM.s 			page 14


 310:../../Drivers/STM32H7xx_HAL_Driver/Src/stm32h7xx_hal.c ****       (+) Enable/Disable Debug module during SLEEP mode
 311:../../Drivers/STM32H7xx_HAL_Driver/Src/stm32h7xx_hal.c ****       (+) Enable/Disable Debug module during STOP mode
 312:../../Drivers/STM32H7xx_HAL_Driver/Src/stm32h7xx_hal.c ****       (+) Enable/Disable Debug module during STANDBY mode
 313:../../Drivers/STM32H7xx_HAL_Driver/Src/stm32h7xx_hal.c **** 
 314:../../Drivers/STM32H7xx_HAL_Driver/Src/stm32h7xx_hal.c **** @endverbatim
 315:../../Drivers/STM32H7xx_HAL_Driver/Src/stm32h7xx_hal.c ****   * @{
 316:../../Drivers/STM32H7xx_HAL_Driver/Src/stm32h7xx_hal.c ****   */
 317:../../Drivers/STM32H7xx_HAL_Driver/Src/stm32h7xx_hal.c **** 
 318:../../Drivers/STM32H7xx_HAL_Driver/Src/stm32h7xx_hal.c **** /**
 319:../../Drivers/STM32H7xx_HAL_Driver/Src/stm32h7xx_hal.c ****   * @brief This function is called to increment  a global variable "uwTick"
 320:../../Drivers/STM32H7xx_HAL_Driver/Src/stm32h7xx_hal.c ****   *        used as application time base.
 321:../../Drivers/STM32H7xx_HAL_Driver/Src/stm32h7xx_hal.c ****   * @note In the default implementation, this variable is incremented each 1ms
 322:../../Drivers/STM32H7xx_HAL_Driver/Src/stm32h7xx_hal.c ****   *       in Systick ISR.
 323:../../Drivers/STM32H7xx_HAL_Driver/Src/stm32h7xx_hal.c ****  * @note This function is declared as __weak to be overwritten in case of other
 324:../../Drivers/STM32H7xx_HAL_Driver/Src/stm32h7xx_hal.c ****   *      implementations in user file.
 325:../../Drivers/STM32H7xx_HAL_Driver/Src/stm32h7xx_hal.c ****   * @retval None
 326:../../Drivers/STM32H7xx_HAL_Driver/Src/stm32h7xx_hal.c ****   */
 327:../../Drivers/STM32H7xx_HAL_Driver/Src/stm32h7xx_hal.c **** __weak void HAL_IncTick(void)
 328:../../Drivers/STM32H7xx_HAL_Driver/Src/stm32h7xx_hal.c **** {
 372              		.loc 1 328 1 is_stmt 1 view -0
 373              		.cfi_startproc
 374              		@ args = 0, pretend = 0, frame = 0
 375              		@ frame_needed = 0, uses_anonymous_args = 0
 376              		@ link register save eliminated.
 329:../../Drivers/STM32H7xx_HAL_Driver/Src/stm32h7xx_hal.c ****   uwTick += (uint32_t)uwTickFreq;
 377              		.loc 1 329 3 view .LVU85
 378              		.loc 1 329 13 is_stmt 0 view .LVU86
 379 0000 034B     		ldr	r3, .L28
 380 0002 1B78     		ldrb	r3, [r3]	@ zero_extendqisi2
 381              		.loc 1 329 10 view .LVU87
 382 0004 034A     		ldr	r2, .L28+4
 383 0006 1168     		ldr	r1, [r2]
 384 0008 0B44     		add	r3, r3, r1
 385 000a 1360     		str	r3, [r2]
 330:../../Drivers/STM32H7xx_HAL_Driver/Src/stm32h7xx_hal.c **** }
 386              		.loc 1 330 1 view .LVU88
 387 000c 7047     		bx	lr
 388              	.L29:
 389 000e 00BF     		.align	2
 390              	.L28:
 391 0010 00000000 		.word	.LANCHOR0
 392 0014 00000000 		.word	.LANCHOR2
 393              		.cfi_endproc
 394              	.LFE137:
 396              		.section	.text.HAL_GetTick,"ax",%progbits
 397              		.align	1
 398              		.weak	HAL_GetTick
 399              		.syntax unified
 400              		.thumb
 401              		.thumb_func
 402              		.fpu fpv4-sp-d16
 404              	HAL_GetTick:
 405              	.LFB138:
 331:../../Drivers/STM32H7xx_HAL_Driver/Src/stm32h7xx_hal.c **** 
 332:../../Drivers/STM32H7xx_HAL_Driver/Src/stm32h7xx_hal.c **** /**
 333:../../Drivers/STM32H7xx_HAL_Driver/Src/stm32h7xx_hal.c ****   * @brief Provides a tick value in millisecond.
 334:../../Drivers/STM32H7xx_HAL_Driver/Src/stm32h7xx_hal.c ****   * @note This function is declared as __weak to be overwritten in case of other
ARM GAS  /tmp/ccjOvRAM.s 			page 15


 335:../../Drivers/STM32H7xx_HAL_Driver/Src/stm32h7xx_hal.c ****   *       implementations in user file.
 336:../../Drivers/STM32H7xx_HAL_Driver/Src/stm32h7xx_hal.c ****   * @retval tick value
 337:../../Drivers/STM32H7xx_HAL_Driver/Src/stm32h7xx_hal.c ****   */
 338:../../Drivers/STM32H7xx_HAL_Driver/Src/stm32h7xx_hal.c **** __weak uint32_t HAL_GetTick(void)
 339:../../Drivers/STM32H7xx_HAL_Driver/Src/stm32h7xx_hal.c **** {
 406              		.loc 1 339 1 is_stmt 1 view -0
 407              		.cfi_startproc
 408              		@ args = 0, pretend = 0, frame = 0
 409              		@ frame_needed = 0, uses_anonymous_args = 0
 410              		@ link register save eliminated.
 340:../../Drivers/STM32H7xx_HAL_Driver/Src/stm32h7xx_hal.c ****   return uwTick;
 411              		.loc 1 340 3 view .LVU90
 412              		.loc 1 340 10 is_stmt 0 view .LVU91
 413 0000 014B     		ldr	r3, .L31
 414 0002 1868     		ldr	r0, [r3]
 341:../../Drivers/STM32H7xx_HAL_Driver/Src/stm32h7xx_hal.c **** }
 415              		.loc 1 341 1 view .LVU92
 416 0004 7047     		bx	lr
 417              	.L32:
 418 0006 00BF     		.align	2
 419              	.L31:
 420 0008 00000000 		.word	.LANCHOR2
 421              		.cfi_endproc
 422              	.LFE138:
 424              		.section	.text.HAL_GetTickPrio,"ax",%progbits
 425              		.align	1
 426              		.global	HAL_GetTickPrio
 427              		.syntax unified
 428              		.thumb
 429              		.thumb_func
 430              		.fpu fpv4-sp-d16
 432              	HAL_GetTickPrio:
 433              	.LFB139:
 342:../../Drivers/STM32H7xx_HAL_Driver/Src/stm32h7xx_hal.c **** 
 343:../../Drivers/STM32H7xx_HAL_Driver/Src/stm32h7xx_hal.c **** /**
 344:../../Drivers/STM32H7xx_HAL_Driver/Src/stm32h7xx_hal.c ****   * @brief This function returns a tick priority.
 345:../../Drivers/STM32H7xx_HAL_Driver/Src/stm32h7xx_hal.c ****   * @retval tick priority
 346:../../Drivers/STM32H7xx_HAL_Driver/Src/stm32h7xx_hal.c ****   */
 347:../../Drivers/STM32H7xx_HAL_Driver/Src/stm32h7xx_hal.c **** uint32_t HAL_GetTickPrio(void)
 348:../../Drivers/STM32H7xx_HAL_Driver/Src/stm32h7xx_hal.c **** {
 434              		.loc 1 348 1 is_stmt 1 view -0
 435              		.cfi_startproc
 436              		@ args = 0, pretend = 0, frame = 0
 437              		@ frame_needed = 0, uses_anonymous_args = 0
 438              		@ link register save eliminated.
 349:../../Drivers/STM32H7xx_HAL_Driver/Src/stm32h7xx_hal.c ****   return uwTickPrio;
 439              		.loc 1 349 3 view .LVU94
 350:../../Drivers/STM32H7xx_HAL_Driver/Src/stm32h7xx_hal.c **** }
 440              		.loc 1 350 1 is_stmt 0 view .LVU95
 441 0000 014B     		ldr	r3, .L34
 442 0002 1868     		ldr	r0, [r3]
 443 0004 7047     		bx	lr
 444              	.L35:
 445 0006 00BF     		.align	2
 446              	.L34:
 447 0008 00000000 		.word	.LANCHOR1
 448              		.cfi_endproc
ARM GAS  /tmp/ccjOvRAM.s 			page 16


 449              	.LFE139:
 451              		.section	.text.HAL_SetTickFreq,"ax",%progbits
 452              		.align	1
 453              		.global	HAL_SetTickFreq
 454              		.syntax unified
 455              		.thumb
 456              		.thumb_func
 457              		.fpu fpv4-sp-d16
 459              	HAL_SetTickFreq:
 460              	.LVL14:
 461              	.LFB140:
 351:../../Drivers/STM32H7xx_HAL_Driver/Src/stm32h7xx_hal.c **** 
 352:../../Drivers/STM32H7xx_HAL_Driver/Src/stm32h7xx_hal.c **** /**
 353:../../Drivers/STM32H7xx_HAL_Driver/Src/stm32h7xx_hal.c ****   * @brief Set new tick Freq.
 354:../../Drivers/STM32H7xx_HAL_Driver/Src/stm32h7xx_hal.c ****   * @retval Status
 355:../../Drivers/STM32H7xx_HAL_Driver/Src/stm32h7xx_hal.c ****   */
 356:../../Drivers/STM32H7xx_HAL_Driver/Src/stm32h7xx_hal.c **** HAL_StatusTypeDef HAL_SetTickFreq(HAL_TickFreqTypeDef Freq)
 357:../../Drivers/STM32H7xx_HAL_Driver/Src/stm32h7xx_hal.c **** {
 462              		.loc 1 357 1 is_stmt 1 view -0
 463              		.cfi_startproc
 464              		@ args = 0, pretend = 0, frame = 0
 465              		@ frame_needed = 0, uses_anonymous_args = 0
 466              		.loc 1 357 1 is_stmt 0 view .LVU97
 467 0000 10B5     		push	{r4, lr}
 468              	.LCFI6:
 469              		.cfi_def_cfa_offset 8
 470              		.cfi_offset 4, -8
 471              		.cfi_offset 14, -4
 358:../../Drivers/STM32H7xx_HAL_Driver/Src/stm32h7xx_hal.c ****   HAL_StatusTypeDef status  = HAL_OK;
 472              		.loc 1 358 3 is_stmt 1 view .LVU98
 473              	.LVL15:
 359:../../Drivers/STM32H7xx_HAL_Driver/Src/stm32h7xx_hal.c ****   HAL_TickFreqTypeDef prevTickFreq;
 474              		.loc 1 359 3 view .LVU99
 360:../../Drivers/STM32H7xx_HAL_Driver/Src/stm32h7xx_hal.c **** 
 361:../../Drivers/STM32H7xx_HAL_Driver/Src/stm32h7xx_hal.c ****   assert_param(IS_TICKFREQ(Freq));
 475              		.loc 1 361 3 view .LVU100
 362:../../Drivers/STM32H7xx_HAL_Driver/Src/stm32h7xx_hal.c **** 
 363:../../Drivers/STM32H7xx_HAL_Driver/Src/stm32h7xx_hal.c ****   if (uwTickFreq != Freq)
 476              		.loc 1 363 3 view .LVU101
 477              		.loc 1 363 18 is_stmt 0 view .LVU102
 478 0002 084B     		ldr	r3, .L41
 479 0004 1C78     		ldrb	r4, [r3]	@ zero_extendqisi2
 480              		.loc 1 363 6 view .LVU103
 481 0006 8442     		cmp	r4, r0
 482 0008 01D1     		bne	.L40
 358:../../Drivers/STM32H7xx_HAL_Driver/Src/stm32h7xx_hal.c ****   HAL_TickFreqTypeDef prevTickFreq;
 483              		.loc 1 358 21 view .LVU104
 484 000a 0020     		movs	r0, #0
 485              	.LVL16:
 486              	.L37:
 364:../../Drivers/STM32H7xx_HAL_Driver/Src/stm32h7xx_hal.c ****   {
 365:../../Drivers/STM32H7xx_HAL_Driver/Src/stm32h7xx_hal.c **** 
 366:../../Drivers/STM32H7xx_HAL_Driver/Src/stm32h7xx_hal.c ****     /* Back up uwTickFreq frequency */
 367:../../Drivers/STM32H7xx_HAL_Driver/Src/stm32h7xx_hal.c ****     prevTickFreq = uwTickFreq;
 368:../../Drivers/STM32H7xx_HAL_Driver/Src/stm32h7xx_hal.c **** 
 369:../../Drivers/STM32H7xx_HAL_Driver/Src/stm32h7xx_hal.c ****     /* Update uwTickFreq global variable used by HAL_InitTick() */
 370:../../Drivers/STM32H7xx_HAL_Driver/Src/stm32h7xx_hal.c ****     uwTickFreq = Freq;
ARM GAS  /tmp/ccjOvRAM.s 			page 17


 371:../../Drivers/STM32H7xx_HAL_Driver/Src/stm32h7xx_hal.c **** 
 372:../../Drivers/STM32H7xx_HAL_Driver/Src/stm32h7xx_hal.c ****     /* Apply the new tick Freq  */
 373:../../Drivers/STM32H7xx_HAL_Driver/Src/stm32h7xx_hal.c ****     status = HAL_InitTick(uwTickPrio);
 374:../../Drivers/STM32H7xx_HAL_Driver/Src/stm32h7xx_hal.c ****     if (status != HAL_OK)
 375:../../Drivers/STM32H7xx_HAL_Driver/Src/stm32h7xx_hal.c ****     {
 376:../../Drivers/STM32H7xx_HAL_Driver/Src/stm32h7xx_hal.c ****       /* Restore previous tick frequency */
 377:../../Drivers/STM32H7xx_HAL_Driver/Src/stm32h7xx_hal.c ****       uwTickFreq = prevTickFreq;
 378:../../Drivers/STM32H7xx_HAL_Driver/Src/stm32h7xx_hal.c ****     }
 379:../../Drivers/STM32H7xx_HAL_Driver/Src/stm32h7xx_hal.c ****   }
 380:../../Drivers/STM32H7xx_HAL_Driver/Src/stm32h7xx_hal.c **** 
 381:../../Drivers/STM32H7xx_HAL_Driver/Src/stm32h7xx_hal.c ****   return status;
 487              		.loc 1 381 3 is_stmt 1 view .LVU105
 382:../../Drivers/STM32H7xx_HAL_Driver/Src/stm32h7xx_hal.c **** }
 488              		.loc 1 382 1 is_stmt 0 view .LVU106
 489 000c 10BD     		pop	{r4, pc}
 490              	.LVL17:
 491              	.L40:
 367:../../Drivers/STM32H7xx_HAL_Driver/Src/stm32h7xx_hal.c **** 
 492              		.loc 1 367 5 is_stmt 1 view .LVU107
 370:../../Drivers/STM32H7xx_HAL_Driver/Src/stm32h7xx_hal.c **** 
 493              		.loc 1 370 5 view .LVU108
 370:../../Drivers/STM32H7xx_HAL_Driver/Src/stm32h7xx_hal.c **** 
 494              		.loc 1 370 16 is_stmt 0 view .LVU109
 495 000e 1870     		strb	r0, [r3]
 373:../../Drivers/STM32H7xx_HAL_Driver/Src/stm32h7xx_hal.c ****     if (status != HAL_OK)
 496              		.loc 1 373 5 is_stmt 1 view .LVU110
 373:../../Drivers/STM32H7xx_HAL_Driver/Src/stm32h7xx_hal.c ****     if (status != HAL_OK)
 497              		.loc 1 373 14 is_stmt 0 view .LVU111
 498 0010 054B     		ldr	r3, .L41+4
 499 0012 1868     		ldr	r0, [r3]
 500              	.LVL18:
 373:../../Drivers/STM32H7xx_HAL_Driver/Src/stm32h7xx_hal.c ****     if (status != HAL_OK)
 501              		.loc 1 373 14 view .LVU112
 502 0014 FFF7FEFF 		bl	HAL_InitTick
 503              	.LVL19:
 374:../../Drivers/STM32H7xx_HAL_Driver/Src/stm32h7xx_hal.c ****     {
 504              		.loc 1 374 5 is_stmt 1 view .LVU113
 374:../../Drivers/STM32H7xx_HAL_Driver/Src/stm32h7xx_hal.c ****     {
 505              		.loc 1 374 8 is_stmt 0 view .LVU114
 506 0018 0028     		cmp	r0, #0
 507 001a F7D0     		beq	.L37
 377:../../Drivers/STM32H7xx_HAL_Driver/Src/stm32h7xx_hal.c ****     }
 508              		.loc 1 377 7 is_stmt 1 view .LVU115
 377:../../Drivers/STM32H7xx_HAL_Driver/Src/stm32h7xx_hal.c ****     }
 509              		.loc 1 377 18 is_stmt 0 view .LVU116
 510 001c 014B     		ldr	r3, .L41
 511 001e 1C70     		strb	r4, [r3]
 512 0020 F4E7     		b	.L37
 513              	.L42:
 514 0022 00BF     		.align	2
 515              	.L41:
 516 0024 00000000 		.word	.LANCHOR0
 517 0028 00000000 		.word	.LANCHOR1
 518              		.cfi_endproc
 519              	.LFE140:
 521              		.section	.text.HAL_GetTickFreq,"ax",%progbits
 522              		.align	1
ARM GAS  /tmp/ccjOvRAM.s 			page 18


 523              		.global	HAL_GetTickFreq
 524              		.syntax unified
 525              		.thumb
 526              		.thumb_func
 527              		.fpu fpv4-sp-d16
 529              	HAL_GetTickFreq:
 530              	.LFB141:
 383:../../Drivers/STM32H7xx_HAL_Driver/Src/stm32h7xx_hal.c **** 
 384:../../Drivers/STM32H7xx_HAL_Driver/Src/stm32h7xx_hal.c **** /**
 385:../../Drivers/STM32H7xx_HAL_Driver/Src/stm32h7xx_hal.c ****   * @brief Return tick frequency.
 386:../../Drivers/STM32H7xx_HAL_Driver/Src/stm32h7xx_hal.c ****   * @retval tick period in Hz
 387:../../Drivers/STM32H7xx_HAL_Driver/Src/stm32h7xx_hal.c ****   */
 388:../../Drivers/STM32H7xx_HAL_Driver/Src/stm32h7xx_hal.c **** HAL_TickFreqTypeDef HAL_GetTickFreq(void)
 389:../../Drivers/STM32H7xx_HAL_Driver/Src/stm32h7xx_hal.c **** {
 531              		.loc 1 389 1 is_stmt 1 view -0
 532              		.cfi_startproc
 533              		@ args = 0, pretend = 0, frame = 0
 534              		@ frame_needed = 0, uses_anonymous_args = 0
 535              		@ link register save eliminated.
 390:../../Drivers/STM32H7xx_HAL_Driver/Src/stm32h7xx_hal.c ****   return uwTickFreq;
 536              		.loc 1 390 3 view .LVU118
 391:../../Drivers/STM32H7xx_HAL_Driver/Src/stm32h7xx_hal.c **** }
 537              		.loc 1 391 1 is_stmt 0 view .LVU119
 538 0000 014B     		ldr	r3, .L44
 539 0002 1878     		ldrb	r0, [r3]	@ zero_extendqisi2
 540 0004 7047     		bx	lr
 541              	.L45:
 542 0006 00BF     		.align	2
 543              	.L44:
 544 0008 00000000 		.word	.LANCHOR0
 545              		.cfi_endproc
 546              	.LFE141:
 548              		.section	.text.HAL_Delay,"ax",%progbits
 549              		.align	1
 550              		.weak	HAL_Delay
 551              		.syntax unified
 552              		.thumb
 553              		.thumb_func
 554              		.fpu fpv4-sp-d16
 556              	HAL_Delay:
 557              	.LVL20:
 558              	.LFB142:
 392:../../Drivers/STM32H7xx_HAL_Driver/Src/stm32h7xx_hal.c **** 
 393:../../Drivers/STM32H7xx_HAL_Driver/Src/stm32h7xx_hal.c **** /**
 394:../../Drivers/STM32H7xx_HAL_Driver/Src/stm32h7xx_hal.c ****   * @brief This function provides minimum delay (in milliseconds) based
 395:../../Drivers/STM32H7xx_HAL_Driver/Src/stm32h7xx_hal.c ****   *        on variable incremented.
 396:../../Drivers/STM32H7xx_HAL_Driver/Src/stm32h7xx_hal.c ****   * @note In the default implementation , SysTick timer is the source of time base.
 397:../../Drivers/STM32H7xx_HAL_Driver/Src/stm32h7xx_hal.c ****   *       It is used to generate interrupts at regular time intervals where uwTick
 398:../../Drivers/STM32H7xx_HAL_Driver/Src/stm32h7xx_hal.c ****   *       is incremented.
 399:../../Drivers/STM32H7xx_HAL_Driver/Src/stm32h7xx_hal.c ****   * @note This function is declared as __weak to be overwritten in case of other
 400:../../Drivers/STM32H7xx_HAL_Driver/Src/stm32h7xx_hal.c ****   *       implementations in user file.
 401:../../Drivers/STM32H7xx_HAL_Driver/Src/stm32h7xx_hal.c ****   * @param Delay  specifies the delay time length, in milliseconds.
 402:../../Drivers/STM32H7xx_HAL_Driver/Src/stm32h7xx_hal.c ****   * @retval None
 403:../../Drivers/STM32H7xx_HAL_Driver/Src/stm32h7xx_hal.c ****   */
 404:../../Drivers/STM32H7xx_HAL_Driver/Src/stm32h7xx_hal.c **** __weak void HAL_Delay(uint32_t Delay)
 405:../../Drivers/STM32H7xx_HAL_Driver/Src/stm32h7xx_hal.c **** {
 559              		.loc 1 405 1 is_stmt 1 view -0
ARM GAS  /tmp/ccjOvRAM.s 			page 19


 560              		.cfi_startproc
 561              		@ args = 0, pretend = 0, frame = 0
 562              		@ frame_needed = 0, uses_anonymous_args = 0
 563              		.loc 1 405 1 is_stmt 0 view .LVU121
 564 0000 38B5     		push	{r3, r4, r5, lr}
 565              	.LCFI7:
 566              		.cfi_def_cfa_offset 16
 567              		.cfi_offset 3, -16
 568              		.cfi_offset 4, -12
 569              		.cfi_offset 5, -8
 570              		.cfi_offset 14, -4
 571 0002 0446     		mov	r4, r0
 406:../../Drivers/STM32H7xx_HAL_Driver/Src/stm32h7xx_hal.c ****   uint32_t tickstart = HAL_GetTick();
 572              		.loc 1 406 3 is_stmt 1 view .LVU122
 573              		.loc 1 406 24 is_stmt 0 view .LVU123
 574 0004 FFF7FEFF 		bl	HAL_GetTick
 575              	.LVL21:
 576              		.loc 1 406 24 view .LVU124
 577 0008 0546     		mov	r5, r0
 578              	.LVL22:
 407:../../Drivers/STM32H7xx_HAL_Driver/Src/stm32h7xx_hal.c ****   uint32_t wait = Delay;
 579              		.loc 1 407 3 is_stmt 1 view .LVU125
 408:../../Drivers/STM32H7xx_HAL_Driver/Src/stm32h7xx_hal.c **** 
 409:../../Drivers/STM32H7xx_HAL_Driver/Src/stm32h7xx_hal.c ****   /* Add a freq to guarantee minimum wait */
 410:../../Drivers/STM32H7xx_HAL_Driver/Src/stm32h7xx_hal.c ****   if (wait < HAL_MAX_DELAY)
 580              		.loc 1 410 3 view .LVU126
 581              		.loc 1 410 6 is_stmt 0 view .LVU127
 582 000a B4F1FF3F 		cmp	r4, #-1
 583 000e 02D0     		beq	.L48
 411:../../Drivers/STM32H7xx_HAL_Driver/Src/stm32h7xx_hal.c ****   {
 412:../../Drivers/STM32H7xx_HAL_Driver/Src/stm32h7xx_hal.c ****     wait += (uint32_t)(uwTickFreq);
 584              		.loc 1 412 5 is_stmt 1 view .LVU128
 585              		.loc 1 412 13 is_stmt 0 view .LVU129
 586 0010 044B     		ldr	r3, .L50
 587 0012 1B78     		ldrb	r3, [r3]	@ zero_extendqisi2
 588              		.loc 1 412 10 view .LVU130
 589 0014 1C44     		add	r4, r4, r3
 590              	.LVL23:
 591              	.L48:
 413:../../Drivers/STM32H7xx_HAL_Driver/Src/stm32h7xx_hal.c ****   }
 414:../../Drivers/STM32H7xx_HAL_Driver/Src/stm32h7xx_hal.c **** 
 415:../../Drivers/STM32H7xx_HAL_Driver/Src/stm32h7xx_hal.c ****   while ((HAL_GetTick() - tickstart) < wait)
 416:../../Drivers/STM32H7xx_HAL_Driver/Src/stm32h7xx_hal.c ****   {
 417:../../Drivers/STM32H7xx_HAL_Driver/Src/stm32h7xx_hal.c ****   }
 592              		.loc 1 417 3 is_stmt 1 discriminator 1 view .LVU131
 415:../../Drivers/STM32H7xx_HAL_Driver/Src/stm32h7xx_hal.c ****   {
 593              		.loc 1 415 9 discriminator 1 view .LVU132
 415:../../Drivers/STM32H7xx_HAL_Driver/Src/stm32h7xx_hal.c ****   {
 594              		.loc 1 415 11 is_stmt 0 discriminator 1 view .LVU133
 595 0016 FFF7FEFF 		bl	HAL_GetTick
 596              	.LVL24:
 415:../../Drivers/STM32H7xx_HAL_Driver/Src/stm32h7xx_hal.c ****   {
 597              		.loc 1 415 25 discriminator 1 view .LVU134
 598 001a 401B     		subs	r0, r0, r5
 415:../../Drivers/STM32H7xx_HAL_Driver/Src/stm32h7xx_hal.c ****   {
 599              		.loc 1 415 9 discriminator 1 view .LVU135
 600 001c A042     		cmp	r0, r4
ARM GAS  /tmp/ccjOvRAM.s 			page 20


 601 001e FAD3     		bcc	.L48
 418:../../Drivers/STM32H7xx_HAL_Driver/Src/stm32h7xx_hal.c **** }
 602              		.loc 1 418 1 view .LVU136
 603 0020 38BD     		pop	{r3, r4, r5, pc}
 604              	.LVL25:
 605              	.L51:
 606              		.loc 1 418 1 view .LVU137
 607 0022 00BF     		.align	2
 608              	.L50:
 609 0024 00000000 		.word	.LANCHOR0
 610              		.cfi_endproc
 611              	.LFE142:
 613              		.section	.text.HAL_SuspendTick,"ax",%progbits
 614              		.align	1
 615              		.weak	HAL_SuspendTick
 616              		.syntax unified
 617              		.thumb
 618              		.thumb_func
 619              		.fpu fpv4-sp-d16
 621              	HAL_SuspendTick:
 622              	.LFB143:
 419:../../Drivers/STM32H7xx_HAL_Driver/Src/stm32h7xx_hal.c **** 
 420:../../Drivers/STM32H7xx_HAL_Driver/Src/stm32h7xx_hal.c **** /**
 421:../../Drivers/STM32H7xx_HAL_Driver/Src/stm32h7xx_hal.c ****   * @brief Suspend Tick increment.
 422:../../Drivers/STM32H7xx_HAL_Driver/Src/stm32h7xx_hal.c ****   * @note In the default implementation , SysTick timer is the source of time base. It is
 423:../../Drivers/STM32H7xx_HAL_Driver/Src/stm32h7xx_hal.c ****   *       used to generate interrupts at regular time intervals. Once HAL_SuspendTick()
 424:../../Drivers/STM32H7xx_HAL_Driver/Src/stm32h7xx_hal.c ****   *       is called, the SysTick interrupt will be disabled and so Tick increment
 425:../../Drivers/STM32H7xx_HAL_Driver/Src/stm32h7xx_hal.c ****   *       is suspended.
 426:../../Drivers/STM32H7xx_HAL_Driver/Src/stm32h7xx_hal.c ****   * @note This function is declared as __weak to be overwritten in case of other
 427:../../Drivers/STM32H7xx_HAL_Driver/Src/stm32h7xx_hal.c ****   *       implementations in user file.
 428:../../Drivers/STM32H7xx_HAL_Driver/Src/stm32h7xx_hal.c ****   * @retval None
 429:../../Drivers/STM32H7xx_HAL_Driver/Src/stm32h7xx_hal.c ****   */
 430:../../Drivers/STM32H7xx_HAL_Driver/Src/stm32h7xx_hal.c **** __weak void HAL_SuspendTick(void)
 431:../../Drivers/STM32H7xx_HAL_Driver/Src/stm32h7xx_hal.c **** {
 623              		.loc 1 431 1 is_stmt 1 view -0
 624              		.cfi_startproc
 625              		@ args = 0, pretend = 0, frame = 0
 626              		@ frame_needed = 0, uses_anonymous_args = 0
 627              		@ link register save eliminated.
 432:../../Drivers/STM32H7xx_HAL_Driver/Src/stm32h7xx_hal.c ****   /* Disable SysTick Interrupt */
 433:../../Drivers/STM32H7xx_HAL_Driver/Src/stm32h7xx_hal.c ****   SysTick->CTRL &= ~SysTick_CTRL_TICKINT_Msk;
 628              		.loc 1 433 3 view .LVU139
 629              		.loc 1 433 17 is_stmt 0 view .LVU140
 630 0000 4FF0E022 		mov	r2, #-536813568
 631 0004 1369     		ldr	r3, [r2, #16]
 632 0006 23F00203 		bic	r3, r3, #2
 633 000a 1361     		str	r3, [r2, #16]
 434:../../Drivers/STM32H7xx_HAL_Driver/Src/stm32h7xx_hal.c **** }
 634              		.loc 1 434 1 view .LVU141
 635 000c 7047     		bx	lr
 636              		.cfi_endproc
 637              	.LFE143:
 639              		.section	.text.HAL_ResumeTick,"ax",%progbits
 640              		.align	1
 641              		.weak	HAL_ResumeTick
 642              		.syntax unified
 643              		.thumb
ARM GAS  /tmp/ccjOvRAM.s 			page 21


 644              		.thumb_func
 645              		.fpu fpv4-sp-d16
 647              	HAL_ResumeTick:
 648              	.LFB144:
 435:../../Drivers/STM32H7xx_HAL_Driver/Src/stm32h7xx_hal.c **** 
 436:../../Drivers/STM32H7xx_HAL_Driver/Src/stm32h7xx_hal.c **** /**
 437:../../Drivers/STM32H7xx_HAL_Driver/Src/stm32h7xx_hal.c ****   * @brief Resume Tick increment.
 438:../../Drivers/STM32H7xx_HAL_Driver/Src/stm32h7xx_hal.c ****   * @note In the default implementation , SysTick timer is the source of time base. It is
 439:../../Drivers/STM32H7xx_HAL_Driver/Src/stm32h7xx_hal.c ****   *       used to generate interrupts at regular time intervals. Once HAL_ResumeTick()
 440:../../Drivers/STM32H7xx_HAL_Driver/Src/stm32h7xx_hal.c ****   *       is called, the SysTick interrupt will be enabled and so Tick increment
 441:../../Drivers/STM32H7xx_HAL_Driver/Src/stm32h7xx_hal.c ****   *       is resumed.
 442:../../Drivers/STM32H7xx_HAL_Driver/Src/stm32h7xx_hal.c ****   * @note This function is declared as __weak to be overwritten in case of other
 443:../../Drivers/STM32H7xx_HAL_Driver/Src/stm32h7xx_hal.c ****   *       implementations in user file.
 444:../../Drivers/STM32H7xx_HAL_Driver/Src/stm32h7xx_hal.c ****   * @retval None
 445:../../Drivers/STM32H7xx_HAL_Driver/Src/stm32h7xx_hal.c ****   */
 446:../../Drivers/STM32H7xx_HAL_Driver/Src/stm32h7xx_hal.c **** __weak void HAL_ResumeTick(void)
 447:../../Drivers/STM32H7xx_HAL_Driver/Src/stm32h7xx_hal.c **** {
 649              		.loc 1 447 1 is_stmt 1 view -0
 650              		.cfi_startproc
 651              		@ args = 0, pretend = 0, frame = 0
 652              		@ frame_needed = 0, uses_anonymous_args = 0
 653              		@ link register save eliminated.
 448:../../Drivers/STM32H7xx_HAL_Driver/Src/stm32h7xx_hal.c ****   /* Enable SysTick Interrupt */
 449:../../Drivers/STM32H7xx_HAL_Driver/Src/stm32h7xx_hal.c ****   SysTick->CTRL  |= SysTick_CTRL_TICKINT_Msk;
 654              		.loc 1 449 3 view .LVU143
 655              		.loc 1 449 18 is_stmt 0 view .LVU144
 656 0000 4FF0E022 		mov	r2, #-536813568
 657 0004 1369     		ldr	r3, [r2, #16]
 658 0006 43F00203 		orr	r3, r3, #2
 659 000a 1361     		str	r3, [r2, #16]
 450:../../Drivers/STM32H7xx_HAL_Driver/Src/stm32h7xx_hal.c **** }
 660              		.loc 1 450 1 view .LVU145
 661 000c 7047     		bx	lr
 662              		.cfi_endproc
 663              	.LFE144:
 665              		.section	.text.HAL_GetHalVersion,"ax",%progbits
 666              		.align	1
 667              		.global	HAL_GetHalVersion
 668              		.syntax unified
 669              		.thumb
 670              		.thumb_func
 671              		.fpu fpv4-sp-d16
 673              	HAL_GetHalVersion:
 674              	.LFB145:
 451:../../Drivers/STM32H7xx_HAL_Driver/Src/stm32h7xx_hal.c **** 
 452:../../Drivers/STM32H7xx_HAL_Driver/Src/stm32h7xx_hal.c **** /**
 453:../../Drivers/STM32H7xx_HAL_Driver/Src/stm32h7xx_hal.c ****   * @brief  Returns the HAL revision
 454:../../Drivers/STM32H7xx_HAL_Driver/Src/stm32h7xx_hal.c ****   * @retval version : 0xXYZR (8bits for each decimal, R for RC)
 455:../../Drivers/STM32H7xx_HAL_Driver/Src/stm32h7xx_hal.c ****   */
 456:../../Drivers/STM32H7xx_HAL_Driver/Src/stm32h7xx_hal.c **** uint32_t HAL_GetHalVersion(void)
 457:../../Drivers/STM32H7xx_HAL_Driver/Src/stm32h7xx_hal.c **** {
 675              		.loc 1 457 1 is_stmt 1 view -0
 676              		.cfi_startproc
 677              		@ args = 0, pretend = 0, frame = 0
 678              		@ frame_needed = 0, uses_anonymous_args = 0
 679              		@ link register save eliminated.
 458:../../Drivers/STM32H7xx_HAL_Driver/Src/stm32h7xx_hal.c ****  return __STM32H7xx_HAL_VERSION;
ARM GAS  /tmp/ccjOvRAM.s 			page 22


 680              		.loc 1 458 2 view .LVU147
 459:../../Drivers/STM32H7xx_HAL_Driver/Src/stm32h7xx_hal.c **** }
 681              		.loc 1 459 1 is_stmt 0 view .LVU148
 682 0000 0048     		ldr	r0, .L55
 683 0002 7047     		bx	lr
 684              	.L56:
 685              		.align	2
 686              	.L55:
 687 0004 00010B01 		.word	17498368
 688              		.cfi_endproc
 689              	.LFE145:
 691              		.section	.text.HAL_GetREVID,"ax",%progbits
 692              		.align	1
 693              		.global	HAL_GetREVID
 694              		.syntax unified
 695              		.thumb
 696              		.thumb_func
 697              		.fpu fpv4-sp-d16
 699              	HAL_GetREVID:
 700              	.LFB146:
 460:../../Drivers/STM32H7xx_HAL_Driver/Src/stm32h7xx_hal.c **** 
 461:../../Drivers/STM32H7xx_HAL_Driver/Src/stm32h7xx_hal.c **** /**
 462:../../Drivers/STM32H7xx_HAL_Driver/Src/stm32h7xx_hal.c ****   * @brief  Returns the device revision identifier.
 463:../../Drivers/STM32H7xx_HAL_Driver/Src/stm32h7xx_hal.c ****   * @retval Device revision identifier
 464:../../Drivers/STM32H7xx_HAL_Driver/Src/stm32h7xx_hal.c ****   */
 465:../../Drivers/STM32H7xx_HAL_Driver/Src/stm32h7xx_hal.c **** uint32_t HAL_GetREVID(void)
 466:../../Drivers/STM32H7xx_HAL_Driver/Src/stm32h7xx_hal.c **** {
 701              		.loc 1 466 1 is_stmt 1 view -0
 702              		.cfi_startproc
 703              		@ args = 0, pretend = 0, frame = 0
 704              		@ frame_needed = 0, uses_anonymous_args = 0
 705              		@ link register save eliminated.
 467:../../Drivers/STM32H7xx_HAL_Driver/Src/stm32h7xx_hal.c ****    return((DBGMCU->IDCODE) >> 16);
 706              		.loc 1 467 4 view .LVU150
 707              		.loc 1 467 18 is_stmt 0 view .LVU151
 708 0000 014B     		ldr	r3, .L58
 709 0002 1868     		ldr	r0, [r3]
 468:../../Drivers/STM32H7xx_HAL_Driver/Src/stm32h7xx_hal.c **** }
 710              		.loc 1 468 1 view .LVU152
 711 0004 000C     		lsrs	r0, r0, #16
 712 0006 7047     		bx	lr
 713              	.L59:
 714              		.align	2
 715              	.L58:
 716 0008 0010005C 		.word	1543507968
 717              		.cfi_endproc
 718              	.LFE146:
 720              		.section	.text.HAL_GetDEVID,"ax",%progbits
 721              		.align	1
 722              		.global	HAL_GetDEVID
 723              		.syntax unified
 724              		.thumb
 725              		.thumb_func
 726              		.fpu fpv4-sp-d16
 728              	HAL_GetDEVID:
 729              	.LFB147:
 469:../../Drivers/STM32H7xx_HAL_Driver/Src/stm32h7xx_hal.c **** 
ARM GAS  /tmp/ccjOvRAM.s 			page 23


 470:../../Drivers/STM32H7xx_HAL_Driver/Src/stm32h7xx_hal.c **** /**
 471:../../Drivers/STM32H7xx_HAL_Driver/Src/stm32h7xx_hal.c ****   * @brief  Returns the device identifier.
 472:../../Drivers/STM32H7xx_HAL_Driver/Src/stm32h7xx_hal.c ****   * @retval Device identifier
 473:../../Drivers/STM32H7xx_HAL_Driver/Src/stm32h7xx_hal.c ****   */
 474:../../Drivers/STM32H7xx_HAL_Driver/Src/stm32h7xx_hal.c **** uint32_t HAL_GetDEVID(void)
 475:../../Drivers/STM32H7xx_HAL_Driver/Src/stm32h7xx_hal.c **** {
 730              		.loc 1 475 1 is_stmt 1 view -0
 731              		.cfi_startproc
 732              		@ args = 0, pretend = 0, frame = 0
 733              		@ frame_needed = 0, uses_anonymous_args = 0
 734              		@ link register save eliminated.
 476:../../Drivers/STM32H7xx_HAL_Driver/Src/stm32h7xx_hal.c ****    return((DBGMCU->IDCODE) & IDCODE_DEVID_MASK);
 735              		.loc 1 476 4 view .LVU154
 736              		.loc 1 476 18 is_stmt 0 view .LVU155
 737 0000 024B     		ldr	r3, .L61
 738 0002 1868     		ldr	r0, [r3]
 477:../../Drivers/STM32H7xx_HAL_Driver/Src/stm32h7xx_hal.c **** }
 739              		.loc 1 477 1 view .LVU156
 740 0004 C0F30B00 		ubfx	r0, r0, #0, #12
 741 0008 7047     		bx	lr
 742              	.L62:
 743 000a 00BF     		.align	2
 744              	.L61:
 745 000c 0010005C 		.word	1543507968
 746              		.cfi_endproc
 747              	.LFE147:
 749              		.section	.text.HAL_GetUIDw0,"ax",%progbits
 750              		.align	1
 751              		.global	HAL_GetUIDw0
 752              		.syntax unified
 753              		.thumb
 754              		.thumb_func
 755              		.fpu fpv4-sp-d16
 757              	HAL_GetUIDw0:
 758              	.LFB148:
 478:../../Drivers/STM32H7xx_HAL_Driver/Src/stm32h7xx_hal.c **** 
 479:../../Drivers/STM32H7xx_HAL_Driver/Src/stm32h7xx_hal.c **** /**
 480:../../Drivers/STM32H7xx_HAL_Driver/Src/stm32h7xx_hal.c ****   * @brief  Return the first word of the unique device identifier (UID based on 96 bits)
 481:../../Drivers/STM32H7xx_HAL_Driver/Src/stm32h7xx_hal.c ****   * @retval Device identifier
 482:../../Drivers/STM32H7xx_HAL_Driver/Src/stm32h7xx_hal.c ****   */
 483:../../Drivers/STM32H7xx_HAL_Driver/Src/stm32h7xx_hal.c **** uint32_t HAL_GetUIDw0(void)
 484:../../Drivers/STM32H7xx_HAL_Driver/Src/stm32h7xx_hal.c **** {
 759              		.loc 1 484 1 is_stmt 1 view -0
 760              		.cfi_startproc
 761              		@ args = 0, pretend = 0, frame = 0
 762              		@ frame_needed = 0, uses_anonymous_args = 0
 763              		@ link register save eliminated.
 485:../../Drivers/STM32H7xx_HAL_Driver/Src/stm32h7xx_hal.c ****   return(READ_REG(*((uint32_t *)UID_BASE)));
 764              		.loc 1 485 3 view .LVU158
 486:../../Drivers/STM32H7xx_HAL_Driver/Src/stm32h7xx_hal.c **** }
 765              		.loc 1 486 1 is_stmt 0 view .LVU159
 766 0000 014B     		ldr	r3, .L64
 767 0002 D3F80008 		ldr	r0, [r3, #2048]
 768 0006 7047     		bx	lr
 769              	.L65:
 770              		.align	2
 771              	.L64:
ARM GAS  /tmp/ccjOvRAM.s 			page 24


 772 0008 00E0F11F 		.word	535945216
 773              		.cfi_endproc
 774              	.LFE148:
 776              		.section	.text.HAL_GetUIDw1,"ax",%progbits
 777              		.align	1
 778              		.global	HAL_GetUIDw1
 779              		.syntax unified
 780              		.thumb
 781              		.thumb_func
 782              		.fpu fpv4-sp-d16
 784              	HAL_GetUIDw1:
 785              	.LFB149:
 487:../../Drivers/STM32H7xx_HAL_Driver/Src/stm32h7xx_hal.c **** 
 488:../../Drivers/STM32H7xx_HAL_Driver/Src/stm32h7xx_hal.c **** /**
 489:../../Drivers/STM32H7xx_HAL_Driver/Src/stm32h7xx_hal.c ****   * @brief  Return the second word of the unique device identifier (UID based on 96 bits)
 490:../../Drivers/STM32H7xx_HAL_Driver/Src/stm32h7xx_hal.c ****   * @retval Device identifier
 491:../../Drivers/STM32H7xx_HAL_Driver/Src/stm32h7xx_hal.c ****   */
 492:../../Drivers/STM32H7xx_HAL_Driver/Src/stm32h7xx_hal.c **** uint32_t HAL_GetUIDw1(void)
 493:../../Drivers/STM32H7xx_HAL_Driver/Src/stm32h7xx_hal.c **** {
 786              		.loc 1 493 1 is_stmt 1 view -0
 787              		.cfi_startproc
 788              		@ args = 0, pretend = 0, frame = 0
 789              		@ frame_needed = 0, uses_anonymous_args = 0
 790              		@ link register save eliminated.
 494:../../Drivers/STM32H7xx_HAL_Driver/Src/stm32h7xx_hal.c ****   return(READ_REG(*((uint32_t *)(UID_BASE + 4U))));
 791              		.loc 1 494 3 view .LVU161
 495:../../Drivers/STM32H7xx_HAL_Driver/Src/stm32h7xx_hal.c **** }
 792              		.loc 1 495 1 is_stmt 0 view .LVU162
 793 0000 014B     		ldr	r3, .L67
 794 0002 D3F80408 		ldr	r0, [r3, #2052]
 795 0006 7047     		bx	lr
 796              	.L68:
 797              		.align	2
 798              	.L67:
 799 0008 00E0F11F 		.word	535945216
 800              		.cfi_endproc
 801              	.LFE149:
 803              		.section	.text.HAL_GetUIDw2,"ax",%progbits
 804              		.align	1
 805              		.global	HAL_GetUIDw2
 806              		.syntax unified
 807              		.thumb
 808              		.thumb_func
 809              		.fpu fpv4-sp-d16
 811              	HAL_GetUIDw2:
 812              	.LFB150:
 496:../../Drivers/STM32H7xx_HAL_Driver/Src/stm32h7xx_hal.c **** 
 497:../../Drivers/STM32H7xx_HAL_Driver/Src/stm32h7xx_hal.c **** /**
 498:../../Drivers/STM32H7xx_HAL_Driver/Src/stm32h7xx_hal.c ****   * @brief  Return the third word of the unique device identifier (UID based on 96 bits)
 499:../../Drivers/STM32H7xx_HAL_Driver/Src/stm32h7xx_hal.c ****   * @retval Device identifier
 500:../../Drivers/STM32H7xx_HAL_Driver/Src/stm32h7xx_hal.c ****   */
 501:../../Drivers/STM32H7xx_HAL_Driver/Src/stm32h7xx_hal.c **** uint32_t HAL_GetUIDw2(void)
 502:../../Drivers/STM32H7xx_HAL_Driver/Src/stm32h7xx_hal.c **** {
 813              		.loc 1 502 1 is_stmt 1 view -0
 814              		.cfi_startproc
 815              		@ args = 0, pretend = 0, frame = 0
 816              		@ frame_needed = 0, uses_anonymous_args = 0
ARM GAS  /tmp/ccjOvRAM.s 			page 25


 817              		@ link register save eliminated.
 503:../../Drivers/STM32H7xx_HAL_Driver/Src/stm32h7xx_hal.c ****   return(READ_REG(*((uint32_t *)(UID_BASE + 8U))));
 818              		.loc 1 503 3 view .LVU164
 504:../../Drivers/STM32H7xx_HAL_Driver/Src/stm32h7xx_hal.c **** }
 819              		.loc 1 504 1 is_stmt 0 view .LVU165
 820 0000 014B     		ldr	r3, .L70
 821 0002 D3F80808 		ldr	r0, [r3, #2056]
 822 0006 7047     		bx	lr
 823              	.L71:
 824              		.align	2
 825              	.L70:
 826 0008 00E0F11F 		.word	535945216
 827              		.cfi_endproc
 828              	.LFE150:
 830              		.section	.text.HAL_SYSCFG_VREFBUF_VoltageScalingConfig,"ax",%progbits
 831              		.align	1
 832              		.global	HAL_SYSCFG_VREFBUF_VoltageScalingConfig
 833              		.syntax unified
 834              		.thumb
 835              		.thumb_func
 836              		.fpu fpv4-sp-d16
 838              	HAL_SYSCFG_VREFBUF_VoltageScalingConfig:
 839              	.LVL26:
 840              	.LFB151:
 505:../../Drivers/STM32H7xx_HAL_Driver/Src/stm32h7xx_hal.c **** 
 506:../../Drivers/STM32H7xx_HAL_Driver/Src/stm32h7xx_hal.c **** /**
 507:../../Drivers/STM32H7xx_HAL_Driver/Src/stm32h7xx_hal.c ****   * @brief Configure the internal voltage reference buffer voltage scale.
 508:../../Drivers/STM32H7xx_HAL_Driver/Src/stm32h7xx_hal.c ****   * @param VoltageScaling  specifies the output voltage to achieve
 509:../../Drivers/STM32H7xx_HAL_Driver/Src/stm32h7xx_hal.c ****   *          This parameter can be one of the following values:
 510:../../Drivers/STM32H7xx_HAL_Driver/Src/stm32h7xx_hal.c ****   *            @arg SYSCFG_VREFBUF_VOLTAGE_SCALE0: VREF_OUT1 around 2.5 V.
 511:../../Drivers/STM32H7xx_HAL_Driver/Src/stm32h7xx_hal.c ****   *                                                This requires VDDA equal to or higher than 2.8 V
 512:../../Drivers/STM32H7xx_HAL_Driver/Src/stm32h7xx_hal.c ****   *            @arg SYSCFG_VREFBUF_VOLTAGE_SCALE1: VREF_OUT2 around 2.048 V.
 513:../../Drivers/STM32H7xx_HAL_Driver/Src/stm32h7xx_hal.c ****   *                                                This requires VDDA equal to or higher than 2.4 V
 514:../../Drivers/STM32H7xx_HAL_Driver/Src/stm32h7xx_hal.c ****   *            @arg SYSCFG_VREFBUF_VOLTAGE_SCALE2: VREF_OUT3 around 1.8 V.
 515:../../Drivers/STM32H7xx_HAL_Driver/Src/stm32h7xx_hal.c ****   *                                                This requires VDDA equal to or higher than 2.1 V
 516:../../Drivers/STM32H7xx_HAL_Driver/Src/stm32h7xx_hal.c ****   *            @arg SYSCFG_VREFBUF_VOLTAGE_SCALE3: VREF_OUT4 around 1.5 V.
 517:../../Drivers/STM32H7xx_HAL_Driver/Src/stm32h7xx_hal.c ****   *                                                This requires VDDA equal to or higher than 1.8 V
 518:../../Drivers/STM32H7xx_HAL_Driver/Src/stm32h7xx_hal.c ****   * @retval None
 519:../../Drivers/STM32H7xx_HAL_Driver/Src/stm32h7xx_hal.c ****   */
 520:../../Drivers/STM32H7xx_HAL_Driver/Src/stm32h7xx_hal.c **** void HAL_SYSCFG_VREFBUF_VoltageScalingConfig(uint32_t VoltageScaling)
 521:../../Drivers/STM32H7xx_HAL_Driver/Src/stm32h7xx_hal.c **** {
 841              		.loc 1 521 1 is_stmt 1 view -0
 842              		.cfi_startproc
 843              		@ args = 0, pretend = 0, frame = 0
 844              		@ frame_needed = 0, uses_anonymous_args = 0
 845              		@ link register save eliminated.
 522:../../Drivers/STM32H7xx_HAL_Driver/Src/stm32h7xx_hal.c ****   /* Check the parameters */
 523:../../Drivers/STM32H7xx_HAL_Driver/Src/stm32h7xx_hal.c ****   assert_param(IS_SYSCFG_VREFBUF_VOLTAGE_SCALE(VoltageScaling));
 846              		.loc 1 523 3 view .LVU167
 524:../../Drivers/STM32H7xx_HAL_Driver/Src/stm32h7xx_hal.c **** 
 525:../../Drivers/STM32H7xx_HAL_Driver/Src/stm32h7xx_hal.c ****   MODIFY_REG(VREFBUF->CSR, VREFBUF_CSR_VRS, VoltageScaling);
 847              		.loc 1 525 3 view .LVU168
 848 0000 034A     		ldr	r2, .L73
 849 0002 1368     		ldr	r3, [r2]
 850 0004 23F07003 		bic	r3, r3, #112
 851 0008 0343     		orrs	r3, r3, r0
 852 000a 1360     		str	r3, [r2]
ARM GAS  /tmp/ccjOvRAM.s 			page 26


 526:../../Drivers/STM32H7xx_HAL_Driver/Src/stm32h7xx_hal.c **** }
 853              		.loc 1 526 1 is_stmt 0 view .LVU169
 854 000c 7047     		bx	lr
 855              	.L74:
 856 000e 00BF     		.align	2
 857              	.L73:
 858 0010 003C0058 		.word	1476410368
 859              		.cfi_endproc
 860              	.LFE151:
 862              		.section	.text.HAL_SYSCFG_VREFBUF_HighImpedanceConfig,"ax",%progbits
 863              		.align	1
 864              		.global	HAL_SYSCFG_VREFBUF_HighImpedanceConfig
 865              		.syntax unified
 866              		.thumb
 867              		.thumb_func
 868              		.fpu fpv4-sp-d16
 870              	HAL_SYSCFG_VREFBUF_HighImpedanceConfig:
 871              	.LVL27:
 872              	.LFB152:
 527:../../Drivers/STM32H7xx_HAL_Driver/Src/stm32h7xx_hal.c **** 
 528:../../Drivers/STM32H7xx_HAL_Driver/Src/stm32h7xx_hal.c **** /**
 529:../../Drivers/STM32H7xx_HAL_Driver/Src/stm32h7xx_hal.c ****   * @brief Configure the internal voltage reference buffer high impedance mode.
 530:../../Drivers/STM32H7xx_HAL_Driver/Src/stm32h7xx_hal.c ****   * @param Mode  specifies the high impedance mode
 531:../../Drivers/STM32H7xx_HAL_Driver/Src/stm32h7xx_hal.c ****   *          This parameter can be one of the following values:
 532:../../Drivers/STM32H7xx_HAL_Driver/Src/stm32h7xx_hal.c ****   *            @arg SYSCFG_VREFBUF_HIGH_IMPEDANCE_DISABLE: VREF+ pin is internally connect to VREFI
 533:../../Drivers/STM32H7xx_HAL_Driver/Src/stm32h7xx_hal.c ****   *            @arg SYSCFG_VREFBUF_HIGH_IMPEDANCE_ENABLE: VREF+ pin is high impedance.
 534:../../Drivers/STM32H7xx_HAL_Driver/Src/stm32h7xx_hal.c ****   * @retval None
 535:../../Drivers/STM32H7xx_HAL_Driver/Src/stm32h7xx_hal.c ****   */
 536:../../Drivers/STM32H7xx_HAL_Driver/Src/stm32h7xx_hal.c **** void HAL_SYSCFG_VREFBUF_HighImpedanceConfig(uint32_t Mode)
 537:../../Drivers/STM32H7xx_HAL_Driver/Src/stm32h7xx_hal.c **** {
 873              		.loc 1 537 1 is_stmt 1 view -0
 874              		.cfi_startproc
 875              		@ args = 0, pretend = 0, frame = 0
 876              		@ frame_needed = 0, uses_anonymous_args = 0
 877              		@ link register save eliminated.
 538:../../Drivers/STM32H7xx_HAL_Driver/Src/stm32h7xx_hal.c ****   /* Check the parameters */
 539:../../Drivers/STM32H7xx_HAL_Driver/Src/stm32h7xx_hal.c ****   assert_param(IS_SYSCFG_VREFBUF_HIGH_IMPEDANCE(Mode));
 878              		.loc 1 539 3 view .LVU171
 540:../../Drivers/STM32H7xx_HAL_Driver/Src/stm32h7xx_hal.c **** 
 541:../../Drivers/STM32H7xx_HAL_Driver/Src/stm32h7xx_hal.c ****   MODIFY_REG(VREFBUF->CSR, VREFBUF_CSR_HIZ, Mode);
 879              		.loc 1 541 3 view .LVU172
 880 0000 034A     		ldr	r2, .L76
 881 0002 1368     		ldr	r3, [r2]
 882 0004 23F00203 		bic	r3, r3, #2
 883 0008 0343     		orrs	r3, r3, r0
 884 000a 1360     		str	r3, [r2]
 542:../../Drivers/STM32H7xx_HAL_Driver/Src/stm32h7xx_hal.c **** }
 885              		.loc 1 542 1 is_stmt 0 view .LVU173
 886 000c 7047     		bx	lr
 887              	.L77:
 888 000e 00BF     		.align	2
 889              	.L76:
 890 0010 003C0058 		.word	1476410368
 891              		.cfi_endproc
 892              	.LFE152:
 894              		.section	.text.HAL_SYSCFG_VREFBUF_TrimmingConfig,"ax",%progbits
 895              		.align	1
ARM GAS  /tmp/ccjOvRAM.s 			page 27


 896              		.global	HAL_SYSCFG_VREFBUF_TrimmingConfig
 897              		.syntax unified
 898              		.thumb
 899              		.thumb_func
 900              		.fpu fpv4-sp-d16
 902              	HAL_SYSCFG_VREFBUF_TrimmingConfig:
 903              	.LVL28:
 904              	.LFB153:
 543:../../Drivers/STM32H7xx_HAL_Driver/Src/stm32h7xx_hal.c **** 
 544:../../Drivers/STM32H7xx_HAL_Driver/Src/stm32h7xx_hal.c **** /**
 545:../../Drivers/STM32H7xx_HAL_Driver/Src/stm32h7xx_hal.c ****   * @brief  Tune the Internal Voltage Reference buffer (VREFBUF).
 546:../../Drivers/STM32H7xx_HAL_Driver/Src/stm32h7xx_hal.c ****   * @retval None
 547:../../Drivers/STM32H7xx_HAL_Driver/Src/stm32h7xx_hal.c ****   */
 548:../../Drivers/STM32H7xx_HAL_Driver/Src/stm32h7xx_hal.c **** void HAL_SYSCFG_VREFBUF_TrimmingConfig(uint32_t TrimmingValue)
 549:../../Drivers/STM32H7xx_HAL_Driver/Src/stm32h7xx_hal.c **** {
 905              		.loc 1 549 1 is_stmt 1 view -0
 906              		.cfi_startproc
 907              		@ args = 0, pretend = 0, frame = 0
 908              		@ frame_needed = 0, uses_anonymous_args = 0
 909              		@ link register save eliminated.
 550:../../Drivers/STM32H7xx_HAL_Driver/Src/stm32h7xx_hal.c ****   /* Check the parameters */
 551:../../Drivers/STM32H7xx_HAL_Driver/Src/stm32h7xx_hal.c ****   assert_param(IS_SYSCFG_VREFBUF_TRIMMING(TrimmingValue));
 910              		.loc 1 551 3 view .LVU175
 552:../../Drivers/STM32H7xx_HAL_Driver/Src/stm32h7xx_hal.c **** 
 553:../../Drivers/STM32H7xx_HAL_Driver/Src/stm32h7xx_hal.c ****   MODIFY_REG(VREFBUF->CCR, VREFBUF_CCR_TRIM, TrimmingValue);
 911              		.loc 1 553 3 view .LVU176
 912 0000 034A     		ldr	r2, .L79
 913 0002 5368     		ldr	r3, [r2, #4]
 914 0004 23F03F03 		bic	r3, r3, #63
 915 0008 0343     		orrs	r3, r3, r0
 916 000a 5360     		str	r3, [r2, #4]
 554:../../Drivers/STM32H7xx_HAL_Driver/Src/stm32h7xx_hal.c **** }
 917              		.loc 1 554 1 is_stmt 0 view .LVU177
 918 000c 7047     		bx	lr
 919              	.L80:
 920 000e 00BF     		.align	2
 921              	.L79:
 922 0010 003C0058 		.word	1476410368
 923              		.cfi_endproc
 924              	.LFE153:
 926              		.section	.text.HAL_SYSCFG_EnableVREFBUF,"ax",%progbits
 927              		.align	1
 928              		.global	HAL_SYSCFG_EnableVREFBUF
 929              		.syntax unified
 930              		.thumb
 931              		.thumb_func
 932              		.fpu fpv4-sp-d16
 934              	HAL_SYSCFG_EnableVREFBUF:
 935              	.LFB154:
 555:../../Drivers/STM32H7xx_HAL_Driver/Src/stm32h7xx_hal.c **** 
 556:../../Drivers/STM32H7xx_HAL_Driver/Src/stm32h7xx_hal.c **** /**
 557:../../Drivers/STM32H7xx_HAL_Driver/Src/stm32h7xx_hal.c ****   * @brief  Enable the Internal Voltage Reference buffer (VREFBUF).
 558:../../Drivers/STM32H7xx_HAL_Driver/Src/stm32h7xx_hal.c ****   * @retval HAL_OK/HAL_TIMEOUT
 559:../../Drivers/STM32H7xx_HAL_Driver/Src/stm32h7xx_hal.c ****   */
 560:../../Drivers/STM32H7xx_HAL_Driver/Src/stm32h7xx_hal.c **** HAL_StatusTypeDef HAL_SYSCFG_EnableVREFBUF(void)
 561:../../Drivers/STM32H7xx_HAL_Driver/Src/stm32h7xx_hal.c **** {
 936              		.loc 1 561 1 is_stmt 1 view -0
ARM GAS  /tmp/ccjOvRAM.s 			page 28


 937              		.cfi_startproc
 938              		@ args = 0, pretend = 0, frame = 0
 939              		@ frame_needed = 0, uses_anonymous_args = 0
 940 0000 10B5     		push	{r4, lr}
 941              	.LCFI8:
 942              		.cfi_def_cfa_offset 8
 943              		.cfi_offset 4, -8
 944              		.cfi_offset 14, -4
 562:../../Drivers/STM32H7xx_HAL_Driver/Src/stm32h7xx_hal.c ****   uint32_t  tickstart;
 945              		.loc 1 562 3 view .LVU179
 563:../../Drivers/STM32H7xx_HAL_Driver/Src/stm32h7xx_hal.c **** 
 564:../../Drivers/STM32H7xx_HAL_Driver/Src/stm32h7xx_hal.c ****   SET_BIT(VREFBUF->CSR, VREFBUF_CSR_ENVR);
 946              		.loc 1 564 3 view .LVU180
 947 0002 0B4A     		ldr	r2, .L88
 948 0004 1368     		ldr	r3, [r2]
 949 0006 43F00103 		orr	r3, r3, #1
 950 000a 1360     		str	r3, [r2]
 565:../../Drivers/STM32H7xx_HAL_Driver/Src/stm32h7xx_hal.c **** 
 566:../../Drivers/STM32H7xx_HAL_Driver/Src/stm32h7xx_hal.c ****   /* Get Start Tick*/
 567:../../Drivers/STM32H7xx_HAL_Driver/Src/stm32h7xx_hal.c ****   tickstart = HAL_GetTick();
 951              		.loc 1 567 3 view .LVU181
 952              		.loc 1 567 15 is_stmt 0 view .LVU182
 953 000c FFF7FEFF 		bl	HAL_GetTick
 954              	.LVL29:
 955 0010 0446     		mov	r4, r0
 956              	.LVL30:
 568:../../Drivers/STM32H7xx_HAL_Driver/Src/stm32h7xx_hal.c **** 
 569:../../Drivers/STM32H7xx_HAL_Driver/Src/stm32h7xx_hal.c ****   /* Wait for VRR bit  */
 570:../../Drivers/STM32H7xx_HAL_Driver/Src/stm32h7xx_hal.c ****   while(READ_BIT(VREFBUF->CSR, VREFBUF_CSR_VRR) == 0UL)
 957              		.loc 1 570 3 is_stmt 1 view .LVU183
 958              	.L82:
 959              		.loc 1 570 8 view .LVU184
 960              		.loc 1 570 9 is_stmt 0 view .LVU185
 961 0012 074B     		ldr	r3, .L88
 962 0014 1B68     		ldr	r3, [r3]
 963              		.loc 1 570 8 view .LVU186
 964 0016 13F0080F 		tst	r3, #8
 965 001a 06D1     		bne	.L87
 571:../../Drivers/STM32H7xx_HAL_Driver/Src/stm32h7xx_hal.c ****   {
 572:../../Drivers/STM32H7xx_HAL_Driver/Src/stm32h7xx_hal.c ****     if((HAL_GetTick() - tickstart) > VREFBUF_TIMEOUT_VALUE)
 966              		.loc 1 572 5 is_stmt 1 view .LVU187
 967              		.loc 1 572 9 is_stmt 0 view .LVU188
 968 001c FFF7FEFF 		bl	HAL_GetTick
 969              	.LVL31:
 970              		.loc 1 572 23 view .LVU189
 971 0020 001B     		subs	r0, r0, r4
 972              		.loc 1 572 7 view .LVU190
 973 0022 0A28     		cmp	r0, #10
 974 0024 F5D9     		bls	.L82
 573:../../Drivers/STM32H7xx_HAL_Driver/Src/stm32h7xx_hal.c ****     {
 574:../../Drivers/STM32H7xx_HAL_Driver/Src/stm32h7xx_hal.c ****       return HAL_TIMEOUT;
 975              		.loc 1 574 14 view .LVU191
 976 0026 0320     		movs	r0, #3
 977 0028 00E0     		b	.L83
 978              	.L87:
 575:../../Drivers/STM32H7xx_HAL_Driver/Src/stm32h7xx_hal.c ****     }
 576:../../Drivers/STM32H7xx_HAL_Driver/Src/stm32h7xx_hal.c ****   }
ARM GAS  /tmp/ccjOvRAM.s 			page 29


 577:../../Drivers/STM32H7xx_HAL_Driver/Src/stm32h7xx_hal.c **** 
 578:../../Drivers/STM32H7xx_HAL_Driver/Src/stm32h7xx_hal.c ****   return HAL_OK;
 979              		.loc 1 578 10 view .LVU192
 980 002a 0020     		movs	r0, #0
 981              	.L83:
 579:../../Drivers/STM32H7xx_HAL_Driver/Src/stm32h7xx_hal.c **** }
 982              		.loc 1 579 1 view .LVU193
 983 002c 10BD     		pop	{r4, pc}
 984              	.LVL32:
 985              	.L89:
 986              		.loc 1 579 1 view .LVU194
 987 002e 00BF     		.align	2
 988              	.L88:
 989 0030 003C0058 		.word	1476410368
 990              		.cfi_endproc
 991              	.LFE154:
 993              		.section	.text.HAL_SYSCFG_DisableVREFBUF,"ax",%progbits
 994              		.align	1
 995              		.global	HAL_SYSCFG_DisableVREFBUF
 996              		.syntax unified
 997              		.thumb
 998              		.thumb_func
 999              		.fpu fpv4-sp-d16
 1001              	HAL_SYSCFG_DisableVREFBUF:
 1002              	.LFB155:
 580:../../Drivers/STM32H7xx_HAL_Driver/Src/stm32h7xx_hal.c **** 
 581:../../Drivers/STM32H7xx_HAL_Driver/Src/stm32h7xx_hal.c **** /**
 582:../../Drivers/STM32H7xx_HAL_Driver/Src/stm32h7xx_hal.c ****   * @brief  Disable the Internal Voltage Reference buffer (VREFBUF).
 583:../../Drivers/STM32H7xx_HAL_Driver/Src/stm32h7xx_hal.c ****   *
 584:../../Drivers/STM32H7xx_HAL_Driver/Src/stm32h7xx_hal.c ****   * @retval None
 585:../../Drivers/STM32H7xx_HAL_Driver/Src/stm32h7xx_hal.c ****   */
 586:../../Drivers/STM32H7xx_HAL_Driver/Src/stm32h7xx_hal.c **** void HAL_SYSCFG_DisableVREFBUF(void)
 587:../../Drivers/STM32H7xx_HAL_Driver/Src/stm32h7xx_hal.c **** {
 1003              		.loc 1 587 1 is_stmt 1 view -0
 1004              		.cfi_startproc
 1005              		@ args = 0, pretend = 0, frame = 0
 1006              		@ frame_needed = 0, uses_anonymous_args = 0
 1007              		@ link register save eliminated.
 588:../../Drivers/STM32H7xx_HAL_Driver/Src/stm32h7xx_hal.c ****   CLEAR_BIT(VREFBUF->CSR, VREFBUF_CSR_ENVR);
 1008              		.loc 1 588 3 view .LVU196
 1009 0000 024A     		ldr	r2, .L91
 1010 0002 1368     		ldr	r3, [r2]
 1011 0004 23F00103 		bic	r3, r3, #1
 1012 0008 1360     		str	r3, [r2]
 589:../../Drivers/STM32H7xx_HAL_Driver/Src/stm32h7xx_hal.c **** }
 1013              		.loc 1 589 1 is_stmt 0 view .LVU197
 1014 000a 7047     		bx	lr
 1015              	.L92:
 1016              		.align	2
 1017              	.L91:
 1018 000c 003C0058 		.word	1476410368
 1019              		.cfi_endproc
 1020              	.LFE155:
 1022              		.section	.text.HAL_SYSCFG_ETHInterfaceSelect,"ax",%progbits
 1023              		.align	1
 1024              		.global	HAL_SYSCFG_ETHInterfaceSelect
 1025              		.syntax unified
ARM GAS  /tmp/ccjOvRAM.s 			page 30


 1026              		.thumb
 1027              		.thumb_func
 1028              		.fpu fpv4-sp-d16
 1030              	HAL_SYSCFG_ETHInterfaceSelect:
 1031              	.LVL33:
 1032              	.LFB156:
 590:../../Drivers/STM32H7xx_HAL_Driver/Src/stm32h7xx_hal.c **** 
 591:../../Drivers/STM32H7xx_HAL_Driver/Src/stm32h7xx_hal.c **** #if defined(SYSCFG_PMCR_EPIS_SEL)
 592:../../Drivers/STM32H7xx_HAL_Driver/Src/stm32h7xx_hal.c **** /**
 593:../../Drivers/STM32H7xx_HAL_Driver/Src/stm32h7xx_hal.c ****   * @brief  Ethernet PHY Interface Selection either MII or RMII
 594:../../Drivers/STM32H7xx_HAL_Driver/Src/stm32h7xx_hal.c ****   * @param  SYSCFG_ETHInterface: Selects the Ethernet PHY interface
 595:../../Drivers/STM32H7xx_HAL_Driver/Src/stm32h7xx_hal.c ****   *   This parameter can be one of the following values:
 596:../../Drivers/STM32H7xx_HAL_Driver/Src/stm32h7xx_hal.c ****   *   @arg SYSCFG_ETH_MII : Select the Media Independent Interface
 597:../../Drivers/STM32H7xx_HAL_Driver/Src/stm32h7xx_hal.c ****   *   @arg SYSCFG_ETH_RMII: Select the Reduced Media Independent Interface
 598:../../Drivers/STM32H7xx_HAL_Driver/Src/stm32h7xx_hal.c ****   * @retval None
 599:../../Drivers/STM32H7xx_HAL_Driver/Src/stm32h7xx_hal.c ****   */
 600:../../Drivers/STM32H7xx_HAL_Driver/Src/stm32h7xx_hal.c **** void HAL_SYSCFG_ETHInterfaceSelect(uint32_t SYSCFG_ETHInterface)
 601:../../Drivers/STM32H7xx_HAL_Driver/Src/stm32h7xx_hal.c **** {
 1033              		.loc 1 601 1 is_stmt 1 view -0
 1034              		.cfi_startproc
 1035              		@ args = 0, pretend = 0, frame = 0
 1036              		@ frame_needed = 0, uses_anonymous_args = 0
 1037              		@ link register save eliminated.
 602:../../Drivers/STM32H7xx_HAL_Driver/Src/stm32h7xx_hal.c ****   /* Check the parameter */
 603:../../Drivers/STM32H7xx_HAL_Driver/Src/stm32h7xx_hal.c ****   assert_param(IS_SYSCFG_ETHERNET_CONFIG(SYSCFG_ETHInterface));
 1038              		.loc 1 603 3 view .LVU199
 604:../../Drivers/STM32H7xx_HAL_Driver/Src/stm32h7xx_hal.c **** 
 605:../../Drivers/STM32H7xx_HAL_Driver/Src/stm32h7xx_hal.c ****   MODIFY_REG(SYSCFG->PMCR, SYSCFG_PMCR_EPIS_SEL, (uint32_t)(SYSCFG_ETHInterface));
 1039              		.loc 1 605 3 view .LVU200
 1040 0000 034A     		ldr	r2, .L94
 1041 0002 5368     		ldr	r3, [r2, #4]
 1042 0004 23F46003 		bic	r3, r3, #14680064
 1043 0008 0343     		orrs	r3, r3, r0
 1044 000a 5360     		str	r3, [r2, #4]
 606:../../Drivers/STM32H7xx_HAL_Driver/Src/stm32h7xx_hal.c **** }
 1045              		.loc 1 606 1 is_stmt 0 view .LVU201
 1046 000c 7047     		bx	lr
 1047              	.L95:
 1048 000e 00BF     		.align	2
 1049              	.L94:
 1050 0010 00040058 		.word	1476396032
 1051              		.cfi_endproc
 1052              	.LFE156:
 1054              		.section	.text.HAL_SYSCFG_AnalogSwitchConfig,"ax",%progbits
 1055              		.align	1
 1056              		.global	HAL_SYSCFG_AnalogSwitchConfig
 1057              		.syntax unified
 1058              		.thumb
 1059              		.thumb_func
 1060              		.fpu fpv4-sp-d16
 1062              	HAL_SYSCFG_AnalogSwitchConfig:
 1063              	.LVL34:
 1064              	.LFB157:
 607:../../Drivers/STM32H7xx_HAL_Driver/Src/stm32h7xx_hal.c **** #endif /* SYSCFG_PMCR_EPIS_SEL */
 608:../../Drivers/STM32H7xx_HAL_Driver/Src/stm32h7xx_hal.c **** 
 609:../../Drivers/STM32H7xx_HAL_Driver/Src/stm32h7xx_hal.c **** /**
 610:../../Drivers/STM32H7xx_HAL_Driver/Src/stm32h7xx_hal.c ****   * @brief  Analog Switch control for dual analog pads.
ARM GAS  /tmp/ccjOvRAM.s 			page 31


 611:../../Drivers/STM32H7xx_HAL_Driver/Src/stm32h7xx_hal.c ****   * @param  SYSCFG_AnalogSwitch: Selects the analog pad
 612:../../Drivers/STM32H7xx_HAL_Driver/Src/stm32h7xx_hal.c ****   *   This parameter can be one or a combination of the following values:
 613:../../Drivers/STM32H7xx_HAL_Driver/Src/stm32h7xx_hal.c ****   *   @arg SYSCFG_SWITCH_PA0 : Select PA0 analog switch
 614:../../Drivers/STM32H7xx_HAL_Driver/Src/stm32h7xx_hal.c ****   *   @arg SYSCFG_SWITCH_PA1:  Select PA1 analog switch
 615:../../Drivers/STM32H7xx_HAL_Driver/Src/stm32h7xx_hal.c ****   *   @arg SYSCFG_SWITCH_PC2 : Select PC2 analog switch
 616:../../Drivers/STM32H7xx_HAL_Driver/Src/stm32h7xx_hal.c ****   *   @arg SYSCFG_SWITCH_PC3:  Select PC3 analog switch
 617:../../Drivers/STM32H7xx_HAL_Driver/Src/stm32h7xx_hal.c ****   * @param  SYSCFG_SwitchState: Open or Close the analog switch between dual pads (PXn and PXn_C)
 618:../../Drivers/STM32H7xx_HAL_Driver/Src/stm32h7xx_hal.c ****   *   This parameter can be one or a combination of the following values:
 619:../../Drivers/STM32H7xx_HAL_Driver/Src/stm32h7xx_hal.c ****   *   @arg SYSCFG_SWITCH_PA0_OPEN
 620:../../Drivers/STM32H7xx_HAL_Driver/Src/stm32h7xx_hal.c ****   *   @arg SYSCFG_SWITCH_PA0_CLOSE
 621:../../Drivers/STM32H7xx_HAL_Driver/Src/stm32h7xx_hal.c ****   *   @arg SYSCFG_SWITCH_PA1_OPEN
 622:../../Drivers/STM32H7xx_HAL_Driver/Src/stm32h7xx_hal.c ****   *   @arg SYSCFG_SWITCH_PA1_CLOSE
 623:../../Drivers/STM32H7xx_HAL_Driver/Src/stm32h7xx_hal.c ****   *   @arg SYSCFG_SWITCH_PC2_OPEN
 624:../../Drivers/STM32H7xx_HAL_Driver/Src/stm32h7xx_hal.c ****   *   @arg SYSCFG_SWITCH_PC2_CLOSE
 625:../../Drivers/STM32H7xx_HAL_Driver/Src/stm32h7xx_hal.c ****   *   @arg SYSCFG_SWITCH_PC3_OPEN
 626:../../Drivers/STM32H7xx_HAL_Driver/Src/stm32h7xx_hal.c ****   *   @arg SYSCFG_SWITCH_PC3_CLOSE
 627:../../Drivers/STM32H7xx_HAL_Driver/Src/stm32h7xx_hal.c ****   * @retval None
 628:../../Drivers/STM32H7xx_HAL_Driver/Src/stm32h7xx_hal.c ****   */
 629:../../Drivers/STM32H7xx_HAL_Driver/Src/stm32h7xx_hal.c **** 
 630:../../Drivers/STM32H7xx_HAL_Driver/Src/stm32h7xx_hal.c **** void HAL_SYSCFG_AnalogSwitchConfig(uint32_t SYSCFG_AnalogSwitch , uint32_t SYSCFG_SwitchState )
 631:../../Drivers/STM32H7xx_HAL_Driver/Src/stm32h7xx_hal.c **** {
 1065              		.loc 1 631 1 is_stmt 1 view -0
 1066              		.cfi_startproc
 1067              		@ args = 0, pretend = 0, frame = 0
 1068              		@ frame_needed = 0, uses_anonymous_args = 0
 1069              		@ link register save eliminated.
 632:../../Drivers/STM32H7xx_HAL_Driver/Src/stm32h7xx_hal.c ****   /* Check the parameter */
 633:../../Drivers/STM32H7xx_HAL_Driver/Src/stm32h7xx_hal.c ****   assert_param(IS_SYSCFG_ANALOG_SWITCH(SYSCFG_AnalogSwitch));
 1070              		.loc 1 633 3 view .LVU203
 634:../../Drivers/STM32H7xx_HAL_Driver/Src/stm32h7xx_hal.c ****   assert_param(IS_SYSCFG_SWITCH_STATE(SYSCFG_SwitchState));
 1071              		.loc 1 634 3 view .LVU204
 635:../../Drivers/STM32H7xx_HAL_Driver/Src/stm32h7xx_hal.c **** 
 636:../../Drivers/STM32H7xx_HAL_Driver/Src/stm32h7xx_hal.c ****   MODIFY_REG(SYSCFG->PMCR, (uint32_t) SYSCFG_AnalogSwitch, (uint32_t)(SYSCFG_SwitchState));
 1072              		.loc 1 636 3 view .LVU205
 1073 0000 034A     		ldr	r2, .L97
 1074 0002 5368     		ldr	r3, [r2, #4]
 1075 0004 23EA0003 		bic	r3, r3, r0
 1076 0008 0B43     		orrs	r3, r3, r1
 1077 000a 5360     		str	r3, [r2, #4]
 637:../../Drivers/STM32H7xx_HAL_Driver/Src/stm32h7xx_hal.c **** }
 1078              		.loc 1 637 1 is_stmt 0 view .LVU206
 1079 000c 7047     		bx	lr
 1080              	.L98:
 1081 000e 00BF     		.align	2
 1082              	.L97:
 1083 0010 00040058 		.word	1476396032
 1084              		.cfi_endproc
 1085              	.LFE157:
 1087              		.section	.text.HAL_SYSCFG_EnableBOOST,"ax",%progbits
 1088              		.align	1
 1089              		.global	HAL_SYSCFG_EnableBOOST
 1090              		.syntax unified
 1091              		.thumb
 1092              		.thumb_func
 1093              		.fpu fpv4-sp-d16
 1095              	HAL_SYSCFG_EnableBOOST:
 1096              	.LFB158:
ARM GAS  /tmp/ccjOvRAM.s 			page 32


 638:../../Drivers/STM32H7xx_HAL_Driver/Src/stm32h7xx_hal.c **** 
 639:../../Drivers/STM32H7xx_HAL_Driver/Src/stm32h7xx_hal.c **** #if defined(SYSCFG_PMCR_BOOSTEN)
 640:../../Drivers/STM32H7xx_HAL_Driver/Src/stm32h7xx_hal.c **** /**
 641:../../Drivers/STM32H7xx_HAL_Driver/Src/stm32h7xx_hal.c ****   * @brief  Enables the booster to reduce the total harmonic distortion of the analog
 642:../../Drivers/STM32H7xx_HAL_Driver/Src/stm32h7xx_hal.c ****   *         switch when the supply voltage is lower than 2.7 V.
 643:../../Drivers/STM32H7xx_HAL_Driver/Src/stm32h7xx_hal.c ****   * @note   Activating the booster allows to guaranty the analog switch AC performance
 644:../../Drivers/STM32H7xx_HAL_Driver/Src/stm32h7xx_hal.c ****   *         when the supply voltage is below 2.7 V: in this case, the analog switch
 645:../../Drivers/STM32H7xx_HAL_Driver/Src/stm32h7xx_hal.c ****   *         performance is the same on the full voltage range
 646:../../Drivers/STM32H7xx_HAL_Driver/Src/stm32h7xx_hal.c ****   * @retval None
 647:../../Drivers/STM32H7xx_HAL_Driver/Src/stm32h7xx_hal.c ****   */
 648:../../Drivers/STM32H7xx_HAL_Driver/Src/stm32h7xx_hal.c **** void HAL_SYSCFG_EnableBOOST(void)
 649:../../Drivers/STM32H7xx_HAL_Driver/Src/stm32h7xx_hal.c **** {
 1097              		.loc 1 649 1 is_stmt 1 view -0
 1098              		.cfi_startproc
 1099              		@ args = 0, pretend = 0, frame = 0
 1100              		@ frame_needed = 0, uses_anonymous_args = 0
 1101              		@ link register save eliminated.
 650:../../Drivers/STM32H7xx_HAL_Driver/Src/stm32h7xx_hal.c ****  SET_BIT(SYSCFG->PMCR, SYSCFG_PMCR_BOOSTEN) ;
 1102              		.loc 1 650 2 view .LVU208
 1103 0000 024A     		ldr	r2, .L100
 1104 0002 5368     		ldr	r3, [r2, #4]
 1105 0004 43F48073 		orr	r3, r3, #256
 1106 0008 5360     		str	r3, [r2, #4]
 651:../../Drivers/STM32H7xx_HAL_Driver/Src/stm32h7xx_hal.c **** }
 1107              		.loc 1 651 1 is_stmt 0 view .LVU209
 1108 000a 7047     		bx	lr
 1109              	.L101:
 1110              		.align	2
 1111              	.L100:
 1112 000c 00040058 		.word	1476396032
 1113              		.cfi_endproc
 1114              	.LFE158:
 1116              		.section	.text.HAL_SYSCFG_DisableBOOST,"ax",%progbits
 1117              		.align	1
 1118              		.global	HAL_SYSCFG_DisableBOOST
 1119              		.syntax unified
 1120              		.thumb
 1121              		.thumb_func
 1122              		.fpu fpv4-sp-d16
 1124              	HAL_SYSCFG_DisableBOOST:
 1125              	.LFB159:
 652:../../Drivers/STM32H7xx_HAL_Driver/Src/stm32h7xx_hal.c **** 
 653:../../Drivers/STM32H7xx_HAL_Driver/Src/stm32h7xx_hal.c **** /**
 654:../../Drivers/STM32H7xx_HAL_Driver/Src/stm32h7xx_hal.c ****   * @brief  Disables the booster
 655:../../Drivers/STM32H7xx_HAL_Driver/Src/stm32h7xx_hal.c ****   * @note   Activating the booster allows to guaranty the analog switch AC performance
 656:../../Drivers/STM32H7xx_HAL_Driver/Src/stm32h7xx_hal.c ****   *         when the supply voltage is below 2.7 V: in this case, the analog switch
 657:../../Drivers/STM32H7xx_HAL_Driver/Src/stm32h7xx_hal.c ****   *         performance is the same on the full voltage range
 658:../../Drivers/STM32H7xx_HAL_Driver/Src/stm32h7xx_hal.c ****   * @retval None
 659:../../Drivers/STM32H7xx_HAL_Driver/Src/stm32h7xx_hal.c ****   */
 660:../../Drivers/STM32H7xx_HAL_Driver/Src/stm32h7xx_hal.c **** void HAL_SYSCFG_DisableBOOST(void)
 661:../../Drivers/STM32H7xx_HAL_Driver/Src/stm32h7xx_hal.c **** {
 1126              		.loc 1 661 1 is_stmt 1 view -0
 1127              		.cfi_startproc
 1128              		@ args = 0, pretend = 0, frame = 0
 1129              		@ frame_needed = 0, uses_anonymous_args = 0
 1130              		@ link register save eliminated.
 662:../../Drivers/STM32H7xx_HAL_Driver/Src/stm32h7xx_hal.c ****  CLEAR_BIT(SYSCFG->PMCR, SYSCFG_PMCR_BOOSTEN) ;
ARM GAS  /tmp/ccjOvRAM.s 			page 33


 1131              		.loc 1 662 2 view .LVU211
 1132 0000 024A     		ldr	r2, .L103
 1133 0002 5368     		ldr	r3, [r2, #4]
 1134 0004 23F48073 		bic	r3, r3, #256
 1135 0008 5360     		str	r3, [r2, #4]
 663:../../Drivers/STM32H7xx_HAL_Driver/Src/stm32h7xx_hal.c **** }
 1136              		.loc 1 663 1 is_stmt 0 view .LVU212
 1137 000a 7047     		bx	lr
 1138              	.L104:
 1139              		.align	2
 1140              	.L103:
 1141 000c 00040058 		.word	1476396032
 1142              		.cfi_endproc
 1143              	.LFE159:
 1145              		.section	.text.HAL_SYSCFG_CM7BootAddConfig,"ax",%progbits
 1146              		.align	1
 1147              		.global	HAL_SYSCFG_CM7BootAddConfig
 1148              		.syntax unified
 1149              		.thumb
 1150              		.thumb_func
 1151              		.fpu fpv4-sp-d16
 1153              	HAL_SYSCFG_CM7BootAddConfig:
 1154              	.LVL35:
 1155              	.LFB160:
 664:../../Drivers/STM32H7xx_HAL_Driver/Src/stm32h7xx_hal.c **** #endif /* SYSCFG_PMCR_BOOSTEN */
 665:../../Drivers/STM32H7xx_HAL_Driver/Src/stm32h7xx_hal.c **** 
 666:../../Drivers/STM32H7xx_HAL_Driver/Src/stm32h7xx_hal.c **** #if defined (SYSCFG_UR2_BOOT_ADD0) ||  defined (SYSCFG_UR2_BCM7_ADD0)
 667:../../Drivers/STM32H7xx_HAL_Driver/Src/stm32h7xx_hal.c **** /**
 668:../../Drivers/STM32H7xx_HAL_Driver/Src/stm32h7xx_hal.c ****   * @brief  BootCM7 address 0 configuration
 669:../../Drivers/STM32H7xx_HAL_Driver/Src/stm32h7xx_hal.c ****   * @param  BootRegister :Specifies the Boot Address register (Address0 or Address1)
 670:../../Drivers/STM32H7xx_HAL_Driver/Src/stm32h7xx_hal.c ****   *   This parameter can be one of the following values:
 671:../../Drivers/STM32H7xx_HAL_Driver/Src/stm32h7xx_hal.c ****   *   @arg SYSCFG_BOOT_ADDR0 : Select the boot address0
 672:../../Drivers/STM32H7xx_HAL_Driver/Src/stm32h7xx_hal.c ****   *   @arg SYSCFG_BOOT_ADDR1:  Select the boot address1
 673:../../Drivers/STM32H7xx_HAL_Driver/Src/stm32h7xx_hal.c ****   * @param  BootAddress :Specifies the CM7 Boot Address to be loaded in Address0 or Address1
 674:../../Drivers/STM32H7xx_HAL_Driver/Src/stm32h7xx_hal.c ****   * @retval None
 675:../../Drivers/STM32H7xx_HAL_Driver/Src/stm32h7xx_hal.c ****   */
 676:../../Drivers/STM32H7xx_HAL_Driver/Src/stm32h7xx_hal.c **** void HAL_SYSCFG_CM7BootAddConfig(uint32_t BootRegister, uint32_t BootAddress)
 677:../../Drivers/STM32H7xx_HAL_Driver/Src/stm32h7xx_hal.c **** {
 1156              		.loc 1 677 1 is_stmt 1 view -0
 1157              		.cfi_startproc
 1158              		@ args = 0, pretend = 0, frame = 0
 1159              		@ frame_needed = 0, uses_anonymous_args = 0
 1160              		@ link register save eliminated.
 678:../../Drivers/STM32H7xx_HAL_Driver/Src/stm32h7xx_hal.c ****   /* Check the parameters */
 679:../../Drivers/STM32H7xx_HAL_Driver/Src/stm32h7xx_hal.c ****   assert_param(IS_SYSCFG_BOOT_REGISTER(BootRegister));
 1161              		.loc 1 679 3 view .LVU214
 680:../../Drivers/STM32H7xx_HAL_Driver/Src/stm32h7xx_hal.c ****   assert_param(IS_SYSCFG_BOOT_ADDRESS(BootAddress));
 1162              		.loc 1 680 3 view .LVU215
 681:../../Drivers/STM32H7xx_HAL_Driver/Src/stm32h7xx_hal.c ****   if ( BootRegister == SYSCFG_BOOT_ADDR0 )
 1163              		.loc 1 681 3 view .LVU216
 1164              		.loc 1 681 6 is_stmt 0 view .LVU217
 1165 0000 48B9     		cbnz	r0, .L106
 682:../../Drivers/STM32H7xx_HAL_Driver/Src/stm32h7xx_hal.c ****   {
 683:../../Drivers/STM32H7xx_HAL_Driver/Src/stm32h7xx_hal.c ****     /* Configure CM7 BOOT ADD0 */
 684:../../Drivers/STM32H7xx_HAL_Driver/Src/stm32h7xx_hal.c **** #if defined(DUAL_CORE)
 685:../../Drivers/STM32H7xx_HAL_Driver/Src/stm32h7xx_hal.c ****     MODIFY_REG(SYSCFG->UR2, SYSCFG_UR2_BCM7_ADD0, ((BootAddress >> 16) << SYSCFG_UR2_BCM7_ADD0_Pos)
 1166              		.loc 1 685 5 is_stmt 1 view .LVU218
ARM GAS  /tmp/ccjOvRAM.s 			page 34


 1167 0002 0A48     		ldr	r0, .L108
 1168              	.LVL36:
 1169              		.loc 1 685 5 is_stmt 0 view .LVU219
 1170 0004 D0F80833 		ldr	r3, [r0, #776]
 1171 0008 9BB2     		uxth	r3, r3
 1172 000a 094A     		ldr	r2, .L108+4
 1173 000c 0A40     		ands	r2, r2, r1
 1174 000e 1343     		orrs	r3, r3, r2
 1175 0010 C0F80833 		str	r3, [r0, #776]
 1176 0014 7047     		bx	lr
 1177              	.LVL37:
 1178              	.L106:
 686:../../Drivers/STM32H7xx_HAL_Driver/Src/stm32h7xx_hal.c **** #else
 687:../../Drivers/STM32H7xx_HAL_Driver/Src/stm32h7xx_hal.c ****     MODIFY_REG(SYSCFG->UR2, SYSCFG_UR2_BOOT_ADD0, ((BootAddress >> 16) << SYSCFG_UR2_BOOT_ADD0_Pos)
 688:../../Drivers/STM32H7xx_HAL_Driver/Src/stm32h7xx_hal.c **** #endif /*DUAL_CORE*/
 689:../../Drivers/STM32H7xx_HAL_Driver/Src/stm32h7xx_hal.c ****   }
 690:../../Drivers/STM32H7xx_HAL_Driver/Src/stm32h7xx_hal.c ****   else
 691:../../Drivers/STM32H7xx_HAL_Driver/Src/stm32h7xx_hal.c ****   {
 692:../../Drivers/STM32H7xx_HAL_Driver/Src/stm32h7xx_hal.c ****     /* Configure CM7 BOOT ADD1 */
 693:../../Drivers/STM32H7xx_HAL_Driver/Src/stm32h7xx_hal.c **** #if defined(DUAL_CORE)
 694:../../Drivers/STM32H7xx_HAL_Driver/Src/stm32h7xx_hal.c ****     MODIFY_REG(SYSCFG->UR3, SYSCFG_UR3_BCM7_ADD1, (BootAddress >> 16));
 1179              		.loc 1 694 5 is_stmt 1 view .LVU220
 1180 0016 054A     		ldr	r2, .L108
 1181 0018 D2F80C03 		ldr	r0, [r2, #780]
 1182              	.LVL38:
 1183              		.loc 1 694 5 is_stmt 0 view .LVU221
 1184 001c 044B     		ldr	r3, .L108+4
 1185 001e 0340     		ands	r3, r3, r0
 1186 0020 43EA1141 		orr	r1, r3, r1, lsr #16
 1187              	.LVL39:
 1188              		.loc 1 694 5 view .LVU222
 1189 0024 C2F80C13 		str	r1, [r2, #780]
 695:../../Drivers/STM32H7xx_HAL_Driver/Src/stm32h7xx_hal.c **** #else
 696:../../Drivers/STM32H7xx_HAL_Driver/Src/stm32h7xx_hal.c ****     MODIFY_REG(SYSCFG->UR3, SYSCFG_UR3_BOOT_ADD1, (BootAddress >> 16));
 697:../../Drivers/STM32H7xx_HAL_Driver/Src/stm32h7xx_hal.c **** #endif /*DUAL_CORE*/
 698:../../Drivers/STM32H7xx_HAL_Driver/Src/stm32h7xx_hal.c ****   }
 699:../../Drivers/STM32H7xx_HAL_Driver/Src/stm32h7xx_hal.c **** }
 1190              		.loc 1 699 1 view .LVU223
 1191 0028 7047     		bx	lr
 1192              	.L109:
 1193 002a 00BF     		.align	2
 1194              	.L108:
 1195 002c 00040058 		.word	1476396032
 1196 0030 0000FFFF 		.word	-65536
 1197              		.cfi_endproc
 1198              	.LFE160:
 1200              		.section	.text.HAL_SYSCFG_CM4BootAddConfig,"ax",%progbits
 1201              		.align	1
 1202              		.global	HAL_SYSCFG_CM4BootAddConfig
 1203              		.syntax unified
 1204              		.thumb
 1205              		.thumb_func
 1206              		.fpu fpv4-sp-d16
 1208              	HAL_SYSCFG_CM4BootAddConfig:
 1209              	.LVL40:
 1210              	.LFB161:
 700:../../Drivers/STM32H7xx_HAL_Driver/Src/stm32h7xx_hal.c **** #endif /* SYSCFG_UR2_BOOT_ADD0 || SYSCFG_UR2_BCM7_ADD0 */
ARM GAS  /tmp/ccjOvRAM.s 			page 35


 701:../../Drivers/STM32H7xx_HAL_Driver/Src/stm32h7xx_hal.c **** 
 702:../../Drivers/STM32H7xx_HAL_Driver/Src/stm32h7xx_hal.c **** #if defined(DUAL_CORE)
 703:../../Drivers/STM32H7xx_HAL_Driver/Src/stm32h7xx_hal.c **** /**
 704:../../Drivers/STM32H7xx_HAL_Driver/Src/stm32h7xx_hal.c ****   * @brief  BootCM4 address 0 configuration
 705:../../Drivers/STM32H7xx_HAL_Driver/Src/stm32h7xx_hal.c ****   * @param  BootRegister :Specifies the Boot Address register (Address0 or Address1)
 706:../../Drivers/STM32H7xx_HAL_Driver/Src/stm32h7xx_hal.c ****   *   This parameter can be one of the following values:
 707:../../Drivers/STM32H7xx_HAL_Driver/Src/stm32h7xx_hal.c ****   *   @arg SYSCFG_BOOT_ADDR0 : Select the boot address0
 708:../../Drivers/STM32H7xx_HAL_Driver/Src/stm32h7xx_hal.c ****   *   @arg SYSCFG_BOOT_ADDR1:  Select the boot address1
 709:../../Drivers/STM32H7xx_HAL_Driver/Src/stm32h7xx_hal.c ****   * @param  BootAddress :Specifies the CM4 Boot Address to be loaded in Address0 or Address1
 710:../../Drivers/STM32H7xx_HAL_Driver/Src/stm32h7xx_hal.c ****   * @retval None
 711:../../Drivers/STM32H7xx_HAL_Driver/Src/stm32h7xx_hal.c ****   */
 712:../../Drivers/STM32H7xx_HAL_Driver/Src/stm32h7xx_hal.c **** void HAL_SYSCFG_CM4BootAddConfig(uint32_t BootRegister, uint32_t BootAddress)
 713:../../Drivers/STM32H7xx_HAL_Driver/Src/stm32h7xx_hal.c **** {
 1211              		.loc 1 713 1 is_stmt 1 view -0
 1212              		.cfi_startproc
 1213              		@ args = 0, pretend = 0, frame = 0
 1214              		@ frame_needed = 0, uses_anonymous_args = 0
 1215              		@ link register save eliminated.
 714:../../Drivers/STM32H7xx_HAL_Driver/Src/stm32h7xx_hal.c ****   /* Check the parameters */
 715:../../Drivers/STM32H7xx_HAL_Driver/Src/stm32h7xx_hal.c ****   assert_param(IS_SYSCFG_BOOT_REGISTER(BootRegister));
 1216              		.loc 1 715 3 view .LVU225
 716:../../Drivers/STM32H7xx_HAL_Driver/Src/stm32h7xx_hal.c ****   assert_param(IS_SYSCFG_BOOT_ADDRESS(BootAddress));
 1217              		.loc 1 716 3 view .LVU226
 717:../../Drivers/STM32H7xx_HAL_Driver/Src/stm32h7xx_hal.c **** 
 718:../../Drivers/STM32H7xx_HAL_Driver/Src/stm32h7xx_hal.c ****   if ( BootRegister == SYSCFG_BOOT_ADDR0 )
 1218              		.loc 1 718 3 view .LVU227
 1219              		.loc 1 718 6 is_stmt 0 view .LVU228
 1220 0000 48B9     		cbnz	r0, .L111
 719:../../Drivers/STM32H7xx_HAL_Driver/Src/stm32h7xx_hal.c ****   {
 720:../../Drivers/STM32H7xx_HAL_Driver/Src/stm32h7xx_hal.c ****     /* Configure CM4 BOOT ADD0 */
 721:../../Drivers/STM32H7xx_HAL_Driver/Src/stm32h7xx_hal.c ****     MODIFY_REG(SYSCFG->UR3, SYSCFG_UR3_BCM4_ADD0, ((BootAddress >> 16)<< SYSCFG_UR3_BCM4_ADD0_Pos))
 1221              		.loc 1 721 5 is_stmt 1 view .LVU229
 1222 0002 0A48     		ldr	r0, .L113
 1223              	.LVL41:
 1224              		.loc 1 721 5 is_stmt 0 view .LVU230
 1225 0004 D0F80C33 		ldr	r3, [r0, #780]
 1226 0008 9BB2     		uxth	r3, r3
 1227 000a 094A     		ldr	r2, .L113+4
 1228 000c 0A40     		ands	r2, r2, r1
 1229 000e 1343     		orrs	r3, r3, r2
 1230 0010 C0F80C33 		str	r3, [r0, #780]
 1231 0014 7047     		bx	lr
 1232              	.LVL42:
 1233              	.L111:
 722:../../Drivers/STM32H7xx_HAL_Driver/Src/stm32h7xx_hal.c ****   }
 723:../../Drivers/STM32H7xx_HAL_Driver/Src/stm32h7xx_hal.c **** 
 724:../../Drivers/STM32H7xx_HAL_Driver/Src/stm32h7xx_hal.c ****   else
 725:../../Drivers/STM32H7xx_HAL_Driver/Src/stm32h7xx_hal.c ****   {
 726:../../Drivers/STM32H7xx_HAL_Driver/Src/stm32h7xx_hal.c ****     /* Configure CM4 BOOT ADD1 */
 727:../../Drivers/STM32H7xx_HAL_Driver/Src/stm32h7xx_hal.c ****     MODIFY_REG(SYSCFG->UR4, SYSCFG_UR4_BCM4_ADD1, (BootAddress >> 16));
 1234              		.loc 1 727 5 is_stmt 1 view .LVU231
 1235 0016 054A     		ldr	r2, .L113
 1236 0018 D2F81003 		ldr	r0, [r2, #784]
 1237              	.LVL43:
 1238              		.loc 1 727 5 is_stmt 0 view .LVU232
 1239 001c 044B     		ldr	r3, .L113+4
 1240 001e 0340     		ands	r3, r3, r0
ARM GAS  /tmp/ccjOvRAM.s 			page 36


 1241 0020 43EA1141 		orr	r1, r3, r1, lsr #16
 1242              	.LVL44:
 1243              		.loc 1 727 5 view .LVU233
 1244 0024 C2F81013 		str	r1, [r2, #784]
 728:../../Drivers/STM32H7xx_HAL_Driver/Src/stm32h7xx_hal.c ****   }
 729:../../Drivers/STM32H7xx_HAL_Driver/Src/stm32h7xx_hal.c **** }
 1245              		.loc 1 729 1 view .LVU234
 1246 0028 7047     		bx	lr
 1247              	.L114:
 1248 002a 00BF     		.align	2
 1249              	.L113:
 1250 002c 00040058 		.word	1476396032
 1251 0030 0000FFFF 		.word	-65536
 1252              		.cfi_endproc
 1253              	.LFE161:
 1255              		.section	.text.HAL_SYSCFG_EnableCM7BOOT,"ax",%progbits
 1256              		.align	1
 1257              		.global	HAL_SYSCFG_EnableCM7BOOT
 1258              		.syntax unified
 1259              		.thumb
 1260              		.thumb_func
 1261              		.fpu fpv4-sp-d16
 1263              	HAL_SYSCFG_EnableCM7BOOT:
 1264              	.LFB162:
 730:../../Drivers/STM32H7xx_HAL_Driver/Src/stm32h7xx_hal.c **** 
 731:../../Drivers/STM32H7xx_HAL_Driver/Src/stm32h7xx_hal.c **** /**
 732:../../Drivers/STM32H7xx_HAL_Driver/Src/stm32h7xx_hal.c ****   * @brief  Enables the Cortex-M7 boot
 733:../../Drivers/STM32H7xx_HAL_Driver/Src/stm32h7xx_hal.c ****   * @retval None
 734:../../Drivers/STM32H7xx_HAL_Driver/Src/stm32h7xx_hal.c ****   */
 735:../../Drivers/STM32H7xx_HAL_Driver/Src/stm32h7xx_hal.c **** void HAL_SYSCFG_EnableCM7BOOT(void)
 736:../../Drivers/STM32H7xx_HAL_Driver/Src/stm32h7xx_hal.c **** {
 1265              		.loc 1 736 1 is_stmt 1 view -0
 1266              		.cfi_startproc
 1267              		@ args = 0, pretend = 0, frame = 0
 1268              		@ frame_needed = 0, uses_anonymous_args = 0
 1269              		@ link register save eliminated.
 737:../../Drivers/STM32H7xx_HAL_Driver/Src/stm32h7xx_hal.c ****  SET_BIT(SYSCFG->UR1, SYSCFG_UR1_BCM7);
 1270              		.loc 1 737 2 view .LVU236
 1271 0000 034A     		ldr	r2, .L116
 1272 0002 D2F80433 		ldr	r3, [r2, #772]
 1273 0006 43F48033 		orr	r3, r3, #65536
 1274 000a C2F80433 		str	r3, [r2, #772]
 738:../../Drivers/STM32H7xx_HAL_Driver/Src/stm32h7xx_hal.c **** }
 1275              		.loc 1 738 1 is_stmt 0 view .LVU237
 1276 000e 7047     		bx	lr
 1277              	.L117:
 1278              		.align	2
 1279              	.L116:
 1280 0010 00040058 		.word	1476396032
 1281              		.cfi_endproc
 1282              	.LFE162:
 1284              		.section	.text.HAL_SYSCFG_DisableCM7BOOT,"ax",%progbits
 1285              		.align	1
 1286              		.global	HAL_SYSCFG_DisableCM7BOOT
 1287              		.syntax unified
 1288              		.thumb
 1289              		.thumb_func
ARM GAS  /tmp/ccjOvRAM.s 			page 37


 1290              		.fpu fpv4-sp-d16
 1292              	HAL_SYSCFG_DisableCM7BOOT:
 1293              	.LFB163:
 739:../../Drivers/STM32H7xx_HAL_Driver/Src/stm32h7xx_hal.c **** 
 740:../../Drivers/STM32H7xx_HAL_Driver/Src/stm32h7xx_hal.c **** /**
 741:../../Drivers/STM32H7xx_HAL_Driver/Src/stm32h7xx_hal.c ****   * @brief  Disables the Cortex-M7 boot
 742:../../Drivers/STM32H7xx_HAL_Driver/Src/stm32h7xx_hal.c ****   * @note   Disabling the boot will gate the CPU clock
 743:../../Drivers/STM32H7xx_HAL_Driver/Src/stm32h7xx_hal.c ****   * @retval None
 744:../../Drivers/STM32H7xx_HAL_Driver/Src/stm32h7xx_hal.c ****   */
 745:../../Drivers/STM32H7xx_HAL_Driver/Src/stm32h7xx_hal.c **** void HAL_SYSCFG_DisableCM7BOOT(void)
 746:../../Drivers/STM32H7xx_HAL_Driver/Src/stm32h7xx_hal.c **** {
 1294              		.loc 1 746 1 is_stmt 1 view -0
 1295              		.cfi_startproc
 1296              		@ args = 0, pretend = 0, frame = 0
 1297              		@ frame_needed = 0, uses_anonymous_args = 0
 1298              		@ link register save eliminated.
 747:../../Drivers/STM32H7xx_HAL_Driver/Src/stm32h7xx_hal.c ****  CLEAR_BIT(SYSCFG->UR1, SYSCFG_UR1_BCM7) ;
 1299              		.loc 1 747 2 view .LVU239
 1300 0000 034A     		ldr	r2, .L119
 1301 0002 D2F80433 		ldr	r3, [r2, #772]
 1302 0006 23F48033 		bic	r3, r3, #65536
 1303 000a C2F80433 		str	r3, [r2, #772]
 748:../../Drivers/STM32H7xx_HAL_Driver/Src/stm32h7xx_hal.c **** }
 1304              		.loc 1 748 1 is_stmt 0 view .LVU240
 1305 000e 7047     		bx	lr
 1306              	.L120:
 1307              		.align	2
 1308              	.L119:
 1309 0010 00040058 		.word	1476396032
 1310              		.cfi_endproc
 1311              	.LFE163:
 1313              		.section	.text.HAL_SYSCFG_EnableCM4BOOT,"ax",%progbits
 1314              		.align	1
 1315              		.global	HAL_SYSCFG_EnableCM4BOOT
 1316              		.syntax unified
 1317              		.thumb
 1318              		.thumb_func
 1319              		.fpu fpv4-sp-d16
 1321              	HAL_SYSCFG_EnableCM4BOOT:
 1322              	.LFB164:
 749:../../Drivers/STM32H7xx_HAL_Driver/Src/stm32h7xx_hal.c **** 
 750:../../Drivers/STM32H7xx_HAL_Driver/Src/stm32h7xx_hal.c **** /**
 751:../../Drivers/STM32H7xx_HAL_Driver/Src/stm32h7xx_hal.c ****   * @brief  Enables the Cortex-M4 boot
 752:../../Drivers/STM32H7xx_HAL_Driver/Src/stm32h7xx_hal.c ****   * @retval None
 753:../../Drivers/STM32H7xx_HAL_Driver/Src/stm32h7xx_hal.c ****   */
 754:../../Drivers/STM32H7xx_HAL_Driver/Src/stm32h7xx_hal.c **** void HAL_SYSCFG_EnableCM4BOOT(void)
 755:../../Drivers/STM32H7xx_HAL_Driver/Src/stm32h7xx_hal.c **** {
 1323              		.loc 1 755 1 is_stmt 1 view -0
 1324              		.cfi_startproc
 1325              		@ args = 0, pretend = 0, frame = 0
 1326              		@ frame_needed = 0, uses_anonymous_args = 0
 1327              		@ link register save eliminated.
 756:../../Drivers/STM32H7xx_HAL_Driver/Src/stm32h7xx_hal.c ****  SET_BIT(SYSCFG->UR1, SYSCFG_UR1_BCM4);
 1328              		.loc 1 756 2 view .LVU242
 1329 0000 034A     		ldr	r2, .L122
 1330 0002 D2F80433 		ldr	r3, [r2, #772]
 1331 0006 43F00103 		orr	r3, r3, #1
ARM GAS  /tmp/ccjOvRAM.s 			page 38


 1332 000a C2F80433 		str	r3, [r2, #772]
 757:../../Drivers/STM32H7xx_HAL_Driver/Src/stm32h7xx_hal.c **** }
 1333              		.loc 1 757 1 is_stmt 0 view .LVU243
 1334 000e 7047     		bx	lr
 1335              	.L123:
 1336              		.align	2
 1337              	.L122:
 1338 0010 00040058 		.word	1476396032
 1339              		.cfi_endproc
 1340              	.LFE164:
 1342              		.section	.text.HAL_SYSCFG_DisableCM4BOOT,"ax",%progbits
 1343              		.align	1
 1344              		.global	HAL_SYSCFG_DisableCM4BOOT
 1345              		.syntax unified
 1346              		.thumb
 1347              		.thumb_func
 1348              		.fpu fpv4-sp-d16
 1350              	HAL_SYSCFG_DisableCM4BOOT:
 1351              	.LFB165:
 758:../../Drivers/STM32H7xx_HAL_Driver/Src/stm32h7xx_hal.c **** 
 759:../../Drivers/STM32H7xx_HAL_Driver/Src/stm32h7xx_hal.c **** /**
 760:../../Drivers/STM32H7xx_HAL_Driver/Src/stm32h7xx_hal.c ****   * @brief  Disables the Cortex-M4 boot
 761:../../Drivers/STM32H7xx_HAL_Driver/Src/stm32h7xx_hal.c ****   * @note   Disabling the boot will gate the CPU clock
 762:../../Drivers/STM32H7xx_HAL_Driver/Src/stm32h7xx_hal.c ****   * @retval None
 763:../../Drivers/STM32H7xx_HAL_Driver/Src/stm32h7xx_hal.c ****   */
 764:../../Drivers/STM32H7xx_HAL_Driver/Src/stm32h7xx_hal.c **** void HAL_SYSCFG_DisableCM4BOOT(void)
 765:../../Drivers/STM32H7xx_HAL_Driver/Src/stm32h7xx_hal.c **** {
 1352              		.loc 1 765 1 is_stmt 1 view -0
 1353              		.cfi_startproc
 1354              		@ args = 0, pretend = 0, frame = 0
 1355              		@ frame_needed = 0, uses_anonymous_args = 0
 1356              		@ link register save eliminated.
 766:../../Drivers/STM32H7xx_HAL_Driver/Src/stm32h7xx_hal.c ****   CLEAR_BIT(SYSCFG->UR1, SYSCFG_UR1_BCM4);
 1357              		.loc 1 766 3 view .LVU245
 1358 0000 034A     		ldr	r2, .L125
 1359 0002 D2F80433 		ldr	r3, [r2, #772]
 1360 0006 23F00103 		bic	r3, r3, #1
 1361 000a C2F80433 		str	r3, [r2, #772]
 767:../../Drivers/STM32H7xx_HAL_Driver/Src/stm32h7xx_hal.c **** }
 1362              		.loc 1 767 1 is_stmt 0 view .LVU246
 1363 000e 7047     		bx	lr
 1364              	.L126:
 1365              		.align	2
 1366              	.L125:
 1367 0010 00040058 		.word	1476396032
 1368              		.cfi_endproc
 1369              	.LFE165:
 1371              		.section	.text.HAL_EnableCompensationCell,"ax",%progbits
 1372              		.align	1
 1373              		.global	HAL_EnableCompensationCell
 1374              		.syntax unified
 1375              		.thumb
 1376              		.thumb_func
 1377              		.fpu fpv4-sp-d16
 1379              	HAL_EnableCompensationCell:
 1380              	.LFB166:
 768:../../Drivers/STM32H7xx_HAL_Driver/Src/stm32h7xx_hal.c **** #endif /*DUAL_CORE*/
ARM GAS  /tmp/ccjOvRAM.s 			page 39


 769:../../Drivers/STM32H7xx_HAL_Driver/Src/stm32h7xx_hal.c **** /**
 770:../../Drivers/STM32H7xx_HAL_Driver/Src/stm32h7xx_hal.c ****   * @brief  Enables the I/O Compensation Cell.
 771:../../Drivers/STM32H7xx_HAL_Driver/Src/stm32h7xx_hal.c ****   * @note   The I/O compensation cell can be used only when the device supply
 772:../../Drivers/STM32H7xx_HAL_Driver/Src/stm32h7xx_hal.c ****   *         voltage ranges from 1.62 to 2.0 V and from 2.7 to 3.6 V.
 773:../../Drivers/STM32H7xx_HAL_Driver/Src/stm32h7xx_hal.c ****   * @retval None
 774:../../Drivers/STM32H7xx_HAL_Driver/Src/stm32h7xx_hal.c ****   */
 775:../../Drivers/STM32H7xx_HAL_Driver/Src/stm32h7xx_hal.c **** void HAL_EnableCompensationCell(void)
 776:../../Drivers/STM32H7xx_HAL_Driver/Src/stm32h7xx_hal.c **** {
 1381              		.loc 1 776 1 is_stmt 1 view -0
 1382              		.cfi_startproc
 1383              		@ args = 0, pretend = 0, frame = 0
 1384              		@ frame_needed = 0, uses_anonymous_args = 0
 1385              		@ link register save eliminated.
 777:../../Drivers/STM32H7xx_HAL_Driver/Src/stm32h7xx_hal.c ****   SET_BIT(SYSCFG->CCCSR, SYSCFG_CCCSR_EN) ;
 1386              		.loc 1 777 3 view .LVU248
 1387 0000 024A     		ldr	r2, .L128
 1388 0002 136A     		ldr	r3, [r2, #32]
 1389 0004 43F00103 		orr	r3, r3, #1
 1390 0008 1362     		str	r3, [r2, #32]
 778:../../Drivers/STM32H7xx_HAL_Driver/Src/stm32h7xx_hal.c **** }
 1391              		.loc 1 778 1 is_stmt 0 view .LVU249
 1392 000a 7047     		bx	lr
 1393              	.L129:
 1394              		.align	2
 1395              	.L128:
 1396 000c 00040058 		.word	1476396032
 1397              		.cfi_endproc
 1398              	.LFE166:
 1400              		.section	.text.HAL_DisableCompensationCell,"ax",%progbits
 1401              		.align	1
 1402              		.global	HAL_DisableCompensationCell
 1403              		.syntax unified
 1404              		.thumb
 1405              		.thumb_func
 1406              		.fpu fpv4-sp-d16
 1408              	HAL_DisableCompensationCell:
 1409              	.LFB167:
 779:../../Drivers/STM32H7xx_HAL_Driver/Src/stm32h7xx_hal.c **** 
 780:../../Drivers/STM32H7xx_HAL_Driver/Src/stm32h7xx_hal.c **** /**
 781:../../Drivers/STM32H7xx_HAL_Driver/Src/stm32h7xx_hal.c ****   * @brief  Power-down the I/O Compensation Cell.
 782:../../Drivers/STM32H7xx_HAL_Driver/Src/stm32h7xx_hal.c ****   * @note   The I/O compensation cell can be used only when the device supply
 783:../../Drivers/STM32H7xx_HAL_Driver/Src/stm32h7xx_hal.c ****   *         voltage ranges from 1.62 to 2.0 V and from 2.7 to 3.6 V.
 784:../../Drivers/STM32H7xx_HAL_Driver/Src/stm32h7xx_hal.c ****   * @retval None
 785:../../Drivers/STM32H7xx_HAL_Driver/Src/stm32h7xx_hal.c ****   */
 786:../../Drivers/STM32H7xx_HAL_Driver/Src/stm32h7xx_hal.c **** void HAL_DisableCompensationCell(void)
 787:../../Drivers/STM32H7xx_HAL_Driver/Src/stm32h7xx_hal.c **** {
 1410              		.loc 1 787 1 is_stmt 1 view -0
 1411              		.cfi_startproc
 1412              		@ args = 0, pretend = 0, frame = 0
 1413              		@ frame_needed = 0, uses_anonymous_args = 0
 1414              		@ link register save eliminated.
 788:../../Drivers/STM32H7xx_HAL_Driver/Src/stm32h7xx_hal.c ****   CLEAR_BIT(SYSCFG->CCCSR, SYSCFG_CCCSR_EN);
 1415              		.loc 1 788 3 view .LVU251
 1416 0000 024A     		ldr	r2, .L131
 1417 0002 136A     		ldr	r3, [r2, #32]
 1418 0004 23F00103 		bic	r3, r3, #1
 1419 0008 1362     		str	r3, [r2, #32]
ARM GAS  /tmp/ccjOvRAM.s 			page 40


 789:../../Drivers/STM32H7xx_HAL_Driver/Src/stm32h7xx_hal.c **** }
 1420              		.loc 1 789 1 is_stmt 0 view .LVU252
 1421 000a 7047     		bx	lr
 1422              	.L132:
 1423              		.align	2
 1424              	.L131:
 1425 000c 00040058 		.word	1476396032
 1426              		.cfi_endproc
 1427              	.LFE167:
 1429              		.section	.text.HAL_SYSCFG_EnableIOSpeedOptimize,"ax",%progbits
 1430              		.align	1
 1431              		.global	HAL_SYSCFG_EnableIOSpeedOptimize
 1432              		.syntax unified
 1433              		.thumb
 1434              		.thumb_func
 1435              		.fpu fpv4-sp-d16
 1437              	HAL_SYSCFG_EnableIOSpeedOptimize:
 1438              	.LFB168:
 790:../../Drivers/STM32H7xx_HAL_Driver/Src/stm32h7xx_hal.c **** 
 791:../../Drivers/STM32H7xx_HAL_Driver/Src/stm32h7xx_hal.c **** 
 792:../../Drivers/STM32H7xx_HAL_Driver/Src/stm32h7xx_hal.c **** /**
 793:../../Drivers/STM32H7xx_HAL_Driver/Src/stm32h7xx_hal.c ****   * @brief  To Enable optimize the I/O speed when the product voltage is low.
 794:../../Drivers/STM32H7xx_HAL_Driver/Src/stm32h7xx_hal.c ****   * @note   This bit is active only if PRODUCT_BELOW_25V user option bit is set. It must be
 795:../../Drivers/STM32H7xx_HAL_Driver/Src/stm32h7xx_hal.c ****   *         used only if the product supply voltage is below 2.5 V. Setting this bit when VDD is
 796:../../Drivers/STM32H7xx_HAL_Driver/Src/stm32h7xx_hal.c ****   *         higher than 2.5 V might be destructive.
 797:../../Drivers/STM32H7xx_HAL_Driver/Src/stm32h7xx_hal.c ****   * @retval None
 798:../../Drivers/STM32H7xx_HAL_Driver/Src/stm32h7xx_hal.c ****   */
 799:../../Drivers/STM32H7xx_HAL_Driver/Src/stm32h7xx_hal.c **** void HAL_SYSCFG_EnableIOSpeedOptimize(void)
 800:../../Drivers/STM32H7xx_HAL_Driver/Src/stm32h7xx_hal.c **** {
 1439              		.loc 1 800 1 is_stmt 1 view -0
 1440              		.cfi_startproc
 1441              		@ args = 0, pretend = 0, frame = 0
 1442              		@ frame_needed = 0, uses_anonymous_args = 0
 1443              		@ link register save eliminated.
 801:../../Drivers/STM32H7xx_HAL_Driver/Src/stm32h7xx_hal.c **** #if defined(SYSCFG_CCCSR_HSLV)
 802:../../Drivers/STM32H7xx_HAL_Driver/Src/stm32h7xx_hal.c ****   SET_BIT(SYSCFG->CCCSR, SYSCFG_CCCSR_HSLV);
 1444              		.loc 1 802 3 view .LVU254
 1445 0000 024A     		ldr	r2, .L134
 1446 0002 136A     		ldr	r3, [r2, #32]
 1447 0004 43F48033 		orr	r3, r3, #65536
 1448 0008 1362     		str	r3, [r2, #32]
 803:../../Drivers/STM32H7xx_HAL_Driver/Src/stm32h7xx_hal.c **** #else
 804:../../Drivers/STM32H7xx_HAL_Driver/Src/stm32h7xx_hal.c ****   SET_BIT(SYSCFG->CCCSR, (SYSCFG_CCCSR_HSLV0| SYSCFG_CCCSR_HSLV1 | SYSCFG_CCCSR_HSLV2  | SYSCFG_CCC
 805:../../Drivers/STM32H7xx_HAL_Driver/Src/stm32h7xx_hal.c **** #endif   /* SYSCFG_CCCSR_HSLV */
 806:../../Drivers/STM32H7xx_HAL_Driver/Src/stm32h7xx_hal.c **** }
 1449              		.loc 1 806 1 is_stmt 0 view .LVU255
 1450 000a 7047     		bx	lr
 1451              	.L135:
 1452              		.align	2
 1453              	.L134:
 1454 000c 00040058 		.word	1476396032
 1455              		.cfi_endproc
 1456              	.LFE168:
 1458              		.section	.text.HAL_SYSCFG_DisableIOSpeedOptimize,"ax",%progbits
 1459              		.align	1
 1460              		.global	HAL_SYSCFG_DisableIOSpeedOptimize
 1461              		.syntax unified
ARM GAS  /tmp/ccjOvRAM.s 			page 41


 1462              		.thumb
 1463              		.thumb_func
 1464              		.fpu fpv4-sp-d16
 1466              	HAL_SYSCFG_DisableIOSpeedOptimize:
 1467              	.LFB169:
 807:../../Drivers/STM32H7xx_HAL_Driver/Src/stm32h7xx_hal.c **** 
 808:../../Drivers/STM32H7xx_HAL_Driver/Src/stm32h7xx_hal.c **** /**
 809:../../Drivers/STM32H7xx_HAL_Driver/Src/stm32h7xx_hal.c ****   * @brief  To Disable optimize the I/O speed when the product voltage is low.
 810:../../Drivers/STM32H7xx_HAL_Driver/Src/stm32h7xx_hal.c ****   * @note   This bit is active only if PRODUCT_BELOW_25V user option bit is set. It must be
 811:../../Drivers/STM32H7xx_HAL_Driver/Src/stm32h7xx_hal.c ****   *         used only if the product supply voltage is below 2.5 V. Setting this bit when VDD is
 812:../../Drivers/STM32H7xx_HAL_Driver/Src/stm32h7xx_hal.c ****   *         higher than 2.5 V might be destructive.
 813:../../Drivers/STM32H7xx_HAL_Driver/Src/stm32h7xx_hal.c ****   * @retval None
 814:../../Drivers/STM32H7xx_HAL_Driver/Src/stm32h7xx_hal.c ****   */
 815:../../Drivers/STM32H7xx_HAL_Driver/Src/stm32h7xx_hal.c **** void HAL_SYSCFG_DisableIOSpeedOptimize(void)
 816:../../Drivers/STM32H7xx_HAL_Driver/Src/stm32h7xx_hal.c **** {
 1468              		.loc 1 816 1 is_stmt 1 view -0
 1469              		.cfi_startproc
 1470              		@ args = 0, pretend = 0, frame = 0
 1471              		@ frame_needed = 0, uses_anonymous_args = 0
 1472              		@ link register save eliminated.
 817:../../Drivers/STM32H7xx_HAL_Driver/Src/stm32h7xx_hal.c **** #if defined(SYSCFG_CCCSR_HSLV)
 818:../../Drivers/STM32H7xx_HAL_Driver/Src/stm32h7xx_hal.c ****   CLEAR_BIT(SYSCFG->CCCSR, SYSCFG_CCCSR_HSLV);
 1473              		.loc 1 818 3 view .LVU257
 1474 0000 024A     		ldr	r2, .L137
 1475 0002 136A     		ldr	r3, [r2, #32]
 1476 0004 23F48033 		bic	r3, r3, #65536
 1477 0008 1362     		str	r3, [r2, #32]
 819:../../Drivers/STM32H7xx_HAL_Driver/Src/stm32h7xx_hal.c **** #else
 820:../../Drivers/STM32H7xx_HAL_Driver/Src/stm32h7xx_hal.c ****   CLEAR_BIT(SYSCFG->CCCSR, (SYSCFG_CCCSR_HSLV0| SYSCFG_CCCSR_HSLV1 | SYSCFG_CCCSR_HSLV2  | SYSCFG_C
 821:../../Drivers/STM32H7xx_HAL_Driver/Src/stm32h7xx_hal.c **** #endif   /* SYSCFG_CCCSR_HSLV */
 822:../../Drivers/STM32H7xx_HAL_Driver/Src/stm32h7xx_hal.c **** }
 1478              		.loc 1 822 1 is_stmt 0 view .LVU258
 1479 000a 7047     		bx	lr
 1480              	.L138:
 1481              		.align	2
 1482              	.L137:
 1483 000c 00040058 		.word	1476396032
 1484              		.cfi_endproc
 1485              	.LFE169:
 1487              		.section	.text.HAL_SYSCFG_CompensationCodeSelect,"ax",%progbits
 1488              		.align	1
 1489              		.global	HAL_SYSCFG_CompensationCodeSelect
 1490              		.syntax unified
 1491              		.thumb
 1492              		.thumb_func
 1493              		.fpu fpv4-sp-d16
 1495              	HAL_SYSCFG_CompensationCodeSelect:
 1496              	.LVL45:
 1497              	.LFB170:
 823:../../Drivers/STM32H7xx_HAL_Driver/Src/stm32h7xx_hal.c **** 
 824:../../Drivers/STM32H7xx_HAL_Driver/Src/stm32h7xx_hal.c **** /**
 825:../../Drivers/STM32H7xx_HAL_Driver/Src/stm32h7xx_hal.c ****   * @brief  Code selection for the I/O Compensation cell
 826:../../Drivers/STM32H7xx_HAL_Driver/Src/stm32h7xx_hal.c ****   * @param  SYSCFG_CompCode: Selects the code to be applied for the I/O compensation cell
 827:../../Drivers/STM32H7xx_HAL_Driver/Src/stm32h7xx_hal.c ****   *   This parameter can be one of the following values:
 828:../../Drivers/STM32H7xx_HAL_Driver/Src/stm32h7xx_hal.c ****   *   @arg SYSCFG_CELL_CODE : Select Code from the cell (available in the SYSCFG_CCVR)
 829:../../Drivers/STM32H7xx_HAL_Driver/Src/stm32h7xx_hal.c ****   *   @arg SYSCFG_REGISTER_CODE: Select Code from the SYSCFG compensation cell code register (SYSCF
 830:../../Drivers/STM32H7xx_HAL_Driver/Src/stm32h7xx_hal.c ****   * @retval None
ARM GAS  /tmp/ccjOvRAM.s 			page 42


 831:../../Drivers/STM32H7xx_HAL_Driver/Src/stm32h7xx_hal.c ****   */
 832:../../Drivers/STM32H7xx_HAL_Driver/Src/stm32h7xx_hal.c **** void HAL_SYSCFG_CompensationCodeSelect(uint32_t SYSCFG_CompCode)
 833:../../Drivers/STM32H7xx_HAL_Driver/Src/stm32h7xx_hal.c **** {
 1498              		.loc 1 833 1 is_stmt 1 view -0
 1499              		.cfi_startproc
 1500              		@ args = 0, pretend = 0, frame = 0
 1501              		@ frame_needed = 0, uses_anonymous_args = 0
 1502              		@ link register save eliminated.
 834:../../Drivers/STM32H7xx_HAL_Driver/Src/stm32h7xx_hal.c ****   /* Check the parameter */
 835:../../Drivers/STM32H7xx_HAL_Driver/Src/stm32h7xx_hal.c ****   assert_param(IS_SYSCFG_CODE_SELECT(SYSCFG_CompCode));
 1503              		.loc 1 835 3 view .LVU260
 836:../../Drivers/STM32H7xx_HAL_Driver/Src/stm32h7xx_hal.c ****   MODIFY_REG(SYSCFG->CCCSR, SYSCFG_CCCSR_CS, (uint32_t)(SYSCFG_CompCode));
 1504              		.loc 1 836 3 view .LVU261
 1505 0000 034A     		ldr	r2, .L140
 1506 0002 136A     		ldr	r3, [r2, #32]
 1507 0004 23F00203 		bic	r3, r3, #2
 1508 0008 0343     		orrs	r3, r3, r0
 1509 000a 1362     		str	r3, [r2, #32]
 837:../../Drivers/STM32H7xx_HAL_Driver/Src/stm32h7xx_hal.c **** }
 1510              		.loc 1 837 1 is_stmt 0 view .LVU262
 1511 000c 7047     		bx	lr
 1512              	.L141:
 1513 000e 00BF     		.align	2
 1514              	.L140:
 1515 0010 00040058 		.word	1476396032
 1516              		.cfi_endproc
 1517              	.LFE170:
 1519              		.section	.text.HAL_SYSCFG_CompensationCodeConfig,"ax",%progbits
 1520              		.align	1
 1521              		.global	HAL_SYSCFG_CompensationCodeConfig
 1522              		.syntax unified
 1523              		.thumb
 1524              		.thumb_func
 1525              		.fpu fpv4-sp-d16
 1527              	HAL_SYSCFG_CompensationCodeConfig:
 1528              	.LVL46:
 1529              	.LFB171:
 838:../../Drivers/STM32H7xx_HAL_Driver/Src/stm32h7xx_hal.c **** 
 839:../../Drivers/STM32H7xx_HAL_Driver/Src/stm32h7xx_hal.c **** /**
 840:../../Drivers/STM32H7xx_HAL_Driver/Src/stm32h7xx_hal.c ****   * @brief  Code selection for the I/O Compensation cell
 841:../../Drivers/STM32H7xx_HAL_Driver/Src/stm32h7xx_hal.c ****   * @param  SYSCFG_PMOSCode: PMOS compensation code
 842:../../Drivers/STM32H7xx_HAL_Driver/Src/stm32h7xx_hal.c ****   *         This code is applied to the I/O compensation cell when the CS bit of the
 843:../../Drivers/STM32H7xx_HAL_Driver/Src/stm32h7xx_hal.c ****   *          SYSCFG_CMPCR is set
 844:../../Drivers/STM32H7xx_HAL_Driver/Src/stm32h7xx_hal.c ****   * @param  SYSCFG_NMOSCode: NMOS compensation code
 845:../../Drivers/STM32H7xx_HAL_Driver/Src/stm32h7xx_hal.c ****   *         This code is applied to the I/O compensation cell when the CS bit of the
 846:../../Drivers/STM32H7xx_HAL_Driver/Src/stm32h7xx_hal.c ****   *          SYSCFG_CMPCR is set
 847:../../Drivers/STM32H7xx_HAL_Driver/Src/stm32h7xx_hal.c ****   * @retval None
 848:../../Drivers/STM32H7xx_HAL_Driver/Src/stm32h7xx_hal.c ****   */
 849:../../Drivers/STM32H7xx_HAL_Driver/Src/stm32h7xx_hal.c **** void HAL_SYSCFG_CompensationCodeConfig(uint32_t SYSCFG_PMOSCode, uint32_t SYSCFG_NMOSCode )
 850:../../Drivers/STM32H7xx_HAL_Driver/Src/stm32h7xx_hal.c **** {
 1530              		.loc 1 850 1 is_stmt 1 view -0
 1531              		.cfi_startproc
 1532              		@ args = 0, pretend = 0, frame = 0
 1533              		@ frame_needed = 0, uses_anonymous_args = 0
 1534              		@ link register save eliminated.
 851:../../Drivers/STM32H7xx_HAL_Driver/Src/stm32h7xx_hal.c ****   /* Check the parameter */
 852:../../Drivers/STM32H7xx_HAL_Driver/Src/stm32h7xx_hal.c ****   assert_param(IS_SYSCFG_CODE_CONFIG(SYSCFG_PMOSCode));
ARM GAS  /tmp/ccjOvRAM.s 			page 43


 1535              		.loc 1 852 3 view .LVU264
 853:../../Drivers/STM32H7xx_HAL_Driver/Src/stm32h7xx_hal.c ****   assert_param(IS_SYSCFG_CODE_CONFIG(SYSCFG_NMOSCode));
 1536              		.loc 1 853 3 view .LVU265
 854:../../Drivers/STM32H7xx_HAL_Driver/Src/stm32h7xx_hal.c ****   MODIFY_REG(SYSCFG->CCCR, SYSCFG_CCCR_NCC|SYSCFG_CCCR_PCC, (((uint32_t)(SYSCFG_PMOSCode)<< 4)|(uin
 1537              		.loc 1 854 3 view .LVU266
 1538 0000 044A     		ldr	r2, .L143
 1539 0002 936A     		ldr	r3, [r2, #40]
 1540 0004 23F0FF03 		bic	r3, r3, #255
 1541 0008 41EA0011 		orr	r1, r1, r0, lsl #4
 1542              	.LVL47:
 1543              		.loc 1 854 3 is_stmt 0 view .LVU267
 1544 000c 0B43     		orrs	r3, r3, r1
 1545 000e 9362     		str	r3, [r2, #40]
 855:../../Drivers/STM32H7xx_HAL_Driver/Src/stm32h7xx_hal.c **** }
 1546              		.loc 1 855 1 view .LVU268
 1547 0010 7047     		bx	lr
 1548              	.L144:
 1549 0012 00BF     		.align	2
 1550              	.L143:
 1551 0014 00040058 		.word	1476396032
 1552              		.cfi_endproc
 1553              	.LFE171:
 1555              		.section	.text.HAL_DBGMCU_EnableDBGSleepMode,"ax",%progbits
 1556              		.align	1
 1557              		.global	HAL_DBGMCU_EnableDBGSleepMode
 1558              		.syntax unified
 1559              		.thumb
 1560              		.thumb_func
 1561              		.fpu fpv4-sp-d16
 1563              	HAL_DBGMCU_EnableDBGSleepMode:
 1564              	.LFB172:
 856:../../Drivers/STM32H7xx_HAL_Driver/Src/stm32h7xx_hal.c **** 
 857:../../Drivers/STM32H7xx_HAL_Driver/Src/stm32h7xx_hal.c **** #if defined(SYSCFG_CCCR_NCC_MMC)
 858:../../Drivers/STM32H7xx_HAL_Driver/Src/stm32h7xx_hal.c **** /**
 859:../../Drivers/STM32H7xx_HAL_Driver/Src/stm32h7xx_hal.c ****   * @brief  Code selection for the I/O Compensation cell
 860:../../Drivers/STM32H7xx_HAL_Driver/Src/stm32h7xx_hal.c ****   * @param  SYSCFG_PMOSCode: VDDMMC PMOS compensation code
 861:../../Drivers/STM32H7xx_HAL_Driver/Src/stm32h7xx_hal.c ****   *         This code is applied to the I/O compensation cell when the CS bit of the
 862:../../Drivers/STM32H7xx_HAL_Driver/Src/stm32h7xx_hal.c ****   *          SYSCFG_CMPCR is set
 863:../../Drivers/STM32H7xx_HAL_Driver/Src/stm32h7xx_hal.c ****   * @param  SYSCFG_NMOSCode: VDDMMC NMOS compensation code
 864:../../Drivers/STM32H7xx_HAL_Driver/Src/stm32h7xx_hal.c ****   *         This code is applied to the I/O compensation cell when the CS bit of the
 865:../../Drivers/STM32H7xx_HAL_Driver/Src/stm32h7xx_hal.c ****   *          SYSCFG_CMPCR is set
 866:../../Drivers/STM32H7xx_HAL_Driver/Src/stm32h7xx_hal.c ****   * @retval None
 867:../../Drivers/STM32H7xx_HAL_Driver/Src/stm32h7xx_hal.c ****   */
 868:../../Drivers/STM32H7xx_HAL_Driver/Src/stm32h7xx_hal.c **** void HAL_SYSCFG_VDDMMC_CompensationCodeConfig(uint32_t SYSCFG_PMOSCode, uint32_t SYSCFG_NMOSCode )
 869:../../Drivers/STM32H7xx_HAL_Driver/Src/stm32h7xx_hal.c **** {
 870:../../Drivers/STM32H7xx_HAL_Driver/Src/stm32h7xx_hal.c ****   /* Check the parameter */
 871:../../Drivers/STM32H7xx_HAL_Driver/Src/stm32h7xx_hal.c ****   assert_param(IS_SYSCFG_CODE_CONFIG(SYSCFG_PMOSCode));
 872:../../Drivers/STM32H7xx_HAL_Driver/Src/stm32h7xx_hal.c ****   assert_param(IS_SYSCFG_CODE_CONFIG(SYSCFG_NMOSCode));
 873:../../Drivers/STM32H7xx_HAL_Driver/Src/stm32h7xx_hal.c ****   MODIFY_REG(SYSCFG->CCCR, (SYSCFG_CCCR_NCC_MMC | SYSCFG_CCCR_PCC_MMC), (((uint32_t)(SYSCFG_PMOSCod
 874:../../Drivers/STM32H7xx_HAL_Driver/Src/stm32h7xx_hal.c **** }
 875:../../Drivers/STM32H7xx_HAL_Driver/Src/stm32h7xx_hal.c **** #endif /* SYSCFG_CCCR_NCC_MMC */
 876:../../Drivers/STM32H7xx_HAL_Driver/Src/stm32h7xx_hal.c **** 
 877:../../Drivers/STM32H7xx_HAL_Driver/Src/stm32h7xx_hal.c **** #if defined(SYSCFG_ADC2ALT_ADC2_ROUT0)
 878:../../Drivers/STM32H7xx_HAL_Driver/Src/stm32h7xx_hal.c **** /** @brief  SYSCFG ADC2 internal input alternate connection macros
 879:../../Drivers/STM32H7xx_HAL_Driver/Src/stm32h7xx_hal.c ****   * @param Adc2AltRout0 This parameter can be a value of :
 880:../../Drivers/STM32H7xx_HAL_Driver/Src/stm32h7xx_hal.c ****   *     @arg @ref SYSCFG_ADC2_ROUT0_DAC1_1   DAC1_out1 connected to ADC2 VINP[16]
 881:../../Drivers/STM32H7xx_HAL_Driver/Src/stm32h7xx_hal.c ****   *     @arg @ref SYSCFG_ADC2_ROUT0_VBAT4    VBAT/4 connected to ADC2 VINP[16]
ARM GAS  /tmp/ccjOvRAM.s 			page 44


 882:../../Drivers/STM32H7xx_HAL_Driver/Src/stm32h7xx_hal.c ****   */
 883:../../Drivers/STM32H7xx_HAL_Driver/Src/stm32h7xx_hal.c **** void HAL_SYSCFG_ADC2ALT_Rout0Config(uint32_t Adc2AltRout0)
 884:../../Drivers/STM32H7xx_HAL_Driver/Src/stm32h7xx_hal.c **** {
 885:../../Drivers/STM32H7xx_HAL_Driver/Src/stm32h7xx_hal.c ****   /* Check the parameters */
 886:../../Drivers/STM32H7xx_HAL_Driver/Src/stm32h7xx_hal.c ****   assert_param(IS_SYSCFG_ADC2ALT_ROUT0(Adc2AltRout0));
 887:../../Drivers/STM32H7xx_HAL_Driver/Src/stm32h7xx_hal.c **** 
 888:../../Drivers/STM32H7xx_HAL_Driver/Src/stm32h7xx_hal.c ****   MODIFY_REG(SYSCFG->ADC2ALT, SYSCFG_ADC2ALT_ADC2_ROUT0, Adc2AltRout0);
 889:../../Drivers/STM32H7xx_HAL_Driver/Src/stm32h7xx_hal.c **** }
 890:../../Drivers/STM32H7xx_HAL_Driver/Src/stm32h7xx_hal.c **** #endif /*SYSCFG_ADC2ALT_ADC2_ROUT0*/
 891:../../Drivers/STM32H7xx_HAL_Driver/Src/stm32h7xx_hal.c **** 
 892:../../Drivers/STM32H7xx_HAL_Driver/Src/stm32h7xx_hal.c **** #if defined(SYSCFG_ADC2ALT_ADC2_ROUT1)
 893:../../Drivers/STM32H7xx_HAL_Driver/Src/stm32h7xx_hal.c **** /** @brief  SYSCFG ADC2 internal input alternate connection macros
 894:../../Drivers/STM32H7xx_HAL_Driver/Src/stm32h7xx_hal.c ****   * @param Adc2AltRout1  This parameter can be a value of :
 895:../../Drivers/STM32H7xx_HAL_Driver/Src/stm32h7xx_hal.c ****   *     @arg @ref SYSCFG_ADC2_ROUT1_DAC1_2   DAC1_out2 connected to ADC2 VINP[17]
 896:../../Drivers/STM32H7xx_HAL_Driver/Src/stm32h7xx_hal.c ****   *     @arg @ref SYSCFG_ADC2_ROUT1_VREFINT  VREFINT connected to ADC2 VINP[17]
 897:../../Drivers/STM32H7xx_HAL_Driver/Src/stm32h7xx_hal.c ****   */
 898:../../Drivers/STM32H7xx_HAL_Driver/Src/stm32h7xx_hal.c **** void HAL_SYSCFG_ADC2ALT_Rout1Config(uint32_t Adc2AltRout1)
 899:../../Drivers/STM32H7xx_HAL_Driver/Src/stm32h7xx_hal.c **** {
 900:../../Drivers/STM32H7xx_HAL_Driver/Src/stm32h7xx_hal.c ****   /* Check the parameters */
 901:../../Drivers/STM32H7xx_HAL_Driver/Src/stm32h7xx_hal.c ****   assert_param(IS_SYSCFG_ADC2ALT_ROUT1(Adc2AltRout1));
 902:../../Drivers/STM32H7xx_HAL_Driver/Src/stm32h7xx_hal.c **** 
 903:../../Drivers/STM32H7xx_HAL_Driver/Src/stm32h7xx_hal.c ****   MODIFY_REG(SYSCFG->ADC2ALT, SYSCFG_ADC2ALT_ADC2_ROUT1, Adc2AltRout1);
 904:../../Drivers/STM32H7xx_HAL_Driver/Src/stm32h7xx_hal.c **** }
 905:../../Drivers/STM32H7xx_HAL_Driver/Src/stm32h7xx_hal.c **** #endif /*SYSCFG_ADC2ALT_ADC2_ROUT1*/
 906:../../Drivers/STM32H7xx_HAL_Driver/Src/stm32h7xx_hal.c **** 
 907:../../Drivers/STM32H7xx_HAL_Driver/Src/stm32h7xx_hal.c **** /**
 908:../../Drivers/STM32H7xx_HAL_Driver/Src/stm32h7xx_hal.c ****   * @brief  Enable the Debug Module during Domain1/CDomain SLEEP mode
 909:../../Drivers/STM32H7xx_HAL_Driver/Src/stm32h7xx_hal.c ****   * @retval None
 910:../../Drivers/STM32H7xx_HAL_Driver/Src/stm32h7xx_hal.c ****   */
 911:../../Drivers/STM32H7xx_HAL_Driver/Src/stm32h7xx_hal.c **** void HAL_DBGMCU_EnableDBGSleepMode(void)
 912:../../Drivers/STM32H7xx_HAL_Driver/Src/stm32h7xx_hal.c **** {
 1565              		.loc 1 912 1 is_stmt 1 view -0
 1566              		.cfi_startproc
 1567              		@ args = 0, pretend = 0, frame = 0
 1568              		@ frame_needed = 0, uses_anonymous_args = 0
 1569              		@ link register save eliminated.
 913:../../Drivers/STM32H7xx_HAL_Driver/Src/stm32h7xx_hal.c ****   SET_BIT(DBGMCU->CR, DBGMCU_CR_DBG_SLEEPD1);
 1570              		.loc 1 913 3 view .LVU270
 1571 0000 024A     		ldr	r2, .L146
 1572 0002 5368     		ldr	r3, [r2, #4]
 1573 0004 43F00103 		orr	r3, r3, #1
 1574 0008 5360     		str	r3, [r2, #4]
 914:../../Drivers/STM32H7xx_HAL_Driver/Src/stm32h7xx_hal.c **** }
 1575              		.loc 1 914 1 is_stmt 0 view .LVU271
 1576 000a 7047     		bx	lr
 1577              	.L147:
 1578              		.align	2
 1579              	.L146:
 1580 000c 0010005C 		.word	1543507968
 1581              		.cfi_endproc
 1582              	.LFE172:
 1584              		.section	.text.HAL_DBGMCU_DisableDBGSleepMode,"ax",%progbits
 1585              		.align	1
 1586              		.global	HAL_DBGMCU_DisableDBGSleepMode
 1587              		.syntax unified
 1588              		.thumb
 1589              		.thumb_func
ARM GAS  /tmp/ccjOvRAM.s 			page 45


 1590              		.fpu fpv4-sp-d16
 1592              	HAL_DBGMCU_DisableDBGSleepMode:
 1593              	.LFB173:
 915:../../Drivers/STM32H7xx_HAL_Driver/Src/stm32h7xx_hal.c **** 
 916:../../Drivers/STM32H7xx_HAL_Driver/Src/stm32h7xx_hal.c **** /**
 917:../../Drivers/STM32H7xx_HAL_Driver/Src/stm32h7xx_hal.c ****   * @brief  Disable the Debug Module during Domain1/CDomain SLEEP mode
 918:../../Drivers/STM32H7xx_HAL_Driver/Src/stm32h7xx_hal.c ****   * @retval None
 919:../../Drivers/STM32H7xx_HAL_Driver/Src/stm32h7xx_hal.c ****   */
 920:../../Drivers/STM32H7xx_HAL_Driver/Src/stm32h7xx_hal.c **** void HAL_DBGMCU_DisableDBGSleepMode(void)
 921:../../Drivers/STM32H7xx_HAL_Driver/Src/stm32h7xx_hal.c **** {
 1594              		.loc 1 921 1 is_stmt 1 view -0
 1595              		.cfi_startproc
 1596              		@ args = 0, pretend = 0, frame = 0
 1597              		@ frame_needed = 0, uses_anonymous_args = 0
 1598              		@ link register save eliminated.
 922:../../Drivers/STM32H7xx_HAL_Driver/Src/stm32h7xx_hal.c ****   CLEAR_BIT(DBGMCU->CR, DBGMCU_CR_DBG_SLEEPD1);
 1599              		.loc 1 922 3 view .LVU273
 1600 0000 024A     		ldr	r2, .L149
 1601 0002 5368     		ldr	r3, [r2, #4]
 1602 0004 23F00103 		bic	r3, r3, #1
 1603 0008 5360     		str	r3, [r2, #4]
 923:../../Drivers/STM32H7xx_HAL_Driver/Src/stm32h7xx_hal.c **** }
 1604              		.loc 1 923 1 is_stmt 0 view .LVU274
 1605 000a 7047     		bx	lr
 1606              	.L150:
 1607              		.align	2
 1608              	.L149:
 1609 000c 0010005C 		.word	1543507968
 1610              		.cfi_endproc
 1611              	.LFE173:
 1613              		.section	.text.HAL_DBGMCU_EnableDBGStopMode,"ax",%progbits
 1614              		.align	1
 1615              		.global	HAL_DBGMCU_EnableDBGStopMode
 1616              		.syntax unified
 1617              		.thumb
 1618              		.thumb_func
 1619              		.fpu fpv4-sp-d16
 1621              	HAL_DBGMCU_EnableDBGStopMode:
 1622              	.LFB174:
 924:../../Drivers/STM32H7xx_HAL_Driver/Src/stm32h7xx_hal.c **** 
 925:../../Drivers/STM32H7xx_HAL_Driver/Src/stm32h7xx_hal.c **** 
 926:../../Drivers/STM32H7xx_HAL_Driver/Src/stm32h7xx_hal.c **** /**
 927:../../Drivers/STM32H7xx_HAL_Driver/Src/stm32h7xx_hal.c ****   * @brief  Enable the Debug Module during Domain1/CDomain STOP mode
 928:../../Drivers/STM32H7xx_HAL_Driver/Src/stm32h7xx_hal.c ****   * @retval None
 929:../../Drivers/STM32H7xx_HAL_Driver/Src/stm32h7xx_hal.c ****   */
 930:../../Drivers/STM32H7xx_HAL_Driver/Src/stm32h7xx_hal.c **** void HAL_DBGMCU_EnableDBGStopMode(void)
 931:../../Drivers/STM32H7xx_HAL_Driver/Src/stm32h7xx_hal.c **** {
 1623              		.loc 1 931 1 is_stmt 1 view -0
 1624              		.cfi_startproc
 1625              		@ args = 0, pretend = 0, frame = 0
 1626              		@ frame_needed = 0, uses_anonymous_args = 0
 1627              		@ link register save eliminated.
 932:../../Drivers/STM32H7xx_HAL_Driver/Src/stm32h7xx_hal.c ****   SET_BIT(DBGMCU->CR, DBGMCU_CR_DBG_STOPD1);
 1628              		.loc 1 932 3 view .LVU276
 1629 0000 024A     		ldr	r2, .L152
 1630 0002 5368     		ldr	r3, [r2, #4]
 1631 0004 43F00203 		orr	r3, r3, #2
ARM GAS  /tmp/ccjOvRAM.s 			page 46


 1632 0008 5360     		str	r3, [r2, #4]
 933:../../Drivers/STM32H7xx_HAL_Driver/Src/stm32h7xx_hal.c **** }
 1633              		.loc 1 933 1 is_stmt 0 view .LVU277
 1634 000a 7047     		bx	lr
 1635              	.L153:
 1636              		.align	2
 1637              	.L152:
 1638 000c 0010005C 		.word	1543507968
 1639              		.cfi_endproc
 1640              	.LFE174:
 1642              		.section	.text.HAL_DBGMCU_DisableDBGStopMode,"ax",%progbits
 1643              		.align	1
 1644              		.global	HAL_DBGMCU_DisableDBGStopMode
 1645              		.syntax unified
 1646              		.thumb
 1647              		.thumb_func
 1648              		.fpu fpv4-sp-d16
 1650              	HAL_DBGMCU_DisableDBGStopMode:
 1651              	.LFB175:
 934:../../Drivers/STM32H7xx_HAL_Driver/Src/stm32h7xx_hal.c **** 
 935:../../Drivers/STM32H7xx_HAL_Driver/Src/stm32h7xx_hal.c **** /**
 936:../../Drivers/STM32H7xx_HAL_Driver/Src/stm32h7xx_hal.c ****   * @brief  Disable the Debug Module during Domain1/CDomain STOP mode
 937:../../Drivers/STM32H7xx_HAL_Driver/Src/stm32h7xx_hal.c ****   * @retval None
 938:../../Drivers/STM32H7xx_HAL_Driver/Src/stm32h7xx_hal.c ****   */
 939:../../Drivers/STM32H7xx_HAL_Driver/Src/stm32h7xx_hal.c **** void HAL_DBGMCU_DisableDBGStopMode(void)
 940:../../Drivers/STM32H7xx_HAL_Driver/Src/stm32h7xx_hal.c **** {
 1652              		.loc 1 940 1 is_stmt 1 view -0
 1653              		.cfi_startproc
 1654              		@ args = 0, pretend = 0, frame = 0
 1655              		@ frame_needed = 0, uses_anonymous_args = 0
 1656              		@ link register save eliminated.
 941:../../Drivers/STM32H7xx_HAL_Driver/Src/stm32h7xx_hal.c ****   CLEAR_BIT(DBGMCU->CR, DBGMCU_CR_DBG_STOPD1);
 1657              		.loc 1 941 3 view .LVU279
 1658 0000 024A     		ldr	r2, .L155
 1659 0002 5368     		ldr	r3, [r2, #4]
 1660 0004 23F00203 		bic	r3, r3, #2
 1661 0008 5360     		str	r3, [r2, #4]
 942:../../Drivers/STM32H7xx_HAL_Driver/Src/stm32h7xx_hal.c **** }
 1662              		.loc 1 942 1 is_stmt 0 view .LVU280
 1663 000a 7047     		bx	lr
 1664              	.L156:
 1665              		.align	2
 1666              	.L155:
 1667 000c 0010005C 		.word	1543507968
 1668              		.cfi_endproc
 1669              	.LFE175:
 1671              		.section	.text.HAL_DBGMCU_EnableDBGStandbyMode,"ax",%progbits
 1672              		.align	1
 1673              		.global	HAL_DBGMCU_EnableDBGStandbyMode
 1674              		.syntax unified
 1675              		.thumb
 1676              		.thumb_func
 1677              		.fpu fpv4-sp-d16
 1679              	HAL_DBGMCU_EnableDBGStandbyMode:
 1680              	.LFB176:
 943:../../Drivers/STM32H7xx_HAL_Driver/Src/stm32h7xx_hal.c **** 
 944:../../Drivers/STM32H7xx_HAL_Driver/Src/stm32h7xx_hal.c **** /**
ARM GAS  /tmp/ccjOvRAM.s 			page 47


 945:../../Drivers/STM32H7xx_HAL_Driver/Src/stm32h7xx_hal.c ****   * @brief  Enable the Debug Module during Domain1/CDomain STANDBY mode
 946:../../Drivers/STM32H7xx_HAL_Driver/Src/stm32h7xx_hal.c ****   * @retval None
 947:../../Drivers/STM32H7xx_HAL_Driver/Src/stm32h7xx_hal.c ****   */
 948:../../Drivers/STM32H7xx_HAL_Driver/Src/stm32h7xx_hal.c **** void HAL_DBGMCU_EnableDBGStandbyMode(void)
 949:../../Drivers/STM32H7xx_HAL_Driver/Src/stm32h7xx_hal.c **** {
 1681              		.loc 1 949 1 is_stmt 1 view -0
 1682              		.cfi_startproc
 1683              		@ args = 0, pretend = 0, frame = 0
 1684              		@ frame_needed = 0, uses_anonymous_args = 0
 1685              		@ link register save eliminated.
 950:../../Drivers/STM32H7xx_HAL_Driver/Src/stm32h7xx_hal.c ****   SET_BIT(DBGMCU->CR, DBGMCU_CR_DBG_STANDBYD1);
 1686              		.loc 1 950 3 view .LVU282
 1687 0000 024A     		ldr	r2, .L158
 1688 0002 5368     		ldr	r3, [r2, #4]
 1689 0004 43F00403 		orr	r3, r3, #4
 1690 0008 5360     		str	r3, [r2, #4]
 951:../../Drivers/STM32H7xx_HAL_Driver/Src/stm32h7xx_hal.c **** }
 1691              		.loc 1 951 1 is_stmt 0 view .LVU283
 1692 000a 7047     		bx	lr
 1693              	.L159:
 1694              		.align	2
 1695              	.L158:
 1696 000c 0010005C 		.word	1543507968
 1697              		.cfi_endproc
 1698              	.LFE176:
 1700              		.section	.text.HAL_DBGMCU_DisableDBGStandbyMode,"ax",%progbits
 1701              		.align	1
 1702              		.global	HAL_DBGMCU_DisableDBGStandbyMode
 1703              		.syntax unified
 1704              		.thumb
 1705              		.thumb_func
 1706              		.fpu fpv4-sp-d16
 1708              	HAL_DBGMCU_DisableDBGStandbyMode:
 1709              	.LFB177:
 952:../../Drivers/STM32H7xx_HAL_Driver/Src/stm32h7xx_hal.c **** 
 953:../../Drivers/STM32H7xx_HAL_Driver/Src/stm32h7xx_hal.c **** /**
 954:../../Drivers/STM32H7xx_HAL_Driver/Src/stm32h7xx_hal.c ****   * @brief  Disable the Debug Module during Domain1/CDomain STANDBY mode
 955:../../Drivers/STM32H7xx_HAL_Driver/Src/stm32h7xx_hal.c ****   * @retval None
 956:../../Drivers/STM32H7xx_HAL_Driver/Src/stm32h7xx_hal.c ****   */
 957:../../Drivers/STM32H7xx_HAL_Driver/Src/stm32h7xx_hal.c **** void HAL_DBGMCU_DisableDBGStandbyMode(void)
 958:../../Drivers/STM32H7xx_HAL_Driver/Src/stm32h7xx_hal.c **** {
 1710              		.loc 1 958 1 is_stmt 1 view -0
 1711              		.cfi_startproc
 1712              		@ args = 0, pretend = 0, frame = 0
 1713              		@ frame_needed = 0, uses_anonymous_args = 0
 1714              		@ link register save eliminated.
 959:../../Drivers/STM32H7xx_HAL_Driver/Src/stm32h7xx_hal.c ****   CLEAR_BIT(DBGMCU->CR, DBGMCU_CR_DBG_STANDBYD1);
 1715              		.loc 1 959 3 view .LVU285
 1716 0000 024A     		ldr	r2, .L161
 1717 0002 5368     		ldr	r3, [r2, #4]
 1718 0004 23F00403 		bic	r3, r3, #4
 1719 0008 5360     		str	r3, [r2, #4]
 960:../../Drivers/STM32H7xx_HAL_Driver/Src/stm32h7xx_hal.c **** }
 1720              		.loc 1 960 1 is_stmt 0 view .LVU286
 1721 000a 7047     		bx	lr
 1722              	.L162:
 1723              		.align	2
ARM GAS  /tmp/ccjOvRAM.s 			page 48


 1724              	.L161:
 1725 000c 0010005C 		.word	1543507968
 1726              		.cfi_endproc
 1727              	.LFE177:
 1729              		.section	.text.HAL_EnableDomain2DBGSleepMode,"ax",%progbits
 1730              		.align	1
 1731              		.global	HAL_EnableDomain2DBGSleepMode
 1732              		.syntax unified
 1733              		.thumb
 1734              		.thumb_func
 1735              		.fpu fpv4-sp-d16
 1737              	HAL_EnableDomain2DBGSleepMode:
 1738              	.LFB178:
 961:../../Drivers/STM32H7xx_HAL_Driver/Src/stm32h7xx_hal.c **** 
 962:../../Drivers/STM32H7xx_HAL_Driver/Src/stm32h7xx_hal.c **** #if defined(DUAL_CORE)
 963:../../Drivers/STM32H7xx_HAL_Driver/Src/stm32h7xx_hal.c **** /**
 964:../../Drivers/STM32H7xx_HAL_Driver/Src/stm32h7xx_hal.c ****   * @brief  Enable the Debug Module during Domain1 SLEEP mode
 965:../../Drivers/STM32H7xx_HAL_Driver/Src/stm32h7xx_hal.c ****   * @retval None
 966:../../Drivers/STM32H7xx_HAL_Driver/Src/stm32h7xx_hal.c ****   */
 967:../../Drivers/STM32H7xx_HAL_Driver/Src/stm32h7xx_hal.c **** void HAL_EnableDomain2DBGSleepMode(void)
 968:../../Drivers/STM32H7xx_HAL_Driver/Src/stm32h7xx_hal.c **** {
 1739              		.loc 1 968 1 is_stmt 1 view -0
 1740              		.cfi_startproc
 1741              		@ args = 0, pretend = 0, frame = 0
 1742              		@ frame_needed = 0, uses_anonymous_args = 0
 1743              		@ link register save eliminated.
 969:../../Drivers/STM32H7xx_HAL_Driver/Src/stm32h7xx_hal.c ****   SET_BIT(DBGMCU->CR, DBGMCU_CR_DBG_SLEEPD2);
 1744              		.loc 1 969 3 view .LVU288
 1745 0000 024A     		ldr	r2, .L164
 1746 0002 5368     		ldr	r3, [r2, #4]
 1747 0004 43F00803 		orr	r3, r3, #8
 1748 0008 5360     		str	r3, [r2, #4]
 970:../../Drivers/STM32H7xx_HAL_Driver/Src/stm32h7xx_hal.c **** }
 1749              		.loc 1 970 1 is_stmt 0 view .LVU289
 1750 000a 7047     		bx	lr
 1751              	.L165:
 1752              		.align	2
 1753              	.L164:
 1754 000c 0010005C 		.word	1543507968
 1755              		.cfi_endproc
 1756              	.LFE178:
 1758              		.section	.text.HAL_DisableDomain2DBGSleepMode,"ax",%progbits
 1759              		.align	1
 1760              		.global	HAL_DisableDomain2DBGSleepMode
 1761              		.syntax unified
 1762              		.thumb
 1763              		.thumb_func
 1764              		.fpu fpv4-sp-d16
 1766              	HAL_DisableDomain2DBGSleepMode:
 1767              	.LFB179:
 971:../../Drivers/STM32H7xx_HAL_Driver/Src/stm32h7xx_hal.c **** 
 972:../../Drivers/STM32H7xx_HAL_Driver/Src/stm32h7xx_hal.c **** /**
 973:../../Drivers/STM32H7xx_HAL_Driver/Src/stm32h7xx_hal.c ****   * @brief  Disable the Debug Module during Domain2 SLEEP mode
 974:../../Drivers/STM32H7xx_HAL_Driver/Src/stm32h7xx_hal.c ****   * @retval None
 975:../../Drivers/STM32H7xx_HAL_Driver/Src/stm32h7xx_hal.c ****   */
 976:../../Drivers/STM32H7xx_HAL_Driver/Src/stm32h7xx_hal.c **** void HAL_DisableDomain2DBGSleepMode(void)
 977:../../Drivers/STM32H7xx_HAL_Driver/Src/stm32h7xx_hal.c **** {
ARM GAS  /tmp/ccjOvRAM.s 			page 49


 1768              		.loc 1 977 1 is_stmt 1 view -0
 1769              		.cfi_startproc
 1770              		@ args = 0, pretend = 0, frame = 0
 1771              		@ frame_needed = 0, uses_anonymous_args = 0
 1772              		@ link register save eliminated.
 978:../../Drivers/STM32H7xx_HAL_Driver/Src/stm32h7xx_hal.c ****   CLEAR_BIT(DBGMCU->CR, DBGMCU_CR_DBG_SLEEPD2);
 1773              		.loc 1 978 3 view .LVU291
 1774 0000 024A     		ldr	r2, .L167
 1775 0002 5368     		ldr	r3, [r2, #4]
 1776 0004 23F00803 		bic	r3, r3, #8
 1777 0008 5360     		str	r3, [r2, #4]
 979:../../Drivers/STM32H7xx_HAL_Driver/Src/stm32h7xx_hal.c **** }
 1778              		.loc 1 979 1 is_stmt 0 view .LVU292
 1779 000a 7047     		bx	lr
 1780              	.L168:
 1781              		.align	2
 1782              	.L167:
 1783 000c 0010005C 		.word	1543507968
 1784              		.cfi_endproc
 1785              	.LFE179:
 1787              		.section	.text.HAL_EnableDomain2DBGStopMode,"ax",%progbits
 1788              		.align	1
 1789              		.global	HAL_EnableDomain2DBGStopMode
 1790              		.syntax unified
 1791              		.thumb
 1792              		.thumb_func
 1793              		.fpu fpv4-sp-d16
 1795              	HAL_EnableDomain2DBGStopMode:
 1796              	.LFB180:
 980:../../Drivers/STM32H7xx_HAL_Driver/Src/stm32h7xx_hal.c **** 
 981:../../Drivers/STM32H7xx_HAL_Driver/Src/stm32h7xx_hal.c **** /**
 982:../../Drivers/STM32H7xx_HAL_Driver/Src/stm32h7xx_hal.c ****   * @brief  Enable the Debug Module during Domain2 STOP mode
 983:../../Drivers/STM32H7xx_HAL_Driver/Src/stm32h7xx_hal.c ****   * @retval None
 984:../../Drivers/STM32H7xx_HAL_Driver/Src/stm32h7xx_hal.c ****   */
 985:../../Drivers/STM32H7xx_HAL_Driver/Src/stm32h7xx_hal.c **** void HAL_EnableDomain2DBGStopMode(void)
 986:../../Drivers/STM32H7xx_HAL_Driver/Src/stm32h7xx_hal.c **** {
 1797              		.loc 1 986 1 is_stmt 1 view -0
 1798              		.cfi_startproc
 1799              		@ args = 0, pretend = 0, frame = 0
 1800              		@ frame_needed = 0, uses_anonymous_args = 0
 1801              		@ link register save eliminated.
 987:../../Drivers/STM32H7xx_HAL_Driver/Src/stm32h7xx_hal.c ****   SET_BIT(DBGMCU->CR, DBGMCU_CR_DBG_STOPD2);
 1802              		.loc 1 987 3 view .LVU294
 1803 0000 024A     		ldr	r2, .L170
 1804 0002 5368     		ldr	r3, [r2, #4]
 1805 0004 43F01003 		orr	r3, r3, #16
 1806 0008 5360     		str	r3, [r2, #4]
 988:../../Drivers/STM32H7xx_HAL_Driver/Src/stm32h7xx_hal.c **** }
 1807              		.loc 1 988 1 is_stmt 0 view .LVU295
 1808 000a 7047     		bx	lr
 1809              	.L171:
 1810              		.align	2
 1811              	.L170:
 1812 000c 0010005C 		.word	1543507968
 1813              		.cfi_endproc
 1814              	.LFE180:
 1816              		.section	.text.HAL_DisableDomain2DBGStopMode,"ax",%progbits
ARM GAS  /tmp/ccjOvRAM.s 			page 50


 1817              		.align	1
 1818              		.global	HAL_DisableDomain2DBGStopMode
 1819              		.syntax unified
 1820              		.thumb
 1821              		.thumb_func
 1822              		.fpu fpv4-sp-d16
 1824              	HAL_DisableDomain2DBGStopMode:
 1825              	.LFB181:
 989:../../Drivers/STM32H7xx_HAL_Driver/Src/stm32h7xx_hal.c **** 
 990:../../Drivers/STM32H7xx_HAL_Driver/Src/stm32h7xx_hal.c **** /**
 991:../../Drivers/STM32H7xx_HAL_Driver/Src/stm32h7xx_hal.c ****   * @brief  Disable the Debug Module during Domain2 STOP mode
 992:../../Drivers/STM32H7xx_HAL_Driver/Src/stm32h7xx_hal.c ****   * @retval None
 993:../../Drivers/STM32H7xx_HAL_Driver/Src/stm32h7xx_hal.c ****   */
 994:../../Drivers/STM32H7xx_HAL_Driver/Src/stm32h7xx_hal.c **** void HAL_DisableDomain2DBGStopMode(void)
 995:../../Drivers/STM32H7xx_HAL_Driver/Src/stm32h7xx_hal.c **** {
 1826              		.loc 1 995 1 is_stmt 1 view -0
 1827              		.cfi_startproc
 1828              		@ args = 0, pretend = 0, frame = 0
 1829              		@ frame_needed = 0, uses_anonymous_args = 0
 1830              		@ link register save eliminated.
 996:../../Drivers/STM32H7xx_HAL_Driver/Src/stm32h7xx_hal.c ****   CLEAR_BIT(DBGMCU->CR, DBGMCU_CR_DBG_STOPD2);
 1831              		.loc 1 996 3 view .LVU297
 1832 0000 024A     		ldr	r2, .L173
 1833 0002 5368     		ldr	r3, [r2, #4]
 1834 0004 23F01003 		bic	r3, r3, #16
 1835 0008 5360     		str	r3, [r2, #4]
 997:../../Drivers/STM32H7xx_HAL_Driver/Src/stm32h7xx_hal.c **** }
 1836              		.loc 1 997 1 is_stmt 0 view .LVU298
 1837 000a 7047     		bx	lr
 1838              	.L174:
 1839              		.align	2
 1840              	.L173:
 1841 000c 0010005C 		.word	1543507968
 1842              		.cfi_endproc
 1843              	.LFE181:
 1845              		.section	.text.HAL_EnableDomain2DBGStandbyMode,"ax",%progbits
 1846              		.align	1
 1847              		.global	HAL_EnableDomain2DBGStandbyMode
 1848              		.syntax unified
 1849              		.thumb
 1850              		.thumb_func
 1851              		.fpu fpv4-sp-d16
 1853              	HAL_EnableDomain2DBGStandbyMode:
 1854              	.LFB182:
 998:../../Drivers/STM32H7xx_HAL_Driver/Src/stm32h7xx_hal.c **** 
 999:../../Drivers/STM32H7xx_HAL_Driver/Src/stm32h7xx_hal.c **** /**
1000:../../Drivers/STM32H7xx_HAL_Driver/Src/stm32h7xx_hal.c ****   * @brief  Enable the Debug Module during Domain2 STANDBY mode
1001:../../Drivers/STM32H7xx_HAL_Driver/Src/stm32h7xx_hal.c ****   * @retval None
1002:../../Drivers/STM32H7xx_HAL_Driver/Src/stm32h7xx_hal.c ****   */
1003:../../Drivers/STM32H7xx_HAL_Driver/Src/stm32h7xx_hal.c **** void HAL_EnableDomain2DBGStandbyMode(void)
1004:../../Drivers/STM32H7xx_HAL_Driver/Src/stm32h7xx_hal.c **** {
 1855              		.loc 1 1004 1 is_stmt 1 view -0
 1856              		.cfi_startproc
 1857              		@ args = 0, pretend = 0, frame = 0
 1858              		@ frame_needed = 0, uses_anonymous_args = 0
 1859              		@ link register save eliminated.
1005:../../Drivers/STM32H7xx_HAL_Driver/Src/stm32h7xx_hal.c ****   SET_BIT(DBGMCU->CR, DBGMCU_CR_DBG_STANDBYD2);
ARM GAS  /tmp/ccjOvRAM.s 			page 51


 1860              		.loc 1 1005 3 view .LVU300
 1861 0000 024A     		ldr	r2, .L176
 1862 0002 5368     		ldr	r3, [r2, #4]
 1863 0004 43F02003 		orr	r3, r3, #32
 1864 0008 5360     		str	r3, [r2, #4]
1006:../../Drivers/STM32H7xx_HAL_Driver/Src/stm32h7xx_hal.c **** }
 1865              		.loc 1 1006 1 is_stmt 0 view .LVU301
 1866 000a 7047     		bx	lr
 1867              	.L177:
 1868              		.align	2
 1869              	.L176:
 1870 000c 0010005C 		.word	1543507968
 1871              		.cfi_endproc
 1872              	.LFE182:
 1874              		.section	.text.HAL_DisableDomain2DBGStandbyMode,"ax",%progbits
 1875              		.align	1
 1876              		.global	HAL_DisableDomain2DBGStandbyMode
 1877              		.syntax unified
 1878              		.thumb
 1879              		.thumb_func
 1880              		.fpu fpv4-sp-d16
 1882              	HAL_DisableDomain2DBGStandbyMode:
 1883              	.LFB183:
1007:../../Drivers/STM32H7xx_HAL_Driver/Src/stm32h7xx_hal.c **** 
1008:../../Drivers/STM32H7xx_HAL_Driver/Src/stm32h7xx_hal.c **** /**
1009:../../Drivers/STM32H7xx_HAL_Driver/Src/stm32h7xx_hal.c ****   * @brief  Disable the Debug Module during Domain2 STANDBY mode
1010:../../Drivers/STM32H7xx_HAL_Driver/Src/stm32h7xx_hal.c ****   * @retval None
1011:../../Drivers/STM32H7xx_HAL_Driver/Src/stm32h7xx_hal.c ****   */
1012:../../Drivers/STM32H7xx_HAL_Driver/Src/stm32h7xx_hal.c **** void HAL_DisableDomain2DBGStandbyMode(void)
1013:../../Drivers/STM32H7xx_HAL_Driver/Src/stm32h7xx_hal.c **** {
 1884              		.loc 1 1013 1 is_stmt 1 view -0
 1885              		.cfi_startproc
 1886              		@ args = 0, pretend = 0, frame = 0
 1887              		@ frame_needed = 0, uses_anonymous_args = 0
 1888              		@ link register save eliminated.
1014:../../Drivers/STM32H7xx_HAL_Driver/Src/stm32h7xx_hal.c ****   CLEAR_BIT(DBGMCU->CR, DBGMCU_CR_DBG_STANDBYD2);
 1889              		.loc 1 1014 3 view .LVU303
 1890 0000 024A     		ldr	r2, .L179
 1891 0002 5368     		ldr	r3, [r2, #4]
 1892 0004 23F02003 		bic	r3, r3, #32
 1893 0008 5360     		str	r3, [r2, #4]
1015:../../Drivers/STM32H7xx_HAL_Driver/Src/stm32h7xx_hal.c **** }
 1894              		.loc 1 1015 1 is_stmt 0 view .LVU304
 1895 000a 7047     		bx	lr
 1896              	.L180:
 1897              		.align	2
 1898              	.L179:
 1899 000c 0010005C 		.word	1543507968
 1900              		.cfi_endproc
 1901              	.LFE183:
 1903              		.section	.text.HAL_SetFMCMemorySwappingConfig,"ax",%progbits
 1904              		.align	1
 1905              		.global	HAL_SetFMCMemorySwappingConfig
 1906              		.syntax unified
 1907              		.thumb
 1908              		.thumb_func
 1909              		.fpu fpv4-sp-d16
ARM GAS  /tmp/ccjOvRAM.s 			page 52


 1911              	HAL_SetFMCMemorySwappingConfig:
 1912              	.LVL48:
 1913              	.LFB184:
1016:../../Drivers/STM32H7xx_HAL_Driver/Src/stm32h7xx_hal.c **** #endif /*DUAL_CORE*/
1017:../../Drivers/STM32H7xx_HAL_Driver/Src/stm32h7xx_hal.c **** 
1018:../../Drivers/STM32H7xx_HAL_Driver/Src/stm32h7xx_hal.c **** #if defined(DBGMCU_CR_DBG_STOPD3)
1019:../../Drivers/STM32H7xx_HAL_Driver/Src/stm32h7xx_hal.c **** /**
1020:../../Drivers/STM32H7xx_HAL_Driver/Src/stm32h7xx_hal.c ****   * @brief  Enable the Debug Module during Domain3/SRDomain STOP mode
1021:../../Drivers/STM32H7xx_HAL_Driver/Src/stm32h7xx_hal.c ****   * @retval None
1022:../../Drivers/STM32H7xx_HAL_Driver/Src/stm32h7xx_hal.c ****   */
1023:../../Drivers/STM32H7xx_HAL_Driver/Src/stm32h7xx_hal.c **** void HAL_EnableDomain3DBGStopMode(void)
1024:../../Drivers/STM32H7xx_HAL_Driver/Src/stm32h7xx_hal.c **** {
1025:../../Drivers/STM32H7xx_HAL_Driver/Src/stm32h7xx_hal.c ****   SET_BIT(DBGMCU->CR, DBGMCU_CR_DBG_STOPD3);
1026:../../Drivers/STM32H7xx_HAL_Driver/Src/stm32h7xx_hal.c **** }
1027:../../Drivers/STM32H7xx_HAL_Driver/Src/stm32h7xx_hal.c **** 
1028:../../Drivers/STM32H7xx_HAL_Driver/Src/stm32h7xx_hal.c **** /**
1029:../../Drivers/STM32H7xx_HAL_Driver/Src/stm32h7xx_hal.c ****   * @brief  Disable the Debug Module during Domain3/SRDomain STOP mode
1030:../../Drivers/STM32H7xx_HAL_Driver/Src/stm32h7xx_hal.c ****   * @retval None
1031:../../Drivers/STM32H7xx_HAL_Driver/Src/stm32h7xx_hal.c ****   */
1032:../../Drivers/STM32H7xx_HAL_Driver/Src/stm32h7xx_hal.c **** void HAL_DisableDomain3DBGStopMode(void)
1033:../../Drivers/STM32H7xx_HAL_Driver/Src/stm32h7xx_hal.c **** {
1034:../../Drivers/STM32H7xx_HAL_Driver/Src/stm32h7xx_hal.c ****   CLEAR_BIT(DBGMCU->CR, DBGMCU_CR_DBG_STOPD3);
1035:../../Drivers/STM32H7xx_HAL_Driver/Src/stm32h7xx_hal.c **** }
1036:../../Drivers/STM32H7xx_HAL_Driver/Src/stm32h7xx_hal.c **** #endif /*DBGMCU_CR_DBG_STOPD3*/
1037:../../Drivers/STM32H7xx_HAL_Driver/Src/stm32h7xx_hal.c **** 
1038:../../Drivers/STM32H7xx_HAL_Driver/Src/stm32h7xx_hal.c **** #if defined(DBGMCU_CR_DBG_STANDBYD3)
1039:../../Drivers/STM32H7xx_HAL_Driver/Src/stm32h7xx_hal.c **** /**
1040:../../Drivers/STM32H7xx_HAL_Driver/Src/stm32h7xx_hal.c ****   * @brief  Enable the Debug Module during Domain3/SRDomain STANDBY mode
1041:../../Drivers/STM32H7xx_HAL_Driver/Src/stm32h7xx_hal.c ****   * @retval None
1042:../../Drivers/STM32H7xx_HAL_Driver/Src/stm32h7xx_hal.c ****   */
1043:../../Drivers/STM32H7xx_HAL_Driver/Src/stm32h7xx_hal.c **** void HAL_EnableDomain3DBGStandbyMode(void)
1044:../../Drivers/STM32H7xx_HAL_Driver/Src/stm32h7xx_hal.c **** {
1045:../../Drivers/STM32H7xx_HAL_Driver/Src/stm32h7xx_hal.c ****   SET_BIT(DBGMCU->CR, DBGMCU_CR_DBG_STANDBYD3);
1046:../../Drivers/STM32H7xx_HAL_Driver/Src/stm32h7xx_hal.c **** }
1047:../../Drivers/STM32H7xx_HAL_Driver/Src/stm32h7xx_hal.c **** 
1048:../../Drivers/STM32H7xx_HAL_Driver/Src/stm32h7xx_hal.c **** /**
1049:../../Drivers/STM32H7xx_HAL_Driver/Src/stm32h7xx_hal.c ****   * @brief  Disable the Debug Module during Domain3/SRDomain STANDBY mode
1050:../../Drivers/STM32H7xx_HAL_Driver/Src/stm32h7xx_hal.c ****   * @retval None
1051:../../Drivers/STM32H7xx_HAL_Driver/Src/stm32h7xx_hal.c ****   */
1052:../../Drivers/STM32H7xx_HAL_Driver/Src/stm32h7xx_hal.c **** void HAL_DisableDomain3DBGStandbyMode(void)
1053:../../Drivers/STM32H7xx_HAL_Driver/Src/stm32h7xx_hal.c **** {
1054:../../Drivers/STM32H7xx_HAL_Driver/Src/stm32h7xx_hal.c ****   CLEAR_BIT(DBGMCU->CR, DBGMCU_CR_DBG_STANDBYD3);
1055:../../Drivers/STM32H7xx_HAL_Driver/Src/stm32h7xx_hal.c **** }
1056:../../Drivers/STM32H7xx_HAL_Driver/Src/stm32h7xx_hal.c **** #endif /*DBGMCU_CR_DBG_STANDBYD3*/
1057:../../Drivers/STM32H7xx_HAL_Driver/Src/stm32h7xx_hal.c **** 
1058:../../Drivers/STM32H7xx_HAL_Driver/Src/stm32h7xx_hal.c **** /**
1059:../../Drivers/STM32H7xx_HAL_Driver/Src/stm32h7xx_hal.c ****   * @brief  Set the FMC Memory Mapping Swapping config.
1060:../../Drivers/STM32H7xx_HAL_Driver/Src/stm32h7xx_hal.c ****   * @param  BankMapConfig: Defines the FMC Bank mapping configuration. This parameter can be
1061:../../Drivers/STM32H7xx_HAL_Driver/Src/stm32h7xx_hal.c ****             FMC_SWAPBMAP_DISABLE, FMC_SWAPBMAP_SDRAM_SRAM, FMC_SWAPBMAP_SDRAMB2
1062:../../Drivers/STM32H7xx_HAL_Driver/Src/stm32h7xx_hal.c ****   * @retval HAL state
1063:../../Drivers/STM32H7xx_HAL_Driver/Src/stm32h7xx_hal.c ****   */
1064:../../Drivers/STM32H7xx_HAL_Driver/Src/stm32h7xx_hal.c **** void HAL_SetFMCMemorySwappingConfig(uint32_t BankMapConfig)
1065:../../Drivers/STM32H7xx_HAL_Driver/Src/stm32h7xx_hal.c **** {
 1914              		.loc 1 1065 1 is_stmt 1 view -0
 1915              		.cfi_startproc
 1916              		@ args = 0, pretend = 0, frame = 0
 1917              		@ frame_needed = 0, uses_anonymous_args = 0
ARM GAS  /tmp/ccjOvRAM.s 			page 53


 1918              		@ link register save eliminated.
1066:../../Drivers/STM32H7xx_HAL_Driver/Src/stm32h7xx_hal.c ****   /* Check the parameter */
1067:../../Drivers/STM32H7xx_HAL_Driver/Src/stm32h7xx_hal.c ****   assert_param(IS_FMC_SWAPBMAP_MODE(BankMapConfig));
 1919              		.loc 1 1067 3 view .LVU306
1068:../../Drivers/STM32H7xx_HAL_Driver/Src/stm32h7xx_hal.c ****   MODIFY_REG(FMC_Bank1_R->BTCR[0], FMC_BCR1_BMAP, BankMapConfig);
 1920              		.loc 1 1068 3 view .LVU307
 1921 0000 034A     		ldr	r2, .L182
 1922 0002 1368     		ldr	r3, [r2]
 1923 0004 23F04073 		bic	r3, r3, #50331648
 1924 0008 0343     		orrs	r3, r3, r0
 1925 000a 1360     		str	r3, [r2]
1069:../../Drivers/STM32H7xx_HAL_Driver/Src/stm32h7xx_hal.c **** }
 1926              		.loc 1 1069 1 is_stmt 0 view .LVU308
 1927 000c 7047     		bx	lr
 1928              	.L183:
 1929 000e 00BF     		.align	2
 1930              	.L182:
 1931 0010 00400052 		.word	1375748096
 1932              		.cfi_endproc
 1933              	.LFE184:
 1935              		.section	.text.HAL_GetFMCMemorySwappingConfig,"ax",%progbits
 1936              		.align	1
 1937              		.global	HAL_GetFMCMemorySwappingConfig
 1938              		.syntax unified
 1939              		.thumb
 1940              		.thumb_func
 1941              		.fpu fpv4-sp-d16
 1943              	HAL_GetFMCMemorySwappingConfig:
 1944              	.LFB185:
1070:../../Drivers/STM32H7xx_HAL_Driver/Src/stm32h7xx_hal.c **** 
1071:../../Drivers/STM32H7xx_HAL_Driver/Src/stm32h7xx_hal.c **** /**
1072:../../Drivers/STM32H7xx_HAL_Driver/Src/stm32h7xx_hal.c ****   * @brief  Get FMC Bank mapping mode.
1073:../../Drivers/STM32H7xx_HAL_Driver/Src/stm32h7xx_hal.c ****   * @retval The FMC Bank mapping mode. This parameter can be
1074:../../Drivers/STM32H7xx_HAL_Driver/Src/stm32h7xx_hal.c ****             FMC_SWAPBMAP_DISABLE, FMC_SWAPBMAP_SDRAM_SRAM, FMC_SWAPBMAP_SDRAMB2
1075:../../Drivers/STM32H7xx_HAL_Driver/Src/stm32h7xx_hal.c **** */
1076:../../Drivers/STM32H7xx_HAL_Driver/Src/stm32h7xx_hal.c **** uint32_t HAL_GetFMCMemorySwappingConfig(void)
1077:../../Drivers/STM32H7xx_HAL_Driver/Src/stm32h7xx_hal.c **** {
 1945              		.loc 1 1077 1 is_stmt 1 view -0
 1946              		.cfi_startproc
 1947              		@ args = 0, pretend = 0, frame = 0
 1948              		@ frame_needed = 0, uses_anonymous_args = 0
 1949              		@ link register save eliminated.
1078:../../Drivers/STM32H7xx_HAL_Driver/Src/stm32h7xx_hal.c ****   return READ_BIT(FMC_Bank1_R->BTCR[0], FMC_BCR1_BMAP);
 1950              		.loc 1 1078 3 view .LVU310
 1951              		.loc 1 1078 10 is_stmt 0 view .LVU311
 1952 0000 024B     		ldr	r3, .L185
 1953 0002 1868     		ldr	r0, [r3]
1079:../../Drivers/STM32H7xx_HAL_Driver/Src/stm32h7xx_hal.c **** }
 1954              		.loc 1 1079 1 view .LVU312
 1955 0004 00F04070 		and	r0, r0, #50331648
 1956 0008 7047     		bx	lr
 1957              	.L186:
 1958 000a 00BF     		.align	2
 1959              	.L185:
 1960 000c 00400052 		.word	1375748096
 1961              		.cfi_endproc
 1962              	.LFE185:
ARM GAS  /tmp/ccjOvRAM.s 			page 54


 1964              		.section	.text.HAL_EXTI_EdgeConfig,"ax",%progbits
 1965              		.align	1
 1966              		.global	HAL_EXTI_EdgeConfig
 1967              		.syntax unified
 1968              		.thumb
 1969              		.thumb_func
 1970              		.fpu fpv4-sp-d16
 1972              	HAL_EXTI_EdgeConfig:
 1973              	.LVL49:
 1974              	.LFB186:
1080:../../Drivers/STM32H7xx_HAL_Driver/Src/stm32h7xx_hal.c **** 
1081:../../Drivers/STM32H7xx_HAL_Driver/Src/stm32h7xx_hal.c **** /**
1082:../../Drivers/STM32H7xx_HAL_Driver/Src/stm32h7xx_hal.c ****   * @brief  Configure the EXTI input event line edge
1083:../../Drivers/STM32H7xx_HAL_Driver/Src/stm32h7xx_hal.c ****   * @note    No edge configuration for direct lines but for configurable lines:(EXTI_LINE0..EXTI_LI
1084:../../Drivers/STM32H7xx_HAL_Driver/Src/stm32h7xx_hal.c ****   *          EXTI_LINE49,EXTI_LINE51,EXTI_LINE82,EXTI_LINE84,EXTI_LINE85 and EXTI_LINE86.
1085:../../Drivers/STM32H7xx_HAL_Driver/Src/stm32h7xx_hal.c ****   * @param   EXTI_Line: Specifies the EXTI LINE, it can be one of the following values,
1086:../../Drivers/STM32H7xx_HAL_Driver/Src/stm32h7xx_hal.c ****   *         (EXTI_LINE0....EXTI_LINE87)excluding :line45, line81,line83 which are reserved
1087:../../Drivers/STM32H7xx_HAL_Driver/Src/stm32h7xx_hal.c ****   * @param   EXTI_Edge: Specifies  EXTI line Edge used.
1088:../../Drivers/STM32H7xx_HAL_Driver/Src/stm32h7xx_hal.c ****   *          This parameter can be one of the following values :
1089:../../Drivers/STM32H7xx_HAL_Driver/Src/stm32h7xx_hal.c ****   *   @arg EXTI_RISING_EDGE : Configurable line, with Rising edge trigger detection
1090:../../Drivers/STM32H7xx_HAL_Driver/Src/stm32h7xx_hal.c ****   *   @arg EXTI_FALLING_EDGE: Configurable line, with Falling edge trigger detection
1091:../../Drivers/STM32H7xx_HAL_Driver/Src/stm32h7xx_hal.c ****   * @retval None
1092:../../Drivers/STM32H7xx_HAL_Driver/Src/stm32h7xx_hal.c ****   */
1093:../../Drivers/STM32H7xx_HAL_Driver/Src/stm32h7xx_hal.c **** void HAL_EXTI_EdgeConfig(uint32_t EXTI_Line , uint32_t EXTI_Edge )
1094:../../Drivers/STM32H7xx_HAL_Driver/Src/stm32h7xx_hal.c **** {
 1975              		.loc 1 1094 1 is_stmt 1 view -0
 1976              		.cfi_startproc
 1977              		@ args = 0, pretend = 0, frame = 0
 1978              		@ frame_needed = 0, uses_anonymous_args = 0
 1979              		@ link register save eliminated.
 1980              		.loc 1 1094 1 is_stmt 0 view .LVU314
 1981 0000 30B4     		push	{r4, r5}
 1982              	.LCFI9:
 1983              		.cfi_def_cfa_offset 8
 1984              		.cfi_offset 4, -8
 1985              		.cfi_offset 5, -4
1095:../../Drivers/STM32H7xx_HAL_Driver/Src/stm32h7xx_hal.c ****   /* Check the parameter */
1096:../../Drivers/STM32H7xx_HAL_Driver/Src/stm32h7xx_hal.c ****   assert_param(IS_HAL_EXTI_CONFIG_LINE(EXTI_Line));
 1986              		.loc 1 1096 3 is_stmt 1 view .LVU315
1097:../../Drivers/STM32H7xx_HAL_Driver/Src/stm32h7xx_hal.c ****   assert_param(IS_EXTI_EDGE_LINE(EXTI_Edge));
 1987              		.loc 1 1097 3 view .LVU316
1098:../../Drivers/STM32H7xx_HAL_Driver/Src/stm32h7xx_hal.c **** 
1099:../../Drivers/STM32H7xx_HAL_Driver/Src/stm32h7xx_hal.c ****   /* Clear Rising Falling edge configuration */
1100:../../Drivers/STM32H7xx_HAL_Driver/Src/stm32h7xx_hal.c ****   CLEAR_BIT(*(__IO uint32_t *) (((uint32_t) &(EXTI->FTSR1)) + ((EXTI_Line >> 5 ) * 0x20UL)), (uint3
 1988              		.loc 1 1100 3 view .LVU317
 1989 0002 4309     		lsrs	r3, r0, #5
 1990 0004 20F01F0C 		bic	ip, r0, #31
 1991 0008 114C     		ldr	r4, .L191
 1992 000a 5CF80450 		ldr	r5, [ip, r4]
 1993 000e 00F01F00 		and	r0, r0, #31
 1994              	.LVL50:
 1995              		.loc 1 1100 3 is_stmt 0 view .LVU318
 1996 0012 0122     		movs	r2, #1
 1997 0014 02FA00F0 		lsl	r0, r2, r0
 1998 0018 25EA0005 		bic	r5, r5, r0
 1999 001c 4CF80450 		str	r5, [ip, r4]
1101:../../Drivers/STM32H7xx_HAL_Driver/Src/stm32h7xx_hal.c ****   CLEAR_BIT( *(__IO uint32_t *) (((uint32_t) &(EXTI->RTSR1)) + ((EXTI_Line >> 5 ) * 0x20UL)), (uint
ARM GAS  /tmp/ccjOvRAM.s 			page 55


 2000              		.loc 1 1101 3 is_stmt 1 view .LVU319
 2001 0020 03F13073 		add	r3, r3, #46137344
 2002 0024 5B01     		lsls	r3, r3, #5
 2003 0026 1A68     		ldr	r2, [r3]
 2004 0028 22EA0002 		bic	r2, r2, r0
 2005 002c 1A60     		str	r2, [r3]
1102:../../Drivers/STM32H7xx_HAL_Driver/Src/stm32h7xx_hal.c **** 
1103:../../Drivers/STM32H7xx_HAL_Driver/Src/stm32h7xx_hal.c ****   if( (EXTI_Edge & EXTI_RISING_EDGE) == EXTI_RISING_EDGE)
 2006              		.loc 1 1103 3 view .LVU320
 2007              		.loc 1 1103 5 is_stmt 0 view .LVU321
 2008 002e 11F4801F 		tst	r1, #1048576
 2009 0032 02D0     		beq	.L188
1104:../../Drivers/STM32H7xx_HAL_Driver/Src/stm32h7xx_hal.c ****   {
1105:../../Drivers/STM32H7xx_HAL_Driver/Src/stm32h7xx_hal.c ****    SET_BIT( *(__IO uint32_t *) (((uint32_t) &(EXTI->RTSR1)) + ((EXTI_Line >> 5 ) * 0x20UL)), (uint3
 2010              		.loc 1 1105 4 is_stmt 1 view .LVU322
 2011 0034 1A68     		ldr	r2, [r3]
 2012 0036 0243     		orrs	r2, r2, r0
 2013 0038 1A60     		str	r2, [r3]
 2014              	.L188:
1106:../../Drivers/STM32H7xx_HAL_Driver/Src/stm32h7xx_hal.c ****   }
1107:../../Drivers/STM32H7xx_HAL_Driver/Src/stm32h7xx_hal.c ****   if( (EXTI_Edge & EXTI_FALLING_EDGE) == EXTI_FALLING_EDGE)
 2015              		.loc 1 1107 3 view .LVU323
 2016              		.loc 1 1107 5 is_stmt 0 view .LVU324
 2017 003a 11F4001F 		tst	r1, #2097152
 2018 003e 04D0     		beq	.L187
1108:../../Drivers/STM32H7xx_HAL_Driver/Src/stm32h7xx_hal.c ****   {
1109:../../Drivers/STM32H7xx_HAL_Driver/Src/stm32h7xx_hal.c ****    SET_BIT(*(__IO uint32_t *) (((uint32_t) &(EXTI->FTSR1)) + ((EXTI_Line >> 5 ) * 0x20UL)), (uint32
 2019              		.loc 1 1109 4 is_stmt 1 view .LVU325
 2020 0040 5CF80430 		ldr	r3, [ip, r4]
 2021 0044 1843     		orrs	r0, r0, r3
 2022 0046 4CF80400 		str	r0, [ip, r4]
 2023              	.L187:
1110:../../Drivers/STM32H7xx_HAL_Driver/Src/stm32h7xx_hal.c ****   }
1111:../../Drivers/STM32H7xx_HAL_Driver/Src/stm32h7xx_hal.c **** }
 2024              		.loc 1 1111 1 is_stmt 0 view .LVU326
 2025 004a 30BC     		pop	{r4, r5}
 2026              	.LCFI10:
 2027              		.cfi_restore 5
 2028              		.cfi_restore 4
 2029              		.cfi_def_cfa_offset 0
 2030 004c 7047     		bx	lr
 2031              	.L192:
 2032 004e 00BF     		.align	2
 2033              	.L191:
 2034 0050 04000058 		.word	1476395012
 2035              		.cfi_endproc
 2036              	.LFE186:
 2038              		.section	.text.HAL_EXTI_GenerateSWInterrupt,"ax",%progbits
 2039              		.align	1
 2040              		.global	HAL_EXTI_GenerateSWInterrupt
 2041              		.syntax unified
 2042              		.thumb
 2043              		.thumb_func
 2044              		.fpu fpv4-sp-d16
 2046              	HAL_EXTI_GenerateSWInterrupt:
 2047              	.LVL51:
 2048              	.LFB187:
ARM GAS  /tmp/ccjOvRAM.s 			page 56


1112:../../Drivers/STM32H7xx_HAL_Driver/Src/stm32h7xx_hal.c **** 
1113:../../Drivers/STM32H7xx_HAL_Driver/Src/stm32h7xx_hal.c **** /**
1114:../../Drivers/STM32H7xx_HAL_Driver/Src/stm32h7xx_hal.c ****   * @brief  Generates a Software interrupt on selected EXTI line.
1115:../../Drivers/STM32H7xx_HAL_Driver/Src/stm32h7xx_hal.c ****   * @param   EXTI_Line: Specifies the EXTI LINE, it can be one of the following values,
1116:../../Drivers/STM32H7xx_HAL_Driver/Src/stm32h7xx_hal.c ****   *          (EXTI_LINE0..EXTI_LINE21),EXTI_LINE49,EXTI_LINE51,EXTI_LINE82,EXTI_LINE84,EXTI_LINE85 
1117:../../Drivers/STM32H7xx_HAL_Driver/Src/stm32h7xx_hal.c ****   * @retval None
1118:../../Drivers/STM32H7xx_HAL_Driver/Src/stm32h7xx_hal.c ****   */
1119:../../Drivers/STM32H7xx_HAL_Driver/Src/stm32h7xx_hal.c **** void HAL_EXTI_GenerateSWInterrupt(uint32_t EXTI_Line)
1120:../../Drivers/STM32H7xx_HAL_Driver/Src/stm32h7xx_hal.c **** {
 2049              		.loc 1 1120 1 is_stmt 1 view -0
 2050              		.cfi_startproc
 2051              		@ args = 0, pretend = 0, frame = 0
 2052              		@ frame_needed = 0, uses_anonymous_args = 0
 2053              		@ link register save eliminated.
1121:../../Drivers/STM32H7xx_HAL_Driver/Src/stm32h7xx_hal.c ****   /* Check the parameters */
1122:../../Drivers/STM32H7xx_HAL_Driver/Src/stm32h7xx_hal.c ****   assert_param(IS_HAL_EXTI_CONFIG_LINE(EXTI_Line));
 2054              		.loc 1 1122 3 view .LVU328
1123:../../Drivers/STM32H7xx_HAL_Driver/Src/stm32h7xx_hal.c **** 
1124:../../Drivers/STM32H7xx_HAL_Driver/Src/stm32h7xx_hal.c ****   SET_BIT(*(__IO uint32_t *) (((uint32_t) &(EXTI->SWIER1)) + ((EXTI_Line >> 5 ) * 0x20UL)), (uint32
 2055              		.loc 1 1124 3 view .LVU329
 2056 0000 20F01F0C 		bic	ip, r0, #31
 2057 0004 0549     		ldr	r1, .L194
 2058 0006 5CF80130 		ldr	r3, [ip, r1]
 2059 000a 00F01F00 		and	r0, r0, #31
 2060              	.LVL52:
 2061              		.loc 1 1124 3 is_stmt 0 view .LVU330
 2062 000e 0122     		movs	r2, #1
 2063 0010 02FA00F0 		lsl	r0, r2, r0
 2064 0014 1843     		orrs	r0, r0, r3
 2065 0016 4CF80100 		str	r0, [ip, r1]
1125:../../Drivers/STM32H7xx_HAL_Driver/Src/stm32h7xx_hal.c **** }
 2066              		.loc 1 1125 1 view .LVU331
 2067 001a 7047     		bx	lr
 2068              	.L195:
 2069              		.align	2
 2070              	.L194:
 2071 001c 08000058 		.word	1476395016
 2072              		.cfi_endproc
 2073              	.LFE187:
 2075              		.section	.text.HAL_EXTI_D1_ClearFlag,"ax",%progbits
 2076              		.align	1
 2077              		.global	HAL_EXTI_D1_ClearFlag
 2078              		.syntax unified
 2079              		.thumb
 2080              		.thumb_func
 2081              		.fpu fpv4-sp-d16
 2083              	HAL_EXTI_D1_ClearFlag:
 2084              	.LVL53:
 2085              	.LFB188:
1126:../../Drivers/STM32H7xx_HAL_Driver/Src/stm32h7xx_hal.c **** 
1127:../../Drivers/STM32H7xx_HAL_Driver/Src/stm32h7xx_hal.c **** 
1128:../../Drivers/STM32H7xx_HAL_Driver/Src/stm32h7xx_hal.c **** /**
1129:../../Drivers/STM32H7xx_HAL_Driver/Src/stm32h7xx_hal.c ****   * @brief  Clears the EXTI's line pending flags for Domain D1
1130:../../Drivers/STM32H7xx_HAL_Driver/Src/stm32h7xx_hal.c ****   * @param   EXTI_Line: Specifies the EXTI LINE, it can be one of the following values,
1131:../../Drivers/STM32H7xx_HAL_Driver/Src/stm32h7xx_hal.c ****   *         (EXTI_LINE0....EXTI_LINE87)excluding :line45, line81,line83 which are reserved
1132:../../Drivers/STM32H7xx_HAL_Driver/Src/stm32h7xx_hal.c ****   * @retval None
1133:../../Drivers/STM32H7xx_HAL_Driver/Src/stm32h7xx_hal.c ****   */
ARM GAS  /tmp/ccjOvRAM.s 			page 57


1134:../../Drivers/STM32H7xx_HAL_Driver/Src/stm32h7xx_hal.c **** void HAL_EXTI_D1_ClearFlag(uint32_t EXTI_Line)
1135:../../Drivers/STM32H7xx_HAL_Driver/Src/stm32h7xx_hal.c **** {
 2086              		.loc 1 1135 1 is_stmt 1 view -0
 2087              		.cfi_startproc
 2088              		@ args = 0, pretend = 0, frame = 0
 2089              		@ frame_needed = 0, uses_anonymous_args = 0
 2090              		@ link register save eliminated.
1136:../../Drivers/STM32H7xx_HAL_Driver/Src/stm32h7xx_hal.c ****   /* Check the parameters */
1137:../../Drivers/STM32H7xx_HAL_Driver/Src/stm32h7xx_hal.c ****  assert_param(IS_EXTI_D1_LINE(EXTI_Line));
 2091              		.loc 1 1137 2 view .LVU333
1138:../../Drivers/STM32H7xx_HAL_Driver/Src/stm32h7xx_hal.c ****  WRITE_REG(*(__IO uint32_t *) (((uint32_t) &(EXTI_D1->PR1)) + ((EXTI_Line >> 5 ) * 0x10UL)), (uint3
 2092              		.loc 1 1138 2 view .LVU334
 2093 0000 00F01F02 		and	r2, r0, #31
 2094 0004 4009     		lsrs	r0, r0, #5
 2095              	.LVL54:
 2096              		.loc 1 1138 2 is_stmt 0 view .LVU335
 2097 0006 0001     		lsls	r0, r0, #4
 2098 0008 0123     		movs	r3, #1
 2099 000a 9340     		lsls	r3, r3, r2
 2100 000c 014A     		ldr	r2, .L197
 2101 000e 8350     		str	r3, [r0, r2]
1139:../../Drivers/STM32H7xx_HAL_Driver/Src/stm32h7xx_hal.c **** 
1140:../../Drivers/STM32H7xx_HAL_Driver/Src/stm32h7xx_hal.c **** }
 2102              		.loc 1 1140 1 view .LVU336
 2103 0010 7047     		bx	lr
 2104              	.L198:
 2105 0012 00BF     		.align	2
 2106              	.L197:
 2107 0014 88000058 		.word	1476395144
 2108              		.cfi_endproc
 2109              	.LFE188:
 2111              		.section	.text.HAL_EXTI_D2_ClearFlag,"ax",%progbits
 2112              		.align	1
 2113              		.global	HAL_EXTI_D2_ClearFlag
 2114              		.syntax unified
 2115              		.thumb
 2116              		.thumb_func
 2117              		.fpu fpv4-sp-d16
 2119              	HAL_EXTI_D2_ClearFlag:
 2120              	.LVL55:
 2121              	.LFB189:
1141:../../Drivers/STM32H7xx_HAL_Driver/Src/stm32h7xx_hal.c **** 
1142:../../Drivers/STM32H7xx_HAL_Driver/Src/stm32h7xx_hal.c **** #if defined(DUAL_CORE)
1143:../../Drivers/STM32H7xx_HAL_Driver/Src/stm32h7xx_hal.c **** /**
1144:../../Drivers/STM32H7xx_HAL_Driver/Src/stm32h7xx_hal.c ****   * @brief  Clears the EXTI's line pending flags for Domain D2
1145:../../Drivers/STM32H7xx_HAL_Driver/Src/stm32h7xx_hal.c ****   * @param   EXTI_Line: Specifies the EXTI LINE, it can be one of the following values,
1146:../../Drivers/STM32H7xx_HAL_Driver/Src/stm32h7xx_hal.c ****   *         (EXTI_LINE0....EXTI_LINE87)excluding :line45, line81,line83 which are reserved
1147:../../Drivers/STM32H7xx_HAL_Driver/Src/stm32h7xx_hal.c ****   * @retval None
1148:../../Drivers/STM32H7xx_HAL_Driver/Src/stm32h7xx_hal.c ****   */
1149:../../Drivers/STM32H7xx_HAL_Driver/Src/stm32h7xx_hal.c **** void HAL_EXTI_D2_ClearFlag(uint32_t EXTI_Line)
1150:../../Drivers/STM32H7xx_HAL_Driver/Src/stm32h7xx_hal.c **** {
 2122              		.loc 1 1150 1 is_stmt 1 view -0
 2123              		.cfi_startproc
 2124              		@ args = 0, pretend = 0, frame = 0
 2125              		@ frame_needed = 0, uses_anonymous_args = 0
 2126              		@ link register save eliminated.
1151:../../Drivers/STM32H7xx_HAL_Driver/Src/stm32h7xx_hal.c ****   /* Check the parameters */
ARM GAS  /tmp/ccjOvRAM.s 			page 58


1152:../../Drivers/STM32H7xx_HAL_Driver/Src/stm32h7xx_hal.c ****  assert_param(IS_EXTI_D2_LINE(EXTI_Line));
 2127              		.loc 1 1152 2 view .LVU338
1153:../../Drivers/STM32H7xx_HAL_Driver/Src/stm32h7xx_hal.c ****  WRITE_REG(*(__IO uint32_t *) (((uint32_t) &(EXTI_D2->PR1)) + ((EXTI_Line >> 5 ) * 0x10UL)), (uint3
 2128              		.loc 1 1153 2 view .LVU339
 2129 0000 00F01F02 		and	r2, r0, #31
 2130 0004 4009     		lsrs	r0, r0, #5
 2131              	.LVL56:
 2132              		.loc 1 1153 2 is_stmt 0 view .LVU340
 2133 0006 0001     		lsls	r0, r0, #4
 2134 0008 0123     		movs	r3, #1
 2135 000a 9340     		lsls	r3, r3, r2
 2136 000c 014A     		ldr	r2, .L200
 2137 000e 8350     		str	r3, [r0, r2]
1154:../../Drivers/STM32H7xx_HAL_Driver/Src/stm32h7xx_hal.c **** }
 2138              		.loc 1 1154 1 view .LVU341
 2139 0010 7047     		bx	lr
 2140              	.L201:
 2141 0012 00BF     		.align	2
 2142              	.L200:
 2143 0014 C8000058 		.word	1476395208
 2144              		.cfi_endproc
 2145              	.LFE189:
 2147              		.section	.text.HAL_EXTI_D1_EventInputConfig,"ax",%progbits
 2148              		.align	1
 2149              		.global	HAL_EXTI_D1_EventInputConfig
 2150              		.syntax unified
 2151              		.thumb
 2152              		.thumb_func
 2153              		.fpu fpv4-sp-d16
 2155              	HAL_EXTI_D1_EventInputConfig:
 2156              	.LVL57:
 2157              	.LFB190:
1155:../../Drivers/STM32H7xx_HAL_Driver/Src/stm32h7xx_hal.c **** 
1156:../../Drivers/STM32H7xx_HAL_Driver/Src/stm32h7xx_hal.c **** #endif /*DUAL_CORE*/
1157:../../Drivers/STM32H7xx_HAL_Driver/Src/stm32h7xx_hal.c **** /**
1158:../../Drivers/STM32H7xx_HAL_Driver/Src/stm32h7xx_hal.c ****   * @brief  Configure the EXTI input event line for Domain D1
1159:../../Drivers/STM32H7xx_HAL_Driver/Src/stm32h7xx_hal.c ****   * @param   EXTI_Line: Specifies the EXTI LINE, it can be one of the following values,
1160:../../Drivers/STM32H7xx_HAL_Driver/Src/stm32h7xx_hal.c ****   *         (EXTI_LINE0....EXTI_LINE87)excluding :line45, line81,line83 which are reserved
1161:../../Drivers/STM32H7xx_HAL_Driver/Src/stm32h7xx_hal.c ****   * @param   EXTI_Mode: Specifies which EXTI line is used as interrupt or an event.
1162:../../Drivers/STM32H7xx_HAL_Driver/Src/stm32h7xx_hal.c ****   *          This parameter can be one or a combination of the following values :
1163:../../Drivers/STM32H7xx_HAL_Driver/Src/stm32h7xx_hal.c ****   *   @arg EXTI_MODE_IT :  Interrupt Mode selected
1164:../../Drivers/STM32H7xx_HAL_Driver/Src/stm32h7xx_hal.c ****   *   @arg EXTI_MODE_EVT : Event Mode selected
1165:../../Drivers/STM32H7xx_HAL_Driver/Src/stm32h7xx_hal.c ****   * @param   EXTI_LineCmd controls (Enable/Disable) the EXTI line.
1166:../../Drivers/STM32H7xx_HAL_Driver/Src/stm32h7xx_hal.c **** 
1167:../../Drivers/STM32H7xx_HAL_Driver/Src/stm32h7xx_hal.c ****   * @retval None
1168:../../Drivers/STM32H7xx_HAL_Driver/Src/stm32h7xx_hal.c ****   */
1169:../../Drivers/STM32H7xx_HAL_Driver/Src/stm32h7xx_hal.c **** void HAL_EXTI_D1_EventInputConfig(uint32_t EXTI_Line , uint32_t EXTI_Mode,  uint32_t EXTI_LineCmd )
1170:../../Drivers/STM32H7xx_HAL_Driver/Src/stm32h7xx_hal.c **** {
 2158              		.loc 1 1170 1 is_stmt 1 view -0
 2159              		.cfi_startproc
 2160              		@ args = 0, pretend = 0, frame = 0
 2161              		@ frame_needed = 0, uses_anonymous_args = 0
 2162              		.loc 1 1170 1 is_stmt 0 view .LVU343
 2163 0000 10B5     		push	{r4, lr}
 2164              	.LCFI11:
 2165              		.cfi_def_cfa_offset 8
 2166              		.cfi_offset 4, -8
ARM GAS  /tmp/ccjOvRAM.s 			page 59


 2167              		.cfi_offset 14, -4
1171:../../Drivers/STM32H7xx_HAL_Driver/Src/stm32h7xx_hal.c ****   /* Check the parameter */
1172:../../Drivers/STM32H7xx_HAL_Driver/Src/stm32h7xx_hal.c ****   assert_param(IS_EXTI_D1_LINE(EXTI_Line));
 2168              		.loc 1 1172 3 is_stmt 1 view .LVU344
1173:../../Drivers/STM32H7xx_HAL_Driver/Src/stm32h7xx_hal.c ****   assert_param(IS_EXTI_MODE_LINE(EXTI_Mode));
 2169              		.loc 1 1173 3 view .LVU345
1174:../../Drivers/STM32H7xx_HAL_Driver/Src/stm32h7xx_hal.c **** 
1175:../../Drivers/STM32H7xx_HAL_Driver/Src/stm32h7xx_hal.c ****   if( (EXTI_Mode & EXTI_MODE_IT) == EXTI_MODE_IT)
 2170              		.loc 1 1175 3 view .LVU346
 2171              		.loc 1 1175 5 is_stmt 0 view .LVU347
 2172 0002 11F4803F 		tst	r1, #65536
 2173 0006 0ED0     		beq	.L203
1176:../../Drivers/STM32H7xx_HAL_Driver/Src/stm32h7xx_hal.c ****   {
1177:../../Drivers/STM32H7xx_HAL_Driver/Src/stm32h7xx_hal.c ****      if( EXTI_LineCmd == 0UL)
 2174              		.loc 1 1177 6 is_stmt 1 view .LVU348
 2175              		.loc 1 1177 8 is_stmt 0 view .LVU349
 2176 0008 EAB9     		cbnz	r2, .L204
1178:../../Drivers/STM32H7xx_HAL_Driver/Src/stm32h7xx_hal.c ****      {
1179:../../Drivers/STM32H7xx_HAL_Driver/Src/stm32h7xx_hal.c ****        /* Clear EXTI line configuration */
1180:../../Drivers/STM32H7xx_HAL_Driver/Src/stm32h7xx_hal.c ****         CLEAR_BIT(*(__IO uint32_t *) (((uint32_t) &(EXTI_D1->IMR1)) + ((EXTI_Line >> 5 ) * 0x10UL))
 2177              		.loc 1 1180 9 is_stmt 1 view .LVU350
 2178 000a 1C4B     		ldr	r3, .L208
 2179 000c 03EB5013 		add	r3, r3, r0, lsr #5
 2180 0010 1B01     		lsls	r3, r3, #4
 2181 0012 1C68     		ldr	r4, [r3]
 2182 0014 00F01F0E 		and	lr, r0, #31
 2183 0018 4FF0010C 		mov	ip, #1
 2184 001c 0CFA0EFC 		lsl	ip, ip, lr
 2185 0020 24EA0C04 		bic	r4, r4, ip
 2186 0024 1C60     		str	r4, [r3]
 2187              	.L203:
1181:../../Drivers/STM32H7xx_HAL_Driver/Src/stm32h7xx_hal.c ****      }
1182:../../Drivers/STM32H7xx_HAL_Driver/Src/stm32h7xx_hal.c ****      else
1183:../../Drivers/STM32H7xx_HAL_Driver/Src/stm32h7xx_hal.c ****      {
1184:../../Drivers/STM32H7xx_HAL_Driver/Src/stm32h7xx_hal.c ****         SET_BIT(*(__IO uint32_t *) (((uint32_t) &(EXTI_D1->IMR1)) + ((EXTI_Line >> 5 ) * 0x10UL)), 
1185:../../Drivers/STM32H7xx_HAL_Driver/Src/stm32h7xx_hal.c ****      }
1186:../../Drivers/STM32H7xx_HAL_Driver/Src/stm32h7xx_hal.c ****   }
1187:../../Drivers/STM32H7xx_HAL_Driver/Src/stm32h7xx_hal.c **** 
1188:../../Drivers/STM32H7xx_HAL_Driver/Src/stm32h7xx_hal.c ****   if( (EXTI_Mode & EXTI_MODE_EVT) == EXTI_MODE_EVT)
 2188              		.loc 1 1188 3 view .LVU351
 2189              		.loc 1 1188 5 is_stmt 0 view .LVU352
 2190 0026 11F4003F 		tst	r1, #131072
 2191 002a 0BD0     		beq	.L202
1189:../../Drivers/STM32H7xx_HAL_Driver/Src/stm32h7xx_hal.c ****   {
1190:../../Drivers/STM32H7xx_HAL_Driver/Src/stm32h7xx_hal.c ****     if( EXTI_LineCmd == 0UL)
 2192              		.loc 1 1190 5 is_stmt 1 view .LVU353
 2193              		.loc 1 1190 7 is_stmt 0 view .LVU354
 2194 002c D2B9     		cbnz	r2, .L206
1191:../../Drivers/STM32H7xx_HAL_Driver/Src/stm32h7xx_hal.c ****     {
1192:../../Drivers/STM32H7xx_HAL_Driver/Src/stm32h7xx_hal.c ****       /* Clear EXTI line configuration */
1193:../../Drivers/STM32H7xx_HAL_Driver/Src/stm32h7xx_hal.c ****       CLEAR_BIT(  *(__IO uint32_t *) (((uint32_t) &(EXTI_D1->EMR1)) + ((EXTI_Line >> 5 ) * 0x10UL))
 2195              		.loc 1 1193 7 is_stmt 1 view .LVU355
 2196 002e 4309     		lsrs	r3, r0, #5
 2197 0030 1B01     		lsls	r3, r3, #4
 2198 0032 1349     		ldr	r1, .L208+4
 2199              	.LVL58:
 2200              		.loc 1 1193 7 is_stmt 0 view .LVU356
ARM GAS  /tmp/ccjOvRAM.s 			page 60


 2201 0034 5A58     		ldr	r2, [r3, r1]
 2202              	.LVL59:
 2203              		.loc 1 1193 7 view .LVU357
 2204 0036 00F01F04 		and	r4, r0, #31
 2205 003a 0120     		movs	r0, #1
 2206              	.LVL60:
 2207              		.loc 1 1193 7 view .LVU358
 2208 003c A040     		lsls	r0, r0, r4
 2209 003e 22EA0000 		bic	r0, r2, r0
 2210 0042 5850     		str	r0, [r3, r1]
 2211              	.L202:
1194:../../Drivers/STM32H7xx_HAL_Driver/Src/stm32h7xx_hal.c ****     }
1195:../../Drivers/STM32H7xx_HAL_Driver/Src/stm32h7xx_hal.c ****     else
1196:../../Drivers/STM32H7xx_HAL_Driver/Src/stm32h7xx_hal.c ****     {
1197:../../Drivers/STM32H7xx_HAL_Driver/Src/stm32h7xx_hal.c ****       SET_BIT(  *(__IO uint32_t *) (((uint32_t) &(EXTI_D1->EMR1)) + ((EXTI_Line >> 5 ) * 0x10UL)), 
1198:../../Drivers/STM32H7xx_HAL_Driver/Src/stm32h7xx_hal.c ****     }
1199:../../Drivers/STM32H7xx_HAL_Driver/Src/stm32h7xx_hal.c ****   }
1200:../../Drivers/STM32H7xx_HAL_Driver/Src/stm32h7xx_hal.c **** }
 2212              		.loc 1 1200 1 view .LVU359
 2213 0044 10BD     		pop	{r4, pc}
 2214              	.LVL61:
 2215              	.L204:
1184:../../Drivers/STM32H7xx_HAL_Driver/Src/stm32h7xx_hal.c ****      }
 2216              		.loc 1 1184 9 is_stmt 1 view .LVU360
 2217 0046 0D4B     		ldr	r3, .L208
 2218 0048 03EB5013 		add	r3, r3, r0, lsr #5
 2219 004c 1B01     		lsls	r3, r3, #4
 2220 004e 1C68     		ldr	r4, [r3]
 2221 0050 00F01F0E 		and	lr, r0, #31
 2222 0054 4FF0010C 		mov	ip, #1
 2223 0058 0CFA0EFC 		lsl	ip, ip, lr
 2224 005c 44EA0C04 		orr	r4, r4, ip
 2225 0060 1C60     		str	r4, [r3]
 2226 0062 E0E7     		b	.L203
 2227              	.L206:
1197:../../Drivers/STM32H7xx_HAL_Driver/Src/stm32h7xx_hal.c ****     }
 2228              		.loc 1 1197 7 view .LVU361
 2229 0064 4309     		lsrs	r3, r0, #5
 2230 0066 1B01     		lsls	r3, r3, #4
 2231 0068 054C     		ldr	r4, .L208+4
 2232 006a 1A59     		ldr	r2, [r3, r4]
 2233              	.LVL62:
1197:../../Drivers/STM32H7xx_HAL_Driver/Src/stm32h7xx_hal.c ****     }
 2234              		.loc 1 1197 7 is_stmt 0 view .LVU362
 2235 006c 00F01F00 		and	r0, r0, #31
 2236              	.LVL63:
1197:../../Drivers/STM32H7xx_HAL_Driver/Src/stm32h7xx_hal.c ****     }
 2237              		.loc 1 1197 7 view .LVU363
 2238 0070 0121     		movs	r1, #1
 2239              	.LVL64:
1197:../../Drivers/STM32H7xx_HAL_Driver/Src/stm32h7xx_hal.c ****     }
 2240              		.loc 1 1197 7 view .LVU364
 2241 0072 01FA00F0 		lsl	r0, r1, r0
 2242 0076 1043     		orrs	r0, r0, r2
 2243 0078 1851     		str	r0, [r3, r4]
 2244              		.loc 1 1200 1 view .LVU365
 2245 007a E3E7     		b	.L202
ARM GAS  /tmp/ccjOvRAM.s 			page 61


 2246              	.L209:
 2247              		.align	2
 2248              	.L208:
 2249 007c 08008005 		.word	92274696
 2250 0080 84000058 		.word	1476395140
 2251              		.cfi_endproc
 2252              	.LFE190:
 2254              		.section	.text.HAL_EXTI_D2_EventInputConfig,"ax",%progbits
 2255              		.align	1
 2256              		.global	HAL_EXTI_D2_EventInputConfig
 2257              		.syntax unified
 2258              		.thumb
 2259              		.thumb_func
 2260              		.fpu fpv4-sp-d16
 2262              	HAL_EXTI_D2_EventInputConfig:
 2263              	.LVL65:
 2264              	.LFB191:
1201:../../Drivers/STM32H7xx_HAL_Driver/Src/stm32h7xx_hal.c **** 
1202:../../Drivers/STM32H7xx_HAL_Driver/Src/stm32h7xx_hal.c **** #if defined(DUAL_CORE)
1203:../../Drivers/STM32H7xx_HAL_Driver/Src/stm32h7xx_hal.c **** /**
1204:../../Drivers/STM32H7xx_HAL_Driver/Src/stm32h7xx_hal.c ****   * @brief  Configure the EXTI input event line for Domain D2
1205:../../Drivers/STM32H7xx_HAL_Driver/Src/stm32h7xx_hal.c ****   * @param   EXTI_Line: Specifies the EXTI LINE, it can be one of the following values,
1206:../../Drivers/STM32H7xx_HAL_Driver/Src/stm32h7xx_hal.c ****   *         (EXTI_LINE0....EXTI_LINE87)excluding :line45, line81,line83 which are reserved
1207:../../Drivers/STM32H7xx_HAL_Driver/Src/stm32h7xx_hal.c ****   * @param   EXTI_Mode: Specifies which EXTI line is used as interrupt or an event.
1208:../../Drivers/STM32H7xx_HAL_Driver/Src/stm32h7xx_hal.c ****   *          This parameter can be one or a combination of the following values :
1209:../../Drivers/STM32H7xx_HAL_Driver/Src/stm32h7xx_hal.c ****   *   @arg EXTI_MODE_IT :  Interrupt Mode selected
1210:../../Drivers/STM32H7xx_HAL_Driver/Src/stm32h7xx_hal.c ****   *   @arg EXTI_MODE_EVT : Event Mode selected
1211:../../Drivers/STM32H7xx_HAL_Driver/Src/stm32h7xx_hal.c ****   * @param   EXTI_LineCmd controls (Enable/Disable) the EXTI line.
1212:../../Drivers/STM32H7xx_HAL_Driver/Src/stm32h7xx_hal.c **** 
1213:../../Drivers/STM32H7xx_HAL_Driver/Src/stm32h7xx_hal.c ****   * @retval None
1214:../../Drivers/STM32H7xx_HAL_Driver/Src/stm32h7xx_hal.c ****   */
1215:../../Drivers/STM32H7xx_HAL_Driver/Src/stm32h7xx_hal.c **** void HAL_EXTI_D2_EventInputConfig(uint32_t EXTI_Line , uint32_t EXTI_Mode,  uint32_t EXTI_LineCmd )
1216:../../Drivers/STM32H7xx_HAL_Driver/Src/stm32h7xx_hal.c **** {
 2265              		.loc 1 1216 1 is_stmt 1 view -0
 2266              		.cfi_startproc
 2267              		@ args = 0, pretend = 0, frame = 0
 2268              		@ frame_needed = 0, uses_anonymous_args = 0
 2269              		.loc 1 1216 1 is_stmt 0 view .LVU367
 2270 0000 10B5     		push	{r4, lr}
 2271              	.LCFI12:
 2272              		.cfi_def_cfa_offset 8
 2273              		.cfi_offset 4, -8
 2274              		.cfi_offset 14, -4
1217:../../Drivers/STM32H7xx_HAL_Driver/Src/stm32h7xx_hal.c ****   /* Check the parameter */
1218:../../Drivers/STM32H7xx_HAL_Driver/Src/stm32h7xx_hal.c ****   assert_param(IS_EXTI_D2_LINE(EXTI_Line));
 2275              		.loc 1 1218 3 is_stmt 1 view .LVU368
1219:../../Drivers/STM32H7xx_HAL_Driver/Src/stm32h7xx_hal.c ****   assert_param(IS_EXTI_MODE_LINE(EXTI_Mode));
 2276              		.loc 1 1219 3 view .LVU369
1220:../../Drivers/STM32H7xx_HAL_Driver/Src/stm32h7xx_hal.c **** 
1221:../../Drivers/STM32H7xx_HAL_Driver/Src/stm32h7xx_hal.c ****   if( (EXTI_Mode & EXTI_MODE_IT) == EXTI_MODE_IT)
 2277              		.loc 1 1221 3 view .LVU370
 2278              		.loc 1 1221 5 is_stmt 0 view .LVU371
 2279 0002 11F4803F 		tst	r1, #65536
 2280 0006 0ED0     		beq	.L211
1222:../../Drivers/STM32H7xx_HAL_Driver/Src/stm32h7xx_hal.c ****   {
1223:../../Drivers/STM32H7xx_HAL_Driver/Src/stm32h7xx_hal.c ****     if( EXTI_LineCmd == 0UL)
 2281              		.loc 1 1223 5 is_stmt 1 view .LVU372
ARM GAS  /tmp/ccjOvRAM.s 			page 62


 2282              		.loc 1 1223 7 is_stmt 0 view .LVU373
 2283 0008 EAB9     		cbnz	r2, .L212
1224:../../Drivers/STM32H7xx_HAL_Driver/Src/stm32h7xx_hal.c ****     {
1225:../../Drivers/STM32H7xx_HAL_Driver/Src/stm32h7xx_hal.c ****     /* Clear EXTI line configuration */
1226:../../Drivers/STM32H7xx_HAL_Driver/Src/stm32h7xx_hal.c ****      CLEAR_BIT(*(__IO uint32_t *) (((uint32_t) &(EXTI_D2->IMR1)) + ((EXTI_Line >> 5 ) * 0x10UL)),(u
 2284              		.loc 1 1226 6 is_stmt 1 view .LVU374
 2285 000a 1C4B     		ldr	r3, .L216
 2286 000c 03EB5013 		add	r3, r3, r0, lsr #5
 2287 0010 1B01     		lsls	r3, r3, #4
 2288 0012 1C68     		ldr	r4, [r3]
 2289 0014 00F01F0E 		and	lr, r0, #31
 2290 0018 4FF0010C 		mov	ip, #1
 2291 001c 0CFA0EFC 		lsl	ip, ip, lr
 2292 0020 24EA0C04 		bic	r4, r4, ip
 2293 0024 1C60     		str	r4, [r3]
 2294              	.L211:
1227:../../Drivers/STM32H7xx_HAL_Driver/Src/stm32h7xx_hal.c ****     }
1228:../../Drivers/STM32H7xx_HAL_Driver/Src/stm32h7xx_hal.c ****     else
1229:../../Drivers/STM32H7xx_HAL_Driver/Src/stm32h7xx_hal.c ****     {
1230:../../Drivers/STM32H7xx_HAL_Driver/Src/stm32h7xx_hal.c ****      SET_BIT(*(__IO uint32_t *) (((uint32_t) &(EXTI_D2->IMR1)) + ((EXTI_Line >> 5 ) * 0x10UL)), (ui
1231:../../Drivers/STM32H7xx_HAL_Driver/Src/stm32h7xx_hal.c ****     }
1232:../../Drivers/STM32H7xx_HAL_Driver/Src/stm32h7xx_hal.c ****   }
1233:../../Drivers/STM32H7xx_HAL_Driver/Src/stm32h7xx_hal.c **** 
1234:../../Drivers/STM32H7xx_HAL_Driver/Src/stm32h7xx_hal.c ****   if( (EXTI_Mode & EXTI_MODE_EVT) == EXTI_MODE_EVT)
 2295              		.loc 1 1234 3 view .LVU375
 2296              		.loc 1 1234 5 is_stmt 0 view .LVU376
 2297 0026 11F4003F 		tst	r1, #131072
 2298 002a 0BD0     		beq	.L210
1235:../../Drivers/STM32H7xx_HAL_Driver/Src/stm32h7xx_hal.c ****   {
1236:../../Drivers/STM32H7xx_HAL_Driver/Src/stm32h7xx_hal.c ****     if( EXTI_LineCmd == 0UL)
 2299              		.loc 1 1236 5 is_stmt 1 view .LVU377
 2300              		.loc 1 1236 7 is_stmt 0 view .LVU378
 2301 002c D2B9     		cbnz	r2, .L214
1237:../../Drivers/STM32H7xx_HAL_Driver/Src/stm32h7xx_hal.c ****     {
1238:../../Drivers/STM32H7xx_HAL_Driver/Src/stm32h7xx_hal.c ****       /* Clear EXTI line configuration */
1239:../../Drivers/STM32H7xx_HAL_Driver/Src/stm32h7xx_hal.c ****       CLEAR_BIT(  *(__IO uint32_t *) (((uint32_t) &(EXTI_D2->EMR1)) + ((EXTI_Line >> 5 ) * 0x10UL))
 2302              		.loc 1 1239 7 is_stmt 1 view .LVU379
 2303 002e 4309     		lsrs	r3, r0, #5
 2304 0030 1B01     		lsls	r3, r3, #4
 2305 0032 1349     		ldr	r1, .L216+4
 2306              	.LVL66:
 2307              		.loc 1 1239 7 is_stmt 0 view .LVU380
 2308 0034 5A58     		ldr	r2, [r3, r1]
 2309              	.LVL67:
 2310              		.loc 1 1239 7 view .LVU381
 2311 0036 00F01F04 		and	r4, r0, #31
 2312 003a 0120     		movs	r0, #1
 2313              	.LVL68:
 2314              		.loc 1 1239 7 view .LVU382
 2315 003c A040     		lsls	r0, r0, r4
 2316 003e 22EA0000 		bic	r0, r2, r0
 2317 0042 5850     		str	r0, [r3, r1]
 2318              	.L210:
1240:../../Drivers/STM32H7xx_HAL_Driver/Src/stm32h7xx_hal.c ****     }
1241:../../Drivers/STM32H7xx_HAL_Driver/Src/stm32h7xx_hal.c ****     else
1242:../../Drivers/STM32H7xx_HAL_Driver/Src/stm32h7xx_hal.c ****     {
1243:../../Drivers/STM32H7xx_HAL_Driver/Src/stm32h7xx_hal.c ****       SET_BIT(  *(__IO uint32_t *) (((uint32_t) &(EXTI_D2->EMR1)) + ((EXTI_Line >> 5 ) * 0x10UL)), 
ARM GAS  /tmp/ccjOvRAM.s 			page 63


1244:../../Drivers/STM32H7xx_HAL_Driver/Src/stm32h7xx_hal.c ****     }
1245:../../Drivers/STM32H7xx_HAL_Driver/Src/stm32h7xx_hal.c ****   }
1246:../../Drivers/STM32H7xx_HAL_Driver/Src/stm32h7xx_hal.c **** }
 2319              		.loc 1 1246 1 view .LVU383
 2320 0044 10BD     		pop	{r4, pc}
 2321              	.LVL69:
 2322              	.L212:
1230:../../Drivers/STM32H7xx_HAL_Driver/Src/stm32h7xx_hal.c ****     }
 2323              		.loc 1 1230 6 is_stmt 1 view .LVU384
 2324 0046 0D4B     		ldr	r3, .L216
 2325 0048 03EB5013 		add	r3, r3, r0, lsr #5
 2326 004c 1B01     		lsls	r3, r3, #4
 2327 004e 1C68     		ldr	r4, [r3]
 2328 0050 00F01F0E 		and	lr, r0, #31
 2329 0054 4FF0010C 		mov	ip, #1
 2330 0058 0CFA0EFC 		lsl	ip, ip, lr
 2331 005c 44EA0C04 		orr	r4, r4, ip
 2332 0060 1C60     		str	r4, [r3]
 2333 0062 E0E7     		b	.L211
 2334              	.L214:
1243:../../Drivers/STM32H7xx_HAL_Driver/Src/stm32h7xx_hal.c ****     }
 2335              		.loc 1 1243 7 view .LVU385
 2336 0064 4309     		lsrs	r3, r0, #5
 2337 0066 1B01     		lsls	r3, r3, #4
 2338 0068 054C     		ldr	r4, .L216+4
 2339 006a 1A59     		ldr	r2, [r3, r4]
 2340              	.LVL70:
1243:../../Drivers/STM32H7xx_HAL_Driver/Src/stm32h7xx_hal.c ****     }
 2341              		.loc 1 1243 7 is_stmt 0 view .LVU386
 2342 006c 00F01F00 		and	r0, r0, #31
 2343              	.LVL71:
1243:../../Drivers/STM32H7xx_HAL_Driver/Src/stm32h7xx_hal.c ****     }
 2344              		.loc 1 1243 7 view .LVU387
 2345 0070 0121     		movs	r1, #1
 2346              	.LVL72:
1243:../../Drivers/STM32H7xx_HAL_Driver/Src/stm32h7xx_hal.c ****     }
 2347              		.loc 1 1243 7 view .LVU388
 2348 0072 01FA00F0 		lsl	r0, r1, r0
 2349 0076 1043     		orrs	r0, r0, r2
 2350 0078 1851     		str	r0, [r3, r4]
 2351              		.loc 1 1246 1 view .LVU389
 2352 007a E3E7     		b	.L210
 2353              	.L217:
 2354              		.align	2
 2355              	.L216:
 2356 007c 0C008005 		.word	92274700
 2357 0080 C4000058 		.word	1476395204
 2358              		.cfi_endproc
 2359              	.LFE191:
 2361              		.section	.text.HAL_EXTI_D3_EventInputConfig,"ax",%progbits
 2362              		.align	1
 2363              		.global	HAL_EXTI_D3_EventInputConfig
 2364              		.syntax unified
 2365              		.thumb
 2366              		.thumb_func
 2367              		.fpu fpv4-sp-d16
 2369              	HAL_EXTI_D3_EventInputConfig:
ARM GAS  /tmp/ccjOvRAM.s 			page 64


 2370              	.LVL73:
 2371              	.LFB192:
1247:../../Drivers/STM32H7xx_HAL_Driver/Src/stm32h7xx_hal.c **** #endif /*DUAL_CORE*/
1248:../../Drivers/STM32H7xx_HAL_Driver/Src/stm32h7xx_hal.c **** 
1249:../../Drivers/STM32H7xx_HAL_Driver/Src/stm32h7xx_hal.c **** /**
1250:../../Drivers/STM32H7xx_HAL_Driver/Src/stm32h7xx_hal.c ****   * @brief  Configure the EXTI input event line for Domain D3
1251:../../Drivers/STM32H7xx_HAL_Driver/Src/stm32h7xx_hal.c ****   * @param   EXTI_Line: Specifies the EXTI LINE, it can be one of the following values,
1252:../../Drivers/STM32H7xx_HAL_Driver/Src/stm32h7xx_hal.c ****   *         (EXTI_LINE0...EXTI_LINE15),(EXTI_LINE19...EXTI_LINE21),EXTI_LINE25, EXTI_LINE34,
1253:../../Drivers/STM32H7xx_HAL_Driver/Src/stm32h7xx_hal.c ****   *          EXTI_LINE35,EXTI_LINE41,(EXTI_LINE48...EXTI_LINE53)
1254:../../Drivers/STM32H7xx_HAL_Driver/Src/stm32h7xx_hal.c ****   * @param   EXTI_LineCmd controls (Enable/Disable) the EXTI line.
1255:../../Drivers/STM32H7xx_HAL_Driver/Src/stm32h7xx_hal.c ****   * @param   EXTI_ClearSrc: Specifies the clear source of D3 pending event.
1256:../../Drivers/STM32H7xx_HAL_Driver/Src/stm32h7xx_hal.c ****   *          This parameter can be one of the following values :
1257:../../Drivers/STM32H7xx_HAL_Driver/Src/stm32h7xx_hal.c ****   *   @arg BDMA_CH6_CLEAR : BDMA ch6 event selected as D3 domain pendclear source
1258:../../Drivers/STM32H7xx_HAL_Driver/Src/stm32h7xx_hal.c ****   *   @arg BDMA_CH7_CLEAR : BDMA ch7 event selected as D3 domain pendclear source
1259:../../Drivers/STM32H7xx_HAL_Driver/Src/stm32h7xx_hal.c ****   *   @arg LPTIM4_OUT_CLEAR : LPTIM4 out selected as D3 domain pendclear source
1260:../../Drivers/STM32H7xx_HAL_Driver/Src/stm32h7xx_hal.c ****   *   @arg LPTIM5_OUT_CLEAR : LPTIM5 out selected as D3 domain pendclear source
1261:../../Drivers/STM32H7xx_HAL_Driver/Src/stm32h7xx_hal.c ****   * @retval None
1262:../../Drivers/STM32H7xx_HAL_Driver/Src/stm32h7xx_hal.c ****   */
1263:../../Drivers/STM32H7xx_HAL_Driver/Src/stm32h7xx_hal.c **** void HAL_EXTI_D3_EventInputConfig(uint32_t EXTI_Line, uint32_t EXTI_LineCmd , uint32_t EXTI_ClearSr
1264:../../Drivers/STM32H7xx_HAL_Driver/Src/stm32h7xx_hal.c **** {
 2372              		.loc 1 1264 1 is_stmt 1 view -0
 2373              		.cfi_startproc
 2374              		@ args = 0, pretend = 0, frame = 0
 2375              		@ frame_needed = 0, uses_anonymous_args = 0
 2376              		.loc 1 1264 1 is_stmt 0 view .LVU391
 2377 0000 10B5     		push	{r4, lr}
 2378              	.LCFI13:
 2379              		.cfi_def_cfa_offset 8
 2380              		.cfi_offset 4, -8
 2381              		.cfi_offset 14, -4
1265:../../Drivers/STM32H7xx_HAL_Driver/Src/stm32h7xx_hal.c ****   __IO uint32_t *pRegv;
 2382              		.loc 1 1265 3 is_stmt 1 view .LVU392
1266:../../Drivers/STM32H7xx_HAL_Driver/Src/stm32h7xx_hal.c **** 
1267:../../Drivers/STM32H7xx_HAL_Driver/Src/stm32h7xx_hal.c ****   /* Check the parameter */
1268:../../Drivers/STM32H7xx_HAL_Driver/Src/stm32h7xx_hal.c ****   assert_param(IS_EXTI_D3_LINE(EXTI_Line));
 2383              		.loc 1 1268 3 view .LVU393
1269:../../Drivers/STM32H7xx_HAL_Driver/Src/stm32h7xx_hal.c ****   assert_param(IS_EXTI_D3_CLEAR(EXTI_ClearSrc));
 2384              		.loc 1 1269 3 view .LVU394
1270:../../Drivers/STM32H7xx_HAL_Driver/Src/stm32h7xx_hal.c **** 
1271:../../Drivers/STM32H7xx_HAL_Driver/Src/stm32h7xx_hal.c ****   if( EXTI_LineCmd == 0UL)
 2385              		.loc 1 1271 3 view .LVU395
 2386              		.loc 1 1271 5 is_stmt 0 view .LVU396
 2387 0002 11BB     		cbnz	r1, .L219
1272:../../Drivers/STM32H7xx_HAL_Driver/Src/stm32h7xx_hal.c ****   {
1273:../../Drivers/STM32H7xx_HAL_Driver/Src/stm32h7xx_hal.c ****     /* Clear EXTI line configuration */
1274:../../Drivers/STM32H7xx_HAL_Driver/Src/stm32h7xx_hal.c ****     CLEAR_BIT(*(__IO uint32_t *) (((uint32_t) &(EXTI->D3PMR1)) + ((EXTI_Line >> 5 ) * 0x20UL)),(uin
 2388              		.loc 1 1274 5 is_stmt 1 view .LVU397
 2389 0004 20F01F03 		bic	r3, r0, #31
 2390 0008 194C     		ldr	r4, .L224
 2391 000a 1959     		ldr	r1, [r3, r4]
 2392              	.LVL74:
 2393              		.loc 1 1274 5 is_stmt 0 view .LVU398
 2394 000c 00F01F0E 		and	lr, r0, #31
 2395 0010 4FF0010C 		mov	ip, #1
 2396 0014 0CFA0EFC 		lsl	ip, ip, lr
 2397 0018 21EA0C01 		bic	r1, r1, ip
 2398 001c 1951     		str	r1, [r3, r4]
ARM GAS  /tmp/ccjOvRAM.s 			page 65


 2399              	.L220:
1275:../../Drivers/STM32H7xx_HAL_Driver/Src/stm32h7xx_hal.c ****   }
1276:../../Drivers/STM32H7xx_HAL_Driver/Src/stm32h7xx_hal.c ****   else
1277:../../Drivers/STM32H7xx_HAL_Driver/Src/stm32h7xx_hal.c ****   {
1278:../../Drivers/STM32H7xx_HAL_Driver/Src/stm32h7xx_hal.c ****     SET_BIT(*(__IO uint32_t *) (((uint32_t) &(EXTI->D3PMR1)) +((EXTI_Line >> 5 ) * 0x20UL)), (uint3
1279:../../Drivers/STM32H7xx_HAL_Driver/Src/stm32h7xx_hal.c ****   }
1280:../../Drivers/STM32H7xx_HAL_Driver/Src/stm32h7xx_hal.c **** 
1281:../../Drivers/STM32H7xx_HAL_Driver/Src/stm32h7xx_hal.c ****   if(((EXTI_Line>>4)%2UL) == 0UL)
 2400              		.loc 1 1281 3 is_stmt 1 view .LVU399
 2401              		.loc 1 1281 5 is_stmt 0 view .LVU400
 2402 001e 10F0100F 		tst	r0, #16
 2403 0022 20D1     		bne	.L221
1282:../../Drivers/STM32H7xx_HAL_Driver/Src/stm32h7xx_hal.c ****   {
1283:../../Drivers/STM32H7xx_HAL_Driver/Src/stm32h7xx_hal.c ****     pRegv = (__IO uint32_t *) (((uint32_t) &(EXTI->D3PCR1L)) + ((EXTI_Line >> 5 ) * 0x20UL));
 2404              		.loc 1 1283 5 is_stmt 1 view .LVU401
 2405              		.loc 1 1283 83 is_stmt 0 view .LVU402
 2406 0024 20F01F03 		bic	r3, r0, #31
 2407              		.loc 1 1283 62 view .LVU403
 2408 0028 1249     		ldr	r1, .L224+4
 2409 002a 1944     		add	r1, r1, r3
 2410              	.LVL75:
 2411              	.L222:
1284:../../Drivers/STM32H7xx_HAL_Driver/Src/stm32h7xx_hal.c ****   }
1285:../../Drivers/STM32H7xx_HAL_Driver/Src/stm32h7xx_hal.c ****   else
1286:../../Drivers/STM32H7xx_HAL_Driver/Src/stm32h7xx_hal.c ****   {
1287:../../Drivers/STM32H7xx_HAL_Driver/Src/stm32h7xx_hal.c ****     pRegv = (__IO uint32_t *) (((uint32_t) &(EXTI->D3PCR1H)) + ((EXTI_Line >> 5 ) * 0x20UL));
1288:../../Drivers/STM32H7xx_HAL_Driver/Src/stm32h7xx_hal.c ****   }
1289:../../Drivers/STM32H7xx_HAL_Driver/Src/stm32h7xx_hal.c ****   MODIFY_REG(*pRegv, (uint32_t)(3UL << ((EXTI_Line*2UL) & 0x1FUL)), (uint32_t)(EXTI_ClearSrc << ((E
 2412              		.loc 1 1289 3 is_stmt 1 view .LVU404
 2413 002c 0B68     		ldr	r3, [r1]
 2414 002e 4000     		lsls	r0, r0, #1
 2415              	.LVL76:
 2416              		.loc 1 1289 3 is_stmt 0 view .LVU405
 2417 0030 00F01E00 		and	r0, r0, #30
 2418 0034 4FF0030C 		mov	ip, #3
 2419 0038 0CFA00FC 		lsl	ip, ip, r0
 2420 003c 23EA0C03 		bic	r3, r3, ip
 2421 0040 02FA00F0 		lsl	r0, r2, r0
 2422 0044 1843     		orrs	r0, r0, r3
 2423 0046 0860     		str	r0, [r1]
1290:../../Drivers/STM32H7xx_HAL_Driver/Src/stm32h7xx_hal.c **** 
1291:../../Drivers/STM32H7xx_HAL_Driver/Src/stm32h7xx_hal.c **** }
 2424              		.loc 1 1291 1 view .LVU406
 2425 0048 10BD     		pop	{r4, pc}
 2426              	.LVL77:
 2427              	.L219:
1278:../../Drivers/STM32H7xx_HAL_Driver/Src/stm32h7xx_hal.c ****   }
 2428              		.loc 1 1278 5 is_stmt 1 view .LVU407
 2429 004a 20F01F03 		bic	r3, r0, #31
 2430 004e 084C     		ldr	r4, .L224
 2431 0050 1959     		ldr	r1, [r3, r4]
 2432              	.LVL78:
1278:../../Drivers/STM32H7xx_HAL_Driver/Src/stm32h7xx_hal.c ****   }
 2433              		.loc 1 1278 5 is_stmt 0 view .LVU408
 2434 0052 00F01F0E 		and	lr, r0, #31
 2435 0056 4FF0010C 		mov	ip, #1
 2436 005a 0CFA0EFC 		lsl	ip, ip, lr
ARM GAS  /tmp/ccjOvRAM.s 			page 66


 2437 005e 41EA0C01 		orr	r1, r1, ip
 2438 0062 1951     		str	r1, [r3, r4]
 2439 0064 DBE7     		b	.L220
 2440              	.L221:
1287:../../Drivers/STM32H7xx_HAL_Driver/Src/stm32h7xx_hal.c ****   }
 2441              		.loc 1 1287 5 is_stmt 1 view .LVU409
1287:../../Drivers/STM32H7xx_HAL_Driver/Src/stm32h7xx_hal.c ****   }
 2442              		.loc 1 1287 83 is_stmt 0 view .LVU410
 2443 0066 20F01F03 		bic	r3, r0, #31
1287:../../Drivers/STM32H7xx_HAL_Driver/Src/stm32h7xx_hal.c ****   }
 2444              		.loc 1 1287 62 view .LVU411
 2445 006a 0349     		ldr	r1, .L224+8
 2446 006c 1944     		add	r1, r1, r3
 2447              	.LVL79:
1287:../../Drivers/STM32H7xx_HAL_Driver/Src/stm32h7xx_hal.c ****   }
 2448              		.loc 1 1287 62 view .LVU412
 2449 006e DDE7     		b	.L222
 2450              	.L225:
 2451              		.align	2
 2452              	.L224:
 2453 0070 0C000058 		.word	1476395020
 2454 0074 10000058 		.word	1476395024
 2455 0078 14000058 		.word	1476395028
 2456              		.cfi_endproc
 2457              	.LFE192:
 2459              		.global	uwTickFreq
 2460              		.global	uwTickPrio
 2461              		.global	uwTick
 2462              		.section	.bss.uwTick,"aw",%nobits
 2463              		.align	2
 2464              		.set	.LANCHOR2,. + 0
 2467              	uwTick:
 2468 0000 00000000 		.space	4
 2469              		.section	.data.uwTickFreq,"aw"
 2470              		.set	.LANCHOR0,. + 0
 2473              	uwTickFreq:
 2474 0000 01       		.byte	1
 2475              		.section	.data.uwTickPrio,"aw"
 2476              		.align	2
 2477              		.set	.LANCHOR1,. + 0
 2480              	uwTickPrio:
 2481 0000 10000000 		.word	16
 2482              		.text
 2483              	.Letext0:
 2484              		.file 2 "/usr/lib/gcc/arm-none-eabi/10.3.1/include/stdint.h"
 2485              		.file 3 "../../Drivers/CMSIS/Include/core_cm4.h"
 2486              		.file 4 "../../Drivers/CMSIS/Device/ST/STM32H7xx/Include/system_stm32h7xx.h"
 2487              		.file 5 "../../Drivers/CMSIS/Device/ST/STM32H7xx/Include/stm32h755xx.h"
 2488              		.file 6 "../../Drivers/STM32H7xx_HAL_Driver/Inc/stm32h7xx_hal_def.h"
 2489              		.file 7 "../../Drivers/STM32H7xx_HAL_Driver/Inc/stm32h7xx_hal.h"
 2490              		.file 8 "../../Drivers/STM32H7xx_HAL_Driver/Inc/stm32h7xx_hal_cortex.h"
 2491              		.file 9 "../../Drivers/STM32H7xx_HAL_Driver/Inc/stm32h7xx_hal_rcc.h"
ARM GAS  /tmp/ccjOvRAM.s 			page 67

