ARM GAS  /tmp/ccooDZtA.s 			page 1


   1              		.cpu cortex-m7
   2              		.eabi_attribute 28, 1
   3              		.eabi_attribute 20, 1
   4              		.eabi_attribute 21, 1
   5              		.eabi_attribute 23, 3
   6              		.eabi_attribute 24, 1
   7              		.eabi_attribute 25, 1
   8              		.eabi_attribute 26, 1
   9              		.eabi_attribute 30, 1
  10              		.eabi_attribute 34, 1
  11              		.eabi_attribute 18, 4
  12              		.file	"stm32h7xx_hal_rcc.c"
  13              		.text
  14              	.Ltext0:
  15              		.cfi_sections	.debug_frame
  16              		.section	.text.HAL_RCC_DeInit,"ax",%progbits
  17              		.align	1
  18              		.global	HAL_RCC_DeInit
  19              		.arch armv7e-m
  20              		.syntax unified
  21              		.thumb
  22              		.thumb_func
  23              		.fpu fpv5-d16
  25              	HAL_RCC_DeInit:
  26              	.LFB144:
  27              		.file 1 "../../Drivers/STM32H7xx_HAL_Driver/Src/stm32h7xx_hal_rcc.c"
   1:../../Drivers/STM32H7xx_HAL_Driver/Src/stm32h7xx_hal_rcc.c **** /**
   2:../../Drivers/STM32H7xx_HAL_Driver/Src/stm32h7xx_hal_rcc.c ****   ******************************************************************************
   3:../../Drivers/STM32H7xx_HAL_Driver/Src/stm32h7xx_hal_rcc.c ****   * @file    stm32h7xx_hal_rcc.c
   4:../../Drivers/STM32H7xx_HAL_Driver/Src/stm32h7xx_hal_rcc.c ****   * @author  MCD Application Team
   5:../../Drivers/STM32H7xx_HAL_Driver/Src/stm32h7xx_hal_rcc.c ****   * @brief   RCC HAL module driver.
   6:../../Drivers/STM32H7xx_HAL_Driver/Src/stm32h7xx_hal_rcc.c ****   *          This file provides firmware functions to manage the following
   7:../../Drivers/STM32H7xx_HAL_Driver/Src/stm32h7xx_hal_rcc.c ****   *          functionalities of the Reset and Clock Control (RCC) peripheral:
   8:../../Drivers/STM32H7xx_HAL_Driver/Src/stm32h7xx_hal_rcc.c ****   *           + Initialization and de-initialization functions
   9:../../Drivers/STM32H7xx_HAL_Driver/Src/stm32h7xx_hal_rcc.c ****   *           + Peripheral Control functions
  10:../../Drivers/STM32H7xx_HAL_Driver/Src/stm32h7xx_hal_rcc.c ****   *
  11:../../Drivers/STM32H7xx_HAL_Driver/Src/stm32h7xx_hal_rcc.c ****   @verbatim
  12:../../Drivers/STM32H7xx_HAL_Driver/Src/stm32h7xx_hal_rcc.c ****   ==============================================================================
  13:../../Drivers/STM32H7xx_HAL_Driver/Src/stm32h7xx_hal_rcc.c ****                       ##### RCC specific features #####
  14:../../Drivers/STM32H7xx_HAL_Driver/Src/stm32h7xx_hal_rcc.c ****   ==============================================================================
  15:../../Drivers/STM32H7xx_HAL_Driver/Src/stm32h7xx_hal_rcc.c ****     [..]
  16:../../Drivers/STM32H7xx_HAL_Driver/Src/stm32h7xx_hal_rcc.c ****       After reset the device is running from Internal High Speed oscillator
  17:../../Drivers/STM32H7xx_HAL_Driver/Src/stm32h7xx_hal_rcc.c ****       (HSI 64MHz) with Flash 0 wait state,and all peripherals are off except
  18:../../Drivers/STM32H7xx_HAL_Driver/Src/stm32h7xx_hal_rcc.c ****       internal SRAM, Flash, JTAG and PWR
  19:../../Drivers/STM32H7xx_HAL_Driver/Src/stm32h7xx_hal_rcc.c ****       (+) There is no pre-scaler on High speed (AHB) and Low speed (APB) buses;
  20:../../Drivers/STM32H7xx_HAL_Driver/Src/stm32h7xx_hal_rcc.c ****           all peripherals mapped on these buses are running at HSI speed.
  21:../../Drivers/STM32H7xx_HAL_Driver/Src/stm32h7xx_hal_rcc.c ****       (+) The clock for all peripherals is switched off, except the SRAM and FLASH.
  22:../../Drivers/STM32H7xx_HAL_Driver/Src/stm32h7xx_hal_rcc.c ****       (+) All GPIOs are in analogue mode , except the JTAG pins which
  23:../../Drivers/STM32H7xx_HAL_Driver/Src/stm32h7xx_hal_rcc.c ****           are assigned to be used for debug purpose.
  24:../../Drivers/STM32H7xx_HAL_Driver/Src/stm32h7xx_hal_rcc.c **** 
  25:../../Drivers/STM32H7xx_HAL_Driver/Src/stm32h7xx_hal_rcc.c ****     [..]
  26:../../Drivers/STM32H7xx_HAL_Driver/Src/stm32h7xx_hal_rcc.c ****       Once the device started from reset, the user application has to:
  27:../../Drivers/STM32H7xx_HAL_Driver/Src/stm32h7xx_hal_rcc.c ****       (+) Configure the clock source to be used to drive the System clock
  28:../../Drivers/STM32H7xx_HAL_Driver/Src/stm32h7xx_hal_rcc.c ****           (if the application needs higher frequency/performance)
  29:../../Drivers/STM32H7xx_HAL_Driver/Src/stm32h7xx_hal_rcc.c ****       (+) Configure the System clock frequency and Flash settings
  30:../../Drivers/STM32H7xx_HAL_Driver/Src/stm32h7xx_hal_rcc.c ****       (+) Configure the AHB and APB buses pre-scalers
  31:../../Drivers/STM32H7xx_HAL_Driver/Src/stm32h7xx_hal_rcc.c ****       (+) Enable the clock for the peripheral(s) to be used
ARM GAS  /tmp/ccooDZtA.s 			page 2


  32:../../Drivers/STM32H7xx_HAL_Driver/Src/stm32h7xx_hal_rcc.c ****       (+) Configure the clock kernel source(s) for peripherals which clocks are not
  33:../../Drivers/STM32H7xx_HAL_Driver/Src/stm32h7xx_hal_rcc.c ****           derived from the System clock through :RCC_D1CCIPR,RCC_D2CCIP1R,RCC_D2CCIP2R
  34:../../Drivers/STM32H7xx_HAL_Driver/Src/stm32h7xx_hal_rcc.c ****           and RCC_D3CCIPR registers
  35:../../Drivers/STM32H7xx_HAL_Driver/Src/stm32h7xx_hal_rcc.c **** 
  36:../../Drivers/STM32H7xx_HAL_Driver/Src/stm32h7xx_hal_rcc.c ****                       ##### RCC Limitations #####
  37:../../Drivers/STM32H7xx_HAL_Driver/Src/stm32h7xx_hal_rcc.c ****   ==============================================================================
  38:../../Drivers/STM32H7xx_HAL_Driver/Src/stm32h7xx_hal_rcc.c ****     [..]
  39:../../Drivers/STM32H7xx_HAL_Driver/Src/stm32h7xx_hal_rcc.c ****       A delay between an RCC peripheral clock enable and the effective peripheral
  40:../../Drivers/STM32H7xx_HAL_Driver/Src/stm32h7xx_hal_rcc.c ****       enabling should be taken into account in order to manage the peripheral read/write
  41:../../Drivers/STM32H7xx_HAL_Driver/Src/stm32h7xx_hal_rcc.c ****       from/to registers.
  42:../../Drivers/STM32H7xx_HAL_Driver/Src/stm32h7xx_hal_rcc.c ****       (+) This delay depends on the peripheral mapping.
  43:../../Drivers/STM32H7xx_HAL_Driver/Src/stm32h7xx_hal_rcc.c ****       (+) If peripheral is mapped on AHB: the delay is 2 AHB clock cycle
  44:../../Drivers/STM32H7xx_HAL_Driver/Src/stm32h7xx_hal_rcc.c ****           after the clock enable bit is set on the hardware register
  45:../../Drivers/STM32H7xx_HAL_Driver/Src/stm32h7xx_hal_rcc.c ****       (+) If peripheral is mapped on APB: the delay is 2 APB clock cycle
  46:../../Drivers/STM32H7xx_HAL_Driver/Src/stm32h7xx_hal_rcc.c ****           after the clock enable bit is set on the hardware register
  47:../../Drivers/STM32H7xx_HAL_Driver/Src/stm32h7xx_hal_rcc.c **** 
  48:../../Drivers/STM32H7xx_HAL_Driver/Src/stm32h7xx_hal_rcc.c ****     [..]
  49:../../Drivers/STM32H7xx_HAL_Driver/Src/stm32h7xx_hal_rcc.c ****       Implemented Workaround:
  50:../../Drivers/STM32H7xx_HAL_Driver/Src/stm32h7xx_hal_rcc.c ****       (+) For AHB & APB peripherals, a dummy read to the peripheral register has been
  51:../../Drivers/STM32H7xx_HAL_Driver/Src/stm32h7xx_hal_rcc.c ****           inserted in each __HAL_RCC_PPP_CLK_ENABLE() macro.
  52:../../Drivers/STM32H7xx_HAL_Driver/Src/stm32h7xx_hal_rcc.c **** 
  53:../../Drivers/STM32H7xx_HAL_Driver/Src/stm32h7xx_hal_rcc.c ****   @endverbatim
  54:../../Drivers/STM32H7xx_HAL_Driver/Src/stm32h7xx_hal_rcc.c ****  ******************************************************************************
  55:../../Drivers/STM32H7xx_HAL_Driver/Src/stm32h7xx_hal_rcc.c ****   * @attention
  56:../../Drivers/STM32H7xx_HAL_Driver/Src/stm32h7xx_hal_rcc.c ****   *
  57:../../Drivers/STM32H7xx_HAL_Driver/Src/stm32h7xx_hal_rcc.c ****   * Copyright (c) 2017 STMicroelectronics.
  58:../../Drivers/STM32H7xx_HAL_Driver/Src/stm32h7xx_hal_rcc.c ****   * All rights reserved.
  59:../../Drivers/STM32H7xx_HAL_Driver/Src/stm32h7xx_hal_rcc.c ****   *
  60:../../Drivers/STM32H7xx_HAL_Driver/Src/stm32h7xx_hal_rcc.c ****   * This software is licensed under terms that can be found in the LICENSE file in
  61:../../Drivers/STM32H7xx_HAL_Driver/Src/stm32h7xx_hal_rcc.c ****   * the root directory of this software component.
  62:../../Drivers/STM32H7xx_HAL_Driver/Src/stm32h7xx_hal_rcc.c ****   * If no LICENSE file comes with this software, it is provided AS-IS.
  63:../../Drivers/STM32H7xx_HAL_Driver/Src/stm32h7xx_hal_rcc.c ****   ******************************************************************************
  64:../../Drivers/STM32H7xx_HAL_Driver/Src/stm32h7xx_hal_rcc.c ****   */
  65:../../Drivers/STM32H7xx_HAL_Driver/Src/stm32h7xx_hal_rcc.c **** 
  66:../../Drivers/STM32H7xx_HAL_Driver/Src/stm32h7xx_hal_rcc.c **** /* Includes ------------------------------------------------------------------*/
  67:../../Drivers/STM32H7xx_HAL_Driver/Src/stm32h7xx_hal_rcc.c **** #include "stm32h7xx_hal.h"
  68:../../Drivers/STM32H7xx_HAL_Driver/Src/stm32h7xx_hal_rcc.c **** 
  69:../../Drivers/STM32H7xx_HAL_Driver/Src/stm32h7xx_hal_rcc.c **** /** @addtogroup STM32H7xx_HAL_Driver
  70:../../Drivers/STM32H7xx_HAL_Driver/Src/stm32h7xx_hal_rcc.c ****   * @{
  71:../../Drivers/STM32H7xx_HAL_Driver/Src/stm32h7xx_hal_rcc.c ****   */
  72:../../Drivers/STM32H7xx_HAL_Driver/Src/stm32h7xx_hal_rcc.c **** 
  73:../../Drivers/STM32H7xx_HAL_Driver/Src/stm32h7xx_hal_rcc.c **** /** @defgroup RCC  RCC
  74:../../Drivers/STM32H7xx_HAL_Driver/Src/stm32h7xx_hal_rcc.c ****   * @brief RCC HAL module driver
  75:../../Drivers/STM32H7xx_HAL_Driver/Src/stm32h7xx_hal_rcc.c ****   * @{
  76:../../Drivers/STM32H7xx_HAL_Driver/Src/stm32h7xx_hal_rcc.c ****   */
  77:../../Drivers/STM32H7xx_HAL_Driver/Src/stm32h7xx_hal_rcc.c **** 
  78:../../Drivers/STM32H7xx_HAL_Driver/Src/stm32h7xx_hal_rcc.c **** #ifdef HAL_RCC_MODULE_ENABLED
  79:../../Drivers/STM32H7xx_HAL_Driver/Src/stm32h7xx_hal_rcc.c **** 
  80:../../Drivers/STM32H7xx_HAL_Driver/Src/stm32h7xx_hal_rcc.c **** /* Private typedef -----------------------------------------------------------*/
  81:../../Drivers/STM32H7xx_HAL_Driver/Src/stm32h7xx_hal_rcc.c **** /* Private define ------------------------------------------------------------*/
  82:../../Drivers/STM32H7xx_HAL_Driver/Src/stm32h7xx_hal_rcc.c **** /* Private macro -------------------------------------------------------------*/
  83:../../Drivers/STM32H7xx_HAL_Driver/Src/stm32h7xx_hal_rcc.c **** /** @defgroup RCC_Private_Macros RCC Private Macros
  84:../../Drivers/STM32H7xx_HAL_Driver/Src/stm32h7xx_hal_rcc.c ****   * @{
  85:../../Drivers/STM32H7xx_HAL_Driver/Src/stm32h7xx_hal_rcc.c ****   */
  86:../../Drivers/STM32H7xx_HAL_Driver/Src/stm32h7xx_hal_rcc.c **** #define MCO1_CLK_ENABLE()     __HAL_RCC_GPIOA_CLK_ENABLE()
  87:../../Drivers/STM32H7xx_HAL_Driver/Src/stm32h7xx_hal_rcc.c **** #define MCO1_GPIO_PORT        GPIOA
  88:../../Drivers/STM32H7xx_HAL_Driver/Src/stm32h7xx_hal_rcc.c **** #define MCO1_PIN              GPIO_PIN_8
ARM GAS  /tmp/ccooDZtA.s 			page 3


  89:../../Drivers/STM32H7xx_HAL_Driver/Src/stm32h7xx_hal_rcc.c **** 
  90:../../Drivers/STM32H7xx_HAL_Driver/Src/stm32h7xx_hal_rcc.c **** #define MCO2_CLK_ENABLE()      __HAL_RCC_GPIOC_CLK_ENABLE()
  91:../../Drivers/STM32H7xx_HAL_Driver/Src/stm32h7xx_hal_rcc.c **** #define MCO2_GPIO_PORT         GPIOC
  92:../../Drivers/STM32H7xx_HAL_Driver/Src/stm32h7xx_hal_rcc.c **** #define MCO2_PIN               GPIO_PIN_9
  93:../../Drivers/STM32H7xx_HAL_Driver/Src/stm32h7xx_hal_rcc.c **** 
  94:../../Drivers/STM32H7xx_HAL_Driver/Src/stm32h7xx_hal_rcc.c **** /**
  95:../../Drivers/STM32H7xx_HAL_Driver/Src/stm32h7xx_hal_rcc.c ****   * @}
  96:../../Drivers/STM32H7xx_HAL_Driver/Src/stm32h7xx_hal_rcc.c ****   */
  97:../../Drivers/STM32H7xx_HAL_Driver/Src/stm32h7xx_hal_rcc.c **** /* Private variables ---------------------------------------------------------*/
  98:../../Drivers/STM32H7xx_HAL_Driver/Src/stm32h7xx_hal_rcc.c **** /** @defgroup RCC_Private_Variables RCC Private Variables
  99:../../Drivers/STM32H7xx_HAL_Driver/Src/stm32h7xx_hal_rcc.c ****   * @{
 100:../../Drivers/STM32H7xx_HAL_Driver/Src/stm32h7xx_hal_rcc.c ****   */
 101:../../Drivers/STM32H7xx_HAL_Driver/Src/stm32h7xx_hal_rcc.c **** 
 102:../../Drivers/STM32H7xx_HAL_Driver/Src/stm32h7xx_hal_rcc.c **** /**
 103:../../Drivers/STM32H7xx_HAL_Driver/Src/stm32h7xx_hal_rcc.c ****   * @}
 104:../../Drivers/STM32H7xx_HAL_Driver/Src/stm32h7xx_hal_rcc.c ****   */
 105:../../Drivers/STM32H7xx_HAL_Driver/Src/stm32h7xx_hal_rcc.c **** /* Private function prototypes -----------------------------------------------*/
 106:../../Drivers/STM32H7xx_HAL_Driver/Src/stm32h7xx_hal_rcc.c **** /* Exported functions --------------------------------------------------------*/
 107:../../Drivers/STM32H7xx_HAL_Driver/Src/stm32h7xx_hal_rcc.c **** 
 108:../../Drivers/STM32H7xx_HAL_Driver/Src/stm32h7xx_hal_rcc.c **** /** @defgroup RCC_Exported_Functions RCC Exported Functions
 109:../../Drivers/STM32H7xx_HAL_Driver/Src/stm32h7xx_hal_rcc.c ****   * @{
 110:../../Drivers/STM32H7xx_HAL_Driver/Src/stm32h7xx_hal_rcc.c ****   */
 111:../../Drivers/STM32H7xx_HAL_Driver/Src/stm32h7xx_hal_rcc.c **** 
 112:../../Drivers/STM32H7xx_HAL_Driver/Src/stm32h7xx_hal_rcc.c **** /** @defgroup RCC_Exported_Functions_Group1 Initialization and de-initialization functions
 113:../../Drivers/STM32H7xx_HAL_Driver/Src/stm32h7xx_hal_rcc.c ****  *  @brief    Initialization and Configuration functions
 114:../../Drivers/STM32H7xx_HAL_Driver/Src/stm32h7xx_hal_rcc.c ****  *
 115:../../Drivers/STM32H7xx_HAL_Driver/Src/stm32h7xx_hal_rcc.c **** @verbatim
 116:../../Drivers/STM32H7xx_HAL_Driver/Src/stm32h7xx_hal_rcc.c ****  ===============================================================================
 117:../../Drivers/STM32H7xx_HAL_Driver/Src/stm32h7xx_hal_rcc.c ****            ##### Initialization and de-initialization functions #####
 118:../../Drivers/STM32H7xx_HAL_Driver/Src/stm32h7xx_hal_rcc.c ****  ===============================================================================
 119:../../Drivers/STM32H7xx_HAL_Driver/Src/stm32h7xx_hal_rcc.c ****     [..]
 120:../../Drivers/STM32H7xx_HAL_Driver/Src/stm32h7xx_hal_rcc.c ****       This section provides functions allowing to configure the internal/external oscillators
 121:../../Drivers/STM32H7xx_HAL_Driver/Src/stm32h7xx_hal_rcc.c ****       (HSE, HSI, LSE,CSI, LSI,HSI48, PLL, CSS and MCO) and the System buses clocks (SYSCLK, AHB3, A
 122:../../Drivers/STM32H7xx_HAL_Driver/Src/stm32h7xx_hal_rcc.c ****        AHB2,AHB4,APB3, APB1L, APB1H, APB2, and APB4).
 123:../../Drivers/STM32H7xx_HAL_Driver/Src/stm32h7xx_hal_rcc.c **** 
 124:../../Drivers/STM32H7xx_HAL_Driver/Src/stm32h7xx_hal_rcc.c ****     [..] Internal/external clock and PLL configuration
 125:../../Drivers/STM32H7xx_HAL_Driver/Src/stm32h7xx_hal_rcc.c ****          (#) HSI (high-speed internal), 64 MHz factory-trimmed RC used directly or through
 126:../../Drivers/STM32H7xx_HAL_Driver/Src/stm32h7xx_hal_rcc.c ****              the PLL as System clock source.
 127:../../Drivers/STM32H7xx_HAL_Driver/Src/stm32h7xx_hal_rcc.c ****          (#) CSI is a low-power RC oscillator which can be used directly as system clock, periphera
 128:../../Drivers/STM32H7xx_HAL_Driver/Src/stm32h7xx_hal_rcc.c ****              clock, or PLL input.But even with frequency calibration, is less accurate than an
 129:../../Drivers/STM32H7xx_HAL_Driver/Src/stm32h7xx_hal_rcc.c ****              external crystal oscillator or ceramic resonator.
 130:../../Drivers/STM32H7xx_HAL_Driver/Src/stm32h7xx_hal_rcc.c ****          (#) LSI (low-speed internal), 32 KHz low consumption RC used as IWDG and/or RTC
 131:../../Drivers/STM32H7xx_HAL_Driver/Src/stm32h7xx_hal_rcc.c ****              clock source.
 132:../../Drivers/STM32H7xx_HAL_Driver/Src/stm32h7xx_hal_rcc.c **** 
 133:../../Drivers/STM32H7xx_HAL_Driver/Src/stm32h7xx_hal_rcc.c ****          (#) HSE (high-speed external), 4 to 48 MHz crystal oscillator used directly or
 134:../../Drivers/STM32H7xx_HAL_Driver/Src/stm32h7xx_hal_rcc.c ****              through the PLL as System clock source. Can be used also as RTC clock source.
 135:../../Drivers/STM32H7xx_HAL_Driver/Src/stm32h7xx_hal_rcc.c **** 
 136:../../Drivers/STM32H7xx_HAL_Driver/Src/stm32h7xx_hal_rcc.c ****          (#) LSE (low-speed external), 32 KHz oscillator used as RTC clock source.
 137:../../Drivers/STM32H7xx_HAL_Driver/Src/stm32h7xx_hal_rcc.c **** 
 138:../../Drivers/STM32H7xx_HAL_Driver/Src/stm32h7xx_hal_rcc.c ****          (#) PLL , The RCC features three independent PLLs (clocked by HSI , HSE or CSI),
 139:../../Drivers/STM32H7xx_HAL_Driver/Src/stm32h7xx_hal_rcc.c ****              featuring three different output clocks and able  to work either in integer or Fractio
 140:../../Drivers/STM32H7xx_HAL_Driver/Src/stm32h7xx_hal_rcc.c ****            (++) A main PLL, PLL1, which is generally used to provide clocks to the CPU
 141:../../Drivers/STM32H7xx_HAL_Driver/Src/stm32h7xx_hal_rcc.c ****                 and to some peripherals.
 142:../../Drivers/STM32H7xx_HAL_Driver/Src/stm32h7xx_hal_rcc.c ****            (++) Two dedicated PLLs, PLL2 and PLL3, which are used to generate the kernel clock for 
 143:../../Drivers/STM32H7xx_HAL_Driver/Src/stm32h7xx_hal_rcc.c **** 
 144:../../Drivers/STM32H7xx_HAL_Driver/Src/stm32h7xx_hal_rcc.c **** 
 145:../../Drivers/STM32H7xx_HAL_Driver/Src/stm32h7xx_hal_rcc.c ****          (#) CSS (Clock security system), once enabled and if a HSE clock failure occurs
ARM GAS  /tmp/ccooDZtA.s 			page 4


 146:../../Drivers/STM32H7xx_HAL_Driver/Src/stm32h7xx_hal_rcc.c ****             (HSE used directly or through PLL as System clock source), the System clock
 147:../../Drivers/STM32H7xx_HAL_Driver/Src/stm32h7xx_hal_rcc.c ****              is automatically switched to HSI and an interrupt is generated if enabled.
 148:../../Drivers/STM32H7xx_HAL_Driver/Src/stm32h7xx_hal_rcc.c ****              The interrupt is linked to the Cortex-M NMI (Non-Mask-able Interrupt)
 149:../../Drivers/STM32H7xx_HAL_Driver/Src/stm32h7xx_hal_rcc.c ****              exception vector.
 150:../../Drivers/STM32H7xx_HAL_Driver/Src/stm32h7xx_hal_rcc.c **** 
 151:../../Drivers/STM32H7xx_HAL_Driver/Src/stm32h7xx_hal_rcc.c ****          (#) MCO1 (micro controller clock output), used to output HSI, LSE, HSE, PLL1(PLL1_Q)
 152:../../Drivers/STM32H7xx_HAL_Driver/Src/stm32h7xx_hal_rcc.c ****              or HSI48 clock (through a configurable pre-scaler) on PA8 pin.
 153:../../Drivers/STM32H7xx_HAL_Driver/Src/stm32h7xx_hal_rcc.c **** 
 154:../../Drivers/STM32H7xx_HAL_Driver/Src/stm32h7xx_hal_rcc.c ****          (#) MCO2 (micro controller clock output), used to output HSE, PLL2(PLL2_P), SYSCLK,
 155:../../Drivers/STM32H7xx_HAL_Driver/Src/stm32h7xx_hal_rcc.c ****              LSI, CSI, or PLL1(PLL1_P) clock (through a configurable pre-scaler) on PC9 pin.
 156:../../Drivers/STM32H7xx_HAL_Driver/Src/stm32h7xx_hal_rcc.c **** 
 157:../../Drivers/STM32H7xx_HAL_Driver/Src/stm32h7xx_hal_rcc.c ****     [..] System, AHB and APB buses clocks configuration
 158:../../Drivers/STM32H7xx_HAL_Driver/Src/stm32h7xx_hal_rcc.c ****          (#) Several clock sources can be used to drive the System clock (SYSCLK): CSI,HSI,
 159:../../Drivers/STM32H7xx_HAL_Driver/Src/stm32h7xx_hal_rcc.c ****              HSE and PLL.
 160:../../Drivers/STM32H7xx_HAL_Driver/Src/stm32h7xx_hal_rcc.c ****              The AHB clock (HCLK) is derived from System core clock through configurable
 161:../../Drivers/STM32H7xx_HAL_Driver/Src/stm32h7xx_hal_rcc.c ****              pre-scaler and used to clock the CPU, memory and peripherals mapped
 162:../../Drivers/STM32H7xx_HAL_Driver/Src/stm32h7xx_hal_rcc.c ****              on AHB and APB bus of the 3 Domains (D1, D2, D3)* through configurable pre-scalers
 163:../../Drivers/STM32H7xx_HAL_Driver/Src/stm32h7xx_hal_rcc.c ****              and used to clock the peripherals mapped on these buses. You can use
 164:../../Drivers/STM32H7xx_HAL_Driver/Src/stm32h7xx_hal_rcc.c ****              "HAL_RCC_GetSysClockFreq()" function to retrieve system clock frequency.
 165:../../Drivers/STM32H7xx_HAL_Driver/Src/stm32h7xx_hal_rcc.c **** 
 166:../../Drivers/STM32H7xx_HAL_Driver/Src/stm32h7xx_hal_rcc.c ****          -@- All the peripheral clocks are derived from the System clock (SYSCLK) except those
 167:../../Drivers/STM32H7xx_HAL_Driver/Src/stm32h7xx_hal_rcc.c ****              with dual clock domain where kernel source clock could be selected through
 168:../../Drivers/STM32H7xx_HAL_Driver/Src/stm32h7xx_hal_rcc.c ****              RCC_D1CCIPR,RCC_D2CCIP1R,RCC_D2CCIP2R and RCC_D3CCIPR registers.
 169:../../Drivers/STM32H7xx_HAL_Driver/Src/stm32h7xx_hal_rcc.c **** 
 170:../../Drivers/STM32H7xx_HAL_Driver/Src/stm32h7xx_hal_rcc.c ****      (*) : 2 Domains (CD and SRD) for stm32h7a3xx and stm32h7b3xx family lines.
 171:../../Drivers/STM32H7xx_HAL_Driver/Src/stm32h7xx_hal_rcc.c **** @endverbatim
 172:../../Drivers/STM32H7xx_HAL_Driver/Src/stm32h7xx_hal_rcc.c ****   * @{
 173:../../Drivers/STM32H7xx_HAL_Driver/Src/stm32h7xx_hal_rcc.c ****   */
 174:../../Drivers/STM32H7xx_HAL_Driver/Src/stm32h7xx_hal_rcc.c **** 
 175:../../Drivers/STM32H7xx_HAL_Driver/Src/stm32h7xx_hal_rcc.c **** /**
 176:../../Drivers/STM32H7xx_HAL_Driver/Src/stm32h7xx_hal_rcc.c ****   * @brief  Resets the RCC clock configuration to the default reset state.
 177:../../Drivers/STM32H7xx_HAL_Driver/Src/stm32h7xx_hal_rcc.c ****   * @note   The default reset state of the clock configuration is given below:
 178:../../Drivers/STM32H7xx_HAL_Driver/Src/stm32h7xx_hal_rcc.c ****   *            - HSI ON and used as system clock source
 179:../../Drivers/STM32H7xx_HAL_Driver/Src/stm32h7xx_hal_rcc.c ****   *            - HSE, PLL1, PLL2 and PLL3 OFF
 180:../../Drivers/STM32H7xx_HAL_Driver/Src/stm32h7xx_hal_rcc.c ****   *            - AHB, APB Bus pre-scaler set to 1.
 181:../../Drivers/STM32H7xx_HAL_Driver/Src/stm32h7xx_hal_rcc.c ****   *            - CSS, MCO1 and MCO2 OFF
 182:../../Drivers/STM32H7xx_HAL_Driver/Src/stm32h7xx_hal_rcc.c ****   *            - All interrupts disabled
 183:../../Drivers/STM32H7xx_HAL_Driver/Src/stm32h7xx_hal_rcc.c ****   * @note   This function doesn't modify the configuration of the
 184:../../Drivers/STM32H7xx_HAL_Driver/Src/stm32h7xx_hal_rcc.c ****   *            - Peripheral clocks
 185:../../Drivers/STM32H7xx_HAL_Driver/Src/stm32h7xx_hal_rcc.c ****   *            - LSI, LSE and RTC clocks
 186:../../Drivers/STM32H7xx_HAL_Driver/Src/stm32h7xx_hal_rcc.c ****   * @retval HAL status
 187:../../Drivers/STM32H7xx_HAL_Driver/Src/stm32h7xx_hal_rcc.c ****   */
 188:../../Drivers/STM32H7xx_HAL_Driver/Src/stm32h7xx_hal_rcc.c **** HAL_StatusTypeDef HAL_RCC_DeInit(void)
 189:../../Drivers/STM32H7xx_HAL_Driver/Src/stm32h7xx_hal_rcc.c **** {
  28              		.loc 1 189 1 view -0
  29              		.cfi_startproc
  30              		@ args = 0, pretend = 0, frame = 0
  31              		@ frame_needed = 0, uses_anonymous_args = 0
  32 0000 38B5     		push	{r3, r4, r5, lr}
  33              	.LCFI0:
  34              		.cfi_def_cfa_offset 16
  35              		.cfi_offset 3, -16
  36              		.cfi_offset 4, -12
  37              		.cfi_offset 5, -8
  38              		.cfi_offset 14, -4
 190:../../Drivers/STM32H7xx_HAL_Driver/Src/stm32h7xx_hal_rcc.c ****   uint32_t tickstart;
  39              		.loc 1 190 3 view .LVU1
ARM GAS  /tmp/ccooDZtA.s 			page 5


 191:../../Drivers/STM32H7xx_HAL_Driver/Src/stm32h7xx_hal_rcc.c **** 
 192:../../Drivers/STM32H7xx_HAL_Driver/Src/stm32h7xx_hal_rcc.c ****   /* Increasing the CPU frequency */
 193:../../Drivers/STM32H7xx_HAL_Driver/Src/stm32h7xx_hal_rcc.c ****   if (FLASH_LATENCY_DEFAULT  > __HAL_FLASH_GET_LATENCY())
  40              		.loc 1 193 3 view .LVU2
  41              		.loc 1 193 32 is_stmt 0 view .LVU3
  42 0002 684B     		ldr	r3, .L33
  43 0004 1B68     		ldr	r3, [r3]
  44 0006 03F00F03 		and	r3, r3, #15
  45              		.loc 1 193 6 view .LVU4
  46 000a 062B     		cmp	r3, #6
  47 000c 0CD8     		bhi	.L2
 194:../../Drivers/STM32H7xx_HAL_Driver/Src/stm32h7xx_hal_rcc.c ****   {
 195:../../Drivers/STM32H7xx_HAL_Driver/Src/stm32h7xx_hal_rcc.c ****     /* Program the new number of wait states to the LATENCY bits in the FLASH_ACR register */
 196:../../Drivers/STM32H7xx_HAL_Driver/Src/stm32h7xx_hal_rcc.c ****     __HAL_FLASH_SET_LATENCY(FLASH_LATENCY_DEFAULT);
  48              		.loc 1 196 5 is_stmt 1 view .LVU5
  49 000e 654A     		ldr	r2, .L33
  50 0010 1368     		ldr	r3, [r2]
  51 0012 23F00F03 		bic	r3, r3, #15
  52 0016 43F00703 		orr	r3, r3, #7
  53 001a 1360     		str	r3, [r2]
 197:../../Drivers/STM32H7xx_HAL_Driver/Src/stm32h7xx_hal_rcc.c **** 
 198:../../Drivers/STM32H7xx_HAL_Driver/Src/stm32h7xx_hal_rcc.c ****     /* Check that the new number of wait states is taken into account to access the Flash
 199:../../Drivers/STM32H7xx_HAL_Driver/Src/stm32h7xx_hal_rcc.c ****     memory by reading the FLASH_ACR register */
 200:../../Drivers/STM32H7xx_HAL_Driver/Src/stm32h7xx_hal_rcc.c ****     if (__HAL_FLASH_GET_LATENCY() != FLASH_LATENCY_DEFAULT)
  54              		.loc 1 200 5 view .LVU6
  55              		.loc 1 200 9 is_stmt 0 view .LVU7
  56 001c 1368     		ldr	r3, [r2]
  57 001e 03F00F03 		and	r3, r3, #15
  58              		.loc 1 200 8 view .LVU8
  59 0022 072B     		cmp	r3, #7
  60 0024 40F0BA80 		bne	.L16
  61              	.L2:
 201:../../Drivers/STM32H7xx_HAL_Driver/Src/stm32h7xx_hal_rcc.c ****     {
 202:../../Drivers/STM32H7xx_HAL_Driver/Src/stm32h7xx_hal_rcc.c ****       return HAL_ERROR;
 203:../../Drivers/STM32H7xx_HAL_Driver/Src/stm32h7xx_hal_rcc.c ****     }
 204:../../Drivers/STM32H7xx_HAL_Driver/Src/stm32h7xx_hal_rcc.c **** 
 205:../../Drivers/STM32H7xx_HAL_Driver/Src/stm32h7xx_hal_rcc.c ****   }
 206:../../Drivers/STM32H7xx_HAL_Driver/Src/stm32h7xx_hal_rcc.c **** 
 207:../../Drivers/STM32H7xx_HAL_Driver/Src/stm32h7xx_hal_rcc.c **** 
 208:../../Drivers/STM32H7xx_HAL_Driver/Src/stm32h7xx_hal_rcc.c ****   /* Get Start Tick */
 209:../../Drivers/STM32H7xx_HAL_Driver/Src/stm32h7xx_hal_rcc.c ****   tickstart = HAL_GetTick();
  62              		.loc 1 209 3 is_stmt 1 view .LVU9
  63              		.loc 1 209 15 is_stmt 0 view .LVU10
  64 0028 FFF7FEFF 		bl	HAL_GetTick
  65              	.LVL0:
  66 002c 0446     		mov	r4, r0
  67              	.LVL1:
 210:../../Drivers/STM32H7xx_HAL_Driver/Src/stm32h7xx_hal_rcc.c **** 
 211:../../Drivers/STM32H7xx_HAL_Driver/Src/stm32h7xx_hal_rcc.c ****   /* Set HSION bit */
 212:../../Drivers/STM32H7xx_HAL_Driver/Src/stm32h7xx_hal_rcc.c ****   SET_BIT(RCC->CR, RCC_CR_HSION);
  68              		.loc 1 212 3 is_stmt 1 view .LVU11
  69 002e 5E4A     		ldr	r2, .L33+4
  70 0030 1368     		ldr	r3, [r2]
  71 0032 43F00103 		orr	r3, r3, #1
  72 0036 1360     		str	r3, [r2]
 213:../../Drivers/STM32H7xx_HAL_Driver/Src/stm32h7xx_hal_rcc.c **** 
 214:../../Drivers/STM32H7xx_HAL_Driver/Src/stm32h7xx_hal_rcc.c ****   /* Wait till HSI is ready */
ARM GAS  /tmp/ccooDZtA.s 			page 6


 215:../../Drivers/STM32H7xx_HAL_Driver/Src/stm32h7xx_hal_rcc.c ****   while (READ_BIT(RCC->CR, RCC_CR_HSIRDY) == 0U)
  73              		.loc 1 215 3 view .LVU12
  74              	.LVL2:
  75              	.L4:
  76              		.loc 1 215 9 view .LVU13
  77              		.loc 1 215 10 is_stmt 0 view .LVU14
  78 0038 5B4B     		ldr	r3, .L33+4
  79 003a 1B68     		ldr	r3, [r3]
  80              		.loc 1 215 9 view .LVU15
  81 003c 13F0040F 		tst	r3, #4
  82 0040 06D1     		bne	.L26
 216:../../Drivers/STM32H7xx_HAL_Driver/Src/stm32h7xx_hal_rcc.c ****   {
 217:../../Drivers/STM32H7xx_HAL_Driver/Src/stm32h7xx_hal_rcc.c ****     if ((HAL_GetTick() - tickstart) > HSI_TIMEOUT_VALUE)
  83              		.loc 1 217 5 is_stmt 1 view .LVU16
  84              		.loc 1 217 10 is_stmt 0 view .LVU17
  85 0042 FFF7FEFF 		bl	HAL_GetTick
  86              	.LVL3:
  87              		.loc 1 217 24 view .LVU18
  88 0046 001B     		subs	r0, r0, r4
  89              		.loc 1 217 8 view .LVU19
  90 0048 0228     		cmp	r0, #2
  91 004a F5D9     		bls	.L4
 218:../../Drivers/STM32H7xx_HAL_Driver/Src/stm32h7xx_hal_rcc.c ****     {
 219:../../Drivers/STM32H7xx_HAL_Driver/Src/stm32h7xx_hal_rcc.c ****       return HAL_TIMEOUT;
  92              		.loc 1 219 14 view .LVU20
  93 004c 0324     		movs	r4, #3
  94              	.LVL4:
  95              		.loc 1 219 14 view .LVU21
  96 004e A6E0     		b	.L3
  97              	.LVL5:
  98              	.L26:
 220:../../Drivers/STM32H7xx_HAL_Driver/Src/stm32h7xx_hal_rcc.c ****     }
 221:../../Drivers/STM32H7xx_HAL_Driver/Src/stm32h7xx_hal_rcc.c ****   }
 222:../../Drivers/STM32H7xx_HAL_Driver/Src/stm32h7xx_hal_rcc.c **** 
 223:../../Drivers/STM32H7xx_HAL_Driver/Src/stm32h7xx_hal_rcc.c ****   /* Set HSITRIM[6:0] bits to the reset value */
 224:../../Drivers/STM32H7xx_HAL_Driver/Src/stm32h7xx_hal_rcc.c ****   SET_BIT(RCC->HSICFGR, RCC_HSICFGR_HSITRIM_6);
  99              		.loc 1 224 3 is_stmt 1 view .LVU22
 100 0050 554B     		ldr	r3, .L33+4
 101 0052 5A68     		ldr	r2, [r3, #4]
 102 0054 42F08042 		orr	r2, r2, #1073741824
 103 0058 5A60     		str	r2, [r3, #4]
 225:../../Drivers/STM32H7xx_HAL_Driver/Src/stm32h7xx_hal_rcc.c **** 
 226:../../Drivers/STM32H7xx_HAL_Driver/Src/stm32h7xx_hal_rcc.c ****   /* Reset CFGR register */
 227:../../Drivers/STM32H7xx_HAL_Driver/Src/stm32h7xx_hal_rcc.c ****   CLEAR_REG(RCC->CFGR);
 104              		.loc 1 227 3 view .LVU23
 105 005a 0022     		movs	r2, #0
 106 005c 1A61     		str	r2, [r3, #16]
 228:../../Drivers/STM32H7xx_HAL_Driver/Src/stm32h7xx_hal_rcc.c **** 
 229:../../Drivers/STM32H7xx_HAL_Driver/Src/stm32h7xx_hal_rcc.c ****   /* Update the SystemCoreClock and SystemD2Clock global variables */
 230:../../Drivers/STM32H7xx_HAL_Driver/Src/stm32h7xx_hal_rcc.c ****   SystemCoreClock = HSI_VALUE;
 107              		.loc 1 230 3 view .LVU24
 108              		.loc 1 230 19 is_stmt 0 view .LVU25
 109 005e 534B     		ldr	r3, .L33+8
 110 0060 534A     		ldr	r2, .L33+12
 111 0062 1360     		str	r3, [r2]
 231:../../Drivers/STM32H7xx_HAL_Driver/Src/stm32h7xx_hal_rcc.c ****   SystemD2Clock = HSI_VALUE;
 112              		.loc 1 231 3 is_stmt 1 view .LVU26
ARM GAS  /tmp/ccooDZtA.s 			page 7


 113              		.loc 1 231 17 is_stmt 0 view .LVU27
 114 0064 534A     		ldr	r2, .L33+16
 115 0066 1360     		str	r3, [r2]
 232:../../Drivers/STM32H7xx_HAL_Driver/Src/stm32h7xx_hal_rcc.c **** 
 233:../../Drivers/STM32H7xx_HAL_Driver/Src/stm32h7xx_hal_rcc.c ****   /* Adapt Systick interrupt period */
 234:../../Drivers/STM32H7xx_HAL_Driver/Src/stm32h7xx_hal_rcc.c ****   if (HAL_InitTick(uwTickPrio) != HAL_OK)
 116              		.loc 1 234 3 is_stmt 1 view .LVU28
 117              		.loc 1 234 7 is_stmt 0 view .LVU29
 118 0068 534B     		ldr	r3, .L33+20
 119 006a 1868     		ldr	r0, [r3]
 120 006c FFF7FEFF 		bl	HAL_InitTick
 121              	.LVL6:
 122              		.loc 1 234 6 view .LVU30
 123 0070 0446     		mov	r4, r0
 124              	.LVL7:
 125              		.loc 1 234 6 view .LVU31
 126 0072 08B1     		cbz	r0, .L27
 235:../../Drivers/STM32H7xx_HAL_Driver/Src/stm32h7xx_hal_rcc.c ****   {
 236:../../Drivers/STM32H7xx_HAL_Driver/Src/stm32h7xx_hal_rcc.c ****     return HAL_ERROR;
 127              		.loc 1 236 12 view .LVU32
 128 0074 0124     		movs	r4, #1
 129 0076 92E0     		b	.L3
 130              	.L27:
 237:../../Drivers/STM32H7xx_HAL_Driver/Src/stm32h7xx_hal_rcc.c ****   }
 238:../../Drivers/STM32H7xx_HAL_Driver/Src/stm32h7xx_hal_rcc.c **** 
 239:../../Drivers/STM32H7xx_HAL_Driver/Src/stm32h7xx_hal_rcc.c ****   /* Get Start Tick */
 240:../../Drivers/STM32H7xx_HAL_Driver/Src/stm32h7xx_hal_rcc.c ****   tickstart = HAL_GetTick();
 131              		.loc 1 240 3 is_stmt 1 view .LVU33
 132              		.loc 1 240 15 is_stmt 0 view .LVU34
 133 0078 FFF7FEFF 		bl	HAL_GetTick
 134              	.LVL8:
 135 007c 0546     		mov	r5, r0
 136              	.LVL9:
 241:../../Drivers/STM32H7xx_HAL_Driver/Src/stm32h7xx_hal_rcc.c **** 
 242:../../Drivers/STM32H7xx_HAL_Driver/Src/stm32h7xx_hal_rcc.c ****   /* Wait till clock switch is ready */
 243:../../Drivers/STM32H7xx_HAL_Driver/Src/stm32h7xx_hal_rcc.c ****   while (READ_BIT(RCC->CFGR, RCC_CFGR_SWS) != 0U)
 137              		.loc 1 243 3 is_stmt 1 view .LVU35
 138              	.L6:
 139              		.loc 1 243 9 view .LVU36
 140              		.loc 1 243 10 is_stmt 0 view .LVU37
 141 007e 4A4B     		ldr	r3, .L33+4
 142 0080 1B69     		ldr	r3, [r3, #16]
 143              		.loc 1 243 9 view .LVU38
 144 0082 13F0380F 		tst	r3, #56
 145 0086 08D0     		beq	.L28
 244:../../Drivers/STM32H7xx_HAL_Driver/Src/stm32h7xx_hal_rcc.c ****   {
 245:../../Drivers/STM32H7xx_HAL_Driver/Src/stm32h7xx_hal_rcc.c ****     if ((HAL_GetTick() - tickstart) > CLOCKSWITCH_TIMEOUT_VALUE)
 146              		.loc 1 245 5 is_stmt 1 view .LVU39
 147              		.loc 1 245 10 is_stmt 0 view .LVU40
 148 0088 FFF7FEFF 		bl	HAL_GetTick
 149              	.LVL10:
 150              		.loc 1 245 24 view .LVU41
 151 008c 401B     		subs	r0, r0, r5
 152              		.loc 1 245 8 view .LVU42
 153 008e 41F28833 		movw	r3, #5000
 154 0092 9842     		cmp	r0, r3
 155 0094 F3D9     		bls	.L6
ARM GAS  /tmp/ccooDZtA.s 			page 8


 246:../../Drivers/STM32H7xx_HAL_Driver/Src/stm32h7xx_hal_rcc.c ****     {
 247:../../Drivers/STM32H7xx_HAL_Driver/Src/stm32h7xx_hal_rcc.c ****       return HAL_TIMEOUT;
 156              		.loc 1 247 14 view .LVU43
 157 0096 0324     		movs	r4, #3
 158 0098 81E0     		b	.L3
 159              	.L28:
 248:../../Drivers/STM32H7xx_HAL_Driver/Src/stm32h7xx_hal_rcc.c ****     }
 249:../../Drivers/STM32H7xx_HAL_Driver/Src/stm32h7xx_hal_rcc.c ****   }
 250:../../Drivers/STM32H7xx_HAL_Driver/Src/stm32h7xx_hal_rcc.c **** 
 251:../../Drivers/STM32H7xx_HAL_Driver/Src/stm32h7xx_hal_rcc.c ****   /* Get Start Tick */
 252:../../Drivers/STM32H7xx_HAL_Driver/Src/stm32h7xx_hal_rcc.c ****   tickstart = HAL_GetTick();
 160              		.loc 1 252 3 is_stmt 1 view .LVU44
 161              		.loc 1 252 15 is_stmt 0 view .LVU45
 162 009a FFF7FEFF 		bl	HAL_GetTick
 163              	.LVL11:
 164 009e 0546     		mov	r5, r0
 165              	.LVL12:
 253:../../Drivers/STM32H7xx_HAL_Driver/Src/stm32h7xx_hal_rcc.c **** 
 254:../../Drivers/STM32H7xx_HAL_Driver/Src/stm32h7xx_hal_rcc.c ****   /* Reset CSION, CSIKERON, HSEON, HSI48ON, HSECSSON, HSIDIV bits */
 255:../../Drivers/STM32H7xx_HAL_Driver/Src/stm32h7xx_hal_rcc.c ****   CLEAR_BIT(RCC->CR, RCC_CR_HSEON | RCC_CR_HSIKERON | RCC_CR_HSIDIV | RCC_CR_HSIDIVF | RCC_CR_CSION
 166              		.loc 1 255 3 is_stmt 1 view .LVU46
 167 00a0 414A     		ldr	r2, .L33+4
 168 00a2 1168     		ldr	r1, [r2]
 169 00a4 454B     		ldr	r3, .L33+24
 170 00a6 0B40     		ands	r3, r3, r1
 171 00a8 1360     		str	r3, [r2]
 256:../../Drivers/STM32H7xx_HAL_Driver/Src/stm32h7xx_hal_rcc.c ****             | RCC_CR_HSI48ON | RCC_CR_CSSHSEON);
 257:../../Drivers/STM32H7xx_HAL_Driver/Src/stm32h7xx_hal_rcc.c **** 
 258:../../Drivers/STM32H7xx_HAL_Driver/Src/stm32h7xx_hal_rcc.c ****   /* Wait till HSE is disabled */
 259:../../Drivers/STM32H7xx_HAL_Driver/Src/stm32h7xx_hal_rcc.c ****   while (READ_BIT(RCC->CR, RCC_CR_HSERDY) != 0U)
 172              		.loc 1 259 3 view .LVU47
 173              	.LVL13:
 174              	.L8:
 175              		.loc 1 259 9 view .LVU48
 176              		.loc 1 259 10 is_stmt 0 view .LVU49
 177 00aa 3F4B     		ldr	r3, .L33+4
 178 00ac 1B68     		ldr	r3, [r3]
 179              		.loc 1 259 9 view .LVU50
 180 00ae 13F4003F 		tst	r3, #131072
 181 00b2 06D0     		beq	.L29
 260:../../Drivers/STM32H7xx_HAL_Driver/Src/stm32h7xx_hal_rcc.c ****   {
 261:../../Drivers/STM32H7xx_HAL_Driver/Src/stm32h7xx_hal_rcc.c ****     if ((HAL_GetTick() - tickstart) > HSE_TIMEOUT_VALUE)
 182              		.loc 1 261 5 is_stmt 1 view .LVU51
 183              		.loc 1 261 10 is_stmt 0 view .LVU52
 184 00b4 FFF7FEFF 		bl	HAL_GetTick
 185              	.LVL14:
 186              		.loc 1 261 24 view .LVU53
 187 00b8 401B     		subs	r0, r0, r5
 188              		.loc 1 261 8 view .LVU54
 189 00ba 6428     		cmp	r0, #100
 190 00bc F5D9     		bls	.L8
 262:../../Drivers/STM32H7xx_HAL_Driver/Src/stm32h7xx_hal_rcc.c ****     {
 263:../../Drivers/STM32H7xx_HAL_Driver/Src/stm32h7xx_hal_rcc.c ****       return HAL_TIMEOUT;
 191              		.loc 1 263 14 view .LVU55
 192 00be 0324     		movs	r4, #3
 193 00c0 6DE0     		b	.L3
 194              	.L29:
ARM GAS  /tmp/ccooDZtA.s 			page 9


 264:../../Drivers/STM32H7xx_HAL_Driver/Src/stm32h7xx_hal_rcc.c ****     }
 265:../../Drivers/STM32H7xx_HAL_Driver/Src/stm32h7xx_hal_rcc.c ****   }
 266:../../Drivers/STM32H7xx_HAL_Driver/Src/stm32h7xx_hal_rcc.c **** 
 267:../../Drivers/STM32H7xx_HAL_Driver/Src/stm32h7xx_hal_rcc.c ****   /* Get Start Tick */
 268:../../Drivers/STM32H7xx_HAL_Driver/Src/stm32h7xx_hal_rcc.c ****   tickstart = HAL_GetTick();
 195              		.loc 1 268 3 is_stmt 1 view .LVU56
 196              		.loc 1 268 15 is_stmt 0 view .LVU57
 197 00c2 FFF7FEFF 		bl	HAL_GetTick
 198              	.LVL15:
 199 00c6 0546     		mov	r5, r0
 200              	.LVL16:
 269:../../Drivers/STM32H7xx_HAL_Driver/Src/stm32h7xx_hal_rcc.c **** 
 270:../../Drivers/STM32H7xx_HAL_Driver/Src/stm32h7xx_hal_rcc.c ****   /* Clear PLLON bit */
 271:../../Drivers/STM32H7xx_HAL_Driver/Src/stm32h7xx_hal_rcc.c ****   CLEAR_BIT(RCC->CR, RCC_CR_PLL1ON);
 201              		.loc 1 271 3 is_stmt 1 view .LVU58
 202 00c8 374A     		ldr	r2, .L33+4
 203 00ca 1368     		ldr	r3, [r2]
 204 00cc 23F08073 		bic	r3, r3, #16777216
 205 00d0 1360     		str	r3, [r2]
 272:../../Drivers/STM32H7xx_HAL_Driver/Src/stm32h7xx_hal_rcc.c **** 
 273:../../Drivers/STM32H7xx_HAL_Driver/Src/stm32h7xx_hal_rcc.c ****   /* Wait till PLL is disabled */
 274:../../Drivers/STM32H7xx_HAL_Driver/Src/stm32h7xx_hal_rcc.c ****   while (READ_BIT(RCC->CR, RCC_CR_PLL1RDY) != 0U)
 206              		.loc 1 274 3 view .LVU59
 207              	.LVL17:
 208              	.L10:
 209              		.loc 1 274 9 view .LVU60
 210              		.loc 1 274 10 is_stmt 0 view .LVU61
 211 00d2 354B     		ldr	r3, .L33+4
 212 00d4 1B68     		ldr	r3, [r3]
 213              		.loc 1 274 9 view .LVU62
 214 00d6 13F0007F 		tst	r3, #33554432
 215 00da 06D0     		beq	.L30
 275:../../Drivers/STM32H7xx_HAL_Driver/Src/stm32h7xx_hal_rcc.c ****   {
 276:../../Drivers/STM32H7xx_HAL_Driver/Src/stm32h7xx_hal_rcc.c ****     if ((HAL_GetTick() - tickstart) > PLL_TIMEOUT_VALUE)
 216              		.loc 1 276 5 is_stmt 1 view .LVU63
 217              		.loc 1 276 10 is_stmt 0 view .LVU64
 218 00dc FFF7FEFF 		bl	HAL_GetTick
 219              	.LVL18:
 220              		.loc 1 276 24 view .LVU65
 221 00e0 401B     		subs	r0, r0, r5
 222              		.loc 1 276 8 view .LVU66
 223 00e2 0228     		cmp	r0, #2
 224 00e4 F5D9     		bls	.L10
 277:../../Drivers/STM32H7xx_HAL_Driver/Src/stm32h7xx_hal_rcc.c ****     {
 278:../../Drivers/STM32H7xx_HAL_Driver/Src/stm32h7xx_hal_rcc.c ****       return HAL_TIMEOUT;
 225              		.loc 1 278 14 view .LVU67
 226 00e6 0324     		movs	r4, #3
 227 00e8 59E0     		b	.L3
 228              	.L30:
 279:../../Drivers/STM32H7xx_HAL_Driver/Src/stm32h7xx_hal_rcc.c ****     }
 280:../../Drivers/STM32H7xx_HAL_Driver/Src/stm32h7xx_hal_rcc.c ****   }
 281:../../Drivers/STM32H7xx_HAL_Driver/Src/stm32h7xx_hal_rcc.c **** 
 282:../../Drivers/STM32H7xx_HAL_Driver/Src/stm32h7xx_hal_rcc.c ****   /* Get Start Tick */
 283:../../Drivers/STM32H7xx_HAL_Driver/Src/stm32h7xx_hal_rcc.c ****   tickstart = HAL_GetTick();
 229              		.loc 1 283 3 is_stmt 1 view .LVU68
 230              		.loc 1 283 15 is_stmt 0 view .LVU69
 231 00ea FFF7FEFF 		bl	HAL_GetTick
ARM GAS  /tmp/ccooDZtA.s 			page 10


 232              	.LVL19:
 233 00ee 0546     		mov	r5, r0
 234              	.LVL20:
 284:../../Drivers/STM32H7xx_HAL_Driver/Src/stm32h7xx_hal_rcc.c **** 
 285:../../Drivers/STM32H7xx_HAL_Driver/Src/stm32h7xx_hal_rcc.c ****   /* Reset PLL2ON bit */
 286:../../Drivers/STM32H7xx_HAL_Driver/Src/stm32h7xx_hal_rcc.c ****   CLEAR_BIT(RCC->CR, RCC_CR_PLL2ON);
 235              		.loc 1 286 3 is_stmt 1 view .LVU70
 236 00f0 2D4A     		ldr	r2, .L33+4
 237 00f2 1368     		ldr	r3, [r2]
 238 00f4 23F08063 		bic	r3, r3, #67108864
 239 00f8 1360     		str	r3, [r2]
 287:../../Drivers/STM32H7xx_HAL_Driver/Src/stm32h7xx_hal_rcc.c **** 
 288:../../Drivers/STM32H7xx_HAL_Driver/Src/stm32h7xx_hal_rcc.c ****   /* Wait till PLL2 is disabled */
 289:../../Drivers/STM32H7xx_HAL_Driver/Src/stm32h7xx_hal_rcc.c ****   while (READ_BIT(RCC->CR, RCC_CR_PLL2RDY) != 0U)
 240              		.loc 1 289 3 view .LVU71
 241              	.LVL21:
 242              	.L12:
 243              		.loc 1 289 9 view .LVU72
 244              		.loc 1 289 10 is_stmt 0 view .LVU73
 245 00fa 2B4B     		ldr	r3, .L33+4
 246 00fc 1B68     		ldr	r3, [r3]
 247              		.loc 1 289 9 view .LVU74
 248 00fe 13F0006F 		tst	r3, #134217728
 249 0102 06D0     		beq	.L31
 290:../../Drivers/STM32H7xx_HAL_Driver/Src/stm32h7xx_hal_rcc.c ****   {
 291:../../Drivers/STM32H7xx_HAL_Driver/Src/stm32h7xx_hal_rcc.c ****     if ((HAL_GetTick() - tickstart) > PLL_TIMEOUT_VALUE)
 250              		.loc 1 291 5 is_stmt 1 view .LVU75
 251              		.loc 1 291 10 is_stmt 0 view .LVU76
 252 0104 FFF7FEFF 		bl	HAL_GetTick
 253              	.LVL22:
 254              		.loc 1 291 24 view .LVU77
 255 0108 401B     		subs	r0, r0, r5
 256              		.loc 1 291 8 view .LVU78
 257 010a 0228     		cmp	r0, #2
 258 010c F5D9     		bls	.L12
 292:../../Drivers/STM32H7xx_HAL_Driver/Src/stm32h7xx_hal_rcc.c ****     {
 293:../../Drivers/STM32H7xx_HAL_Driver/Src/stm32h7xx_hal_rcc.c ****       return HAL_TIMEOUT;
 259              		.loc 1 293 14 view .LVU79
 260 010e 0324     		movs	r4, #3
 261 0110 45E0     		b	.L3
 262              	.L31:
 294:../../Drivers/STM32H7xx_HAL_Driver/Src/stm32h7xx_hal_rcc.c ****     }
 295:../../Drivers/STM32H7xx_HAL_Driver/Src/stm32h7xx_hal_rcc.c ****   }
 296:../../Drivers/STM32H7xx_HAL_Driver/Src/stm32h7xx_hal_rcc.c **** 
 297:../../Drivers/STM32H7xx_HAL_Driver/Src/stm32h7xx_hal_rcc.c ****   /* Get Start Tick */
 298:../../Drivers/STM32H7xx_HAL_Driver/Src/stm32h7xx_hal_rcc.c ****   tickstart = HAL_GetTick();
 263              		.loc 1 298 3 is_stmt 1 view .LVU80
 264              		.loc 1 298 15 is_stmt 0 view .LVU81
 265 0112 FFF7FEFF 		bl	HAL_GetTick
 266              	.LVL23:
 267 0116 0546     		mov	r5, r0
 268              	.LVL24:
 299:../../Drivers/STM32H7xx_HAL_Driver/Src/stm32h7xx_hal_rcc.c **** 
 300:../../Drivers/STM32H7xx_HAL_Driver/Src/stm32h7xx_hal_rcc.c ****   /* Reset PLL3 bit */
 301:../../Drivers/STM32H7xx_HAL_Driver/Src/stm32h7xx_hal_rcc.c ****   CLEAR_BIT(RCC->CR, RCC_CR_PLL3ON);
 269              		.loc 1 301 3 is_stmt 1 view .LVU82
 270 0118 234A     		ldr	r2, .L33+4
ARM GAS  /tmp/ccooDZtA.s 			page 11


 271 011a 1368     		ldr	r3, [r2]
 272 011c 23F08053 		bic	r3, r3, #268435456
 273 0120 1360     		str	r3, [r2]
 302:../../Drivers/STM32H7xx_HAL_Driver/Src/stm32h7xx_hal_rcc.c **** 
 303:../../Drivers/STM32H7xx_HAL_Driver/Src/stm32h7xx_hal_rcc.c ****   /* Wait till PLL3 is disabled */
 304:../../Drivers/STM32H7xx_HAL_Driver/Src/stm32h7xx_hal_rcc.c ****   while (READ_BIT(RCC->CR, RCC_CR_PLL3RDY) != 0U)
 274              		.loc 1 304 3 view .LVU83
 275              	.LVL25:
 276              	.L14:
 277              		.loc 1 304 9 view .LVU84
 278              		.loc 1 304 10 is_stmt 0 view .LVU85
 279 0122 214B     		ldr	r3, .L33+4
 280 0124 1B68     		ldr	r3, [r3]
 281              		.loc 1 304 9 view .LVU86
 282 0126 13F0005F 		tst	r3, #536870912
 283 012a 06D0     		beq	.L32
 305:../../Drivers/STM32H7xx_HAL_Driver/Src/stm32h7xx_hal_rcc.c ****   {
 306:../../Drivers/STM32H7xx_HAL_Driver/Src/stm32h7xx_hal_rcc.c ****     if ((HAL_GetTick() - tickstart) > PLL_TIMEOUT_VALUE)
 284              		.loc 1 306 5 is_stmt 1 view .LVU87
 285              		.loc 1 306 10 is_stmt 0 view .LVU88
 286 012c FFF7FEFF 		bl	HAL_GetTick
 287              	.LVL26:
 288              		.loc 1 306 24 view .LVU89
 289 0130 401B     		subs	r0, r0, r5
 290              		.loc 1 306 8 view .LVU90
 291 0132 0228     		cmp	r0, #2
 292 0134 F5D9     		bls	.L14
 307:../../Drivers/STM32H7xx_HAL_Driver/Src/stm32h7xx_hal_rcc.c ****     {
 308:../../Drivers/STM32H7xx_HAL_Driver/Src/stm32h7xx_hal_rcc.c ****       return HAL_TIMEOUT;
 293              		.loc 1 308 14 view .LVU91
 294 0136 0324     		movs	r4, #3
 295 0138 31E0     		b	.L3
 296              	.L32:
 309:../../Drivers/STM32H7xx_HAL_Driver/Src/stm32h7xx_hal_rcc.c ****     }
 310:../../Drivers/STM32H7xx_HAL_Driver/Src/stm32h7xx_hal_rcc.c ****   }
 311:../../Drivers/STM32H7xx_HAL_Driver/Src/stm32h7xx_hal_rcc.c **** 
 312:../../Drivers/STM32H7xx_HAL_Driver/Src/stm32h7xx_hal_rcc.c **** #if defined(RCC_D1CFGR_HPRE)
 313:../../Drivers/STM32H7xx_HAL_Driver/Src/stm32h7xx_hal_rcc.c ****   /* Reset D1CFGR register */
 314:../../Drivers/STM32H7xx_HAL_Driver/Src/stm32h7xx_hal_rcc.c ****   CLEAR_REG(RCC->D1CFGR);
 297              		.loc 1 314 3 is_stmt 1 view .LVU92
 298 013a 1B4B     		ldr	r3, .L33+4
 299 013c 0022     		movs	r2, #0
 300 013e 9A61     		str	r2, [r3, #24]
 315:../../Drivers/STM32H7xx_HAL_Driver/Src/stm32h7xx_hal_rcc.c **** 
 316:../../Drivers/STM32H7xx_HAL_Driver/Src/stm32h7xx_hal_rcc.c ****   /* Reset D2CFGR register */
 317:../../Drivers/STM32H7xx_HAL_Driver/Src/stm32h7xx_hal_rcc.c ****   CLEAR_REG(RCC->D2CFGR);
 301              		.loc 1 317 3 view .LVU93
 302 0140 DA61     		str	r2, [r3, #28]
 318:../../Drivers/STM32H7xx_HAL_Driver/Src/stm32h7xx_hal_rcc.c **** 
 319:../../Drivers/STM32H7xx_HAL_Driver/Src/stm32h7xx_hal_rcc.c ****   /* Reset D3CFGR register */
 320:../../Drivers/STM32H7xx_HAL_Driver/Src/stm32h7xx_hal_rcc.c ****   CLEAR_REG(RCC->D3CFGR);
 303              		.loc 1 320 3 view .LVU94
 304 0142 1A62     		str	r2, [r3, #32]
 321:../../Drivers/STM32H7xx_HAL_Driver/Src/stm32h7xx_hal_rcc.c **** #else
 322:../../Drivers/STM32H7xx_HAL_Driver/Src/stm32h7xx_hal_rcc.c ****   /* Reset CDCFGR1 register */
 323:../../Drivers/STM32H7xx_HAL_Driver/Src/stm32h7xx_hal_rcc.c ****   CLEAR_REG(RCC->CDCFGR1);
 324:../../Drivers/STM32H7xx_HAL_Driver/Src/stm32h7xx_hal_rcc.c **** 
ARM GAS  /tmp/ccooDZtA.s 			page 12


 325:../../Drivers/STM32H7xx_HAL_Driver/Src/stm32h7xx_hal_rcc.c ****   /* Reset CDCFGR2 register */
 326:../../Drivers/STM32H7xx_HAL_Driver/Src/stm32h7xx_hal_rcc.c ****   CLEAR_REG(RCC->CDCFGR2);
 327:../../Drivers/STM32H7xx_HAL_Driver/Src/stm32h7xx_hal_rcc.c **** 
 328:../../Drivers/STM32H7xx_HAL_Driver/Src/stm32h7xx_hal_rcc.c ****   /* Reset SRDCFGR register */
 329:../../Drivers/STM32H7xx_HAL_Driver/Src/stm32h7xx_hal_rcc.c ****   CLEAR_REG(RCC->SRDCFGR);
 330:../../Drivers/STM32H7xx_HAL_Driver/Src/stm32h7xx_hal_rcc.c **** #endif
 331:../../Drivers/STM32H7xx_HAL_Driver/Src/stm32h7xx_hal_rcc.c **** 
 332:../../Drivers/STM32H7xx_HAL_Driver/Src/stm32h7xx_hal_rcc.c ****   /* Reset PLLCKSELR register to default value */
 333:../../Drivers/STM32H7xx_HAL_Driver/Src/stm32h7xx_hal_rcc.c ****   RCC->PLLCKSELR = RCC_PLLCKSELR_DIVM1_5 | RCC_PLLCKSELR_DIVM2_5 | RCC_PLLCKSELR_DIVM3_5;
 305              		.loc 1 333 3 view .LVU95
 306              		.loc 1 333 18 is_stmt 0 view .LVU96
 307 0144 1E49     		ldr	r1, .L33+28
 308 0146 9962     		str	r1, [r3, #40]
 334:../../Drivers/STM32H7xx_HAL_Driver/Src/stm32h7xx_hal_rcc.c **** 
 335:../../Drivers/STM32H7xx_HAL_Driver/Src/stm32h7xx_hal_rcc.c ****   /* Reset PLLCFGR register to default value */
 336:../../Drivers/STM32H7xx_HAL_Driver/Src/stm32h7xx_hal_rcc.c ****   WRITE_REG(RCC->PLLCFGR, 0x01FF0000U);
 309              		.loc 1 336 3 is_stmt 1 view .LVU97
 310 0148 1E49     		ldr	r1, .L33+32
 311 014a D962     		str	r1, [r3, #44]
 337:../../Drivers/STM32H7xx_HAL_Driver/Src/stm32h7xx_hal_rcc.c **** 
 338:../../Drivers/STM32H7xx_HAL_Driver/Src/stm32h7xx_hal_rcc.c ****   /* Reset PLL1DIVR register to default value */
 339:../../Drivers/STM32H7xx_HAL_Driver/Src/stm32h7xx_hal_rcc.c ****   WRITE_REG(RCC->PLL1DIVR, 0x01010280U);
 312              		.loc 1 339 3 view .LVU98
 313 014c 1E49     		ldr	r1, .L33+36
 314 014e 1963     		str	r1, [r3, #48]
 340:../../Drivers/STM32H7xx_HAL_Driver/Src/stm32h7xx_hal_rcc.c **** 
 341:../../Drivers/STM32H7xx_HAL_Driver/Src/stm32h7xx_hal_rcc.c ****   /* Reset PLL1FRACR register */
 342:../../Drivers/STM32H7xx_HAL_Driver/Src/stm32h7xx_hal_rcc.c ****   CLEAR_REG(RCC->PLL1FRACR);
 315              		.loc 1 342 3 view .LVU99
 316 0150 5A63     		str	r2, [r3, #52]
 343:../../Drivers/STM32H7xx_HAL_Driver/Src/stm32h7xx_hal_rcc.c **** 
 344:../../Drivers/STM32H7xx_HAL_Driver/Src/stm32h7xx_hal_rcc.c ****   /* Reset PLL2DIVR register to default value */
 345:../../Drivers/STM32H7xx_HAL_Driver/Src/stm32h7xx_hal_rcc.c ****   WRITE_REG(RCC->PLL2DIVR, 0x01010280U);
 317              		.loc 1 345 3 view .LVU100
 318 0152 9963     		str	r1, [r3, #56]
 346:../../Drivers/STM32H7xx_HAL_Driver/Src/stm32h7xx_hal_rcc.c **** 
 347:../../Drivers/STM32H7xx_HAL_Driver/Src/stm32h7xx_hal_rcc.c ****   /* Reset PLL2FRACR register */
 348:../../Drivers/STM32H7xx_HAL_Driver/Src/stm32h7xx_hal_rcc.c ****   CLEAR_REG(RCC->PLL2FRACR);
 319              		.loc 1 348 3 view .LVU101
 320 0154 DA63     		str	r2, [r3, #60]
 349:../../Drivers/STM32H7xx_HAL_Driver/Src/stm32h7xx_hal_rcc.c **** 
 350:../../Drivers/STM32H7xx_HAL_Driver/Src/stm32h7xx_hal_rcc.c ****   /* Reset PLL3DIVR register to default value */
 351:../../Drivers/STM32H7xx_HAL_Driver/Src/stm32h7xx_hal_rcc.c ****   WRITE_REG(RCC->PLL3DIVR, 0x01010280U);
 321              		.loc 1 351 3 view .LVU102
 322 0156 1964     		str	r1, [r3, #64]
 352:../../Drivers/STM32H7xx_HAL_Driver/Src/stm32h7xx_hal_rcc.c **** 
 353:../../Drivers/STM32H7xx_HAL_Driver/Src/stm32h7xx_hal_rcc.c ****   /* Reset PLL3FRACR register */
 354:../../Drivers/STM32H7xx_HAL_Driver/Src/stm32h7xx_hal_rcc.c ****   CLEAR_REG(RCC->PLL3FRACR);
 323              		.loc 1 354 3 view .LVU103
 324 0158 5A64     		str	r2, [r3, #68]
 355:../../Drivers/STM32H7xx_HAL_Driver/Src/stm32h7xx_hal_rcc.c **** 
 356:../../Drivers/STM32H7xx_HAL_Driver/Src/stm32h7xx_hal_rcc.c **** #if defined(RCC_CR_HSEEXT)
 357:../../Drivers/STM32H7xx_HAL_Driver/Src/stm32h7xx_hal_rcc.c ****   /* Reset HSEEXT  */
 358:../../Drivers/STM32H7xx_HAL_Driver/Src/stm32h7xx_hal_rcc.c ****   CLEAR_BIT(RCC->CR, RCC_CR_HSEEXT);
 359:../../Drivers/STM32H7xx_HAL_Driver/Src/stm32h7xx_hal_rcc.c **** #endif /* RCC_CR_HSEEXT */
 360:../../Drivers/STM32H7xx_HAL_Driver/Src/stm32h7xx_hal_rcc.c **** 
 361:../../Drivers/STM32H7xx_HAL_Driver/Src/stm32h7xx_hal_rcc.c ****   /* Reset HSEBYP bit */
ARM GAS  /tmp/ccooDZtA.s 			page 13


 362:../../Drivers/STM32H7xx_HAL_Driver/Src/stm32h7xx_hal_rcc.c ****   CLEAR_BIT(RCC->CR, RCC_CR_HSEBYP);
 325              		.loc 1 362 3 view .LVU104
 326 015a 1968     		ldr	r1, [r3]
 327 015c 21F48021 		bic	r1, r1, #262144
 328 0160 1960     		str	r1, [r3]
 363:../../Drivers/STM32H7xx_HAL_Driver/Src/stm32h7xx_hal_rcc.c **** 
 364:../../Drivers/STM32H7xx_HAL_Driver/Src/stm32h7xx_hal_rcc.c ****   /* Disable all interrupts */
 365:../../Drivers/STM32H7xx_HAL_Driver/Src/stm32h7xx_hal_rcc.c ****   CLEAR_REG(RCC->CIER);
 329              		.loc 1 365 3 view .LVU105
 330 0162 1A66     		str	r2, [r3, #96]
 366:../../Drivers/STM32H7xx_HAL_Driver/Src/stm32h7xx_hal_rcc.c **** 
 367:../../Drivers/STM32H7xx_HAL_Driver/Src/stm32h7xx_hal_rcc.c ****   /* Clear all interrupts flags */
 368:../../Drivers/STM32H7xx_HAL_Driver/Src/stm32h7xx_hal_rcc.c ****   WRITE_REG(RCC->CICR, 0xFFFFFFFFU);
 331              		.loc 1 368 3 view .LVU106
 332 0164 4FF0FF32 		mov	r2, #-1
 333 0168 9A66     		str	r2, [r3, #104]
 369:../../Drivers/STM32H7xx_HAL_Driver/Src/stm32h7xx_hal_rcc.c **** 
 370:../../Drivers/STM32H7xx_HAL_Driver/Src/stm32h7xx_hal_rcc.c ****   /* Reset all RSR flags */
 371:../../Drivers/STM32H7xx_HAL_Driver/Src/stm32h7xx_hal_rcc.c ****   SET_BIT(RCC->RSR, RCC_RSR_RMVF);
 334              		.loc 1 371 3 view .LVU107
 335 016a D3F8D020 		ldr	r2, [r3, #208]
 336 016e 42F48032 		orr	r2, r2, #65536
 337 0172 C3F8D020 		str	r2, [r3, #208]
 372:../../Drivers/STM32H7xx_HAL_Driver/Src/stm32h7xx_hal_rcc.c **** 
 373:../../Drivers/STM32H7xx_HAL_Driver/Src/stm32h7xx_hal_rcc.c ****   /* Decreasing the number of wait states because of lower CPU frequency */
 374:../../Drivers/STM32H7xx_HAL_Driver/Src/stm32h7xx_hal_rcc.c ****   if (FLASH_LATENCY_DEFAULT  < __HAL_FLASH_GET_LATENCY())
 338              		.loc 1 374 3 view .LVU108
 339              		.loc 1 374 32 is_stmt 0 view .LVU109
 340 0176 0B4B     		ldr	r3, .L33
 341 0178 1B68     		ldr	r3, [r3]
 342              		.loc 1 374 6 view .LVU110
 343 017a 13F0080F 		tst	r3, #8
 344 017e 0ED0     		beq	.L3
 375:../../Drivers/STM32H7xx_HAL_Driver/Src/stm32h7xx_hal_rcc.c ****   {
 376:../../Drivers/STM32H7xx_HAL_Driver/Src/stm32h7xx_hal_rcc.c ****     /* Program the new number of wait states to the LATENCY bits in the FLASH_ACR register */
 377:../../Drivers/STM32H7xx_HAL_Driver/Src/stm32h7xx_hal_rcc.c ****     __HAL_FLASH_SET_LATENCY(FLASH_LATENCY_DEFAULT);
 345              		.loc 1 377 5 is_stmt 1 view .LVU111
 346 0180 084A     		ldr	r2, .L33
 347 0182 1368     		ldr	r3, [r2]
 348 0184 23F00F03 		bic	r3, r3, #15
 349 0188 43F00703 		orr	r3, r3, #7
 350 018c 1360     		str	r3, [r2]
 378:../../Drivers/STM32H7xx_HAL_Driver/Src/stm32h7xx_hal_rcc.c **** 
 379:../../Drivers/STM32H7xx_HAL_Driver/Src/stm32h7xx_hal_rcc.c ****     /* Check that the new number of wait states is taken into account to access the Flash
 380:../../Drivers/STM32H7xx_HAL_Driver/Src/stm32h7xx_hal_rcc.c ****     memory by reading the FLASH_ACR register */
 381:../../Drivers/STM32H7xx_HAL_Driver/Src/stm32h7xx_hal_rcc.c ****     if (__HAL_FLASH_GET_LATENCY() != FLASH_LATENCY_DEFAULT)
 351              		.loc 1 381 5 view .LVU112
 352              		.loc 1 381 9 is_stmt 0 view .LVU113
 353 018e 1368     		ldr	r3, [r2]
 354 0190 03F00F03 		and	r3, r3, #15
 355              		.loc 1 381 8 view .LVU114
 356 0194 072B     		cmp	r3, #7
 357 0196 02D0     		beq	.L3
 382:../../Drivers/STM32H7xx_HAL_Driver/Src/stm32h7xx_hal_rcc.c ****     {
 383:../../Drivers/STM32H7xx_HAL_Driver/Src/stm32h7xx_hal_rcc.c ****       return HAL_ERROR;
 358              		.loc 1 383 14 view .LVU115
 359 0198 0124     		movs	r4, #1
ARM GAS  /tmp/ccooDZtA.s 			page 14


 360 019a 00E0     		b	.L3
 361              	.LVL27:
 362              	.L16:
 202:../../Drivers/STM32H7xx_HAL_Driver/Src/stm32h7xx_hal_rcc.c ****     }
 363              		.loc 1 202 14 view .LVU116
 364 019c 0124     		movs	r4, #1
 365              	.L3:
 384:../../Drivers/STM32H7xx_HAL_Driver/Src/stm32h7xx_hal_rcc.c ****     }
 385:../../Drivers/STM32H7xx_HAL_Driver/Src/stm32h7xx_hal_rcc.c **** 
 386:../../Drivers/STM32H7xx_HAL_Driver/Src/stm32h7xx_hal_rcc.c ****   }
 387:../../Drivers/STM32H7xx_HAL_Driver/Src/stm32h7xx_hal_rcc.c **** 
 388:../../Drivers/STM32H7xx_HAL_Driver/Src/stm32h7xx_hal_rcc.c ****   return HAL_OK;
 389:../../Drivers/STM32H7xx_HAL_Driver/Src/stm32h7xx_hal_rcc.c **** }
 366              		.loc 1 389 1 view .LVU117
 367 019e 2046     		mov	r0, r4
 368 01a0 38BD     		pop	{r3, r4, r5, pc}
 369              	.L34:
 370 01a2 00BF     		.align	2
 371              	.L33:
 372 01a4 00200052 		.word	1375739904
 373 01a8 00440258 		.word	1476543488
 374 01ac 0090D003 		.word	64000000
 375 01b0 00000000 		.word	SystemCoreClock
 376 01b4 00000000 		.word	SystemD2Clock
 377 01b8 00000000 		.word	uwTickPrio
 378 01bc 45EDF6FF 		.word	-594619
 379 01c0 00020202 		.word	33686016
 380 01c4 0000FF01 		.word	33488896
 381 01c8 80020101 		.word	16843392
 382              		.cfi_endproc
 383              	.LFE144:
 385              		.section	.text.HAL_RCC_OscConfig,"ax",%progbits
 386              		.align	1
 387              		.weak	HAL_RCC_OscConfig
 388              		.syntax unified
 389              		.thumb
 390              		.thumb_func
 391              		.fpu fpv5-d16
 393              	HAL_RCC_OscConfig:
 394              	.LVL28:
 395              	.LFB145:
 390:../../Drivers/STM32H7xx_HAL_Driver/Src/stm32h7xx_hal_rcc.c **** 
 391:../../Drivers/STM32H7xx_HAL_Driver/Src/stm32h7xx_hal_rcc.c **** /**
 392:../../Drivers/STM32H7xx_HAL_Driver/Src/stm32h7xx_hal_rcc.c ****   * @brief  Initializes the RCC Oscillators according to the specified parameters in the
 393:../../Drivers/STM32H7xx_HAL_Driver/Src/stm32h7xx_hal_rcc.c ****   *         RCC_OscInitTypeDef.
 394:../../Drivers/STM32H7xx_HAL_Driver/Src/stm32h7xx_hal_rcc.c ****   * @param  RCC_OscInitStruct: pointer to an RCC_OscInitTypeDef structure that
 395:../../Drivers/STM32H7xx_HAL_Driver/Src/stm32h7xx_hal_rcc.c ****   *         contains the configuration information for the RCC Oscillators.
 396:../../Drivers/STM32H7xx_HAL_Driver/Src/stm32h7xx_hal_rcc.c ****   * @note   The PLL is not disabled when used as system clock.
 397:../../Drivers/STM32H7xx_HAL_Driver/Src/stm32h7xx_hal_rcc.c ****   * @note   Transitions LSE Bypass to LSE On and LSE On to LSE Bypass are not
 398:../../Drivers/STM32H7xx_HAL_Driver/Src/stm32h7xx_hal_rcc.c ****   *         supported by this function. User should request a transition to LSE Off
 399:../../Drivers/STM32H7xx_HAL_Driver/Src/stm32h7xx_hal_rcc.c ****   *         first and then LSE On or LSE Bypass.
 400:../../Drivers/STM32H7xx_HAL_Driver/Src/stm32h7xx_hal_rcc.c ****   * @note   Transition HSE Bypass to HSE On and HSE On to HSE Bypass are not
 401:../../Drivers/STM32H7xx_HAL_Driver/Src/stm32h7xx_hal_rcc.c ****   *         supported by this function. User should request a transition to HSE Off
 402:../../Drivers/STM32H7xx_HAL_Driver/Src/stm32h7xx_hal_rcc.c ****   *         first and then HSE On or HSE Bypass.
 403:../../Drivers/STM32H7xx_HAL_Driver/Src/stm32h7xx_hal_rcc.c ****   * @retval HAL status
 404:../../Drivers/STM32H7xx_HAL_Driver/Src/stm32h7xx_hal_rcc.c ****   */
 405:../../Drivers/STM32H7xx_HAL_Driver/Src/stm32h7xx_hal_rcc.c **** __weak HAL_StatusTypeDef HAL_RCC_OscConfig(RCC_OscInitTypeDef  *RCC_OscInitStruct)
ARM GAS  /tmp/ccooDZtA.s 			page 15


 406:../../Drivers/STM32H7xx_HAL_Driver/Src/stm32h7xx_hal_rcc.c **** {
 396              		.loc 1 406 1 is_stmt 1 view -0
 397              		.cfi_startproc
 398              		@ args = 0, pretend = 0, frame = 0
 399              		@ frame_needed = 0, uses_anonymous_args = 0
 407:../../Drivers/STM32H7xx_HAL_Driver/Src/stm32h7xx_hal_rcc.c ****   uint32_t tickstart;
 400              		.loc 1 407 3 view .LVU119
 408:../../Drivers/STM32H7xx_HAL_Driver/Src/stm32h7xx_hal_rcc.c ****   uint32_t temp1_pllckcfg, temp2_pllckcfg;
 401              		.loc 1 408 3 view .LVU120
 409:../../Drivers/STM32H7xx_HAL_Driver/Src/stm32h7xx_hal_rcc.c **** 
 410:../../Drivers/STM32H7xx_HAL_Driver/Src/stm32h7xx_hal_rcc.c ****   /* Check Null pointer */
 411:../../Drivers/STM32H7xx_HAL_Driver/Src/stm32h7xx_hal_rcc.c ****   if (RCC_OscInitStruct == NULL)
 402              		.loc 1 411 3 view .LVU121
 403              		.loc 1 411 6 is_stmt 0 view .LVU122
 404 0000 0028     		cmp	r0, #0
 405 0002 00F03983 		beq	.L110
 406:../../Drivers/STM32H7xx_HAL_Driver/Src/stm32h7xx_hal_rcc.c ****   uint32_t tickstart;
 406              		.loc 1 406 1 view .LVU123
 407 0006 38B5     		push	{r3, r4, r5, lr}
 408              	.LCFI1:
 409              		.cfi_def_cfa_offset 16
 410              		.cfi_offset 3, -16
 411              		.cfi_offset 4, -12
 412              		.cfi_offset 5, -8
 413              		.cfi_offset 14, -4
 414 0008 0446     		mov	r4, r0
 412:../../Drivers/STM32H7xx_HAL_Driver/Src/stm32h7xx_hal_rcc.c ****   {
 413:../../Drivers/STM32H7xx_HAL_Driver/Src/stm32h7xx_hal_rcc.c ****     return HAL_ERROR;
 414:../../Drivers/STM32H7xx_HAL_Driver/Src/stm32h7xx_hal_rcc.c ****   }
 415:../../Drivers/STM32H7xx_HAL_Driver/Src/stm32h7xx_hal_rcc.c **** 
 416:../../Drivers/STM32H7xx_HAL_Driver/Src/stm32h7xx_hal_rcc.c ****   /* Check the parameters */
 417:../../Drivers/STM32H7xx_HAL_Driver/Src/stm32h7xx_hal_rcc.c ****   assert_param(IS_RCC_OSCILLATORTYPE(RCC_OscInitStruct->OscillatorType));
 415              		.loc 1 417 3 is_stmt 1 view .LVU124
 418:../../Drivers/STM32H7xx_HAL_Driver/Src/stm32h7xx_hal_rcc.c ****   /*------------------------------- HSE Configuration ------------------------*/
 419:../../Drivers/STM32H7xx_HAL_Driver/Src/stm32h7xx_hal_rcc.c ****   if (((RCC_OscInitStruct->OscillatorType) & RCC_OSCILLATORTYPE_HSE) == RCC_OSCILLATORTYPE_HSE)
 416              		.loc 1 419 3 view .LVU125
 417              		.loc 1 419 26 is_stmt 0 view .LVU126
 418 000a 0368     		ldr	r3, [r0]
 419              		.loc 1 419 6 view .LVU127
 420 000c 13F0010F 		tst	r3, #1
 421 0010 25D0     		beq	.L37
 422              	.LBB2:
 420:../../Drivers/STM32H7xx_HAL_Driver/Src/stm32h7xx_hal_rcc.c ****   {
 421:../../Drivers/STM32H7xx_HAL_Driver/Src/stm32h7xx_hal_rcc.c ****     /* Check the parameters */
 422:../../Drivers/STM32H7xx_HAL_Driver/Src/stm32h7xx_hal_rcc.c ****     assert_param(IS_RCC_HSE(RCC_OscInitStruct->HSEState));
 423              		.loc 1 422 5 is_stmt 1 view .LVU128
 423:../../Drivers/STM32H7xx_HAL_Driver/Src/stm32h7xx_hal_rcc.c **** 
 424:../../Drivers/STM32H7xx_HAL_Driver/Src/stm32h7xx_hal_rcc.c ****     const uint32_t temp_sysclksrc = __HAL_RCC_GET_SYSCLK_SOURCE();
 424              		.loc 1 424 5 view .LVU129
 425              		.loc 1 424 37 is_stmt 0 view .LVU130
 426 0012 944A     		ldr	r2, .L166
 427 0014 1369     		ldr	r3, [r2, #16]
 428              		.loc 1 424 20 view .LVU131
 429 0016 03F03803 		and	r3, r3, #56
 430              	.LVL29:
 425:../../Drivers/STM32H7xx_HAL_Driver/Src/stm32h7xx_hal_rcc.c ****     const uint32_t temp_pllckselr = RCC->PLLCKSELR;
 431              		.loc 1 425 5 is_stmt 1 view .LVU132
ARM GAS  /tmp/ccooDZtA.s 			page 16


 432              		.loc 1 425 20 is_stmt 0 view .LVU133
 433 001a 926A     		ldr	r2, [r2, #40]
 434              	.LVL30:
 426:../../Drivers/STM32H7xx_HAL_Driver/Src/stm32h7xx_hal_rcc.c ****     /* When the HSE is used as system clock or clock source for PLL in these cases HSE will not dis
 427:../../Drivers/STM32H7xx_HAL_Driver/Src/stm32h7xx_hal_rcc.c ****     if ((temp_sysclksrc == RCC_CFGR_SWS_HSE) || ((temp_sysclksrc == RCC_CFGR_SWS_PLL1) && ((temp_pl
 435              		.loc 1 427 5 is_stmt 1 view .LVU134
 436              		.loc 1 427 8 is_stmt 0 view .LVU135
 437 001c 102B     		cmp	r3, #16
 438 001e 15D0     		beq	.L38
 439              		.loc 1 427 46 discriminator 1 view .LVU136
 440 0020 182B     		cmp	r3, #24
 441 0022 0FD0     		beq	.L144
 442              	.LVL31:
 443              	.L39:
 428:../../Drivers/STM32H7xx_HAL_Driver/Src/stm32h7xx_hal_rcc.c ****     {
 429:../../Drivers/STM32H7xx_HAL_Driver/Src/stm32h7xx_hal_rcc.c ****       if ((__HAL_RCC_GET_FLAG(RCC_FLAG_HSERDY) != 0U) && (RCC_OscInitStruct->HSEState == RCC_HSE_OF
 430:../../Drivers/STM32H7xx_HAL_Driver/Src/stm32h7xx_hal_rcc.c ****       {
 431:../../Drivers/STM32H7xx_HAL_Driver/Src/stm32h7xx_hal_rcc.c ****         return HAL_ERROR;
 432:../../Drivers/STM32H7xx_HAL_Driver/Src/stm32h7xx_hal_rcc.c ****       }
 433:../../Drivers/STM32H7xx_HAL_Driver/Src/stm32h7xx_hal_rcc.c ****     }
 434:../../Drivers/STM32H7xx_HAL_Driver/Src/stm32h7xx_hal_rcc.c ****     else
 435:../../Drivers/STM32H7xx_HAL_Driver/Src/stm32h7xx_hal_rcc.c ****     {
 436:../../Drivers/STM32H7xx_HAL_Driver/Src/stm32h7xx_hal_rcc.c ****       /* Set the new HSE configuration ---------------------------------------*/
 437:../../Drivers/STM32H7xx_HAL_Driver/Src/stm32h7xx_hal_rcc.c ****       __HAL_RCC_HSE_CONFIG(RCC_OscInitStruct->HSEState);
 444              		.loc 1 437 7 is_stmt 1 view .LVU137
 445              		.loc 1 437 7 view .LVU138
 446 0024 6368     		ldr	r3, [r4, #4]
 447              	.LVL32:
 448              		.loc 1 437 7 is_stmt 0 view .LVU139
 449 0026 B3F5803F 		cmp	r3, #65536
 450 002a 3FD0     		beq	.L145
 451              		.loc 1 437 7 is_stmt 1 discriminator 2 view .LVU140
 452 002c 002B     		cmp	r3, #0
 453 002e 53D1     		bne	.L42
 454              		.loc 1 437 7 discriminator 4 view .LVU141
 455 0030 8C4B     		ldr	r3, .L166
 456 0032 1A68     		ldr	r2, [r3]
 457 0034 22F48032 		bic	r2, r2, #65536
 458 0038 1A60     		str	r2, [r3]
 459              		.loc 1 437 7 discriminator 4 view .LVU142
 460 003a 1A68     		ldr	r2, [r3]
 461 003c 22F48022 		bic	r2, r2, #262144
 462 0040 1A60     		str	r2, [r3]
 463 0042 38E0     		b	.L41
 464              	.LVL33:
 465              	.L144:
 427:../../Drivers/STM32H7xx_HAL_Driver/Src/stm32h7xx_hal_rcc.c ****     {
 466              		.loc 1 427 108 is_stmt 0 discriminator 2 view .LVU143
 467 0044 02F00302 		and	r2, r2, #3
 468              	.LVL34:
 427:../../Drivers/STM32H7xx_HAL_Driver/Src/stm32h7xx_hal_rcc.c ****     {
 469              		.loc 1 427 88 discriminator 2 view .LVU144
 470 0048 022A     		cmp	r2, #2
 471 004a EBD1     		bne	.L39
 472              	.L38:
 429:../../Drivers/STM32H7xx_HAL_Driver/Src/stm32h7xx_hal_rcc.c ****       {
 473              		.loc 1 429 7 is_stmt 1 view .LVU145
ARM GAS  /tmp/ccooDZtA.s 			page 17


 429:../../Drivers/STM32H7xx_HAL_Driver/Src/stm32h7xx_hal_rcc.c ****       {
 474              		.loc 1 429 12 is_stmt 0 view .LVU146
 475 004c 854B     		ldr	r3, .L166
 476              	.LVL35:
 429:../../Drivers/STM32H7xx_HAL_Driver/Src/stm32h7xx_hal_rcc.c ****       {
 477              		.loc 1 429 12 view .LVU147
 478 004e 1B68     		ldr	r3, [r3]
 429:../../Drivers/STM32H7xx_HAL_Driver/Src/stm32h7xx_hal_rcc.c ****       {
 479              		.loc 1 429 10 view .LVU148
 480 0050 13F4003F 		tst	r3, #131072
 481 0054 03D0     		beq	.L37
 429:../../Drivers/STM32H7xx_HAL_Driver/Src/stm32h7xx_hal_rcc.c ****       {
 482              		.loc 1 429 76 discriminator 1 view .LVU149
 483 0056 6368     		ldr	r3, [r4, #4]
 429:../../Drivers/STM32H7xx_HAL_Driver/Src/stm32h7xx_hal_rcc.c ****       {
 484              		.loc 1 429 55 discriminator 1 view .LVU150
 485 0058 002B     		cmp	r3, #0
 486 005a 00F00F83 		beq	.L146
 487              	.LVL36:
 488              	.L37:
 429:../../Drivers/STM32H7xx_HAL_Driver/Src/stm32h7xx_hal_rcc.c ****       {
 489              		.loc 1 429 55 discriminator 1 view .LVU151
 490              	.LBE2:
 438:../../Drivers/STM32H7xx_HAL_Driver/Src/stm32h7xx_hal_rcc.c **** 
 439:../../Drivers/STM32H7xx_HAL_Driver/Src/stm32h7xx_hal_rcc.c ****       /* Check the HSE State */
 440:../../Drivers/STM32H7xx_HAL_Driver/Src/stm32h7xx_hal_rcc.c ****       if (RCC_OscInitStruct->HSEState != RCC_HSE_OFF)
 441:../../Drivers/STM32H7xx_HAL_Driver/Src/stm32h7xx_hal_rcc.c ****       {
 442:../../Drivers/STM32H7xx_HAL_Driver/Src/stm32h7xx_hal_rcc.c ****         /* Get Start Tick*/
 443:../../Drivers/STM32H7xx_HAL_Driver/Src/stm32h7xx_hal_rcc.c ****         tickstart = HAL_GetTick();
 444:../../Drivers/STM32H7xx_HAL_Driver/Src/stm32h7xx_hal_rcc.c **** 
 445:../../Drivers/STM32H7xx_HAL_Driver/Src/stm32h7xx_hal_rcc.c ****         /* Wait till HSE is ready */
 446:../../Drivers/STM32H7xx_HAL_Driver/Src/stm32h7xx_hal_rcc.c ****         while (__HAL_RCC_GET_FLAG(RCC_FLAG_HSERDY) == 0U)
 447:../../Drivers/STM32H7xx_HAL_Driver/Src/stm32h7xx_hal_rcc.c ****         {
 448:../../Drivers/STM32H7xx_HAL_Driver/Src/stm32h7xx_hal_rcc.c ****           if ((uint32_t)(HAL_GetTick() - tickstart) > HSE_TIMEOUT_VALUE)
 449:../../Drivers/STM32H7xx_HAL_Driver/Src/stm32h7xx_hal_rcc.c ****           {
 450:../../Drivers/STM32H7xx_HAL_Driver/Src/stm32h7xx_hal_rcc.c ****             return HAL_TIMEOUT;
 451:../../Drivers/STM32H7xx_HAL_Driver/Src/stm32h7xx_hal_rcc.c ****           }
 452:../../Drivers/STM32H7xx_HAL_Driver/Src/stm32h7xx_hal_rcc.c ****         }
 453:../../Drivers/STM32H7xx_HAL_Driver/Src/stm32h7xx_hal_rcc.c ****       }
 454:../../Drivers/STM32H7xx_HAL_Driver/Src/stm32h7xx_hal_rcc.c ****       else
 455:../../Drivers/STM32H7xx_HAL_Driver/Src/stm32h7xx_hal_rcc.c ****       {
 456:../../Drivers/STM32H7xx_HAL_Driver/Src/stm32h7xx_hal_rcc.c ****         /* Get Start Tick*/
 457:../../Drivers/STM32H7xx_HAL_Driver/Src/stm32h7xx_hal_rcc.c ****         tickstart = HAL_GetTick();
 458:../../Drivers/STM32H7xx_HAL_Driver/Src/stm32h7xx_hal_rcc.c **** 
 459:../../Drivers/STM32H7xx_HAL_Driver/Src/stm32h7xx_hal_rcc.c ****         /* Wait till HSE is disabled */
 460:../../Drivers/STM32H7xx_HAL_Driver/Src/stm32h7xx_hal_rcc.c ****         while (__HAL_RCC_GET_FLAG(RCC_FLAG_HSERDY) != 0U)
 461:../../Drivers/STM32H7xx_HAL_Driver/Src/stm32h7xx_hal_rcc.c ****         {
 462:../../Drivers/STM32H7xx_HAL_Driver/Src/stm32h7xx_hal_rcc.c ****           if ((uint32_t)(HAL_GetTick() - tickstart) > HSE_TIMEOUT_VALUE)
 463:../../Drivers/STM32H7xx_HAL_Driver/Src/stm32h7xx_hal_rcc.c ****           {
 464:../../Drivers/STM32H7xx_HAL_Driver/Src/stm32h7xx_hal_rcc.c ****             return HAL_TIMEOUT;
 465:../../Drivers/STM32H7xx_HAL_Driver/Src/stm32h7xx_hal_rcc.c ****           }
 466:../../Drivers/STM32H7xx_HAL_Driver/Src/stm32h7xx_hal_rcc.c ****         }
 467:../../Drivers/STM32H7xx_HAL_Driver/Src/stm32h7xx_hal_rcc.c ****       }
 468:../../Drivers/STM32H7xx_HAL_Driver/Src/stm32h7xx_hal_rcc.c ****     }
 469:../../Drivers/STM32H7xx_HAL_Driver/Src/stm32h7xx_hal_rcc.c ****   }
 470:../../Drivers/STM32H7xx_HAL_Driver/Src/stm32h7xx_hal_rcc.c ****   /*----------------------------- HSI Configuration --------------------------*/
 471:../../Drivers/STM32H7xx_HAL_Driver/Src/stm32h7xx_hal_rcc.c ****   if (((RCC_OscInitStruct->OscillatorType) & RCC_OSCILLATORTYPE_HSI) == RCC_OSCILLATORTYPE_HSI)
ARM GAS  /tmp/ccooDZtA.s 			page 18


 491              		.loc 1 471 3 is_stmt 1 view .LVU152
 492              		.loc 1 471 26 is_stmt 0 view .LVU153
 493 005e 2368     		ldr	r3, [r4]
 494              		.loc 1 471 6 view .LVU154
 495 0060 13F0020F 		tst	r3, #2
 496 0064 00F0A180 		beq	.L49
 497              	.LBB3:
 472:../../Drivers/STM32H7xx_HAL_Driver/Src/stm32h7xx_hal_rcc.c ****   {
 473:../../Drivers/STM32H7xx_HAL_Driver/Src/stm32h7xx_hal_rcc.c ****     /* Check the parameters */
 474:../../Drivers/STM32H7xx_HAL_Driver/Src/stm32h7xx_hal_rcc.c ****     assert_param(IS_RCC_HSI(RCC_OscInitStruct->HSIState));
 498              		.loc 1 474 5 is_stmt 1 view .LVU155
 475:../../Drivers/STM32H7xx_HAL_Driver/Src/stm32h7xx_hal_rcc.c ****     assert_param(IS_RCC_HSICALIBRATION_VALUE(RCC_OscInitStruct->HSICalibrationValue));
 499              		.loc 1 475 5 view .LVU156
 476:../../Drivers/STM32H7xx_HAL_Driver/Src/stm32h7xx_hal_rcc.c **** 
 477:../../Drivers/STM32H7xx_HAL_Driver/Src/stm32h7xx_hal_rcc.c ****     /* When the HSI is used as system clock it will not be disabled */
 478:../../Drivers/STM32H7xx_HAL_Driver/Src/stm32h7xx_hal_rcc.c ****     const uint32_t temp_sysclksrc = __HAL_RCC_GET_SYSCLK_SOURCE();
 500              		.loc 1 478 5 view .LVU157
 501              		.loc 1 478 37 is_stmt 0 view .LVU158
 502 0068 7E4A     		ldr	r2, .L166
 503 006a 1369     		ldr	r3, [r2, #16]
 504              	.LVL37:
 479:../../Drivers/STM32H7xx_HAL_Driver/Src/stm32h7xx_hal_rcc.c ****     const uint32_t temp_pllckselr = RCC->PLLCKSELR;
 505              		.loc 1 479 5 is_stmt 1 view .LVU159
 506              		.loc 1 479 20 is_stmt 0 view .LVU160
 507 006c 926A     		ldr	r2, [r2, #40]
 508              	.LVL38:
 480:../../Drivers/STM32H7xx_HAL_Driver/Src/stm32h7xx_hal_rcc.c ****     if ((temp_sysclksrc == RCC_CFGR_SWS_HSI) || ((temp_sysclksrc == RCC_CFGR_SWS_PLL1) && ((temp_pl
 509              		.loc 1 480 5 is_stmt 1 view .LVU161
 510              		.loc 1 480 8 is_stmt 0 view .LVU162
 511 006e 13F03803 		ands	r3, r3, #56
 512              	.LVL39:
 513              		.loc 1 480 8 view .LVU163
 514 0072 5AD0     		beq	.L50
 515              		.loc 1 480 46 discriminator 1 view .LVU164
 516 0074 182B     		cmp	r3, #24
 517 0076 55D0     		beq	.L147
 518              	.L51:
 481:../../Drivers/STM32H7xx_HAL_Driver/Src/stm32h7xx_hal_rcc.c ****     {
 482:../../Drivers/STM32H7xx_HAL_Driver/Src/stm32h7xx_hal_rcc.c ****       /* When HSI is used as system clock it will not be disabled */
 483:../../Drivers/STM32H7xx_HAL_Driver/Src/stm32h7xx_hal_rcc.c ****       if ((__HAL_RCC_GET_FLAG(RCC_FLAG_HSIRDY) != 0U) && (RCC_OscInitStruct->HSIState == RCC_HSI_OF
 484:../../Drivers/STM32H7xx_HAL_Driver/Src/stm32h7xx_hal_rcc.c ****       {
 485:../../Drivers/STM32H7xx_HAL_Driver/Src/stm32h7xx_hal_rcc.c ****         return HAL_ERROR;
 486:../../Drivers/STM32H7xx_HAL_Driver/Src/stm32h7xx_hal_rcc.c ****       }
 487:../../Drivers/STM32H7xx_HAL_Driver/Src/stm32h7xx_hal_rcc.c ****       /* Otherwise, only HSI division and calibration are allowed */
 488:../../Drivers/STM32H7xx_HAL_Driver/Src/stm32h7xx_hal_rcc.c ****       else
 489:../../Drivers/STM32H7xx_HAL_Driver/Src/stm32h7xx_hal_rcc.c ****       {
 490:../../Drivers/STM32H7xx_HAL_Driver/Src/stm32h7xx_hal_rcc.c ****         /* Enable the Internal High Speed oscillator (HSI, HSIDIV2, HSIDIV4, or HSIDIV8) */
 491:../../Drivers/STM32H7xx_HAL_Driver/Src/stm32h7xx_hal_rcc.c ****         __HAL_RCC_HSI_CONFIG(RCC_OscInitStruct->HSIState);
 492:../../Drivers/STM32H7xx_HAL_Driver/Src/stm32h7xx_hal_rcc.c **** 
 493:../../Drivers/STM32H7xx_HAL_Driver/Src/stm32h7xx_hal_rcc.c ****         /* Get Start Tick*/
 494:../../Drivers/STM32H7xx_HAL_Driver/Src/stm32h7xx_hal_rcc.c ****         tickstart = HAL_GetTick();
 495:../../Drivers/STM32H7xx_HAL_Driver/Src/stm32h7xx_hal_rcc.c **** 
 496:../../Drivers/STM32H7xx_HAL_Driver/Src/stm32h7xx_hal_rcc.c ****         /* Wait till HSI is ready */
 497:../../Drivers/STM32H7xx_HAL_Driver/Src/stm32h7xx_hal_rcc.c ****         while (__HAL_RCC_GET_FLAG(RCC_FLAG_HSIRDY) == 0U)
 498:../../Drivers/STM32H7xx_HAL_Driver/Src/stm32h7xx_hal_rcc.c ****         {
 499:../../Drivers/STM32H7xx_HAL_Driver/Src/stm32h7xx_hal_rcc.c ****           if ((uint32_t)(HAL_GetTick() - tickstart) > HSI_TIMEOUT_VALUE)
 500:../../Drivers/STM32H7xx_HAL_Driver/Src/stm32h7xx_hal_rcc.c ****           {
ARM GAS  /tmp/ccooDZtA.s 			page 19


 501:../../Drivers/STM32H7xx_HAL_Driver/Src/stm32h7xx_hal_rcc.c ****             return HAL_TIMEOUT;
 502:../../Drivers/STM32H7xx_HAL_Driver/Src/stm32h7xx_hal_rcc.c ****           }
 503:../../Drivers/STM32H7xx_HAL_Driver/Src/stm32h7xx_hal_rcc.c ****         }
 504:../../Drivers/STM32H7xx_HAL_Driver/Src/stm32h7xx_hal_rcc.c ****         /* Adjusts the Internal High Speed oscillator (HSI) calibration value.*/
 505:../../Drivers/STM32H7xx_HAL_Driver/Src/stm32h7xx_hal_rcc.c ****         __HAL_RCC_HSI_CALIBRATIONVALUE_ADJUST(RCC_OscInitStruct->HSICalibrationValue);
 506:../../Drivers/STM32H7xx_HAL_Driver/Src/stm32h7xx_hal_rcc.c ****       }
 507:../../Drivers/STM32H7xx_HAL_Driver/Src/stm32h7xx_hal_rcc.c ****     }
 508:../../Drivers/STM32H7xx_HAL_Driver/Src/stm32h7xx_hal_rcc.c **** 
 509:../../Drivers/STM32H7xx_HAL_Driver/Src/stm32h7xx_hal_rcc.c ****     else
 510:../../Drivers/STM32H7xx_HAL_Driver/Src/stm32h7xx_hal_rcc.c ****     {
 511:../../Drivers/STM32H7xx_HAL_Driver/Src/stm32h7xx_hal_rcc.c ****       /* Check the HSI State */
 512:../../Drivers/STM32H7xx_HAL_Driver/Src/stm32h7xx_hal_rcc.c ****       if ((RCC_OscInitStruct->HSIState) != RCC_HSI_OFF)
 519              		.loc 1 512 7 is_stmt 1 view .LVU165
 520              		.loc 1 512 29 is_stmt 0 view .LVU166
 521 0078 E368     		ldr	r3, [r4, #12]
 522              	.LVL40:
 523              		.loc 1 512 10 view .LVU167
 524 007a 002B     		cmp	r3, #0
 525 007c 00F0DE80 		beq	.L57
 513:../../Drivers/STM32H7xx_HAL_Driver/Src/stm32h7xx_hal_rcc.c ****       {
 514:../../Drivers/STM32H7xx_HAL_Driver/Src/stm32h7xx_hal_rcc.c ****         /* Enable the Internal High Speed oscillator (HSI, HSIDIV2,HSIDIV4, or HSIDIV8) */
 515:../../Drivers/STM32H7xx_HAL_Driver/Src/stm32h7xx_hal_rcc.c ****         __HAL_RCC_HSI_CONFIG(RCC_OscInitStruct->HSIState);
 526              		.loc 1 515 9 is_stmt 1 view .LVU168
 527 0080 7849     		ldr	r1, .L166
 528 0082 0A68     		ldr	r2, [r1]
 529              	.LVL41:
 530              		.loc 1 515 9 is_stmt 0 view .LVU169
 531 0084 22F01902 		bic	r2, r2, #25
 532 0088 1343     		orrs	r3, r3, r2
 533 008a 0B60     		str	r3, [r1]
 516:../../Drivers/STM32H7xx_HAL_Driver/Src/stm32h7xx_hal_rcc.c **** 
 517:../../Drivers/STM32H7xx_HAL_Driver/Src/stm32h7xx_hal_rcc.c ****         /* Get Start Tick*/
 518:../../Drivers/STM32H7xx_HAL_Driver/Src/stm32h7xx_hal_rcc.c ****         tickstart = HAL_GetTick();
 534              		.loc 1 518 9 is_stmt 1 view .LVU170
 535              		.loc 1 518 21 is_stmt 0 view .LVU171
 536 008c FFF7FEFF 		bl	HAL_GetTick
 537              	.LVL42:
 538 0090 0546     		mov	r5, r0
 539              	.LVL43:
 519:../../Drivers/STM32H7xx_HAL_Driver/Src/stm32h7xx_hal_rcc.c **** 
 520:../../Drivers/STM32H7xx_HAL_Driver/Src/stm32h7xx_hal_rcc.c ****         /* Wait till HSI is ready */
 521:../../Drivers/STM32H7xx_HAL_Driver/Src/stm32h7xx_hal_rcc.c ****         while (__HAL_RCC_GET_FLAG(RCC_FLAG_HSIRDY) == 0U)
 540              		.loc 1 521 9 is_stmt 1 view .LVU172
 541              	.L58:
 542              		.loc 1 521 15 view .LVU173
 543              		.loc 1 521 16 is_stmt 0 view .LVU174
 544 0092 744B     		ldr	r3, .L166
 545 0094 1B68     		ldr	r3, [r3]
 546              		.loc 1 521 15 view .LVU175
 547 0096 13F0040F 		tst	r3, #4
 548 009a 40F0AD80 		bne	.L148
 522:../../Drivers/STM32H7xx_HAL_Driver/Src/stm32h7xx_hal_rcc.c ****         {
 523:../../Drivers/STM32H7xx_HAL_Driver/Src/stm32h7xx_hal_rcc.c ****           if ((HAL_GetTick() - tickstart) > HSI_TIMEOUT_VALUE)
 549              		.loc 1 523 11 is_stmt 1 view .LVU176
 550              		.loc 1 523 16 is_stmt 0 view .LVU177
 551 009e FFF7FEFF 		bl	HAL_GetTick
 552              	.LVL44:
ARM GAS  /tmp/ccooDZtA.s 			page 20


 553              		.loc 1 523 30 view .LVU178
 554 00a2 401B     		subs	r0, r0, r5
 555              		.loc 1 523 14 view .LVU179
 556 00a4 0228     		cmp	r0, #2
 557 00a6 F4D9     		bls	.L58
 524:../../Drivers/STM32H7xx_HAL_Driver/Src/stm32h7xx_hal_rcc.c ****           {
 525:../../Drivers/STM32H7xx_HAL_Driver/Src/stm32h7xx_hal_rcc.c ****             return HAL_TIMEOUT;
 558              		.loc 1 525 20 view .LVU180
 559 00a8 0320     		movs	r0, #3
 560 00aa EEE2     		b	.L36
 561              	.LVL45:
 562              	.L145:
 563              		.loc 1 525 20 view .LVU181
 564              	.LBE3:
 565              	.LBB4:
 437:../../Drivers/STM32H7xx_HAL_Driver/Src/stm32h7xx_hal_rcc.c **** 
 566              		.loc 1 437 7 is_stmt 1 discriminator 1 view .LVU182
 567 00ac 6D4A     		ldr	r2, .L166
 568 00ae 1368     		ldr	r3, [r2]
 569 00b0 43F48033 		orr	r3, r3, #65536
 570 00b4 1360     		str	r3, [r2]
 571              	.L41:
 437:../../Drivers/STM32H7xx_HAL_Driver/Src/stm32h7xx_hal_rcc.c **** 
 572              		.loc 1 437 7 discriminator 10 view .LVU183
 440:../../Drivers/STM32H7xx_HAL_Driver/Src/stm32h7xx_hal_rcc.c ****       {
 573              		.loc 1 440 7 discriminator 10 view .LVU184
 440:../../Drivers/STM32H7xx_HAL_Driver/Src/stm32h7xx_hal_rcc.c ****       {
 574              		.loc 1 440 28 is_stmt 0 discriminator 10 view .LVU185
 575 00b6 6368     		ldr	r3, [r4, #4]
 440:../../Drivers/STM32H7xx_HAL_Driver/Src/stm32h7xx_hal_rcc.c ****       {
 576              		.loc 1 440 10 discriminator 10 view .LVU186
 577 00b8 2BB3     		cbz	r3, .L44
 443:../../Drivers/STM32H7xx_HAL_Driver/Src/stm32h7xx_hal_rcc.c **** 
 578              		.loc 1 443 9 is_stmt 1 view .LVU187
 443:../../Drivers/STM32H7xx_HAL_Driver/Src/stm32h7xx_hal_rcc.c **** 
 579              		.loc 1 443 21 is_stmt 0 view .LVU188
 580 00ba FFF7FEFF 		bl	HAL_GetTick
 581              	.LVL46:
 443:../../Drivers/STM32H7xx_HAL_Driver/Src/stm32h7xx_hal_rcc.c **** 
 582              		.loc 1 443 21 view .LVU189
 583 00be 0546     		mov	r5, r0
 584              	.LVL47:
 446:../../Drivers/STM32H7xx_HAL_Driver/Src/stm32h7xx_hal_rcc.c ****         {
 585              		.loc 1 446 9 is_stmt 1 view .LVU190
 586              	.L45:
 446:../../Drivers/STM32H7xx_HAL_Driver/Src/stm32h7xx_hal_rcc.c ****         {
 587              		.loc 1 446 15 view .LVU191
 446:../../Drivers/STM32H7xx_HAL_Driver/Src/stm32h7xx_hal_rcc.c ****         {
 588              		.loc 1 446 16 is_stmt 0 view .LVU192
 589 00c0 684B     		ldr	r3, .L166
 590 00c2 1B68     		ldr	r3, [r3]
 446:../../Drivers/STM32H7xx_HAL_Driver/Src/stm32h7xx_hal_rcc.c ****         {
 591              		.loc 1 446 15 view .LVU193
 592 00c4 13F4003F 		tst	r3, #131072
 593 00c8 C9D1     		bne	.L37
 448:../../Drivers/STM32H7xx_HAL_Driver/Src/stm32h7xx_hal_rcc.c ****           {
 594              		.loc 1 448 11 is_stmt 1 view .LVU194
ARM GAS  /tmp/ccooDZtA.s 			page 21


 448:../../Drivers/STM32H7xx_HAL_Driver/Src/stm32h7xx_hal_rcc.c ****           {
 595              		.loc 1 448 26 is_stmt 0 view .LVU195
 596 00ca FFF7FEFF 		bl	HAL_GetTick
 597              	.LVL48:
 448:../../Drivers/STM32H7xx_HAL_Driver/Src/stm32h7xx_hal_rcc.c ****           {
 598              		.loc 1 448 40 view .LVU196
 599 00ce 401B     		subs	r0, r0, r5
 448:../../Drivers/STM32H7xx_HAL_Driver/Src/stm32h7xx_hal_rcc.c ****           {
 600              		.loc 1 448 14 view .LVU197
 601 00d0 6428     		cmp	r0, #100
 602 00d2 F5D9     		bls	.L45
 450:../../Drivers/STM32H7xx_HAL_Driver/Src/stm32h7xx_hal_rcc.c ****           }
 603              		.loc 1 450 20 view .LVU198
 604 00d4 0320     		movs	r0, #3
 605 00d6 D8E2     		b	.L36
 606              	.LVL49:
 607              	.L42:
 437:../../Drivers/STM32H7xx_HAL_Driver/Src/stm32h7xx_hal_rcc.c **** 
 608              		.loc 1 437 7 is_stmt 1 discriminator 5 view .LVU199
 609 00d8 B3F5A02F 		cmp	r3, #327680
 610 00dc 09D0     		beq	.L149
 437:../../Drivers/STM32H7xx_HAL_Driver/Src/stm32h7xx_hal_rcc.c **** 
 611              		.loc 1 437 7 discriminator 8 view .LVU200
 612 00de 614B     		ldr	r3, .L166
 613 00e0 1A68     		ldr	r2, [r3]
 614 00e2 22F48032 		bic	r2, r2, #65536
 615 00e6 1A60     		str	r2, [r3]
 437:../../Drivers/STM32H7xx_HAL_Driver/Src/stm32h7xx_hal_rcc.c **** 
 616              		.loc 1 437 7 discriminator 8 view .LVU201
 617 00e8 1A68     		ldr	r2, [r3]
 618 00ea 22F48022 		bic	r2, r2, #262144
 619 00ee 1A60     		str	r2, [r3]
 620 00f0 E1E7     		b	.L41
 621              	.L149:
 437:../../Drivers/STM32H7xx_HAL_Driver/Src/stm32h7xx_hal_rcc.c **** 
 622              		.loc 1 437 7 discriminator 7 view .LVU202
 623 00f2 5C4B     		ldr	r3, .L166
 624 00f4 1A68     		ldr	r2, [r3]
 625 00f6 42F48022 		orr	r2, r2, #262144
 626 00fa 1A60     		str	r2, [r3]
 437:../../Drivers/STM32H7xx_HAL_Driver/Src/stm32h7xx_hal_rcc.c **** 
 627              		.loc 1 437 7 discriminator 7 view .LVU203
 628 00fc 1A68     		ldr	r2, [r3]
 629 00fe 42F48032 		orr	r2, r2, #65536
 630 0102 1A60     		str	r2, [r3]
 631 0104 D7E7     		b	.L41
 632              	.L44:
 457:../../Drivers/STM32H7xx_HAL_Driver/Src/stm32h7xx_hal_rcc.c **** 
 633              		.loc 1 457 9 view .LVU204
 457:../../Drivers/STM32H7xx_HAL_Driver/Src/stm32h7xx_hal_rcc.c **** 
 634              		.loc 1 457 21 is_stmt 0 view .LVU205
 635 0106 FFF7FEFF 		bl	HAL_GetTick
 636              	.LVL50:
 457:../../Drivers/STM32H7xx_HAL_Driver/Src/stm32h7xx_hal_rcc.c **** 
 637              		.loc 1 457 21 view .LVU206
 638 010a 0546     		mov	r5, r0
 639              	.LVL51:
ARM GAS  /tmp/ccooDZtA.s 			page 22


 460:../../Drivers/STM32H7xx_HAL_Driver/Src/stm32h7xx_hal_rcc.c ****         {
 640              		.loc 1 460 9 is_stmt 1 view .LVU207
 641              	.L47:
 460:../../Drivers/STM32H7xx_HAL_Driver/Src/stm32h7xx_hal_rcc.c ****         {
 642              		.loc 1 460 15 view .LVU208
 460:../../Drivers/STM32H7xx_HAL_Driver/Src/stm32h7xx_hal_rcc.c ****         {
 643              		.loc 1 460 16 is_stmt 0 view .LVU209
 644 010c 554B     		ldr	r3, .L166
 645 010e 1B68     		ldr	r3, [r3]
 460:../../Drivers/STM32H7xx_HAL_Driver/Src/stm32h7xx_hal_rcc.c ****         {
 646              		.loc 1 460 15 view .LVU210
 647 0110 13F4003F 		tst	r3, #131072
 648 0114 A3D0     		beq	.L37
 462:../../Drivers/STM32H7xx_HAL_Driver/Src/stm32h7xx_hal_rcc.c ****           {
 649              		.loc 1 462 11 is_stmt 1 view .LVU211
 462:../../Drivers/STM32H7xx_HAL_Driver/Src/stm32h7xx_hal_rcc.c ****           {
 650              		.loc 1 462 26 is_stmt 0 view .LVU212
 651 0116 FFF7FEFF 		bl	HAL_GetTick
 652              	.LVL52:
 462:../../Drivers/STM32H7xx_HAL_Driver/Src/stm32h7xx_hal_rcc.c ****           {
 653              		.loc 1 462 40 view .LVU213
 654 011a 401B     		subs	r0, r0, r5
 462:../../Drivers/STM32H7xx_HAL_Driver/Src/stm32h7xx_hal_rcc.c ****           {
 655              		.loc 1 462 14 view .LVU214
 656 011c 6428     		cmp	r0, #100
 657 011e F5D9     		bls	.L47
 464:../../Drivers/STM32H7xx_HAL_Driver/Src/stm32h7xx_hal_rcc.c ****           }
 658              		.loc 1 464 20 view .LVU215
 659 0120 0320     		movs	r0, #3
 660 0122 B2E2     		b	.L36
 661              	.LVL53:
 662              	.L147:
 464:../../Drivers/STM32H7xx_HAL_Driver/Src/stm32h7xx_hal_rcc.c ****           }
 663              		.loc 1 464 20 view .LVU216
 664              	.LBE4:
 665              	.LBB5:
 480:../../Drivers/STM32H7xx_HAL_Driver/Src/stm32h7xx_hal_rcc.c ****     {
 666              		.loc 1 480 88 discriminator 2 view .LVU217
 667 0124 12F0030F 		tst	r2, #3
 668 0128 A6D1     		bne	.L51
 669              	.L50:
 483:../../Drivers/STM32H7xx_HAL_Driver/Src/stm32h7xx_hal_rcc.c ****       {
 670              		.loc 1 483 7 is_stmt 1 view .LVU218
 483:../../Drivers/STM32H7xx_HAL_Driver/Src/stm32h7xx_hal_rcc.c ****       {
 671              		.loc 1 483 12 is_stmt 0 view .LVU219
 672 012a 4E4B     		ldr	r3, .L166
 673              	.LVL54:
 483:../../Drivers/STM32H7xx_HAL_Driver/Src/stm32h7xx_hal_rcc.c ****       {
 674              		.loc 1 483 12 view .LVU220
 675 012c 1B68     		ldr	r3, [r3]
 483:../../Drivers/STM32H7xx_HAL_Driver/Src/stm32h7xx_hal_rcc.c ****       {
 676              		.loc 1 483 10 view .LVU221
 677 012e 13F0040F 		tst	r3, #4
 678 0132 03D0     		beq	.L52
 483:../../Drivers/STM32H7xx_HAL_Driver/Src/stm32h7xx_hal_rcc.c ****       {
 679              		.loc 1 483 76 discriminator 1 view .LVU222
 680 0134 E368     		ldr	r3, [r4, #12]
ARM GAS  /tmp/ccooDZtA.s 			page 23


 483:../../Drivers/STM32H7xx_HAL_Driver/Src/stm32h7xx_hal_rcc.c ****       {
 681              		.loc 1 483 55 discriminator 1 view .LVU223
 682 0136 002B     		cmp	r3, #0
 683 0138 00F0A282 		beq	.L114
 684              	.L52:
 491:../../Drivers/STM32H7xx_HAL_Driver/Src/stm32h7xx_hal_rcc.c **** 
 685              		.loc 1 491 9 is_stmt 1 view .LVU224
 686 013c 494A     		ldr	r2, .L166
 687              	.LVL55:
 491:../../Drivers/STM32H7xx_HAL_Driver/Src/stm32h7xx_hal_rcc.c **** 
 688              		.loc 1 491 9 is_stmt 0 view .LVU225
 689 013e 1368     		ldr	r3, [r2]
 690 0140 23F01903 		bic	r3, r3, #25
 691 0144 E168     		ldr	r1, [r4, #12]
 692 0146 0B43     		orrs	r3, r3, r1
 693 0148 1360     		str	r3, [r2]
 494:../../Drivers/STM32H7xx_HAL_Driver/Src/stm32h7xx_hal_rcc.c **** 
 694              		.loc 1 494 9 is_stmt 1 view .LVU226
 494:../../Drivers/STM32H7xx_HAL_Driver/Src/stm32h7xx_hal_rcc.c **** 
 695              		.loc 1 494 21 is_stmt 0 view .LVU227
 696 014a FFF7FEFF 		bl	HAL_GetTick
 697              	.LVL56:
 698 014e 0546     		mov	r5, r0
 699              	.LVL57:
 497:../../Drivers/STM32H7xx_HAL_Driver/Src/stm32h7xx_hal_rcc.c ****         {
 700              		.loc 1 497 9 is_stmt 1 view .LVU228
 701              	.L53:
 497:../../Drivers/STM32H7xx_HAL_Driver/Src/stm32h7xx_hal_rcc.c ****         {
 702              		.loc 1 497 15 view .LVU229
 497:../../Drivers/STM32H7xx_HAL_Driver/Src/stm32h7xx_hal_rcc.c ****         {
 703              		.loc 1 497 16 is_stmt 0 view .LVU230
 704 0150 444B     		ldr	r3, .L166
 705 0152 1B68     		ldr	r3, [r3]
 497:../../Drivers/STM32H7xx_HAL_Driver/Src/stm32h7xx_hal_rcc.c ****         {
 706              		.loc 1 497 15 view .LVU231
 707 0154 13F0040F 		tst	r3, #4
 708 0158 06D1     		bne	.L150
 499:../../Drivers/STM32H7xx_HAL_Driver/Src/stm32h7xx_hal_rcc.c ****           {
 709              		.loc 1 499 11 is_stmt 1 view .LVU232
 499:../../Drivers/STM32H7xx_HAL_Driver/Src/stm32h7xx_hal_rcc.c ****           {
 710              		.loc 1 499 26 is_stmt 0 view .LVU233
 711 015a FFF7FEFF 		bl	HAL_GetTick
 712              	.LVL58:
 499:../../Drivers/STM32H7xx_HAL_Driver/Src/stm32h7xx_hal_rcc.c ****           {
 713              		.loc 1 499 40 view .LVU234
 714 015e 401B     		subs	r0, r0, r5
 499:../../Drivers/STM32H7xx_HAL_Driver/Src/stm32h7xx_hal_rcc.c ****           {
 715              		.loc 1 499 14 view .LVU235
 716 0160 0228     		cmp	r0, #2
 717 0162 F5D9     		bls	.L53
 501:../../Drivers/STM32H7xx_HAL_Driver/Src/stm32h7xx_hal_rcc.c ****           }
 718              		.loc 1 501 20 view .LVU236
 719 0164 0320     		movs	r0, #3
 720 0166 90E2     		b	.L36
 721              	.L150:
 505:../../Drivers/STM32H7xx_HAL_Driver/Src/stm32h7xx_hal_rcc.c ****       }
 722              		.loc 1 505 9 is_stmt 1 view .LVU237
ARM GAS  /tmp/ccooDZtA.s 			page 24


 505:../../Drivers/STM32H7xx_HAL_Driver/Src/stm32h7xx_hal_rcc.c ****       }
 723              		.loc 1 505 9 view .LVU238
 724 0168 FFF7FEFF 		bl	HAL_GetREVID
 725              	.LVL59:
 726 016c 41F20303 		movw	r3, #4099
 727 0170 9842     		cmp	r0, r3
 728 0172 12D8     		bhi	.L55
 505:../../Drivers/STM32H7xx_HAL_Driver/Src/stm32h7xx_hal_rcc.c ****       }
 729              		.loc 1 505 9 discriminator 1 view .LVU239
 730 0174 2269     		ldr	r2, [r4, #16]
 731 0176 402A     		cmp	r2, #64
 732 0178 07D0     		beq	.L151
 505:../../Drivers/STM32H7xx_HAL_Driver/Src/stm32h7xx_hal_rcc.c ****       }
 733              		.loc 1 505 9 discriminator 4 view .LVU240
 734 017a 3A49     		ldr	r1, .L166
 735 017c 4B68     		ldr	r3, [r1, #4]
 736 017e 23F47C33 		bic	r3, r3, #258048
 737 0182 43EA0233 		orr	r3, r3, r2, lsl #12
 738 0186 4B60     		str	r3, [r1, #4]
 739 0188 0FE0     		b	.L49
 740              	.L151:
 505:../../Drivers/STM32H7xx_HAL_Driver/Src/stm32h7xx_hal_rcc.c ****       }
 741              		.loc 1 505 9 discriminator 3 view .LVU241
 742 018a 364A     		ldr	r2, .L166
 743 018c 5368     		ldr	r3, [r2, #4]
 744 018e 23F47C33 		bic	r3, r3, #258048
 745 0192 43F40033 		orr	r3, r3, #131072
 746 0196 5360     		str	r3, [r2, #4]
 747 0198 07E0     		b	.L49
 748              	.L55:
 505:../../Drivers/STM32H7xx_HAL_Driver/Src/stm32h7xx_hal_rcc.c ****       }
 749              		.loc 1 505 9 discriminator 2 view .LVU242
 750 019a 324A     		ldr	r2, .L166
 751 019c 5368     		ldr	r3, [r2, #4]
 752 019e 23F0FE43 		bic	r3, r3, #2130706432
 753 01a2 2169     		ldr	r1, [r4, #16]
 754 01a4 43EA0163 		orr	r3, r3, r1, lsl #24
 755 01a8 5360     		str	r3, [r2, #4]
 756              	.LVL60:
 757              	.L49:
 505:../../Drivers/STM32H7xx_HAL_Driver/Src/stm32h7xx_hal_rcc.c ****       }
 758              		.loc 1 505 9 is_stmt 0 discriminator 2 view .LVU243
 759              	.LBE5:
 526:../../Drivers/STM32H7xx_HAL_Driver/Src/stm32h7xx_hal_rcc.c ****           }
 527:../../Drivers/STM32H7xx_HAL_Driver/Src/stm32h7xx_hal_rcc.c ****         }
 528:../../Drivers/STM32H7xx_HAL_Driver/Src/stm32h7xx_hal_rcc.c **** 
 529:../../Drivers/STM32H7xx_HAL_Driver/Src/stm32h7xx_hal_rcc.c ****         /* Adjusts the Internal High Speed oscillator (HSI) calibration value.*/
 530:../../Drivers/STM32H7xx_HAL_Driver/Src/stm32h7xx_hal_rcc.c ****         __HAL_RCC_HSI_CALIBRATIONVALUE_ADJUST(RCC_OscInitStruct->HSICalibrationValue);
 531:../../Drivers/STM32H7xx_HAL_Driver/Src/stm32h7xx_hal_rcc.c ****       }
 532:../../Drivers/STM32H7xx_HAL_Driver/Src/stm32h7xx_hal_rcc.c ****       else
 533:../../Drivers/STM32H7xx_HAL_Driver/Src/stm32h7xx_hal_rcc.c ****       {
 534:../../Drivers/STM32H7xx_HAL_Driver/Src/stm32h7xx_hal_rcc.c ****         /* Disable the Internal High Speed oscillator (HSI). */
 535:../../Drivers/STM32H7xx_HAL_Driver/Src/stm32h7xx_hal_rcc.c ****         __HAL_RCC_HSI_DISABLE();
 536:../../Drivers/STM32H7xx_HAL_Driver/Src/stm32h7xx_hal_rcc.c **** 
 537:../../Drivers/STM32H7xx_HAL_Driver/Src/stm32h7xx_hal_rcc.c ****         /* Get Start Tick*/
 538:../../Drivers/STM32H7xx_HAL_Driver/Src/stm32h7xx_hal_rcc.c ****         tickstart = HAL_GetTick();
 539:../../Drivers/STM32H7xx_HAL_Driver/Src/stm32h7xx_hal_rcc.c **** 
ARM GAS  /tmp/ccooDZtA.s 			page 25


 540:../../Drivers/STM32H7xx_HAL_Driver/Src/stm32h7xx_hal_rcc.c ****         /* Wait till HSI is disabled */
 541:../../Drivers/STM32H7xx_HAL_Driver/Src/stm32h7xx_hal_rcc.c ****         while (__HAL_RCC_GET_FLAG(RCC_FLAG_HSIRDY) != 0U)
 542:../../Drivers/STM32H7xx_HAL_Driver/Src/stm32h7xx_hal_rcc.c ****         {
 543:../../Drivers/STM32H7xx_HAL_Driver/Src/stm32h7xx_hal_rcc.c ****           if ((HAL_GetTick() - tickstart) > HSI_TIMEOUT_VALUE)
 544:../../Drivers/STM32H7xx_HAL_Driver/Src/stm32h7xx_hal_rcc.c ****           {
 545:../../Drivers/STM32H7xx_HAL_Driver/Src/stm32h7xx_hal_rcc.c ****             return HAL_TIMEOUT;
 546:../../Drivers/STM32H7xx_HAL_Driver/Src/stm32h7xx_hal_rcc.c ****           }
 547:../../Drivers/STM32H7xx_HAL_Driver/Src/stm32h7xx_hal_rcc.c ****         }
 548:../../Drivers/STM32H7xx_HAL_Driver/Src/stm32h7xx_hal_rcc.c ****       }
 549:../../Drivers/STM32H7xx_HAL_Driver/Src/stm32h7xx_hal_rcc.c ****     }
 550:../../Drivers/STM32H7xx_HAL_Driver/Src/stm32h7xx_hal_rcc.c ****   }
 551:../../Drivers/STM32H7xx_HAL_Driver/Src/stm32h7xx_hal_rcc.c ****   /*----------------------------- CSI Configuration --------------------------*/
 552:../../Drivers/STM32H7xx_HAL_Driver/Src/stm32h7xx_hal_rcc.c ****   if (((RCC_OscInitStruct->OscillatorType) & RCC_OSCILLATORTYPE_CSI) == RCC_OSCILLATORTYPE_CSI)
 760              		.loc 1 552 3 is_stmt 1 view .LVU244
 761              		.loc 1 552 26 is_stmt 0 view .LVU245
 762 01aa 2368     		ldr	r3, [r4]
 763              		.loc 1 552 6 view .LVU246
 764 01ac 13F0100F 		tst	r3, #16
 765 01b0 00F08880 		beq	.L64
 766              	.LBB6:
 553:../../Drivers/STM32H7xx_HAL_Driver/Src/stm32h7xx_hal_rcc.c ****   {
 554:../../Drivers/STM32H7xx_HAL_Driver/Src/stm32h7xx_hal_rcc.c ****     /* Check the parameters */
 555:../../Drivers/STM32H7xx_HAL_Driver/Src/stm32h7xx_hal_rcc.c ****     assert_param(IS_RCC_CSI(RCC_OscInitStruct->CSIState));
 767              		.loc 1 555 5 is_stmt 1 view .LVU247
 556:../../Drivers/STM32H7xx_HAL_Driver/Src/stm32h7xx_hal_rcc.c ****     assert_param(IS_RCC_CSICALIBRATION_VALUE(RCC_OscInitStruct->CSICalibrationValue));
 768              		.loc 1 556 5 view .LVU248
 557:../../Drivers/STM32H7xx_HAL_Driver/Src/stm32h7xx_hal_rcc.c **** 
 558:../../Drivers/STM32H7xx_HAL_Driver/Src/stm32h7xx_hal_rcc.c ****     /* When the CSI is used as system clock it will not disabled */
 559:../../Drivers/STM32H7xx_HAL_Driver/Src/stm32h7xx_hal_rcc.c ****     const uint32_t temp_sysclksrc = __HAL_RCC_GET_SYSCLK_SOURCE();
 769              		.loc 1 559 5 view .LVU249
 770              		.loc 1 559 37 is_stmt 0 view .LVU250
 771 01b4 2B4A     		ldr	r2, .L166
 772 01b6 1369     		ldr	r3, [r2, #16]
 773              		.loc 1 559 20 view .LVU251
 774 01b8 03F03803 		and	r3, r3, #56
 775              	.LVL61:
 560:../../Drivers/STM32H7xx_HAL_Driver/Src/stm32h7xx_hal_rcc.c ****     const uint32_t temp_pllckselr = RCC->PLLCKSELR;
 776              		.loc 1 560 5 is_stmt 1 view .LVU252
 777              		.loc 1 560 20 is_stmt 0 view .LVU253
 778 01bc 926A     		ldr	r2, [r2, #40]
 779              	.LVL62:
 561:../../Drivers/STM32H7xx_HAL_Driver/Src/stm32h7xx_hal_rcc.c ****     if ((temp_sysclksrc == RCC_CFGR_SWS_CSI) || ((temp_sysclksrc == RCC_CFGR_SWS_PLL1) && ((temp_pl
 780              		.loc 1 561 5 is_stmt 1 view .LVU254
 781              		.loc 1 561 8 is_stmt 0 view .LVU255
 782 01be 082B     		cmp	r3, #8
 783 01c0 56D0     		beq	.L65
 784              		.loc 1 561 46 discriminator 1 view .LVU256
 785 01c2 182B     		cmp	r3, #24
 786 01c4 50D0     		beq	.L152
 787              	.LVL63:
 788              	.L66:
 562:../../Drivers/STM32H7xx_HAL_Driver/Src/stm32h7xx_hal_rcc.c ****     {
 563:../../Drivers/STM32H7xx_HAL_Driver/Src/stm32h7xx_hal_rcc.c ****       /* When CSI is used as system clock it will not disabled */
 564:../../Drivers/STM32H7xx_HAL_Driver/Src/stm32h7xx_hal_rcc.c ****       if ((__HAL_RCC_GET_FLAG(RCC_FLAG_CSIRDY) != 0U) && (RCC_OscInitStruct->CSIState != RCC_CSI_ON
 565:../../Drivers/STM32H7xx_HAL_Driver/Src/stm32h7xx_hal_rcc.c ****       {
 566:../../Drivers/STM32H7xx_HAL_Driver/Src/stm32h7xx_hal_rcc.c ****         return HAL_ERROR;
 567:../../Drivers/STM32H7xx_HAL_Driver/Src/stm32h7xx_hal_rcc.c ****       }
ARM GAS  /tmp/ccooDZtA.s 			page 26


 568:../../Drivers/STM32H7xx_HAL_Driver/Src/stm32h7xx_hal_rcc.c ****       /* Otherwise, just the calibration is allowed */
 569:../../Drivers/STM32H7xx_HAL_Driver/Src/stm32h7xx_hal_rcc.c ****       else
 570:../../Drivers/STM32H7xx_HAL_Driver/Src/stm32h7xx_hal_rcc.c ****       {
 571:../../Drivers/STM32H7xx_HAL_Driver/Src/stm32h7xx_hal_rcc.c ****         /* Adjusts the Internal High Speed oscillator (CSI) calibration value.*/
 572:../../Drivers/STM32H7xx_HAL_Driver/Src/stm32h7xx_hal_rcc.c ****         __HAL_RCC_CSI_CALIBRATIONVALUE_ADJUST(RCC_OscInitStruct->CSICalibrationValue);
 573:../../Drivers/STM32H7xx_HAL_Driver/Src/stm32h7xx_hal_rcc.c ****       }
 574:../../Drivers/STM32H7xx_HAL_Driver/Src/stm32h7xx_hal_rcc.c ****     }
 575:../../Drivers/STM32H7xx_HAL_Driver/Src/stm32h7xx_hal_rcc.c ****     else
 576:../../Drivers/STM32H7xx_HAL_Driver/Src/stm32h7xx_hal_rcc.c ****     {
 577:../../Drivers/STM32H7xx_HAL_Driver/Src/stm32h7xx_hal_rcc.c ****       /* Check the CSI State */
 578:../../Drivers/STM32H7xx_HAL_Driver/Src/stm32h7xx_hal_rcc.c ****       if ((RCC_OscInitStruct->CSIState) != RCC_CSI_OFF)
 789              		.loc 1 578 7 is_stmt 1 view .LVU257
 790              		.loc 1 578 29 is_stmt 0 view .LVU258
 791 01c6 E369     		ldr	r3, [r4, #28]
 792              	.LVL64:
 793              		.loc 1 578 10 view .LVU259
 794 01c8 002B     		cmp	r3, #0
 795 01ca 00F0B880 		beq	.L70
 579:../../Drivers/STM32H7xx_HAL_Driver/Src/stm32h7xx_hal_rcc.c ****       {
 580:../../Drivers/STM32H7xx_HAL_Driver/Src/stm32h7xx_hal_rcc.c ****         /* Enable the Internal High Speed oscillator (CSI). */
 581:../../Drivers/STM32H7xx_HAL_Driver/Src/stm32h7xx_hal_rcc.c ****         __HAL_RCC_CSI_ENABLE();
 796              		.loc 1 581 9 is_stmt 1 view .LVU260
 797 01ce 254A     		ldr	r2, .L166
 798 01d0 1368     		ldr	r3, [r2]
 799 01d2 43F08003 		orr	r3, r3, #128
 800 01d6 1360     		str	r3, [r2]
 582:../../Drivers/STM32H7xx_HAL_Driver/Src/stm32h7xx_hal_rcc.c **** 
 583:../../Drivers/STM32H7xx_HAL_Driver/Src/stm32h7xx_hal_rcc.c ****         /* Get Start Tick*/
 584:../../Drivers/STM32H7xx_HAL_Driver/Src/stm32h7xx_hal_rcc.c ****         tickstart = HAL_GetTick();
 801              		.loc 1 584 9 view .LVU261
 802              		.loc 1 584 21 is_stmt 0 view .LVU262
 803 01d8 FFF7FEFF 		bl	HAL_GetTick
 804              	.LVL65:
 805 01dc 0546     		mov	r5, r0
 806              	.LVL66:
 585:../../Drivers/STM32H7xx_HAL_Driver/Src/stm32h7xx_hal_rcc.c **** 
 586:../../Drivers/STM32H7xx_HAL_Driver/Src/stm32h7xx_hal_rcc.c ****         /* Wait till CSI is ready */
 587:../../Drivers/STM32H7xx_HAL_Driver/Src/stm32h7xx_hal_rcc.c ****         while (__HAL_RCC_GET_FLAG(RCC_FLAG_CSIRDY) == 0U)
 807              		.loc 1 587 9 is_stmt 1 view .LVU263
 808              	.L71:
 809              		.loc 1 587 15 view .LVU264
 810              		.loc 1 587 16 is_stmt 0 view .LVU265
 811 01de 214B     		ldr	r3, .L166
 812 01e0 1B68     		ldr	r3, [r3]
 813              		.loc 1 587 15 view .LVU266
 814 01e2 13F4807F 		tst	r3, #256
 815 01e6 40F08880 		bne	.L153
 588:../../Drivers/STM32H7xx_HAL_Driver/Src/stm32h7xx_hal_rcc.c ****         {
 589:../../Drivers/STM32H7xx_HAL_Driver/Src/stm32h7xx_hal_rcc.c ****           if ((HAL_GetTick() - tickstart) > CSI_TIMEOUT_VALUE)
 816              		.loc 1 589 11 is_stmt 1 view .LVU267
 817              		.loc 1 589 16 is_stmt 0 view .LVU268
 818 01ea FFF7FEFF 		bl	HAL_GetTick
 819              	.LVL67:
 820              		.loc 1 589 30 view .LVU269
 821 01ee 401B     		subs	r0, r0, r5
 822              		.loc 1 589 14 view .LVU270
 823 01f0 0228     		cmp	r0, #2
ARM GAS  /tmp/ccooDZtA.s 			page 27


 824 01f2 F4D9     		bls	.L71
 590:../../Drivers/STM32H7xx_HAL_Driver/Src/stm32h7xx_hal_rcc.c ****           {
 591:../../Drivers/STM32H7xx_HAL_Driver/Src/stm32h7xx_hal_rcc.c ****             return HAL_TIMEOUT;
 825              		.loc 1 591 20 view .LVU271
 826 01f4 0320     		movs	r0, #3
 827 01f6 48E2     		b	.L36
 828              	.L148:
 829              		.loc 1 591 20 view .LVU272
 830              	.LBE6:
 831              	.LBB7:
 530:../../Drivers/STM32H7xx_HAL_Driver/Src/stm32h7xx_hal_rcc.c ****       }
 832              		.loc 1 530 9 is_stmt 1 view .LVU273
 530:../../Drivers/STM32H7xx_HAL_Driver/Src/stm32h7xx_hal_rcc.c ****       }
 833              		.loc 1 530 9 view .LVU274
 834 01f8 FFF7FEFF 		bl	HAL_GetREVID
 835              	.LVL68:
 836 01fc 41F20303 		movw	r3, #4099
 837 0200 9842     		cmp	r0, r3
 838 0202 12D8     		bhi	.L60
 530:../../Drivers/STM32H7xx_HAL_Driver/Src/stm32h7xx_hal_rcc.c ****       }
 839              		.loc 1 530 9 discriminator 1 view .LVU275
 840 0204 2269     		ldr	r2, [r4, #16]
 841 0206 402A     		cmp	r2, #64
 842 0208 07D0     		beq	.L154
 530:../../Drivers/STM32H7xx_HAL_Driver/Src/stm32h7xx_hal_rcc.c ****       }
 843              		.loc 1 530 9 discriminator 4 view .LVU276
 844 020a 1649     		ldr	r1, .L166
 845 020c 4B68     		ldr	r3, [r1, #4]
 846 020e 23F47C33 		bic	r3, r3, #258048
 847 0212 43EA0233 		orr	r3, r3, r2, lsl #12
 848 0216 4B60     		str	r3, [r1, #4]
 849 0218 C7E7     		b	.L49
 850              	.L154:
 530:../../Drivers/STM32H7xx_HAL_Driver/Src/stm32h7xx_hal_rcc.c ****       }
 851              		.loc 1 530 9 discriminator 3 view .LVU277
 852 021a 124A     		ldr	r2, .L166
 853 021c 5368     		ldr	r3, [r2, #4]
 854 021e 23F47C33 		bic	r3, r3, #258048
 855 0222 43F40033 		orr	r3, r3, #131072
 856 0226 5360     		str	r3, [r2, #4]
 857 0228 BFE7     		b	.L49
 858              	.L60:
 530:../../Drivers/STM32H7xx_HAL_Driver/Src/stm32h7xx_hal_rcc.c ****       }
 859              		.loc 1 530 9 discriminator 2 view .LVU278
 860 022a 0E4A     		ldr	r2, .L166
 861 022c 5368     		ldr	r3, [r2, #4]
 862 022e 23F0FE43 		bic	r3, r3, #2130706432
 863 0232 2169     		ldr	r1, [r4, #16]
 864 0234 43EA0163 		orr	r3, r3, r1, lsl #24
 865 0238 5360     		str	r3, [r2, #4]
 866 023a B6E7     		b	.L49
 867              	.LVL69:
 868              	.L57:
 535:../../Drivers/STM32H7xx_HAL_Driver/Src/stm32h7xx_hal_rcc.c **** 
 869              		.loc 1 535 9 view .LVU279
 870 023c 094A     		ldr	r2, .L166
 871              	.LVL70:
ARM GAS  /tmp/ccooDZtA.s 			page 28


 535:../../Drivers/STM32H7xx_HAL_Driver/Src/stm32h7xx_hal_rcc.c **** 
 872              		.loc 1 535 9 is_stmt 0 view .LVU280
 873 023e 1368     		ldr	r3, [r2]
 874 0240 23F00103 		bic	r3, r3, #1
 875 0244 1360     		str	r3, [r2]
 538:../../Drivers/STM32H7xx_HAL_Driver/Src/stm32h7xx_hal_rcc.c **** 
 876              		.loc 1 538 9 is_stmt 1 view .LVU281
 538:../../Drivers/STM32H7xx_HAL_Driver/Src/stm32h7xx_hal_rcc.c **** 
 877              		.loc 1 538 21 is_stmt 0 view .LVU282
 878 0246 FFF7FEFF 		bl	HAL_GetTick
 879              	.LVL71:
 880 024a 0546     		mov	r5, r0
 881              	.LVL72:
 541:../../Drivers/STM32H7xx_HAL_Driver/Src/stm32h7xx_hal_rcc.c ****         {
 882              		.loc 1 541 9 is_stmt 1 view .LVU283
 883              	.L62:
 541:../../Drivers/STM32H7xx_HAL_Driver/Src/stm32h7xx_hal_rcc.c ****         {
 884              		.loc 1 541 15 view .LVU284
 541:../../Drivers/STM32H7xx_HAL_Driver/Src/stm32h7xx_hal_rcc.c ****         {
 885              		.loc 1 541 16 is_stmt 0 view .LVU285
 886 024c 054B     		ldr	r3, .L166
 887 024e 1B68     		ldr	r3, [r3]
 541:../../Drivers/STM32H7xx_HAL_Driver/Src/stm32h7xx_hal_rcc.c ****         {
 888              		.loc 1 541 15 view .LVU286
 889 0250 13F0040F 		tst	r3, #4
 890 0254 A9D0     		beq	.L49
 543:../../Drivers/STM32H7xx_HAL_Driver/Src/stm32h7xx_hal_rcc.c ****           {
 891              		.loc 1 543 11 is_stmt 1 view .LVU287
 543:../../Drivers/STM32H7xx_HAL_Driver/Src/stm32h7xx_hal_rcc.c ****           {
 892              		.loc 1 543 16 is_stmt 0 view .LVU288
 893 0256 FFF7FEFF 		bl	HAL_GetTick
 894              	.LVL73:
 543:../../Drivers/STM32H7xx_HAL_Driver/Src/stm32h7xx_hal_rcc.c ****           {
 895              		.loc 1 543 30 view .LVU289
 896 025a 401B     		subs	r0, r0, r5
 543:../../Drivers/STM32H7xx_HAL_Driver/Src/stm32h7xx_hal_rcc.c ****           {
 897              		.loc 1 543 14 view .LVU290
 898 025c 0228     		cmp	r0, #2
 899 025e F5D9     		bls	.L62
 545:../../Drivers/STM32H7xx_HAL_Driver/Src/stm32h7xx_hal_rcc.c ****           }
 900              		.loc 1 545 20 view .LVU291
 901 0260 0320     		movs	r0, #3
 902 0262 12E2     		b	.L36
 903              	.L167:
 904              		.align	2
 905              	.L166:
 906 0264 00440258 		.word	1476543488
 907              	.LVL74:
 908              	.L152:
 545:../../Drivers/STM32H7xx_HAL_Driver/Src/stm32h7xx_hal_rcc.c ****           }
 909              		.loc 1 545 20 view .LVU292
 910              	.LBE7:
 911              	.LBB8:
 561:../../Drivers/STM32H7xx_HAL_Driver/Src/stm32h7xx_hal_rcc.c ****     {
 912              		.loc 1 561 108 discriminator 2 view .LVU293
 913 0268 02F00302 		and	r2, r2, #3
 914              	.LVL75:
ARM GAS  /tmp/ccooDZtA.s 			page 29


 561:../../Drivers/STM32H7xx_HAL_Driver/Src/stm32h7xx_hal_rcc.c ****     {
 915              		.loc 1 561 88 discriminator 2 view .LVU294
 916 026c 012A     		cmp	r2, #1
 917 026e AAD1     		bne	.L66
 918              	.L65:
 564:../../Drivers/STM32H7xx_HAL_Driver/Src/stm32h7xx_hal_rcc.c ****       {
 919              		.loc 1 564 7 is_stmt 1 view .LVU295
 564:../../Drivers/STM32H7xx_HAL_Driver/Src/stm32h7xx_hal_rcc.c ****       {
 920              		.loc 1 564 12 is_stmt 0 view .LVU296
 921 0270 A14B     		ldr	r3, .L168
 922              	.LVL76:
 564:../../Drivers/STM32H7xx_HAL_Driver/Src/stm32h7xx_hal_rcc.c ****       {
 923              		.loc 1 564 12 view .LVU297
 924 0272 1B68     		ldr	r3, [r3]
 564:../../Drivers/STM32H7xx_HAL_Driver/Src/stm32h7xx_hal_rcc.c ****       {
 925              		.loc 1 564 10 view .LVU298
 926 0274 13F4807F 		tst	r3, #256
 927 0278 03D0     		beq	.L67
 564:../../Drivers/STM32H7xx_HAL_Driver/Src/stm32h7xx_hal_rcc.c ****       {
 928              		.loc 1 564 76 discriminator 1 view .LVU299
 929 027a E369     		ldr	r3, [r4, #28]
 564:../../Drivers/STM32H7xx_HAL_Driver/Src/stm32h7xx_hal_rcc.c ****       {
 930              		.loc 1 564 55 discriminator 1 view .LVU300
 931 027c 802B     		cmp	r3, #128
 932 027e 40F00182 		bne	.L118
 933              	.L67:
 572:../../Drivers/STM32H7xx_HAL_Driver/Src/stm32h7xx_hal_rcc.c ****       }
 934              		.loc 1 572 9 is_stmt 1 view .LVU301
 572:../../Drivers/STM32H7xx_HAL_Driver/Src/stm32h7xx_hal_rcc.c ****       }
 935              		.loc 1 572 9 view .LVU302
 936 0282 FFF7FEFF 		bl	HAL_GetREVID
 937              	.LVL77:
 938 0286 41F20303 		movw	r3, #4099
 939 028a 9842     		cmp	r0, r3
 940 028c 12D8     		bhi	.L68
 572:../../Drivers/STM32H7xx_HAL_Driver/Src/stm32h7xx_hal_rcc.c ****       }
 941              		.loc 1 572 9 discriminator 1 view .LVU303
 942 028e 226A     		ldr	r2, [r4, #32]
 943 0290 202A     		cmp	r2, #32
 944 0292 07D0     		beq	.L155
 572:../../Drivers/STM32H7xx_HAL_Driver/Src/stm32h7xx_hal_rcc.c ****       }
 945              		.loc 1 572 9 discriminator 4 view .LVU304
 946 0294 9849     		ldr	r1, .L168
 947 0296 4B68     		ldr	r3, [r1, #4]
 948 0298 23F0F843 		bic	r3, r3, #2080374784
 949 029c 43EA8263 		orr	r3, r3, r2, lsl #26
 950 02a0 4B60     		str	r3, [r1, #4]
 951 02a2 0FE0     		b	.L64
 952              	.L155:
 572:../../Drivers/STM32H7xx_HAL_Driver/Src/stm32h7xx_hal_rcc.c ****       }
 953              		.loc 1 572 9 discriminator 3 view .LVU305
 954 02a4 944A     		ldr	r2, .L168
 955 02a6 5368     		ldr	r3, [r2, #4]
 956 02a8 23F0F843 		bic	r3, r3, #2080374784
 957 02ac 43F08043 		orr	r3, r3, #1073741824
 958 02b0 5360     		str	r3, [r2, #4]
 959 02b2 07E0     		b	.L64
ARM GAS  /tmp/ccooDZtA.s 			page 30


 960              	.L68:
 572:../../Drivers/STM32H7xx_HAL_Driver/Src/stm32h7xx_hal_rcc.c ****       }
 961              		.loc 1 572 9 discriminator 2 view .LVU306
 962 02b4 904A     		ldr	r2, .L168
 963 02b6 D368     		ldr	r3, [r2, #12]
 964 02b8 23F07C53 		bic	r3, r3, #1056964608
 965 02bc 216A     		ldr	r1, [r4, #32]
 966 02be 43EA0163 		orr	r3, r3, r1, lsl #24
 967 02c2 D360     		str	r3, [r2, #12]
 968              	.L64:
 572:../../Drivers/STM32H7xx_HAL_Driver/Src/stm32h7xx_hal_rcc.c ****       }
 969              		.loc 1 572 9 is_stmt 0 discriminator 2 view .LVU307
 970              	.LBE8:
 592:../../Drivers/STM32H7xx_HAL_Driver/Src/stm32h7xx_hal_rcc.c ****           }
 593:../../Drivers/STM32H7xx_HAL_Driver/Src/stm32h7xx_hal_rcc.c ****         }
 594:../../Drivers/STM32H7xx_HAL_Driver/Src/stm32h7xx_hal_rcc.c **** 
 595:../../Drivers/STM32H7xx_HAL_Driver/Src/stm32h7xx_hal_rcc.c ****         /* Adjusts the Internal High Speed oscillator (CSI) calibration value.*/
 596:../../Drivers/STM32H7xx_HAL_Driver/Src/stm32h7xx_hal_rcc.c ****         __HAL_RCC_CSI_CALIBRATIONVALUE_ADJUST(RCC_OscInitStruct->CSICalibrationValue);
 597:../../Drivers/STM32H7xx_HAL_Driver/Src/stm32h7xx_hal_rcc.c ****       }
 598:../../Drivers/STM32H7xx_HAL_Driver/Src/stm32h7xx_hal_rcc.c ****       else
 599:../../Drivers/STM32H7xx_HAL_Driver/Src/stm32h7xx_hal_rcc.c ****       {
 600:../../Drivers/STM32H7xx_HAL_Driver/Src/stm32h7xx_hal_rcc.c ****         /* Disable the Internal High Speed oscillator (CSI). */
 601:../../Drivers/STM32H7xx_HAL_Driver/Src/stm32h7xx_hal_rcc.c ****         __HAL_RCC_CSI_DISABLE();
 602:../../Drivers/STM32H7xx_HAL_Driver/Src/stm32h7xx_hal_rcc.c **** 
 603:../../Drivers/STM32H7xx_HAL_Driver/Src/stm32h7xx_hal_rcc.c ****         /* Get Start Tick*/
 604:../../Drivers/STM32H7xx_HAL_Driver/Src/stm32h7xx_hal_rcc.c ****         tickstart = HAL_GetTick();
 605:../../Drivers/STM32H7xx_HAL_Driver/Src/stm32h7xx_hal_rcc.c **** 
 606:../../Drivers/STM32H7xx_HAL_Driver/Src/stm32h7xx_hal_rcc.c ****         /* Wait till CSI is disabled */
 607:../../Drivers/STM32H7xx_HAL_Driver/Src/stm32h7xx_hal_rcc.c ****         while (__HAL_RCC_GET_FLAG(RCC_FLAG_CSIRDY) != 0U)
 608:../../Drivers/STM32H7xx_HAL_Driver/Src/stm32h7xx_hal_rcc.c ****         {
 609:../../Drivers/STM32H7xx_HAL_Driver/Src/stm32h7xx_hal_rcc.c ****           if ((HAL_GetTick() - tickstart) > CSI_TIMEOUT_VALUE)
 610:../../Drivers/STM32H7xx_HAL_Driver/Src/stm32h7xx_hal_rcc.c ****           {
 611:../../Drivers/STM32H7xx_HAL_Driver/Src/stm32h7xx_hal_rcc.c ****             return HAL_TIMEOUT;
 612:../../Drivers/STM32H7xx_HAL_Driver/Src/stm32h7xx_hal_rcc.c ****           }
 613:../../Drivers/STM32H7xx_HAL_Driver/Src/stm32h7xx_hal_rcc.c ****         }
 614:../../Drivers/STM32H7xx_HAL_Driver/Src/stm32h7xx_hal_rcc.c ****       }
 615:../../Drivers/STM32H7xx_HAL_Driver/Src/stm32h7xx_hal_rcc.c ****     }
 616:../../Drivers/STM32H7xx_HAL_Driver/Src/stm32h7xx_hal_rcc.c ****   }
 617:../../Drivers/STM32H7xx_HAL_Driver/Src/stm32h7xx_hal_rcc.c ****   /*------------------------------ LSI Configuration -------------------------*/
 618:../../Drivers/STM32H7xx_HAL_Driver/Src/stm32h7xx_hal_rcc.c ****   if (((RCC_OscInitStruct->OscillatorType) & RCC_OSCILLATORTYPE_LSI) == RCC_OSCILLATORTYPE_LSI)
 971              		.loc 1 618 3 is_stmt 1 view .LVU308
 972              		.loc 1 618 26 is_stmt 0 view .LVU309
 973 02c4 2368     		ldr	r3, [r4]
 974              		.loc 1 618 6 view .LVU310
 975 02c6 13F0080F 		tst	r3, #8
 976 02ca 60D0     		beq	.L77
 619:../../Drivers/STM32H7xx_HAL_Driver/Src/stm32h7xx_hal_rcc.c ****   {
 620:../../Drivers/STM32H7xx_HAL_Driver/Src/stm32h7xx_hal_rcc.c ****     /* Check the parameters */
 621:../../Drivers/STM32H7xx_HAL_Driver/Src/stm32h7xx_hal_rcc.c ****     assert_param(IS_RCC_LSI(RCC_OscInitStruct->LSIState));
 977              		.loc 1 621 5 is_stmt 1 view .LVU311
 622:../../Drivers/STM32H7xx_HAL_Driver/Src/stm32h7xx_hal_rcc.c **** 
 623:../../Drivers/STM32H7xx_HAL_Driver/Src/stm32h7xx_hal_rcc.c ****     /* Check the LSI State */
 624:../../Drivers/STM32H7xx_HAL_Driver/Src/stm32h7xx_hal_rcc.c ****     if ((RCC_OscInitStruct->LSIState) != RCC_LSI_OFF)
 978              		.loc 1 624 5 view .LVU312
 979              		.loc 1 624 27 is_stmt 0 view .LVU313
 980 02cc 6369     		ldr	r3, [r4, #20]
 981              		.loc 1 624 8 view .LVU314
ARM GAS  /tmp/ccooDZtA.s 			page 31


 982 02ce 002B     		cmp	r3, #0
 983 02d0 49D0     		beq	.L78
 625:../../Drivers/STM32H7xx_HAL_Driver/Src/stm32h7xx_hal_rcc.c ****     {
 626:../../Drivers/STM32H7xx_HAL_Driver/Src/stm32h7xx_hal_rcc.c ****       /* Enable the Internal Low Speed oscillator (LSI). */
 627:../../Drivers/STM32H7xx_HAL_Driver/Src/stm32h7xx_hal_rcc.c ****       __HAL_RCC_LSI_ENABLE();
 984              		.loc 1 627 7 is_stmt 1 view .LVU315
 985 02d2 894A     		ldr	r2, .L168
 986 02d4 536F     		ldr	r3, [r2, #116]
 987 02d6 43F00103 		orr	r3, r3, #1
 988 02da 5367     		str	r3, [r2, #116]
 628:../../Drivers/STM32H7xx_HAL_Driver/Src/stm32h7xx_hal_rcc.c **** 
 629:../../Drivers/STM32H7xx_HAL_Driver/Src/stm32h7xx_hal_rcc.c ****       /* Get Start Tick*/
 630:../../Drivers/STM32H7xx_HAL_Driver/Src/stm32h7xx_hal_rcc.c ****       tickstart = HAL_GetTick();
 989              		.loc 1 630 7 view .LVU316
 990              		.loc 1 630 19 is_stmt 0 view .LVU317
 991 02dc FFF7FEFF 		bl	HAL_GetTick
 992              	.LVL78:
 993 02e0 0546     		mov	r5, r0
 994              	.LVL79:
 631:../../Drivers/STM32H7xx_HAL_Driver/Src/stm32h7xx_hal_rcc.c **** 
 632:../../Drivers/STM32H7xx_HAL_Driver/Src/stm32h7xx_hal_rcc.c ****       /* Wait till LSI is ready */
 633:../../Drivers/STM32H7xx_HAL_Driver/Src/stm32h7xx_hal_rcc.c ****       while (__HAL_RCC_GET_FLAG(RCC_FLAG_LSIRDY) == 0U)
 995              		.loc 1 633 7 is_stmt 1 view .LVU318
 996              	.L79:
 997              		.loc 1 633 13 view .LVU319
 998              		.loc 1 633 14 is_stmt 0 view .LVU320
 999 02e2 854B     		ldr	r3, .L168
 1000 02e4 5B6F     		ldr	r3, [r3, #116]
 1001              		.loc 1 633 13 view .LVU321
 1002 02e6 13F0020F 		tst	r3, #2
 1003 02ea 50D1     		bne	.L77
 634:../../Drivers/STM32H7xx_HAL_Driver/Src/stm32h7xx_hal_rcc.c ****       {
 635:../../Drivers/STM32H7xx_HAL_Driver/Src/stm32h7xx_hal_rcc.c ****         if ((HAL_GetTick() - tickstart) > LSI_TIMEOUT_VALUE)
 1004              		.loc 1 635 9 is_stmt 1 view .LVU322
 1005              		.loc 1 635 14 is_stmt 0 view .LVU323
 1006 02ec FFF7FEFF 		bl	HAL_GetTick
 1007              	.LVL80:
 1008              		.loc 1 635 28 view .LVU324
 1009 02f0 401B     		subs	r0, r0, r5
 1010              		.loc 1 635 12 view .LVU325
 1011 02f2 0228     		cmp	r0, #2
 1012 02f4 F5D9     		bls	.L79
 636:../../Drivers/STM32H7xx_HAL_Driver/Src/stm32h7xx_hal_rcc.c ****         {
 637:../../Drivers/STM32H7xx_HAL_Driver/Src/stm32h7xx_hal_rcc.c ****           return HAL_TIMEOUT;
 1013              		.loc 1 637 18 view .LVU326
 1014 02f6 0320     		movs	r0, #3
 1015 02f8 C7E1     		b	.L36
 1016              	.L153:
 1017              	.LBB9:
 596:../../Drivers/STM32H7xx_HAL_Driver/Src/stm32h7xx_hal_rcc.c ****       }
 1018              		.loc 1 596 9 is_stmt 1 view .LVU327
 596:../../Drivers/STM32H7xx_HAL_Driver/Src/stm32h7xx_hal_rcc.c ****       }
 1019              		.loc 1 596 9 view .LVU328
 1020 02fa FFF7FEFF 		bl	HAL_GetREVID
 1021              	.LVL81:
 1022 02fe 41F20303 		movw	r3, #4099
 1023 0302 9842     		cmp	r0, r3
ARM GAS  /tmp/ccooDZtA.s 			page 32


 1024 0304 12D8     		bhi	.L73
 596:../../Drivers/STM32H7xx_HAL_Driver/Src/stm32h7xx_hal_rcc.c ****       }
 1025              		.loc 1 596 9 discriminator 1 view .LVU329
 1026 0306 226A     		ldr	r2, [r4, #32]
 1027 0308 202A     		cmp	r2, #32
 1028 030a 07D0     		beq	.L156
 596:../../Drivers/STM32H7xx_HAL_Driver/Src/stm32h7xx_hal_rcc.c ****       }
 1029              		.loc 1 596 9 discriminator 4 view .LVU330
 1030 030c 7A49     		ldr	r1, .L168
 1031 030e 4B68     		ldr	r3, [r1, #4]
 1032 0310 23F0F843 		bic	r3, r3, #2080374784
 1033 0314 43EA8263 		orr	r3, r3, r2, lsl #26
 1034 0318 4B60     		str	r3, [r1, #4]
 1035 031a D3E7     		b	.L64
 1036              	.L156:
 596:../../Drivers/STM32H7xx_HAL_Driver/Src/stm32h7xx_hal_rcc.c ****       }
 1037              		.loc 1 596 9 discriminator 3 view .LVU331
 1038 031c 764A     		ldr	r2, .L168
 1039 031e 5368     		ldr	r3, [r2, #4]
 1040 0320 23F0F843 		bic	r3, r3, #2080374784
 1041 0324 43F08043 		orr	r3, r3, #1073741824
 1042 0328 5360     		str	r3, [r2, #4]
 1043 032a CBE7     		b	.L64
 1044              	.L73:
 596:../../Drivers/STM32H7xx_HAL_Driver/Src/stm32h7xx_hal_rcc.c ****       }
 1045              		.loc 1 596 9 discriminator 2 view .LVU332
 1046 032c 724A     		ldr	r2, .L168
 1047 032e D368     		ldr	r3, [r2, #12]
 1048 0330 23F07C53 		bic	r3, r3, #1056964608
 1049 0334 216A     		ldr	r1, [r4, #32]
 1050 0336 43EA0163 		orr	r3, r3, r1, lsl #24
 1051 033a D360     		str	r3, [r2, #12]
 1052 033c C2E7     		b	.L64
 1053              	.LVL82:
 1054              	.L70:
 601:../../Drivers/STM32H7xx_HAL_Driver/Src/stm32h7xx_hal_rcc.c **** 
 1055              		.loc 1 601 9 view .LVU333
 1056 033e 6E4A     		ldr	r2, .L168
 1057 0340 1368     		ldr	r3, [r2]
 1058 0342 23F08003 		bic	r3, r3, #128
 1059 0346 1360     		str	r3, [r2]
 604:../../Drivers/STM32H7xx_HAL_Driver/Src/stm32h7xx_hal_rcc.c **** 
 1060              		.loc 1 604 9 view .LVU334
 604:../../Drivers/STM32H7xx_HAL_Driver/Src/stm32h7xx_hal_rcc.c **** 
 1061              		.loc 1 604 21 is_stmt 0 view .LVU335
 1062 0348 FFF7FEFF 		bl	HAL_GetTick
 1063              	.LVL83:
 1064 034c 0546     		mov	r5, r0
 1065              	.LVL84:
 607:../../Drivers/STM32H7xx_HAL_Driver/Src/stm32h7xx_hal_rcc.c ****         {
 1066              		.loc 1 607 9 is_stmt 1 view .LVU336
 1067              	.L75:
 607:../../Drivers/STM32H7xx_HAL_Driver/Src/stm32h7xx_hal_rcc.c ****         {
 1068              		.loc 1 607 15 view .LVU337
 607:../../Drivers/STM32H7xx_HAL_Driver/Src/stm32h7xx_hal_rcc.c ****         {
 1069              		.loc 1 607 16 is_stmt 0 view .LVU338
 1070 034e 6A4B     		ldr	r3, .L168
ARM GAS  /tmp/ccooDZtA.s 			page 33


 1071 0350 1B68     		ldr	r3, [r3]
 607:../../Drivers/STM32H7xx_HAL_Driver/Src/stm32h7xx_hal_rcc.c ****         {
 1072              		.loc 1 607 15 view .LVU339
 1073 0352 13F4807F 		tst	r3, #256
 1074 0356 B5D0     		beq	.L64
 609:../../Drivers/STM32H7xx_HAL_Driver/Src/stm32h7xx_hal_rcc.c ****           {
 1075              		.loc 1 609 11 is_stmt 1 view .LVU340
 609:../../Drivers/STM32H7xx_HAL_Driver/Src/stm32h7xx_hal_rcc.c ****           {
 1076              		.loc 1 609 16 is_stmt 0 view .LVU341
 1077 0358 FFF7FEFF 		bl	HAL_GetTick
 1078              	.LVL85:
 609:../../Drivers/STM32H7xx_HAL_Driver/Src/stm32h7xx_hal_rcc.c ****           {
 1079              		.loc 1 609 30 view .LVU342
 1080 035c 401B     		subs	r0, r0, r5
 609:../../Drivers/STM32H7xx_HAL_Driver/Src/stm32h7xx_hal_rcc.c ****           {
 1081              		.loc 1 609 14 view .LVU343
 1082 035e 0228     		cmp	r0, #2
 1083 0360 F5D9     		bls	.L75
 611:../../Drivers/STM32H7xx_HAL_Driver/Src/stm32h7xx_hal_rcc.c ****           }
 1084              		.loc 1 611 20 view .LVU344
 1085 0362 0320     		movs	r0, #3
 1086 0364 91E1     		b	.L36
 1087              	.LVL86:
 1088              	.L78:
 611:../../Drivers/STM32H7xx_HAL_Driver/Src/stm32h7xx_hal_rcc.c ****           }
 1089              		.loc 1 611 20 view .LVU345
 1090              	.LBE9:
 638:../../Drivers/STM32H7xx_HAL_Driver/Src/stm32h7xx_hal_rcc.c ****         }
 639:../../Drivers/STM32H7xx_HAL_Driver/Src/stm32h7xx_hal_rcc.c ****       }
 640:../../Drivers/STM32H7xx_HAL_Driver/Src/stm32h7xx_hal_rcc.c ****     }
 641:../../Drivers/STM32H7xx_HAL_Driver/Src/stm32h7xx_hal_rcc.c ****     else
 642:../../Drivers/STM32H7xx_HAL_Driver/Src/stm32h7xx_hal_rcc.c ****     {
 643:../../Drivers/STM32H7xx_HAL_Driver/Src/stm32h7xx_hal_rcc.c ****       /* Disable the Internal Low Speed oscillator (LSI). */
 644:../../Drivers/STM32H7xx_HAL_Driver/Src/stm32h7xx_hal_rcc.c ****       __HAL_RCC_LSI_DISABLE();
 1091              		.loc 1 644 7 is_stmt 1 view .LVU346
 1092 0366 644A     		ldr	r2, .L168
 1093 0368 536F     		ldr	r3, [r2, #116]
 1094 036a 23F00103 		bic	r3, r3, #1
 1095 036e 5367     		str	r3, [r2, #116]
 645:../../Drivers/STM32H7xx_HAL_Driver/Src/stm32h7xx_hal_rcc.c **** 
 646:../../Drivers/STM32H7xx_HAL_Driver/Src/stm32h7xx_hal_rcc.c ****       /* Get Start Tick*/
 647:../../Drivers/STM32H7xx_HAL_Driver/Src/stm32h7xx_hal_rcc.c ****       tickstart = HAL_GetTick();
 1096              		.loc 1 647 7 view .LVU347
 1097              		.loc 1 647 19 is_stmt 0 view .LVU348
 1098 0370 FFF7FEFF 		bl	HAL_GetTick
 1099              	.LVL87:
 1100 0374 0546     		mov	r5, r0
 1101              	.LVL88:
 648:../../Drivers/STM32H7xx_HAL_Driver/Src/stm32h7xx_hal_rcc.c **** 
 649:../../Drivers/STM32H7xx_HAL_Driver/Src/stm32h7xx_hal_rcc.c ****       /* Wait till LSI is ready */
 650:../../Drivers/STM32H7xx_HAL_Driver/Src/stm32h7xx_hal_rcc.c ****       while (__HAL_RCC_GET_FLAG(RCC_FLAG_LSIRDY) != 0U)
 1102              		.loc 1 650 7 is_stmt 1 view .LVU349
 1103              	.L81:
 1104              		.loc 1 650 13 view .LVU350
 1105              		.loc 1 650 14 is_stmt 0 view .LVU351
 1106 0376 604B     		ldr	r3, .L168
 1107 0378 5B6F     		ldr	r3, [r3, #116]
ARM GAS  /tmp/ccooDZtA.s 			page 34


 1108              		.loc 1 650 13 view .LVU352
 1109 037a 13F0020F 		tst	r3, #2
 1110 037e 06D0     		beq	.L77
 651:../../Drivers/STM32H7xx_HAL_Driver/Src/stm32h7xx_hal_rcc.c ****       {
 652:../../Drivers/STM32H7xx_HAL_Driver/Src/stm32h7xx_hal_rcc.c ****         if ((HAL_GetTick() - tickstart) > LSI_TIMEOUT_VALUE)
 1111              		.loc 1 652 9 is_stmt 1 view .LVU353
 1112              		.loc 1 652 14 is_stmt 0 view .LVU354
 1113 0380 FFF7FEFF 		bl	HAL_GetTick
 1114              	.LVL89:
 1115              		.loc 1 652 28 view .LVU355
 1116 0384 401B     		subs	r0, r0, r5
 1117              		.loc 1 652 12 view .LVU356
 1118 0386 0228     		cmp	r0, #2
 1119 0388 F5D9     		bls	.L81
 653:../../Drivers/STM32H7xx_HAL_Driver/Src/stm32h7xx_hal_rcc.c ****         {
 654:../../Drivers/STM32H7xx_HAL_Driver/Src/stm32h7xx_hal_rcc.c ****           return HAL_TIMEOUT;
 1120              		.loc 1 654 18 view .LVU357
 1121 038a 0320     		movs	r0, #3
 1122 038c 7DE1     		b	.L36
 1123              	.LVL90:
 1124              	.L77:
 655:../../Drivers/STM32H7xx_HAL_Driver/Src/stm32h7xx_hal_rcc.c ****         }
 656:../../Drivers/STM32H7xx_HAL_Driver/Src/stm32h7xx_hal_rcc.c ****       }
 657:../../Drivers/STM32H7xx_HAL_Driver/Src/stm32h7xx_hal_rcc.c ****     }
 658:../../Drivers/STM32H7xx_HAL_Driver/Src/stm32h7xx_hal_rcc.c ****   }
 659:../../Drivers/STM32H7xx_HAL_Driver/Src/stm32h7xx_hal_rcc.c **** 
 660:../../Drivers/STM32H7xx_HAL_Driver/Src/stm32h7xx_hal_rcc.c ****   /*------------------------------ HSI48 Configuration -------------------------*/
 661:../../Drivers/STM32H7xx_HAL_Driver/Src/stm32h7xx_hal_rcc.c ****   if (((RCC_OscInitStruct->OscillatorType) & RCC_OSCILLATORTYPE_HSI48) == RCC_OSCILLATORTYPE_HSI48)
 1125              		.loc 1 661 3 is_stmt 1 view .LVU358
 1126              		.loc 1 661 26 is_stmt 0 view .LVU359
 1127 038e 2368     		ldr	r3, [r4]
 1128              		.loc 1 661 6 view .LVU360
 1129 0390 13F0200F 		tst	r3, #32
 1130 0394 29D0     		beq	.L83
 662:../../Drivers/STM32H7xx_HAL_Driver/Src/stm32h7xx_hal_rcc.c ****   {
 663:../../Drivers/STM32H7xx_HAL_Driver/Src/stm32h7xx_hal_rcc.c ****     /* Check the parameters */
 664:../../Drivers/STM32H7xx_HAL_Driver/Src/stm32h7xx_hal_rcc.c ****     assert_param(IS_RCC_HSI48(RCC_OscInitStruct->HSI48State));
 1131              		.loc 1 664 5 is_stmt 1 view .LVU361
 665:../../Drivers/STM32H7xx_HAL_Driver/Src/stm32h7xx_hal_rcc.c **** 
 666:../../Drivers/STM32H7xx_HAL_Driver/Src/stm32h7xx_hal_rcc.c ****     /* Check the HSI48 State */
 667:../../Drivers/STM32H7xx_HAL_Driver/Src/stm32h7xx_hal_rcc.c ****     if ((RCC_OscInitStruct->HSI48State) != RCC_HSI48_OFF)
 1132              		.loc 1 667 5 view .LVU362
 1133              		.loc 1 667 27 is_stmt 0 view .LVU363
 1134 0396 A369     		ldr	r3, [r4, #24]
 1135              		.loc 1 667 8 view .LVU364
 1136 0398 9BB1     		cbz	r3, .L84
 668:../../Drivers/STM32H7xx_HAL_Driver/Src/stm32h7xx_hal_rcc.c ****     {
 669:../../Drivers/STM32H7xx_HAL_Driver/Src/stm32h7xx_hal_rcc.c ****       /* Enable the Internal Low Speed oscillator (HSI48). */
 670:../../Drivers/STM32H7xx_HAL_Driver/Src/stm32h7xx_hal_rcc.c ****       __HAL_RCC_HSI48_ENABLE();
 1137              		.loc 1 670 7 is_stmt 1 view .LVU365
 1138 039a 574A     		ldr	r2, .L168
 1139 039c 1368     		ldr	r3, [r2]
 1140 039e 43F48053 		orr	r3, r3, #4096
 1141 03a2 1360     		str	r3, [r2]
 1142              		.loc 1 670 31 view .LVU366
 671:../../Drivers/STM32H7xx_HAL_Driver/Src/stm32h7xx_hal_rcc.c **** 
 672:../../Drivers/STM32H7xx_HAL_Driver/Src/stm32h7xx_hal_rcc.c ****       /* Get time-out */
ARM GAS  /tmp/ccooDZtA.s 			page 35


 673:../../Drivers/STM32H7xx_HAL_Driver/Src/stm32h7xx_hal_rcc.c ****       tickstart = HAL_GetTick();
 1143              		.loc 1 673 7 view .LVU367
 1144              		.loc 1 673 19 is_stmt 0 view .LVU368
 1145 03a4 FFF7FEFF 		bl	HAL_GetTick
 1146              	.LVL91:
 1147 03a8 0546     		mov	r5, r0
 1148              	.LVL92:
 674:../../Drivers/STM32H7xx_HAL_Driver/Src/stm32h7xx_hal_rcc.c **** 
 675:../../Drivers/STM32H7xx_HAL_Driver/Src/stm32h7xx_hal_rcc.c ****       /* Wait till HSI48 is ready */
 676:../../Drivers/STM32H7xx_HAL_Driver/Src/stm32h7xx_hal_rcc.c ****       while (__HAL_RCC_GET_FLAG(RCC_FLAG_HSI48RDY) == 0U)
 1149              		.loc 1 676 7 is_stmt 1 view .LVU369
 1150              	.L85:
 1151              		.loc 1 676 13 view .LVU370
 1152              		.loc 1 676 14 is_stmt 0 view .LVU371
 1153 03aa 534B     		ldr	r3, .L168
 1154 03ac 1B68     		ldr	r3, [r3]
 1155              		.loc 1 676 13 view .LVU372
 1156 03ae 13F4005F 		tst	r3, #8192
 1157 03b2 1AD1     		bne	.L83
 677:../../Drivers/STM32H7xx_HAL_Driver/Src/stm32h7xx_hal_rcc.c ****       {
 678:../../Drivers/STM32H7xx_HAL_Driver/Src/stm32h7xx_hal_rcc.c ****         if ((HAL_GetTick() - tickstart) > HSI48_TIMEOUT_VALUE)
 1158              		.loc 1 678 9 is_stmt 1 view .LVU373
 1159              		.loc 1 678 14 is_stmt 0 view .LVU374
 1160 03b4 FFF7FEFF 		bl	HAL_GetTick
 1161              	.LVL93:
 1162              		.loc 1 678 28 view .LVU375
 1163 03b8 401B     		subs	r0, r0, r5
 1164              		.loc 1 678 12 view .LVU376
 1165 03ba 0228     		cmp	r0, #2
 1166 03bc F5D9     		bls	.L85
 679:../../Drivers/STM32H7xx_HAL_Driver/Src/stm32h7xx_hal_rcc.c ****         {
 680:../../Drivers/STM32H7xx_HAL_Driver/Src/stm32h7xx_hal_rcc.c ****           return HAL_TIMEOUT;
 1167              		.loc 1 680 18 view .LVU377
 1168 03be 0320     		movs	r0, #3
 1169 03c0 63E1     		b	.L36
 1170              	.LVL94:
 1171              	.L84:
 681:../../Drivers/STM32H7xx_HAL_Driver/Src/stm32h7xx_hal_rcc.c ****         }
 682:../../Drivers/STM32H7xx_HAL_Driver/Src/stm32h7xx_hal_rcc.c ****       }
 683:../../Drivers/STM32H7xx_HAL_Driver/Src/stm32h7xx_hal_rcc.c ****     }
 684:../../Drivers/STM32H7xx_HAL_Driver/Src/stm32h7xx_hal_rcc.c ****     else
 685:../../Drivers/STM32H7xx_HAL_Driver/Src/stm32h7xx_hal_rcc.c ****     {
 686:../../Drivers/STM32H7xx_HAL_Driver/Src/stm32h7xx_hal_rcc.c ****       /* Disable the Internal Low Speed oscillator (HSI48). */
 687:../../Drivers/STM32H7xx_HAL_Driver/Src/stm32h7xx_hal_rcc.c ****       __HAL_RCC_HSI48_DISABLE();
 1172              		.loc 1 687 7 is_stmt 1 view .LVU378
 1173 03c2 4D4A     		ldr	r2, .L168
 1174 03c4 1368     		ldr	r3, [r2]
 1175 03c6 23F48053 		bic	r3, r3, #4096
 1176 03ca 1360     		str	r3, [r2]
 1177              		.loc 1 687 32 view .LVU379
 688:../../Drivers/STM32H7xx_HAL_Driver/Src/stm32h7xx_hal_rcc.c **** 
 689:../../Drivers/STM32H7xx_HAL_Driver/Src/stm32h7xx_hal_rcc.c ****       /* Get time-out */
 690:../../Drivers/STM32H7xx_HAL_Driver/Src/stm32h7xx_hal_rcc.c ****       tickstart = HAL_GetTick();
 1178              		.loc 1 690 7 view .LVU380
 1179              		.loc 1 690 19 is_stmt 0 view .LVU381
 1180 03cc FFF7FEFF 		bl	HAL_GetTick
 1181              	.LVL95:
ARM GAS  /tmp/ccooDZtA.s 			page 36


 1182 03d0 0546     		mov	r5, r0
 1183              	.LVL96:
 691:../../Drivers/STM32H7xx_HAL_Driver/Src/stm32h7xx_hal_rcc.c **** 
 692:../../Drivers/STM32H7xx_HAL_Driver/Src/stm32h7xx_hal_rcc.c ****       /* Wait till HSI48 is ready */
 693:../../Drivers/STM32H7xx_HAL_Driver/Src/stm32h7xx_hal_rcc.c ****       while (__HAL_RCC_GET_FLAG(RCC_FLAG_HSI48RDY) != 0U)
 1184              		.loc 1 693 7 is_stmt 1 view .LVU382
 1185              	.L87:
 1186              		.loc 1 693 13 view .LVU383
 1187              		.loc 1 693 14 is_stmt 0 view .LVU384
 1188 03d2 494B     		ldr	r3, .L168
 1189 03d4 1B68     		ldr	r3, [r3]
 1190              		.loc 1 693 13 view .LVU385
 1191 03d6 13F4005F 		tst	r3, #8192
 1192 03da 06D0     		beq	.L83
 694:../../Drivers/STM32H7xx_HAL_Driver/Src/stm32h7xx_hal_rcc.c ****       {
 695:../../Drivers/STM32H7xx_HAL_Driver/Src/stm32h7xx_hal_rcc.c ****         if ((HAL_GetTick() - tickstart) > HSI48_TIMEOUT_VALUE)
 1193              		.loc 1 695 9 is_stmt 1 view .LVU386
 1194              		.loc 1 695 14 is_stmt 0 view .LVU387
 1195 03dc FFF7FEFF 		bl	HAL_GetTick
 1196              	.LVL97:
 1197              		.loc 1 695 28 view .LVU388
 1198 03e0 401B     		subs	r0, r0, r5
 1199              		.loc 1 695 12 view .LVU389
 1200 03e2 0228     		cmp	r0, #2
 1201 03e4 F5D9     		bls	.L87
 696:../../Drivers/STM32H7xx_HAL_Driver/Src/stm32h7xx_hal_rcc.c ****         {
 697:../../Drivers/STM32H7xx_HAL_Driver/Src/stm32h7xx_hal_rcc.c ****           return HAL_TIMEOUT;
 1202              		.loc 1 697 18 view .LVU390
 1203 03e6 0320     		movs	r0, #3
 1204 03e8 4FE1     		b	.L36
 1205              	.LVL98:
 1206              	.L83:
 698:../../Drivers/STM32H7xx_HAL_Driver/Src/stm32h7xx_hal_rcc.c ****         }
 699:../../Drivers/STM32H7xx_HAL_Driver/Src/stm32h7xx_hal_rcc.c ****       }
 700:../../Drivers/STM32H7xx_HAL_Driver/Src/stm32h7xx_hal_rcc.c ****     }
 701:../../Drivers/STM32H7xx_HAL_Driver/Src/stm32h7xx_hal_rcc.c ****   }
 702:../../Drivers/STM32H7xx_HAL_Driver/Src/stm32h7xx_hal_rcc.c ****   /*------------------------------ LSE Configuration -------------------------*/
 703:../../Drivers/STM32H7xx_HAL_Driver/Src/stm32h7xx_hal_rcc.c ****   if (((RCC_OscInitStruct->OscillatorType) & RCC_OSCILLATORTYPE_LSE) == RCC_OSCILLATORTYPE_LSE)
 1207              		.loc 1 703 3 is_stmt 1 view .LVU391
 1208              		.loc 1 703 26 is_stmt 0 view .LVU392
 1209 03ea 2368     		ldr	r3, [r4]
 1210              		.loc 1 703 6 view .LVU393
 1211 03ec 13F0040F 		tst	r3, #4
 1212 03f0 21D1     		bne	.L157
 1213              	.L89:
 704:../../Drivers/STM32H7xx_HAL_Driver/Src/stm32h7xx_hal_rcc.c ****   {
 705:../../Drivers/STM32H7xx_HAL_Driver/Src/stm32h7xx_hal_rcc.c ****     /* Check the parameters */
 706:../../Drivers/STM32H7xx_HAL_Driver/Src/stm32h7xx_hal_rcc.c ****     assert_param(IS_RCC_LSE(RCC_OscInitStruct->LSEState));
 707:../../Drivers/STM32H7xx_HAL_Driver/Src/stm32h7xx_hal_rcc.c **** 
 708:../../Drivers/STM32H7xx_HAL_Driver/Src/stm32h7xx_hal_rcc.c ****     /* Enable write access to Backup domain */
 709:../../Drivers/STM32H7xx_HAL_Driver/Src/stm32h7xx_hal_rcc.c ****     PWR->CR1 |= PWR_CR1_DBP;
 710:../../Drivers/STM32H7xx_HAL_Driver/Src/stm32h7xx_hal_rcc.c **** 
 711:../../Drivers/STM32H7xx_HAL_Driver/Src/stm32h7xx_hal_rcc.c ****     /* Wait for Backup domain Write protection disable */
 712:../../Drivers/STM32H7xx_HAL_Driver/Src/stm32h7xx_hal_rcc.c ****     tickstart = HAL_GetTick();
 713:../../Drivers/STM32H7xx_HAL_Driver/Src/stm32h7xx_hal_rcc.c **** 
 714:../../Drivers/STM32H7xx_HAL_Driver/Src/stm32h7xx_hal_rcc.c ****     while ((PWR->CR1 & PWR_CR1_DBP) == 0U)
 715:../../Drivers/STM32H7xx_HAL_Driver/Src/stm32h7xx_hal_rcc.c ****     {
ARM GAS  /tmp/ccooDZtA.s 			page 37


 716:../../Drivers/STM32H7xx_HAL_Driver/Src/stm32h7xx_hal_rcc.c ****       if ((HAL_GetTick() - tickstart) > RCC_DBP_TIMEOUT_VALUE)
 717:../../Drivers/STM32H7xx_HAL_Driver/Src/stm32h7xx_hal_rcc.c ****       {
 718:../../Drivers/STM32H7xx_HAL_Driver/Src/stm32h7xx_hal_rcc.c ****         return HAL_TIMEOUT;
 719:../../Drivers/STM32H7xx_HAL_Driver/Src/stm32h7xx_hal_rcc.c ****       }
 720:../../Drivers/STM32H7xx_HAL_Driver/Src/stm32h7xx_hal_rcc.c ****     }
 721:../../Drivers/STM32H7xx_HAL_Driver/Src/stm32h7xx_hal_rcc.c **** 
 722:../../Drivers/STM32H7xx_HAL_Driver/Src/stm32h7xx_hal_rcc.c ****     /* Set the new LSE configuration -----------------------------------------*/
 723:../../Drivers/STM32H7xx_HAL_Driver/Src/stm32h7xx_hal_rcc.c ****     __HAL_RCC_LSE_CONFIG(RCC_OscInitStruct->LSEState);
 724:../../Drivers/STM32H7xx_HAL_Driver/Src/stm32h7xx_hal_rcc.c ****     /* Check the LSE State */
 725:../../Drivers/STM32H7xx_HAL_Driver/Src/stm32h7xx_hal_rcc.c ****     if ((RCC_OscInitStruct->LSEState) != RCC_LSE_OFF)
 726:../../Drivers/STM32H7xx_HAL_Driver/Src/stm32h7xx_hal_rcc.c ****     {
 727:../../Drivers/STM32H7xx_HAL_Driver/Src/stm32h7xx_hal_rcc.c ****       /* Get Start Tick*/
 728:../../Drivers/STM32H7xx_HAL_Driver/Src/stm32h7xx_hal_rcc.c ****       tickstart = HAL_GetTick();
 729:../../Drivers/STM32H7xx_HAL_Driver/Src/stm32h7xx_hal_rcc.c **** 
 730:../../Drivers/STM32H7xx_HAL_Driver/Src/stm32h7xx_hal_rcc.c ****       /* Wait till LSE is ready */
 731:../../Drivers/STM32H7xx_HAL_Driver/Src/stm32h7xx_hal_rcc.c ****       while (__HAL_RCC_GET_FLAG(RCC_FLAG_LSERDY) == 0U)
 732:../../Drivers/STM32H7xx_HAL_Driver/Src/stm32h7xx_hal_rcc.c ****       {
 733:../../Drivers/STM32H7xx_HAL_Driver/Src/stm32h7xx_hal_rcc.c ****         if ((HAL_GetTick() - tickstart) > RCC_LSE_TIMEOUT_VALUE)
 734:../../Drivers/STM32H7xx_HAL_Driver/Src/stm32h7xx_hal_rcc.c ****         {
 735:../../Drivers/STM32H7xx_HAL_Driver/Src/stm32h7xx_hal_rcc.c ****           return HAL_TIMEOUT;
 736:../../Drivers/STM32H7xx_HAL_Driver/Src/stm32h7xx_hal_rcc.c ****         }
 737:../../Drivers/STM32H7xx_HAL_Driver/Src/stm32h7xx_hal_rcc.c ****       }
 738:../../Drivers/STM32H7xx_HAL_Driver/Src/stm32h7xx_hal_rcc.c ****     }
 739:../../Drivers/STM32H7xx_HAL_Driver/Src/stm32h7xx_hal_rcc.c ****     else
 740:../../Drivers/STM32H7xx_HAL_Driver/Src/stm32h7xx_hal_rcc.c ****     {
 741:../../Drivers/STM32H7xx_HAL_Driver/Src/stm32h7xx_hal_rcc.c ****       /* Get Start Tick*/
 742:../../Drivers/STM32H7xx_HAL_Driver/Src/stm32h7xx_hal_rcc.c ****       tickstart = HAL_GetTick();
 743:../../Drivers/STM32H7xx_HAL_Driver/Src/stm32h7xx_hal_rcc.c **** 
 744:../../Drivers/STM32H7xx_HAL_Driver/Src/stm32h7xx_hal_rcc.c ****       /* Wait till LSE is disabled */
 745:../../Drivers/STM32H7xx_HAL_Driver/Src/stm32h7xx_hal_rcc.c ****       while (__HAL_RCC_GET_FLAG(RCC_FLAG_LSERDY) != 0U)
 746:../../Drivers/STM32H7xx_HAL_Driver/Src/stm32h7xx_hal_rcc.c ****       {
 747:../../Drivers/STM32H7xx_HAL_Driver/Src/stm32h7xx_hal_rcc.c ****         if ((HAL_GetTick() - tickstart) > RCC_LSE_TIMEOUT_VALUE)
 748:../../Drivers/STM32H7xx_HAL_Driver/Src/stm32h7xx_hal_rcc.c ****         {
 749:../../Drivers/STM32H7xx_HAL_Driver/Src/stm32h7xx_hal_rcc.c ****           return HAL_TIMEOUT;
 750:../../Drivers/STM32H7xx_HAL_Driver/Src/stm32h7xx_hal_rcc.c ****         }
 751:../../Drivers/STM32H7xx_HAL_Driver/Src/stm32h7xx_hal_rcc.c ****       }
 752:../../Drivers/STM32H7xx_HAL_Driver/Src/stm32h7xx_hal_rcc.c ****     }
 753:../../Drivers/STM32H7xx_HAL_Driver/Src/stm32h7xx_hal_rcc.c ****   }
 754:../../Drivers/STM32H7xx_HAL_Driver/Src/stm32h7xx_hal_rcc.c ****   /*-------------------------------- PLL Configuration -----------------------*/
 755:../../Drivers/STM32H7xx_HAL_Driver/Src/stm32h7xx_hal_rcc.c ****   /* Check the parameters */
 756:../../Drivers/STM32H7xx_HAL_Driver/Src/stm32h7xx_hal_rcc.c ****   assert_param(IS_RCC_PLL(RCC_OscInitStruct->PLL.PLLState));
 1214              		.loc 1 756 3 is_stmt 1 view .LVU394
 757:../../Drivers/STM32H7xx_HAL_Driver/Src/stm32h7xx_hal_rcc.c ****   if ((RCC_OscInitStruct->PLL.PLLState) != RCC_PLL_NONE)
 1215              		.loc 1 757 3 view .LVU395
 1216              		.loc 1 757 30 is_stmt 0 view .LVU396
 1217 03f2 636A     		ldr	r3, [r4, #36]
 1218              		.loc 1 757 6 view .LVU397
 1219 03f4 002B     		cmp	r3, #0
 1220 03f6 00F04781 		beq	.L128
 758:../../Drivers/STM32H7xx_HAL_Driver/Src/stm32h7xx_hal_rcc.c ****   {
 759:../../Drivers/STM32H7xx_HAL_Driver/Src/stm32h7xx_hal_rcc.c ****     /* Check if the PLL is used as system clock or not */
 760:../../Drivers/STM32H7xx_HAL_Driver/Src/stm32h7xx_hal_rcc.c ****     if (__HAL_RCC_GET_SYSCLK_SOURCE() != RCC_CFGR_SWS_PLL1)
 1221              		.loc 1 760 5 is_stmt 1 view .LVU398
 1222              		.loc 1 760 9 is_stmt 0 view .LVU399
 1223 03fa 3F4A     		ldr	r2, .L168
 1224 03fc 1269     		ldr	r2, [r2, #16]
 1225 03fe 02F03802 		and	r2, r2, #56
ARM GAS  /tmp/ccooDZtA.s 			page 38


 1226              		.loc 1 760 8 view .LVU400
 1227 0402 182A     		cmp	r2, #24
 1228 0404 00F0EE80 		beq	.L101
 761:../../Drivers/STM32H7xx_HAL_Driver/Src/stm32h7xx_hal_rcc.c ****     {
 762:../../Drivers/STM32H7xx_HAL_Driver/Src/stm32h7xx_hal_rcc.c ****       if ((RCC_OscInitStruct->PLL.PLLState) == RCC_PLL_ON)
 1229              		.loc 1 762 7 is_stmt 1 view .LVU401
 1230              		.loc 1 762 10 is_stmt 0 view .LVU402
 1231 0408 022B     		cmp	r3, #2
 1232 040a 79D0     		beq	.L158
 763:../../Drivers/STM32H7xx_HAL_Driver/Src/stm32h7xx_hal_rcc.c ****       {
 764:../../Drivers/STM32H7xx_HAL_Driver/Src/stm32h7xx_hal_rcc.c ****         /* Check the parameters */
 765:../../Drivers/STM32H7xx_HAL_Driver/Src/stm32h7xx_hal_rcc.c ****         assert_param(IS_RCC_PLLSOURCE(RCC_OscInitStruct->PLL.PLLSource));
 766:../../Drivers/STM32H7xx_HAL_Driver/Src/stm32h7xx_hal_rcc.c ****         assert_param(IS_RCC_PLLRGE_VALUE(RCC_OscInitStruct->PLL.PLLRGE));
 767:../../Drivers/STM32H7xx_HAL_Driver/Src/stm32h7xx_hal_rcc.c ****         assert_param(IS_RCC_PLLVCO_VALUE(RCC_OscInitStruct->PLL.PLLVCOSEL));
 768:../../Drivers/STM32H7xx_HAL_Driver/Src/stm32h7xx_hal_rcc.c ****         assert_param(IS_RCC_PLLM_VALUE(RCC_OscInitStruct->PLL.PLLM));
 769:../../Drivers/STM32H7xx_HAL_Driver/Src/stm32h7xx_hal_rcc.c ****         assert_param(IS_RCC_PLLN_VALUE(RCC_OscInitStruct->PLL.PLLN));
 770:../../Drivers/STM32H7xx_HAL_Driver/Src/stm32h7xx_hal_rcc.c ****         assert_param(IS_RCC_PLLP_VALUE(RCC_OscInitStruct->PLL.PLLP));
 771:../../Drivers/STM32H7xx_HAL_Driver/Src/stm32h7xx_hal_rcc.c ****         assert_param(IS_RCC_PLLQ_VALUE(RCC_OscInitStruct->PLL.PLLQ));
 772:../../Drivers/STM32H7xx_HAL_Driver/Src/stm32h7xx_hal_rcc.c ****         assert_param(IS_RCC_PLLR_VALUE(RCC_OscInitStruct->PLL.PLLR));
 773:../../Drivers/STM32H7xx_HAL_Driver/Src/stm32h7xx_hal_rcc.c ****         assert_param(IS_RCC_PLLFRACN_VALUE(RCC_OscInitStruct->PLL.PLLFRACN));
 774:../../Drivers/STM32H7xx_HAL_Driver/Src/stm32h7xx_hal_rcc.c **** 
 775:../../Drivers/STM32H7xx_HAL_Driver/Src/stm32h7xx_hal_rcc.c ****         /* Disable the main PLL. */
 776:../../Drivers/STM32H7xx_HAL_Driver/Src/stm32h7xx_hal_rcc.c ****         __HAL_RCC_PLL_DISABLE();
 777:../../Drivers/STM32H7xx_HAL_Driver/Src/stm32h7xx_hal_rcc.c **** 
 778:../../Drivers/STM32H7xx_HAL_Driver/Src/stm32h7xx_hal_rcc.c ****         /* Get Start Tick*/
 779:../../Drivers/STM32H7xx_HAL_Driver/Src/stm32h7xx_hal_rcc.c ****         tickstart = HAL_GetTick();
 780:../../Drivers/STM32H7xx_HAL_Driver/Src/stm32h7xx_hal_rcc.c **** 
 781:../../Drivers/STM32H7xx_HAL_Driver/Src/stm32h7xx_hal_rcc.c ****         /* Wait till PLL is disabled */
 782:../../Drivers/STM32H7xx_HAL_Driver/Src/stm32h7xx_hal_rcc.c ****         while (__HAL_RCC_GET_FLAG(RCC_FLAG_PLLRDY) != 0U)
 783:../../Drivers/STM32H7xx_HAL_Driver/Src/stm32h7xx_hal_rcc.c ****         {
 784:../../Drivers/STM32H7xx_HAL_Driver/Src/stm32h7xx_hal_rcc.c ****           if ((HAL_GetTick() - tickstart) > PLL_TIMEOUT_VALUE)
 785:../../Drivers/STM32H7xx_HAL_Driver/Src/stm32h7xx_hal_rcc.c ****           {
 786:../../Drivers/STM32H7xx_HAL_Driver/Src/stm32h7xx_hal_rcc.c ****             return HAL_TIMEOUT;
 787:../../Drivers/STM32H7xx_HAL_Driver/Src/stm32h7xx_hal_rcc.c ****           }
 788:../../Drivers/STM32H7xx_HAL_Driver/Src/stm32h7xx_hal_rcc.c ****         }
 789:../../Drivers/STM32H7xx_HAL_Driver/Src/stm32h7xx_hal_rcc.c **** 
 790:../../Drivers/STM32H7xx_HAL_Driver/Src/stm32h7xx_hal_rcc.c ****         /* Configure the main PLL clock source, multiplication and division factors. */
 791:../../Drivers/STM32H7xx_HAL_Driver/Src/stm32h7xx_hal_rcc.c ****         __HAL_RCC_PLL_CONFIG(RCC_OscInitStruct->PLL.PLLSource,
 792:../../Drivers/STM32H7xx_HAL_Driver/Src/stm32h7xx_hal_rcc.c ****                              RCC_OscInitStruct->PLL.PLLM,
 793:../../Drivers/STM32H7xx_HAL_Driver/Src/stm32h7xx_hal_rcc.c ****                              RCC_OscInitStruct->PLL.PLLN,
 794:../../Drivers/STM32H7xx_HAL_Driver/Src/stm32h7xx_hal_rcc.c ****                              RCC_OscInitStruct->PLL.PLLP,
 795:../../Drivers/STM32H7xx_HAL_Driver/Src/stm32h7xx_hal_rcc.c ****                              RCC_OscInitStruct->PLL.PLLQ,
 796:../../Drivers/STM32H7xx_HAL_Driver/Src/stm32h7xx_hal_rcc.c ****                              RCC_OscInitStruct->PLL.PLLR);
 797:../../Drivers/STM32H7xx_HAL_Driver/Src/stm32h7xx_hal_rcc.c **** 
 798:../../Drivers/STM32H7xx_HAL_Driver/Src/stm32h7xx_hal_rcc.c ****         /* Disable PLLFRACN . */
 799:../../Drivers/STM32H7xx_HAL_Driver/Src/stm32h7xx_hal_rcc.c ****         __HAL_RCC_PLLFRACN_DISABLE();
 800:../../Drivers/STM32H7xx_HAL_Driver/Src/stm32h7xx_hal_rcc.c **** 
 801:../../Drivers/STM32H7xx_HAL_Driver/Src/stm32h7xx_hal_rcc.c ****         /* Configure PLL PLL1FRACN */
 802:../../Drivers/STM32H7xx_HAL_Driver/Src/stm32h7xx_hal_rcc.c ****         __HAL_RCC_PLLFRACN_CONFIG(RCC_OscInitStruct->PLL.PLLFRACN);
 803:../../Drivers/STM32H7xx_HAL_Driver/Src/stm32h7xx_hal_rcc.c **** 
 804:../../Drivers/STM32H7xx_HAL_Driver/Src/stm32h7xx_hal_rcc.c ****         /* Select PLL1 input reference frequency range: VCI */
 805:../../Drivers/STM32H7xx_HAL_Driver/Src/stm32h7xx_hal_rcc.c ****         __HAL_RCC_PLL_VCIRANGE(RCC_OscInitStruct->PLL.PLLRGE) ;
 806:../../Drivers/STM32H7xx_HAL_Driver/Src/stm32h7xx_hal_rcc.c **** 
 807:../../Drivers/STM32H7xx_HAL_Driver/Src/stm32h7xx_hal_rcc.c ****         /* Select PLL1 output frequency range : VCO */
 808:../../Drivers/STM32H7xx_HAL_Driver/Src/stm32h7xx_hal_rcc.c ****         __HAL_RCC_PLL_VCORANGE(RCC_OscInitStruct->PLL.PLLVCOSEL) ;
 809:../../Drivers/STM32H7xx_HAL_Driver/Src/stm32h7xx_hal_rcc.c **** 
 810:../../Drivers/STM32H7xx_HAL_Driver/Src/stm32h7xx_hal_rcc.c ****         /* Enable PLL System Clock output. */
ARM GAS  /tmp/ccooDZtA.s 			page 39


 811:../../Drivers/STM32H7xx_HAL_Driver/Src/stm32h7xx_hal_rcc.c ****         __HAL_RCC_PLLCLKOUT_ENABLE(RCC_PLL1_DIVP);
 812:../../Drivers/STM32H7xx_HAL_Driver/Src/stm32h7xx_hal_rcc.c **** 
 813:../../Drivers/STM32H7xx_HAL_Driver/Src/stm32h7xx_hal_rcc.c ****         /* Enable PLL1Q Clock output. */
 814:../../Drivers/STM32H7xx_HAL_Driver/Src/stm32h7xx_hal_rcc.c ****         __HAL_RCC_PLLCLKOUT_ENABLE(RCC_PLL1_DIVQ);
 815:../../Drivers/STM32H7xx_HAL_Driver/Src/stm32h7xx_hal_rcc.c **** 
 816:../../Drivers/STM32H7xx_HAL_Driver/Src/stm32h7xx_hal_rcc.c ****         /* Enable PLL1R  Clock output. */
 817:../../Drivers/STM32H7xx_HAL_Driver/Src/stm32h7xx_hal_rcc.c ****         __HAL_RCC_PLLCLKOUT_ENABLE(RCC_PLL1_DIVR);
 818:../../Drivers/STM32H7xx_HAL_Driver/Src/stm32h7xx_hal_rcc.c **** 
 819:../../Drivers/STM32H7xx_HAL_Driver/Src/stm32h7xx_hal_rcc.c ****         /* Enable PLL1FRACN . */
 820:../../Drivers/STM32H7xx_HAL_Driver/Src/stm32h7xx_hal_rcc.c ****         __HAL_RCC_PLLFRACN_ENABLE();
 821:../../Drivers/STM32H7xx_HAL_Driver/Src/stm32h7xx_hal_rcc.c **** 
 822:../../Drivers/STM32H7xx_HAL_Driver/Src/stm32h7xx_hal_rcc.c ****         /* Enable the main PLL. */
 823:../../Drivers/STM32H7xx_HAL_Driver/Src/stm32h7xx_hal_rcc.c ****         __HAL_RCC_PLL_ENABLE();
 824:../../Drivers/STM32H7xx_HAL_Driver/Src/stm32h7xx_hal_rcc.c **** 
 825:../../Drivers/STM32H7xx_HAL_Driver/Src/stm32h7xx_hal_rcc.c ****         /* Get Start Tick*/
 826:../../Drivers/STM32H7xx_HAL_Driver/Src/stm32h7xx_hal_rcc.c ****         tickstart = HAL_GetTick();
 827:../../Drivers/STM32H7xx_HAL_Driver/Src/stm32h7xx_hal_rcc.c **** 
 828:../../Drivers/STM32H7xx_HAL_Driver/Src/stm32h7xx_hal_rcc.c ****         /* Wait till PLL is ready */
 829:../../Drivers/STM32H7xx_HAL_Driver/Src/stm32h7xx_hal_rcc.c ****         while (__HAL_RCC_GET_FLAG(RCC_FLAG_PLLRDY) == 0U)
 830:../../Drivers/STM32H7xx_HAL_Driver/Src/stm32h7xx_hal_rcc.c ****         {
 831:../../Drivers/STM32H7xx_HAL_Driver/Src/stm32h7xx_hal_rcc.c ****           if ((HAL_GetTick() - tickstart) > PLL_TIMEOUT_VALUE)
 832:../../Drivers/STM32H7xx_HAL_Driver/Src/stm32h7xx_hal_rcc.c ****           {
 833:../../Drivers/STM32H7xx_HAL_Driver/Src/stm32h7xx_hal_rcc.c ****             return HAL_TIMEOUT;
 834:../../Drivers/STM32H7xx_HAL_Driver/Src/stm32h7xx_hal_rcc.c ****           }
 835:../../Drivers/STM32H7xx_HAL_Driver/Src/stm32h7xx_hal_rcc.c ****         }
 836:../../Drivers/STM32H7xx_HAL_Driver/Src/stm32h7xx_hal_rcc.c ****       }
 837:../../Drivers/STM32H7xx_HAL_Driver/Src/stm32h7xx_hal_rcc.c ****       else
 838:../../Drivers/STM32H7xx_HAL_Driver/Src/stm32h7xx_hal_rcc.c ****       {
 839:../../Drivers/STM32H7xx_HAL_Driver/Src/stm32h7xx_hal_rcc.c ****         /* Disable the main PLL. */
 840:../../Drivers/STM32H7xx_HAL_Driver/Src/stm32h7xx_hal_rcc.c ****         __HAL_RCC_PLL_DISABLE();
 1233              		.loc 1 840 9 is_stmt 1 view .LVU403
 1234 040c 3A4A     		ldr	r2, .L168
 1235 040e 1368     		ldr	r3, [r2]
 1236 0410 23F08073 		bic	r3, r3, #16777216
 1237 0414 1360     		str	r3, [r2]
 841:../../Drivers/STM32H7xx_HAL_Driver/Src/stm32h7xx_hal_rcc.c **** 
 842:../../Drivers/STM32H7xx_HAL_Driver/Src/stm32h7xx_hal_rcc.c ****         /* Get Start Tick*/
 843:../../Drivers/STM32H7xx_HAL_Driver/Src/stm32h7xx_hal_rcc.c ****         tickstart = HAL_GetTick();
 1238              		.loc 1 843 9 view .LVU404
 1239              		.loc 1 843 21 is_stmt 0 view .LVU405
 1240 0416 FFF7FEFF 		bl	HAL_GetTick
 1241              	.LVL99:
 1242 041a 0446     		mov	r4, r0
 1243              	.LVL100:
 844:../../Drivers/STM32H7xx_HAL_Driver/Src/stm32h7xx_hal_rcc.c **** 
 845:../../Drivers/STM32H7xx_HAL_Driver/Src/stm32h7xx_hal_rcc.c ****         /* Wait till PLL is disabled */
 846:../../Drivers/STM32H7xx_HAL_Driver/Src/stm32h7xx_hal_rcc.c ****         while (__HAL_RCC_GET_FLAG(RCC_FLAG_PLLRDY) != 0U)
 1244              		.loc 1 846 9 is_stmt 1 view .LVU406
 1245              	.L107:
 1246              		.loc 1 846 15 view .LVU407
 1247              		.loc 1 846 16 is_stmt 0 view .LVU408
 1248 041c 364B     		ldr	r3, .L168
 1249 041e 1B68     		ldr	r3, [r3]
 1250              		.loc 1 846 15 view .LVU409
 1251 0420 13F0007F 		tst	r3, #33554432
 1252 0424 00F0DC80 		beq	.L159
 847:../../Drivers/STM32H7xx_HAL_Driver/Src/stm32h7xx_hal_rcc.c ****         {
ARM GAS  /tmp/ccooDZtA.s 			page 40


 848:../../Drivers/STM32H7xx_HAL_Driver/Src/stm32h7xx_hal_rcc.c ****           if ((HAL_GetTick() - tickstart) > PLL_TIMEOUT_VALUE)
 1253              		.loc 1 848 11 is_stmt 1 view .LVU410
 1254              		.loc 1 848 16 is_stmt 0 view .LVU411
 1255 0428 FFF7FEFF 		bl	HAL_GetTick
 1256              	.LVL101:
 1257              		.loc 1 848 30 view .LVU412
 1258 042c 001B     		subs	r0, r0, r4
 1259              		.loc 1 848 14 view .LVU413
 1260 042e 0228     		cmp	r0, #2
 1261 0430 F4D9     		bls	.L107
 849:../../Drivers/STM32H7xx_HAL_Driver/Src/stm32h7xx_hal_rcc.c ****           {
 850:../../Drivers/STM32H7xx_HAL_Driver/Src/stm32h7xx_hal_rcc.c ****             return HAL_TIMEOUT;
 1262              		.loc 1 850 20 view .LVU414
 1263 0432 0320     		movs	r0, #3
 1264 0434 29E1     		b	.L36
 1265              	.LVL102:
 1266              	.L157:
 706:../../Drivers/STM32H7xx_HAL_Driver/Src/stm32h7xx_hal_rcc.c **** 
 1267              		.loc 1 706 5 is_stmt 1 view .LVU415
 709:../../Drivers/STM32H7xx_HAL_Driver/Src/stm32h7xx_hal_rcc.c **** 
 1268              		.loc 1 709 5 view .LVU416
 709:../../Drivers/STM32H7xx_HAL_Driver/Src/stm32h7xx_hal_rcc.c **** 
 1269              		.loc 1 709 14 is_stmt 0 view .LVU417
 1270 0436 314A     		ldr	r2, .L168+4
 1271 0438 1368     		ldr	r3, [r2]
 1272 043a 43F48073 		orr	r3, r3, #256
 1273 043e 1360     		str	r3, [r2]
 712:../../Drivers/STM32H7xx_HAL_Driver/Src/stm32h7xx_hal_rcc.c **** 
 1274              		.loc 1 712 5 is_stmt 1 view .LVU418
 712:../../Drivers/STM32H7xx_HAL_Driver/Src/stm32h7xx_hal_rcc.c **** 
 1275              		.loc 1 712 17 is_stmt 0 view .LVU419
 1276 0440 FFF7FEFF 		bl	HAL_GetTick
 1277              	.LVL103:
 1278 0444 0546     		mov	r5, r0
 1279              	.LVL104:
 714:../../Drivers/STM32H7xx_HAL_Driver/Src/stm32h7xx_hal_rcc.c ****     {
 1280              		.loc 1 714 5 is_stmt 1 view .LVU420
 1281              	.L90:
 714:../../Drivers/STM32H7xx_HAL_Driver/Src/stm32h7xx_hal_rcc.c ****     {
 1282              		.loc 1 714 11 view .LVU421
 714:../../Drivers/STM32H7xx_HAL_Driver/Src/stm32h7xx_hal_rcc.c ****     {
 1283              		.loc 1 714 16 is_stmt 0 view .LVU422
 1284 0446 2D4B     		ldr	r3, .L168+4
 1285 0448 1B68     		ldr	r3, [r3]
 714:../../Drivers/STM32H7xx_HAL_Driver/Src/stm32h7xx_hal_rcc.c ****     {
 1286              		.loc 1 714 11 view .LVU423
 1287 044a 13F4807F 		tst	r3, #256
 1288 044e 06D1     		bne	.L160
 716:../../Drivers/STM32H7xx_HAL_Driver/Src/stm32h7xx_hal_rcc.c ****       {
 1289              		.loc 1 716 7 is_stmt 1 view .LVU424
 716:../../Drivers/STM32H7xx_HAL_Driver/Src/stm32h7xx_hal_rcc.c ****       {
 1290              		.loc 1 716 12 is_stmt 0 view .LVU425
 1291 0450 FFF7FEFF 		bl	HAL_GetTick
 1292              	.LVL105:
 716:../../Drivers/STM32H7xx_HAL_Driver/Src/stm32h7xx_hal_rcc.c ****       {
 1293              		.loc 1 716 26 view .LVU426
 1294 0454 401B     		subs	r0, r0, r5
ARM GAS  /tmp/ccooDZtA.s 			page 41


 716:../../Drivers/STM32H7xx_HAL_Driver/Src/stm32h7xx_hal_rcc.c ****       {
 1295              		.loc 1 716 10 view .LVU427
 1296 0456 6428     		cmp	r0, #100
 1297 0458 F5D9     		bls	.L90
 718:../../Drivers/STM32H7xx_HAL_Driver/Src/stm32h7xx_hal_rcc.c ****       }
 1298              		.loc 1 718 16 view .LVU428
 1299 045a 0320     		movs	r0, #3
 1300 045c 15E1     		b	.L36
 1301              	.L160:
 723:../../Drivers/STM32H7xx_HAL_Driver/Src/stm32h7xx_hal_rcc.c ****     /* Check the LSE State */
 1302              		.loc 1 723 5 is_stmt 1 view .LVU429
 723:../../Drivers/STM32H7xx_HAL_Driver/Src/stm32h7xx_hal_rcc.c ****     /* Check the LSE State */
 1303              		.loc 1 723 5 view .LVU430
 1304 045e A368     		ldr	r3, [r4, #8]
 1305 0460 012B     		cmp	r3, #1
 1306 0462 0AD0     		beq	.L161
 723:../../Drivers/STM32H7xx_HAL_Driver/Src/stm32h7xx_hal_rcc.c ****     /* Check the LSE State */
 1307              		.loc 1 723 5 discriminator 2 view .LVU431
 1308 0464 0BBB     		cbnz	r3, .L94
 723:../../Drivers/STM32H7xx_HAL_Driver/Src/stm32h7xx_hal_rcc.c ****     /* Check the LSE State */
 1309              		.loc 1 723 5 discriminator 4 view .LVU432
 1310 0466 244B     		ldr	r3, .L168
 1311 0468 1A6F     		ldr	r2, [r3, #112]
 1312 046a 22F00102 		bic	r2, r2, #1
 1313 046e 1A67     		str	r2, [r3, #112]
 723:../../Drivers/STM32H7xx_HAL_Driver/Src/stm32h7xx_hal_rcc.c ****     /* Check the LSE State */
 1314              		.loc 1 723 5 discriminator 4 view .LVU433
 1315 0470 1A6F     		ldr	r2, [r3, #112]
 1316 0472 22F00402 		bic	r2, r2, #4
 1317 0476 1A67     		str	r2, [r3, #112]
 1318 0478 04E0     		b	.L93
 1319              	.L161:
 723:../../Drivers/STM32H7xx_HAL_Driver/Src/stm32h7xx_hal_rcc.c ****     /* Check the LSE State */
 1320              		.loc 1 723 5 discriminator 1 view .LVU434
 1321 047a 1F4A     		ldr	r2, .L168
 1322 047c 136F     		ldr	r3, [r2, #112]
 1323 047e 43F00103 		orr	r3, r3, #1
 1324 0482 1367     		str	r3, [r2, #112]
 1325              	.L93:
 723:../../Drivers/STM32H7xx_HAL_Driver/Src/stm32h7xx_hal_rcc.c ****     /* Check the LSE State */
 1326              		.loc 1 723 5 discriminator 10 view .LVU435
 725:../../Drivers/STM32H7xx_HAL_Driver/Src/stm32h7xx_hal_rcc.c ****     {
 1327              		.loc 1 725 5 discriminator 10 view .LVU436
 725:../../Drivers/STM32H7xx_HAL_Driver/Src/stm32h7xx_hal_rcc.c ****     {
 1328              		.loc 1 725 27 is_stmt 0 discriminator 10 view .LVU437
 1329 0484 A368     		ldr	r3, [r4, #8]
 725:../../Drivers/STM32H7xx_HAL_Driver/Src/stm32h7xx_hal_rcc.c ****     {
 1330              		.loc 1 725 8 discriminator 10 view .LVU438
 1331 0486 33B3     		cbz	r3, .L96
 728:../../Drivers/STM32H7xx_HAL_Driver/Src/stm32h7xx_hal_rcc.c **** 
 1332              		.loc 1 728 7 is_stmt 1 view .LVU439
 728:../../Drivers/STM32H7xx_HAL_Driver/Src/stm32h7xx_hal_rcc.c **** 
 1333              		.loc 1 728 19 is_stmt 0 view .LVU440
 1334 0488 FFF7FEFF 		bl	HAL_GetTick
 1335              	.LVL106:
 1336 048c 0546     		mov	r5, r0
 1337              	.LVL107:
ARM GAS  /tmp/ccooDZtA.s 			page 42


 731:../../Drivers/STM32H7xx_HAL_Driver/Src/stm32h7xx_hal_rcc.c ****       {
 1338              		.loc 1 731 7 is_stmt 1 view .LVU441
 1339              	.L97:
 731:../../Drivers/STM32H7xx_HAL_Driver/Src/stm32h7xx_hal_rcc.c ****       {
 1340              		.loc 1 731 13 view .LVU442
 731:../../Drivers/STM32H7xx_HAL_Driver/Src/stm32h7xx_hal_rcc.c ****       {
 1341              		.loc 1 731 14 is_stmt 0 view .LVU443
 1342 048e 1A4B     		ldr	r3, .L168
 1343 0490 1B6F     		ldr	r3, [r3, #112]
 731:../../Drivers/STM32H7xx_HAL_Driver/Src/stm32h7xx_hal_rcc.c ****       {
 1344              		.loc 1 731 13 view .LVU444
 1345 0492 13F0020F 		tst	r3, #2
 1346 0496 ACD1     		bne	.L89
 733:../../Drivers/STM32H7xx_HAL_Driver/Src/stm32h7xx_hal_rcc.c ****         {
 1347              		.loc 1 733 9 is_stmt 1 view .LVU445
 733:../../Drivers/STM32H7xx_HAL_Driver/Src/stm32h7xx_hal_rcc.c ****         {
 1348              		.loc 1 733 14 is_stmt 0 view .LVU446
 1349 0498 FFF7FEFF 		bl	HAL_GetTick
 1350              	.LVL108:
 733:../../Drivers/STM32H7xx_HAL_Driver/Src/stm32h7xx_hal_rcc.c ****         {
 1351              		.loc 1 733 28 view .LVU447
 1352 049c 401B     		subs	r0, r0, r5
 733:../../Drivers/STM32H7xx_HAL_Driver/Src/stm32h7xx_hal_rcc.c ****         {
 1353              		.loc 1 733 12 view .LVU448
 1354 049e 41F28833 		movw	r3, #5000
 1355 04a2 9842     		cmp	r0, r3
 1356 04a4 F3D9     		bls	.L97
 735:../../Drivers/STM32H7xx_HAL_Driver/Src/stm32h7xx_hal_rcc.c ****         }
 1357              		.loc 1 735 18 view .LVU449
 1358 04a6 0320     		movs	r0, #3
 1359 04a8 EFE0     		b	.L36
 1360              	.L94:
 723:../../Drivers/STM32H7xx_HAL_Driver/Src/stm32h7xx_hal_rcc.c ****     /* Check the LSE State */
 1361              		.loc 1 723 5 is_stmt 1 discriminator 5 view .LVU450
 1362 04aa 052B     		cmp	r3, #5
 1363 04ac 09D0     		beq	.L162
 723:../../Drivers/STM32H7xx_HAL_Driver/Src/stm32h7xx_hal_rcc.c ****     /* Check the LSE State */
 1364              		.loc 1 723 5 discriminator 8 view .LVU451
 1365 04ae 124B     		ldr	r3, .L168
 1366 04b0 1A6F     		ldr	r2, [r3, #112]
 1367 04b2 22F00102 		bic	r2, r2, #1
 1368 04b6 1A67     		str	r2, [r3, #112]
 723:../../Drivers/STM32H7xx_HAL_Driver/Src/stm32h7xx_hal_rcc.c ****     /* Check the LSE State */
 1369              		.loc 1 723 5 discriminator 8 view .LVU452
 1370 04b8 1A6F     		ldr	r2, [r3, #112]
 1371 04ba 22F00402 		bic	r2, r2, #4
 1372 04be 1A67     		str	r2, [r3, #112]
 1373 04c0 E0E7     		b	.L93
 1374              	.L162:
 723:../../Drivers/STM32H7xx_HAL_Driver/Src/stm32h7xx_hal_rcc.c ****     /* Check the LSE State */
 1375              		.loc 1 723 5 discriminator 7 view .LVU453
 1376 04c2 0D4B     		ldr	r3, .L168
 1377 04c4 1A6F     		ldr	r2, [r3, #112]
 1378 04c6 42F00402 		orr	r2, r2, #4
 1379 04ca 1A67     		str	r2, [r3, #112]
 723:../../Drivers/STM32H7xx_HAL_Driver/Src/stm32h7xx_hal_rcc.c ****     /* Check the LSE State */
 1380              		.loc 1 723 5 discriminator 7 view .LVU454
ARM GAS  /tmp/ccooDZtA.s 			page 43


 1381 04cc 1A6F     		ldr	r2, [r3, #112]
 1382 04ce 42F00102 		orr	r2, r2, #1
 1383 04d2 1A67     		str	r2, [r3, #112]
 1384 04d4 D6E7     		b	.L93
 1385              	.L96:
 742:../../Drivers/STM32H7xx_HAL_Driver/Src/stm32h7xx_hal_rcc.c **** 
 1386              		.loc 1 742 7 view .LVU455
 742:../../Drivers/STM32H7xx_HAL_Driver/Src/stm32h7xx_hal_rcc.c **** 
 1387              		.loc 1 742 19 is_stmt 0 view .LVU456
 1388 04d6 FFF7FEFF 		bl	HAL_GetTick
 1389              	.LVL109:
 1390 04da 0546     		mov	r5, r0
 1391              	.LVL110:
 745:../../Drivers/STM32H7xx_HAL_Driver/Src/stm32h7xx_hal_rcc.c ****       {
 1392              		.loc 1 745 7 is_stmt 1 view .LVU457
 1393              	.L99:
 745:../../Drivers/STM32H7xx_HAL_Driver/Src/stm32h7xx_hal_rcc.c ****       {
 1394              		.loc 1 745 13 view .LVU458
 745:../../Drivers/STM32H7xx_HAL_Driver/Src/stm32h7xx_hal_rcc.c ****       {
 1395              		.loc 1 745 14 is_stmt 0 view .LVU459
 1396 04dc 064B     		ldr	r3, .L168
 1397 04de 1B6F     		ldr	r3, [r3, #112]
 745:../../Drivers/STM32H7xx_HAL_Driver/Src/stm32h7xx_hal_rcc.c ****       {
 1398              		.loc 1 745 13 view .LVU460
 1399 04e0 13F0020F 		tst	r3, #2
 1400 04e4 85D0     		beq	.L89
 747:../../Drivers/STM32H7xx_HAL_Driver/Src/stm32h7xx_hal_rcc.c ****         {
 1401              		.loc 1 747 9 is_stmt 1 view .LVU461
 747:../../Drivers/STM32H7xx_HAL_Driver/Src/stm32h7xx_hal_rcc.c ****         {
 1402              		.loc 1 747 14 is_stmt 0 view .LVU462
 1403 04e6 FFF7FEFF 		bl	HAL_GetTick
 1404              	.LVL111:
 747:../../Drivers/STM32H7xx_HAL_Driver/Src/stm32h7xx_hal_rcc.c ****         {
 1405              		.loc 1 747 28 view .LVU463
 1406 04ea 401B     		subs	r0, r0, r5
 747:../../Drivers/STM32H7xx_HAL_Driver/Src/stm32h7xx_hal_rcc.c ****         {
 1407              		.loc 1 747 12 view .LVU464
 1408 04ec 41F28833 		movw	r3, #5000
 1409 04f0 9842     		cmp	r0, r3
 1410 04f2 F3D9     		bls	.L99
 749:../../Drivers/STM32H7xx_HAL_Driver/Src/stm32h7xx_hal_rcc.c ****         }
 1411              		.loc 1 749 18 view .LVU465
 1412 04f4 0320     		movs	r0, #3
 1413 04f6 C8E0     		b	.L36
 1414              	.L169:
 1415              		.align	2
 1416              	.L168:
 1417 04f8 00440258 		.word	1476543488
 1418 04fc 00480258 		.word	1476544512
 1419              	.LVL112:
 1420              	.L158:
 765:../../Drivers/STM32H7xx_HAL_Driver/Src/stm32h7xx_hal_rcc.c ****         assert_param(IS_RCC_PLLRGE_VALUE(RCC_OscInitStruct->PLL.PLLRGE));
 1421              		.loc 1 765 9 is_stmt 1 view .LVU466
 766:../../Drivers/STM32H7xx_HAL_Driver/Src/stm32h7xx_hal_rcc.c ****         assert_param(IS_RCC_PLLVCO_VALUE(RCC_OscInitStruct->PLL.PLLVCOSEL));
 1422              		.loc 1 766 9 view .LVU467
 767:../../Drivers/STM32H7xx_HAL_Driver/Src/stm32h7xx_hal_rcc.c ****         assert_param(IS_RCC_PLLM_VALUE(RCC_OscInitStruct->PLL.PLLM));
 1423              		.loc 1 767 9 view .LVU468
ARM GAS  /tmp/ccooDZtA.s 			page 44


 768:../../Drivers/STM32H7xx_HAL_Driver/Src/stm32h7xx_hal_rcc.c ****         assert_param(IS_RCC_PLLN_VALUE(RCC_OscInitStruct->PLL.PLLN));
 1424              		.loc 1 768 9 view .LVU469
 769:../../Drivers/STM32H7xx_HAL_Driver/Src/stm32h7xx_hal_rcc.c ****         assert_param(IS_RCC_PLLP_VALUE(RCC_OscInitStruct->PLL.PLLP));
 1425              		.loc 1 769 9 view .LVU470
 770:../../Drivers/STM32H7xx_HAL_Driver/Src/stm32h7xx_hal_rcc.c ****         assert_param(IS_RCC_PLLQ_VALUE(RCC_OscInitStruct->PLL.PLLQ));
 1426              		.loc 1 770 9 view .LVU471
 771:../../Drivers/STM32H7xx_HAL_Driver/Src/stm32h7xx_hal_rcc.c ****         assert_param(IS_RCC_PLLR_VALUE(RCC_OscInitStruct->PLL.PLLR));
 1427              		.loc 1 771 9 view .LVU472
 772:../../Drivers/STM32H7xx_HAL_Driver/Src/stm32h7xx_hal_rcc.c ****         assert_param(IS_RCC_PLLFRACN_VALUE(RCC_OscInitStruct->PLL.PLLFRACN));
 1428              		.loc 1 772 9 view .LVU473
 773:../../Drivers/STM32H7xx_HAL_Driver/Src/stm32h7xx_hal_rcc.c **** 
 1429              		.loc 1 773 9 view .LVU474
 776:../../Drivers/STM32H7xx_HAL_Driver/Src/stm32h7xx_hal_rcc.c **** 
 1430              		.loc 1 776 9 view .LVU475
 1431 0500 694A     		ldr	r2, .L170
 1432 0502 1368     		ldr	r3, [r2]
 1433 0504 23F08073 		bic	r3, r3, #16777216
 1434 0508 1360     		str	r3, [r2]
 779:../../Drivers/STM32H7xx_HAL_Driver/Src/stm32h7xx_hal_rcc.c **** 
 1435              		.loc 1 779 9 view .LVU476
 779:../../Drivers/STM32H7xx_HAL_Driver/Src/stm32h7xx_hal_rcc.c **** 
 1436              		.loc 1 779 21 is_stmt 0 view .LVU477
 1437 050a FFF7FEFF 		bl	HAL_GetTick
 1438              	.LVL113:
 1439 050e 0546     		mov	r5, r0
 1440              	.LVL114:
 782:../../Drivers/STM32H7xx_HAL_Driver/Src/stm32h7xx_hal_rcc.c ****         {
 1441              		.loc 1 782 9 is_stmt 1 view .LVU478
 1442              	.L103:
 782:../../Drivers/STM32H7xx_HAL_Driver/Src/stm32h7xx_hal_rcc.c ****         {
 1443              		.loc 1 782 15 view .LVU479
 782:../../Drivers/STM32H7xx_HAL_Driver/Src/stm32h7xx_hal_rcc.c ****         {
 1444              		.loc 1 782 16 is_stmt 0 view .LVU480
 1445 0510 654B     		ldr	r3, .L170
 1446 0512 1B68     		ldr	r3, [r3]
 782:../../Drivers/STM32H7xx_HAL_Driver/Src/stm32h7xx_hal_rcc.c ****         {
 1447              		.loc 1 782 15 view .LVU481
 1448 0514 13F0007F 		tst	r3, #33554432
 1449 0518 06D0     		beq	.L163
 784:../../Drivers/STM32H7xx_HAL_Driver/Src/stm32h7xx_hal_rcc.c ****           {
 1450              		.loc 1 784 11 is_stmt 1 view .LVU482
 784:../../Drivers/STM32H7xx_HAL_Driver/Src/stm32h7xx_hal_rcc.c ****           {
 1451              		.loc 1 784 16 is_stmt 0 view .LVU483
 1452 051a FFF7FEFF 		bl	HAL_GetTick
 1453              	.LVL115:
 784:../../Drivers/STM32H7xx_HAL_Driver/Src/stm32h7xx_hal_rcc.c ****           {
 1454              		.loc 1 784 30 view .LVU484
 1455 051e 401B     		subs	r0, r0, r5
 784:../../Drivers/STM32H7xx_HAL_Driver/Src/stm32h7xx_hal_rcc.c ****           {
 1456              		.loc 1 784 14 view .LVU485
 1457 0520 0228     		cmp	r0, #2
 1458 0522 F5D9     		bls	.L103
 786:../../Drivers/STM32H7xx_HAL_Driver/Src/stm32h7xx_hal_rcc.c ****           }
 1459              		.loc 1 786 20 view .LVU486
 1460 0524 0320     		movs	r0, #3
 1461 0526 B0E0     		b	.L36
 1462              	.L163:
ARM GAS  /tmp/ccooDZtA.s 			page 45


 791:../../Drivers/STM32H7xx_HAL_Driver/Src/stm32h7xx_hal_rcc.c ****                              RCC_OscInitStruct->PLL.PLLM,
 1463              		.loc 1 791 9 is_stmt 1 view .LVU487
 791:../../Drivers/STM32H7xx_HAL_Driver/Src/stm32h7xx_hal_rcc.c ****                              RCC_OscInitStruct->PLL.PLLM,
 1464              		.loc 1 791 9 view .LVU488
 1465 0528 5F4B     		ldr	r3, .L170
 1466 052a 996A     		ldr	r1, [r3, #40]
 1467 052c 5F4A     		ldr	r2, .L170+4
 1468 052e 0A40     		ands	r2, r2, r1
 1469 0530 A16A     		ldr	r1, [r4, #40]
 1470 0532 E06A     		ldr	r0, [r4, #44]
 1471 0534 41EA0011 		orr	r1, r1, r0, lsl #4
 1472 0538 0A43     		orrs	r2, r2, r1
 1473 053a 9A62     		str	r2, [r3, #40]
 791:../../Drivers/STM32H7xx_HAL_Driver/Src/stm32h7xx_hal_rcc.c ****                              RCC_OscInitStruct->PLL.PLLM,
 1474              		.loc 1 791 9 view .LVU489
 1475 053c 226B     		ldr	r2, [r4, #48]
 1476 053e 013A     		subs	r2, r2, #1
 1477 0540 C2F30802 		ubfx	r2, r2, #0, #9
 1478 0544 616B     		ldr	r1, [r4, #52]
 1479 0546 0139     		subs	r1, r1, #1
 1480 0548 4902     		lsls	r1, r1, #9
 1481 054a 89B2     		uxth	r1, r1
 1482 054c 0A43     		orrs	r2, r2, r1
 1483 054e A16B     		ldr	r1, [r4, #56]
 1484 0550 0139     		subs	r1, r1, #1
 1485 0552 0904     		lsls	r1, r1, #16
 1486 0554 01F4FE01 		and	r1, r1, #8323072
 1487 0558 0A43     		orrs	r2, r2, r1
 1488 055a E16B     		ldr	r1, [r4, #60]
 1489 055c 0139     		subs	r1, r1, #1
 1490 055e 0906     		lsls	r1, r1, #24
 1491 0560 01F0FE41 		and	r1, r1, #2130706432
 1492 0564 0A43     		orrs	r2, r2, r1
 1493 0566 1A63     		str	r2, [r3, #48]
 791:../../Drivers/STM32H7xx_HAL_Driver/Src/stm32h7xx_hal_rcc.c ****                              RCC_OscInitStruct->PLL.PLLM,
 1494              		.loc 1 791 9 view .LVU490
 799:../../Drivers/STM32H7xx_HAL_Driver/Src/stm32h7xx_hal_rcc.c **** 
 1495              		.loc 1 799 9 view .LVU491
 1496 0568 DA6A     		ldr	r2, [r3, #44]
 1497 056a 22F00102 		bic	r2, r2, #1
 1498 056e DA62     		str	r2, [r3, #44]
 802:../../Drivers/STM32H7xx_HAL_Driver/Src/stm32h7xx_hal_rcc.c **** 
 1499              		.loc 1 802 9 view .LVU492
 1500 0570 596B     		ldr	r1, [r3, #52]
 1501 0572 4F4A     		ldr	r2, .L170+8
 1502 0574 0A40     		ands	r2, r2, r1
 1503 0576 A16C     		ldr	r1, [r4, #72]
 1504 0578 42EAC102 		orr	r2, r2, r1, lsl #3
 1505 057c 5A63     		str	r2, [r3, #52]
 805:../../Drivers/STM32H7xx_HAL_Driver/Src/stm32h7xx_hal_rcc.c **** 
 1506              		.loc 1 805 9 view .LVU493
 1507 057e DA6A     		ldr	r2, [r3, #44]
 1508 0580 22F00C02 		bic	r2, r2, #12
 1509 0584 216C     		ldr	r1, [r4, #64]
 1510 0586 0A43     		orrs	r2, r2, r1
 1511 0588 DA62     		str	r2, [r3, #44]
 808:../../Drivers/STM32H7xx_HAL_Driver/Src/stm32h7xx_hal_rcc.c **** 
ARM GAS  /tmp/ccooDZtA.s 			page 46


 1512              		.loc 1 808 9 view .LVU494
 1513 058a DA6A     		ldr	r2, [r3, #44]
 1514 058c 22F00202 		bic	r2, r2, #2
 1515 0590 616C     		ldr	r1, [r4, #68]
 1516 0592 0A43     		orrs	r2, r2, r1
 1517 0594 DA62     		str	r2, [r3, #44]
 811:../../Drivers/STM32H7xx_HAL_Driver/Src/stm32h7xx_hal_rcc.c **** 
 1518              		.loc 1 811 9 view .LVU495
 1519 0596 DA6A     		ldr	r2, [r3, #44]
 1520 0598 42F48032 		orr	r2, r2, #65536
 1521 059c DA62     		str	r2, [r3, #44]
 814:../../Drivers/STM32H7xx_HAL_Driver/Src/stm32h7xx_hal_rcc.c **** 
 1522              		.loc 1 814 9 view .LVU496
 1523 059e DA6A     		ldr	r2, [r3, #44]
 1524 05a0 42F40032 		orr	r2, r2, #131072
 1525 05a4 DA62     		str	r2, [r3, #44]
 817:../../Drivers/STM32H7xx_HAL_Driver/Src/stm32h7xx_hal_rcc.c **** 
 1526              		.loc 1 817 9 view .LVU497
 1527 05a6 DA6A     		ldr	r2, [r3, #44]
 1528 05a8 42F48022 		orr	r2, r2, #262144
 1529 05ac DA62     		str	r2, [r3, #44]
 820:../../Drivers/STM32H7xx_HAL_Driver/Src/stm32h7xx_hal_rcc.c **** 
 1530              		.loc 1 820 9 view .LVU498
 1531 05ae DA6A     		ldr	r2, [r3, #44]
 1532 05b0 42F00102 		orr	r2, r2, #1
 1533 05b4 DA62     		str	r2, [r3, #44]
 823:../../Drivers/STM32H7xx_HAL_Driver/Src/stm32h7xx_hal_rcc.c **** 
 1534              		.loc 1 823 9 view .LVU499
 1535 05b6 1A68     		ldr	r2, [r3]
 1536 05b8 42F08072 		orr	r2, r2, #16777216
 1537 05bc 1A60     		str	r2, [r3]
 826:../../Drivers/STM32H7xx_HAL_Driver/Src/stm32h7xx_hal_rcc.c **** 
 1538              		.loc 1 826 9 view .LVU500
 826:../../Drivers/STM32H7xx_HAL_Driver/Src/stm32h7xx_hal_rcc.c **** 
 1539              		.loc 1 826 21 is_stmt 0 view .LVU501
 1540 05be FFF7FEFF 		bl	HAL_GetTick
 1541              	.LVL116:
 1542 05c2 0446     		mov	r4, r0
 1543              	.LVL117:
 829:../../Drivers/STM32H7xx_HAL_Driver/Src/stm32h7xx_hal_rcc.c ****         {
 1544              		.loc 1 829 9 is_stmt 1 view .LVU502
 1545              	.L105:
 829:../../Drivers/STM32H7xx_HAL_Driver/Src/stm32h7xx_hal_rcc.c ****         {
 1546              		.loc 1 829 15 view .LVU503
 829:../../Drivers/STM32H7xx_HAL_Driver/Src/stm32h7xx_hal_rcc.c ****         {
 1547              		.loc 1 829 16 is_stmt 0 view .LVU504
 1548 05c4 384B     		ldr	r3, .L170
 1549 05c6 1B68     		ldr	r3, [r3]
 829:../../Drivers/STM32H7xx_HAL_Driver/Src/stm32h7xx_hal_rcc.c ****         {
 1550              		.loc 1 829 15 view .LVU505
 1551 05c8 13F0007F 		tst	r3, #33554432
 1552 05cc 06D1     		bne	.L164
 831:../../Drivers/STM32H7xx_HAL_Driver/Src/stm32h7xx_hal_rcc.c ****           {
 1553              		.loc 1 831 11 is_stmt 1 view .LVU506
 831:../../Drivers/STM32H7xx_HAL_Driver/Src/stm32h7xx_hal_rcc.c ****           {
 1554              		.loc 1 831 16 is_stmt 0 view .LVU507
 1555 05ce FFF7FEFF 		bl	HAL_GetTick
ARM GAS  /tmp/ccooDZtA.s 			page 47


 1556              	.LVL118:
 831:../../Drivers/STM32H7xx_HAL_Driver/Src/stm32h7xx_hal_rcc.c ****           {
 1557              		.loc 1 831 30 view .LVU508
 1558 05d2 001B     		subs	r0, r0, r4
 831:../../Drivers/STM32H7xx_HAL_Driver/Src/stm32h7xx_hal_rcc.c ****           {
 1559              		.loc 1 831 14 view .LVU509
 1560 05d4 0228     		cmp	r0, #2
 1561 05d6 F5D9     		bls	.L105
 833:../../Drivers/STM32H7xx_HAL_Driver/Src/stm32h7xx_hal_rcc.c ****           }
 1562              		.loc 1 833 20 view .LVU510
 1563 05d8 0320     		movs	r0, #3
 1564 05da 56E0     		b	.L36
 1565              	.L164:
 851:../../Drivers/STM32H7xx_HAL_Driver/Src/stm32h7xx_hal_rcc.c ****           }
 852:../../Drivers/STM32H7xx_HAL_Driver/Src/stm32h7xx_hal_rcc.c ****         }
 853:../../Drivers/STM32H7xx_HAL_Driver/Src/stm32h7xx_hal_rcc.c ****       }
 854:../../Drivers/STM32H7xx_HAL_Driver/Src/stm32h7xx_hal_rcc.c ****     }
 855:../../Drivers/STM32H7xx_HAL_Driver/Src/stm32h7xx_hal_rcc.c ****     else
 856:../../Drivers/STM32H7xx_HAL_Driver/Src/stm32h7xx_hal_rcc.c ****     {
 857:../../Drivers/STM32H7xx_HAL_Driver/Src/stm32h7xx_hal_rcc.c ****       /* Do not return HAL_ERROR if request repeats the current configuration */
 858:../../Drivers/STM32H7xx_HAL_Driver/Src/stm32h7xx_hal_rcc.c ****       temp1_pllckcfg = RCC->PLLCKSELR;
 859:../../Drivers/STM32H7xx_HAL_Driver/Src/stm32h7xx_hal_rcc.c ****       temp2_pllckcfg = RCC->PLL1DIVR;
 860:../../Drivers/STM32H7xx_HAL_Driver/Src/stm32h7xx_hal_rcc.c ****       if (((RCC_OscInitStruct->PLL.PLLState) == RCC_PLL_OFF) ||
 861:../../Drivers/STM32H7xx_HAL_Driver/Src/stm32h7xx_hal_rcc.c ****           (READ_BIT(temp1_pllckcfg, RCC_PLLCKSELR_PLLSRC) != RCC_OscInitStruct->PLL.PLLSource) ||
 862:../../Drivers/STM32H7xx_HAL_Driver/Src/stm32h7xx_hal_rcc.c ****           ((READ_BIT(temp1_pllckcfg, RCC_PLLCKSELR_DIVM1) >> RCC_PLLCKSELR_DIVM1_Pos) != RCC_OscIni
 863:../../Drivers/STM32H7xx_HAL_Driver/Src/stm32h7xx_hal_rcc.c ****           (READ_BIT(temp2_pllckcfg, RCC_PLL1DIVR_N1) != (RCC_OscInitStruct->PLL.PLLN - 1U)) ||
 864:../../Drivers/STM32H7xx_HAL_Driver/Src/stm32h7xx_hal_rcc.c ****           ((READ_BIT(temp2_pllckcfg, RCC_PLL1DIVR_P1) >> RCC_PLL1DIVR_P1_Pos) != (RCC_OscInitStruct
 865:../../Drivers/STM32H7xx_HAL_Driver/Src/stm32h7xx_hal_rcc.c ****           ((READ_BIT(temp2_pllckcfg, RCC_PLL1DIVR_Q1) >> RCC_PLL1DIVR_Q1_Pos) != (RCC_OscInitStruct
 866:../../Drivers/STM32H7xx_HAL_Driver/Src/stm32h7xx_hal_rcc.c ****           ((READ_BIT(temp2_pllckcfg, RCC_PLL1DIVR_R1) >> RCC_PLL1DIVR_R1_Pos) != (RCC_OscInitStruct
 867:../../Drivers/STM32H7xx_HAL_Driver/Src/stm32h7xx_hal_rcc.c ****       {
 868:../../Drivers/STM32H7xx_HAL_Driver/Src/stm32h7xx_hal_rcc.c ****         return HAL_ERROR;
 869:../../Drivers/STM32H7xx_HAL_Driver/Src/stm32h7xx_hal_rcc.c ****       }
 870:../../Drivers/STM32H7xx_HAL_Driver/Src/stm32h7xx_hal_rcc.c ****       else
 871:../../Drivers/STM32H7xx_HAL_Driver/Src/stm32h7xx_hal_rcc.c ****       {
 872:../../Drivers/STM32H7xx_HAL_Driver/Src/stm32h7xx_hal_rcc.c ****         /* Check if only fractional part needs to be updated  */
 873:../../Drivers/STM32H7xx_HAL_Driver/Src/stm32h7xx_hal_rcc.c ****         temp1_pllckcfg = ((RCC->PLL1FRACR & RCC_PLL1FRACR_FRACN1) >> RCC_PLL1FRACR_FRACN1_Pos);
 874:../../Drivers/STM32H7xx_HAL_Driver/Src/stm32h7xx_hal_rcc.c ****         if (RCC_OscInitStruct->PLL.PLLFRACN != temp1_pllckcfg)
 875:../../Drivers/STM32H7xx_HAL_Driver/Src/stm32h7xx_hal_rcc.c ****         {
 876:../../Drivers/STM32H7xx_HAL_Driver/Src/stm32h7xx_hal_rcc.c ****           assert_param(IS_RCC_PLLFRACN_VALUE(RCC_OscInitStruct->PLL.PLLFRACN));
 877:../../Drivers/STM32H7xx_HAL_Driver/Src/stm32h7xx_hal_rcc.c ****           /* Disable PLL1FRACEN */
 878:../../Drivers/STM32H7xx_HAL_Driver/Src/stm32h7xx_hal_rcc.c ****           __HAL_RCC_PLLFRACN_DISABLE();
 879:../../Drivers/STM32H7xx_HAL_Driver/Src/stm32h7xx_hal_rcc.c ****           /* Get Start Tick*/
 880:../../Drivers/STM32H7xx_HAL_Driver/Src/stm32h7xx_hal_rcc.c ****           tickstart = HAL_GetTick();
 881:../../Drivers/STM32H7xx_HAL_Driver/Src/stm32h7xx_hal_rcc.c ****           /* Wait at least 2 CK_REF (PLL input source divided by M) period to make sure next latche
 882:../../Drivers/STM32H7xx_HAL_Driver/Src/stm32h7xx_hal_rcc.c ****           while ((HAL_GetTick() - tickstart) < PLL_FRAC_TIMEOUT_VALUE)
 883:../../Drivers/STM32H7xx_HAL_Driver/Src/stm32h7xx_hal_rcc.c ****           {
 884:../../Drivers/STM32H7xx_HAL_Driver/Src/stm32h7xx_hal_rcc.c ****           }
 885:../../Drivers/STM32H7xx_HAL_Driver/Src/stm32h7xx_hal_rcc.c ****           /* Configure PLL1 PLL1FRACN */
 886:../../Drivers/STM32H7xx_HAL_Driver/Src/stm32h7xx_hal_rcc.c ****           __HAL_RCC_PLLFRACN_CONFIG(RCC_OscInitStruct->PLL.PLLFRACN);
 887:../../Drivers/STM32H7xx_HAL_Driver/Src/stm32h7xx_hal_rcc.c ****           /* Enable PLL1FRACEN to latch new value. */
 888:../../Drivers/STM32H7xx_HAL_Driver/Src/stm32h7xx_hal_rcc.c ****           __HAL_RCC_PLLFRACN_ENABLE();
 889:../../Drivers/STM32H7xx_HAL_Driver/Src/stm32h7xx_hal_rcc.c ****         }
 890:../../Drivers/STM32H7xx_HAL_Driver/Src/stm32h7xx_hal_rcc.c ****       }
 891:../../Drivers/STM32H7xx_HAL_Driver/Src/stm32h7xx_hal_rcc.c ****     }
 892:../../Drivers/STM32H7xx_HAL_Driver/Src/stm32h7xx_hal_rcc.c ****   }
 893:../../Drivers/STM32H7xx_HAL_Driver/Src/stm32h7xx_hal_rcc.c ****   return HAL_OK;
 1566              		.loc 1 893 10 view .LVU511
ARM GAS  /tmp/ccooDZtA.s 			page 48


 1567 05dc 0020     		movs	r0, #0
 1568 05de 54E0     		b	.L36
 1569              	.L159:
 1570              		.loc 1 893 10 view .LVU512
 1571 05e0 0020     		movs	r0, #0
 1572 05e2 52E0     		b	.L36
 1573              	.LVL119:
 1574              	.L101:
 858:../../Drivers/STM32H7xx_HAL_Driver/Src/stm32h7xx_hal_rcc.c ****       temp2_pllckcfg = RCC->PLL1DIVR;
 1575              		.loc 1 858 7 is_stmt 1 view .LVU513
 858:../../Drivers/STM32H7xx_HAL_Driver/Src/stm32h7xx_hal_rcc.c ****       temp2_pllckcfg = RCC->PLL1DIVR;
 1576              		.loc 1 858 22 is_stmt 0 view .LVU514
 1577 05e4 304A     		ldr	r2, .L170
 1578 05e6 916A     		ldr	r1, [r2, #40]
 1579              	.LVL120:
 859:../../Drivers/STM32H7xx_HAL_Driver/Src/stm32h7xx_hal_rcc.c ****       if (((RCC_OscInitStruct->PLL.PLLState) == RCC_PLL_OFF) ||
 1580              		.loc 1 859 7 is_stmt 1 view .LVU515
 859:../../Drivers/STM32H7xx_HAL_Driver/Src/stm32h7xx_hal_rcc.c ****       if (((RCC_OscInitStruct->PLL.PLLState) == RCC_PLL_OFF) ||
 1581              		.loc 1 859 22 is_stmt 0 view .LVU516
 1582 05e8 106B     		ldr	r0, [r2, #48]
 1583              	.LVL121:
 860:../../Drivers/STM32H7xx_HAL_Driver/Src/stm32h7xx_hal_rcc.c ****           (READ_BIT(temp1_pllckcfg, RCC_PLLCKSELR_PLLSRC) != RCC_OscInitStruct->PLL.PLLSource) ||
 1584              		.loc 1 860 7 is_stmt 1 view .LVU517
 860:../../Drivers/STM32H7xx_HAL_Driver/Src/stm32h7xx_hal_rcc.c ****           (READ_BIT(temp1_pllckcfg, RCC_PLLCKSELR_PLLSRC) != RCC_OscInitStruct->PLL.PLLSource) ||
 1585              		.loc 1 860 10 is_stmt 0 view .LVU518
 1586 05ea 012B     		cmp	r3, #1
 1587 05ec 4ED0     		beq	.L132
 861:../../Drivers/STM32H7xx_HAL_Driver/Src/stm32h7xx_hal_rcc.c ****           ((READ_BIT(temp1_pllckcfg, RCC_PLLCKSELR_DIVM1) >> RCC_PLLCKSELR_DIVM1_Pos) != RCC_OscIni
 1588              		.loc 1 861 12 discriminator 1 view .LVU519
 1589 05ee 01F00303 		and	r3, r1, #3
 861:../../Drivers/STM32H7xx_HAL_Driver/Src/stm32h7xx_hal_rcc.c ****           ((READ_BIT(temp1_pllckcfg, RCC_PLLCKSELR_DIVM1) >> RCC_PLLCKSELR_DIVM1_Pos) != RCC_OscIni
 1590              		.loc 1 861 84 discriminator 1 view .LVU520
 1591 05f2 A26A     		ldr	r2, [r4, #40]
 860:../../Drivers/STM32H7xx_HAL_Driver/Src/stm32h7xx_hal_rcc.c ****           (READ_BIT(temp1_pllckcfg, RCC_PLLCKSELR_PLLSRC) != RCC_OscInitStruct->PLL.PLLSource) ||
 1592              		.loc 1 860 62 discriminator 1 view .LVU521
 1593 05f4 9342     		cmp	r3, r2
 1594 05f6 4BD1     		bne	.L133
 862:../../Drivers/STM32H7xx_HAL_Driver/Src/stm32h7xx_hal_rcc.c ****           (READ_BIT(temp2_pllckcfg, RCC_PLL1DIVR_N1) != (RCC_OscInitStruct->PLL.PLLN - 1U)) ||
 1595              		.loc 1 862 59 view .LVU522
 1596 05f8 C1F30511 		ubfx	r1, r1, #4, #6
 1597              	.LVL122:
 862:../../Drivers/STM32H7xx_HAL_Driver/Src/stm32h7xx_hal_rcc.c ****           (READ_BIT(temp2_pllckcfg, RCC_PLL1DIVR_N1) != (RCC_OscInitStruct->PLL.PLLN - 1U)) ||
 1598              		.loc 1 862 112 view .LVU523
 1599 05fc E36A     		ldr	r3, [r4, #44]
 861:../../Drivers/STM32H7xx_HAL_Driver/Src/stm32h7xx_hal_rcc.c ****           ((READ_BIT(temp1_pllckcfg, RCC_PLLCKSELR_DIVM1) >> RCC_PLLCKSELR_DIVM1_Pos) != RCC_OscIni
 1600              		.loc 1 861 96 view .LVU524
 1601 05fe 9942     		cmp	r1, r3
 1602 0600 48D1     		bne	.L134
 863:../../Drivers/STM32H7xx_HAL_Driver/Src/stm32h7xx_hal_rcc.c ****           ((READ_BIT(temp2_pllckcfg, RCC_PLL1DIVR_P1) >> RCC_PLL1DIVR_P1_Pos) != (RCC_OscInitStruct
 1603              		.loc 1 863 12 view .LVU525
 1604 0602 C0F30802 		ubfx	r2, r0, #0, #9
 863:../../Drivers/STM32H7xx_HAL_Driver/Src/stm32h7xx_hal_rcc.c ****           ((READ_BIT(temp2_pllckcfg, RCC_PLL1DIVR_P1) >> RCC_PLL1DIVR_P1_Pos) != (RCC_OscInitStruct
 1605              		.loc 1 863 80 view .LVU526
 1606 0606 236B     		ldr	r3, [r4, #48]
 863:../../Drivers/STM32H7xx_HAL_Driver/Src/stm32h7xx_hal_rcc.c ****           ((READ_BIT(temp2_pllckcfg, RCC_PLL1DIVR_P1) >> RCC_PLL1DIVR_P1_Pos) != (RCC_OscInitStruct
 1607              		.loc 1 863 86 view .LVU527
 1608 0608 013B     		subs	r3, r3, #1
ARM GAS  /tmp/ccooDZtA.s 			page 49


 862:../../Drivers/STM32H7xx_HAL_Driver/Src/stm32h7xx_hal_rcc.c ****           (READ_BIT(temp2_pllckcfg, RCC_PLL1DIVR_N1) != (RCC_OscInitStruct->PLL.PLLN - 1U)) ||
 1609              		.loc 1 862 119 view .LVU528
 1610 060a 9A42     		cmp	r2, r3
 1611 060c 44D1     		bne	.L135
 864:../../Drivers/STM32H7xx_HAL_Driver/Src/stm32h7xx_hal_rcc.c ****           ((READ_BIT(temp2_pllckcfg, RCC_PLL1DIVR_Q1) >> RCC_PLL1DIVR_Q1_Pos) != (RCC_OscInitStruct
 1612              		.loc 1 864 55 view .LVU529
 1613 060e C0F34622 		ubfx	r2, r0, #9, #7
 864:../../Drivers/STM32H7xx_HAL_Driver/Src/stm32h7xx_hal_rcc.c ****           ((READ_BIT(temp2_pllckcfg, RCC_PLL1DIVR_Q1) >> RCC_PLL1DIVR_Q1_Pos) != (RCC_OscInitStruct
 1614              		.loc 1 864 105 view .LVU530
 1615 0612 636B     		ldr	r3, [r4, #52]
 864:../../Drivers/STM32H7xx_HAL_Driver/Src/stm32h7xx_hal_rcc.c ****           ((READ_BIT(temp2_pllckcfg, RCC_PLL1DIVR_Q1) >> RCC_PLL1DIVR_Q1_Pos) != (RCC_OscInitStruct
 1616              		.loc 1 864 111 view .LVU531
 1617 0614 013B     		subs	r3, r3, #1
 863:../../Drivers/STM32H7xx_HAL_Driver/Src/stm32h7xx_hal_rcc.c ****           ((READ_BIT(temp2_pllckcfg, RCC_PLL1DIVR_P1) >> RCC_PLL1DIVR_P1_Pos) != (RCC_OscInitStruct
 1618              		.loc 1 863 93 view .LVU532
 1619 0616 9A42     		cmp	r2, r3
 1620 0618 40D1     		bne	.L136
 865:../../Drivers/STM32H7xx_HAL_Driver/Src/stm32h7xx_hal_rcc.c ****           ((READ_BIT(temp2_pllckcfg, RCC_PLL1DIVR_R1) >> RCC_PLL1DIVR_R1_Pos) != (RCC_OscInitStruct
 1621              		.loc 1 865 55 view .LVU533
 1622 061a C0F30642 		ubfx	r2, r0, #16, #7
 865:../../Drivers/STM32H7xx_HAL_Driver/Src/stm32h7xx_hal_rcc.c ****           ((READ_BIT(temp2_pllckcfg, RCC_PLL1DIVR_R1) >> RCC_PLL1DIVR_R1_Pos) != (RCC_OscInitStruct
 1623              		.loc 1 865 105 view .LVU534
 1624 061e A36B     		ldr	r3, [r4, #56]
 865:../../Drivers/STM32H7xx_HAL_Driver/Src/stm32h7xx_hal_rcc.c ****           ((READ_BIT(temp2_pllckcfg, RCC_PLL1DIVR_R1) >> RCC_PLL1DIVR_R1_Pos) != (RCC_OscInitStruct
 1625              		.loc 1 865 111 view .LVU535
 1626 0620 013B     		subs	r3, r3, #1
 864:../../Drivers/STM32H7xx_HAL_Driver/Src/stm32h7xx_hal_rcc.c ****           ((READ_BIT(temp2_pllckcfg, RCC_PLL1DIVR_Q1) >> RCC_PLL1DIVR_Q1_Pos) != (RCC_OscInitStruct
 1627              		.loc 1 864 118 view .LVU536
 1628 0622 9A42     		cmp	r2, r3
 1629 0624 3CD1     		bne	.L137
 866:../../Drivers/STM32H7xx_HAL_Driver/Src/stm32h7xx_hal_rcc.c ****       {
 1630              		.loc 1 866 55 view .LVU537
 1631 0626 C0F30660 		ubfx	r0, r0, #24, #7
 1632              	.LVL123:
 866:../../Drivers/STM32H7xx_HAL_Driver/Src/stm32h7xx_hal_rcc.c ****       {
 1633              		.loc 1 866 105 view .LVU538
 1634 062a E36B     		ldr	r3, [r4, #60]
 866:../../Drivers/STM32H7xx_HAL_Driver/Src/stm32h7xx_hal_rcc.c ****       {
 1635              		.loc 1 866 111 view .LVU539
 1636 062c 013B     		subs	r3, r3, #1
 865:../../Drivers/STM32H7xx_HAL_Driver/Src/stm32h7xx_hal_rcc.c ****           ((READ_BIT(temp2_pllckcfg, RCC_PLL1DIVR_R1) >> RCC_PLL1DIVR_R1_Pos) != (RCC_OscInitStruct
 1637              		.loc 1 865 118 view .LVU540
 1638 062e 9842     		cmp	r0, r3
 1639 0630 38D1     		bne	.L138
 873:../../Drivers/STM32H7xx_HAL_Driver/Src/stm32h7xx_hal_rcc.c ****         if (RCC_OscInitStruct->PLL.PLLFRACN != temp1_pllckcfg)
 1640              		.loc 1 873 9 is_stmt 1 view .LVU541
 873:../../Drivers/STM32H7xx_HAL_Driver/Src/stm32h7xx_hal_rcc.c ****         if (RCC_OscInitStruct->PLL.PLLFRACN != temp1_pllckcfg)
 1641              		.loc 1 873 31 is_stmt 0 view .LVU542
 1642 0632 1D4B     		ldr	r3, .L170
 1643 0634 5B6B     		ldr	r3, [r3, #52]
 873:../../Drivers/STM32H7xx_HAL_Driver/Src/stm32h7xx_hal_rcc.c ****         if (RCC_OscInitStruct->PLL.PLLFRACN != temp1_pllckcfg)
 1644              		.loc 1 873 24 view .LVU543
 1645 0636 C3F3CC03 		ubfx	r3, r3, #3, #13
 1646              	.LVL124:
 874:../../Drivers/STM32H7xx_HAL_Driver/Src/stm32h7xx_hal_rcc.c ****         {
 1647              		.loc 1 874 9 is_stmt 1 view .LVU544
 874:../../Drivers/STM32H7xx_HAL_Driver/Src/stm32h7xx_hal_rcc.c ****         {
ARM GAS  /tmp/ccooDZtA.s 			page 50


 1648              		.loc 1 874 35 is_stmt 0 view .LVU545
 1649 063a A26C     		ldr	r2, [r4, #72]
 874:../../Drivers/STM32H7xx_HAL_Driver/Src/stm32h7xx_hal_rcc.c ****         {
 1650              		.loc 1 874 12 view .LVU546
 1651 063c 9A42     		cmp	r2, r3
 1652 063e 01D1     		bne	.L165
 1653              		.loc 1 893 10 view .LVU547
 1654 0640 0020     		movs	r0, #0
 1655 0642 22E0     		b	.L36
 1656              	.L165:
 876:../../Drivers/STM32H7xx_HAL_Driver/Src/stm32h7xx_hal_rcc.c ****           /* Disable PLL1FRACEN */
 1657              		.loc 1 876 11 is_stmt 1 view .LVU548
 878:../../Drivers/STM32H7xx_HAL_Driver/Src/stm32h7xx_hal_rcc.c ****           /* Get Start Tick*/
 1658              		.loc 1 878 11 view .LVU549
 1659 0644 184A     		ldr	r2, .L170
 1660 0646 D36A     		ldr	r3, [r2, #44]
 1661              	.LVL125:
 878:../../Drivers/STM32H7xx_HAL_Driver/Src/stm32h7xx_hal_rcc.c ****           /* Get Start Tick*/
 1662              		.loc 1 878 11 is_stmt 0 view .LVU550
 1663 0648 23F00103 		bic	r3, r3, #1
 1664 064c D362     		str	r3, [r2, #44]
 880:../../Drivers/STM32H7xx_HAL_Driver/Src/stm32h7xx_hal_rcc.c ****           /* Wait at least 2 CK_REF (PLL input source divided by M) period to make sure next latche
 1665              		.loc 1 880 11 is_stmt 1 view .LVU551
 880:../../Drivers/STM32H7xx_HAL_Driver/Src/stm32h7xx_hal_rcc.c ****           /* Wait at least 2 CK_REF (PLL input source divided by M) period to make sure next latche
 1666              		.loc 1 880 23 is_stmt 0 view .LVU552
 1667 064e FFF7FEFF 		bl	HAL_GetTick
 1668              	.LVL126:
 1669 0652 0546     		mov	r5, r0
 1670              	.LVL127:
 882:../../Drivers/STM32H7xx_HAL_Driver/Src/stm32h7xx_hal_rcc.c ****           {
 1671              		.loc 1 882 11 is_stmt 1 view .LVU553
 1672              	.L109:
 884:../../Drivers/STM32H7xx_HAL_Driver/Src/stm32h7xx_hal_rcc.c ****           /* Configure PLL1 PLL1FRACN */
 1673              		.loc 1 884 11 discriminator 1 view .LVU554
 882:../../Drivers/STM32H7xx_HAL_Driver/Src/stm32h7xx_hal_rcc.c ****           {
 1674              		.loc 1 882 17 discriminator 1 view .LVU555
 882:../../Drivers/STM32H7xx_HAL_Driver/Src/stm32h7xx_hal_rcc.c ****           {
 1675              		.loc 1 882 19 is_stmt 0 discriminator 1 view .LVU556
 1676 0654 FFF7FEFF 		bl	HAL_GetTick
 1677              	.LVL128:
 882:../../Drivers/STM32H7xx_HAL_Driver/Src/stm32h7xx_hal_rcc.c ****           {
 1678              		.loc 1 882 17 discriminator 1 view .LVU557
 1679 0658 A842     		cmp	r0, r5
 1680 065a FBD0     		beq	.L109
 886:../../Drivers/STM32H7xx_HAL_Driver/Src/stm32h7xx_hal_rcc.c ****           /* Enable PLL1FRACEN to latch new value. */
 1681              		.loc 1 886 11 is_stmt 1 view .LVU558
 1682 065c 124A     		ldr	r2, .L170
 1683 065e 516B     		ldr	r1, [r2, #52]
 1684 0660 134B     		ldr	r3, .L170+8
 1685 0662 0B40     		ands	r3, r3, r1
 1686 0664 A16C     		ldr	r1, [r4, #72]
 1687 0666 43EAC103 		orr	r3, r3, r1, lsl #3
 1688 066a 5363     		str	r3, [r2, #52]
 888:../../Drivers/STM32H7xx_HAL_Driver/Src/stm32h7xx_hal_rcc.c ****         }
 1689              		.loc 1 888 11 view .LVU559
 1690 066c D36A     		ldr	r3, [r2, #44]
 1691 066e 43F00103 		orr	r3, r3, #1
ARM GAS  /tmp/ccooDZtA.s 			page 51


 1692 0672 D362     		str	r3, [r2, #44]
 1693              		.loc 1 893 10 is_stmt 0 view .LVU560
 1694 0674 0020     		movs	r0, #0
 1695 0676 08E0     		b	.L36
 1696              	.LVL129:
 1697              	.L110:
 1698              	.LCFI2:
 1699              		.cfi_def_cfa_offset 0
 1700              		.cfi_restore 3
 1701              		.cfi_restore 4
 1702              		.cfi_restore 5
 1703              		.cfi_restore 14
 413:../../Drivers/STM32H7xx_HAL_Driver/Src/stm32h7xx_hal_rcc.c ****   }
 1704              		.loc 1 413 12 view .LVU561
 1705 0678 0120     		movs	r0, #1
 1706              	.LVL130:
 894:../../Drivers/STM32H7xx_HAL_Driver/Src/stm32h7xx_hal_rcc.c **** }
 1707              		.loc 1 894 1 view .LVU562
 1708 067a 7047     		bx	lr
 1709              	.LVL131:
 1710              	.L146:
 1711              	.LCFI3:
 1712              		.cfi_def_cfa_offset 16
 1713              		.cfi_offset 3, -16
 1714              		.cfi_offset 4, -12
 1715              		.cfi_offset 5, -8
 1716              		.cfi_offset 14, -4
 1717              	.LBB10:
 431:../../Drivers/STM32H7xx_HAL_Driver/Src/stm32h7xx_hal_rcc.c ****       }
 1718              		.loc 1 431 16 view .LVU563
 1719 067c 0120     		movs	r0, #1
 1720              	.LVL132:
 431:../../Drivers/STM32H7xx_HAL_Driver/Src/stm32h7xx_hal_rcc.c ****       }
 1721              		.loc 1 431 16 view .LVU564
 1722 067e 04E0     		b	.L36
 1723              	.LVL133:
 1724              	.L114:
 431:../../Drivers/STM32H7xx_HAL_Driver/Src/stm32h7xx_hal_rcc.c ****       }
 1725              		.loc 1 431 16 view .LVU565
 1726              	.LBE10:
 1727              	.LBB11:
 485:../../Drivers/STM32H7xx_HAL_Driver/Src/stm32h7xx_hal_rcc.c ****       }
 1728              		.loc 1 485 16 view .LVU566
 1729 0680 0120     		movs	r0, #1
 1730 0682 02E0     		b	.L36
 1731              	.LVL134:
 1732              	.L118:
 485:../../Drivers/STM32H7xx_HAL_Driver/Src/stm32h7xx_hal_rcc.c ****       }
 1733              		.loc 1 485 16 view .LVU567
 1734              	.LBE11:
 1735              	.LBB12:
 566:../../Drivers/STM32H7xx_HAL_Driver/Src/stm32h7xx_hal_rcc.c ****       }
 1736              		.loc 1 566 16 view .LVU568
 1737 0684 0120     		movs	r0, #1
 1738 0686 00E0     		b	.L36
 1739              	.L128:
 566:../../Drivers/STM32H7xx_HAL_Driver/Src/stm32h7xx_hal_rcc.c ****       }
ARM GAS  /tmp/ccooDZtA.s 			page 52


 1740              		.loc 1 566 16 view .LVU569
 1741              	.LBE12:
 893:../../Drivers/STM32H7xx_HAL_Driver/Src/stm32h7xx_hal_rcc.c **** }
 1742              		.loc 1 893 10 view .LVU570
 1743 0688 0020     		movs	r0, #0
 1744              	.LVL135:
 1745              	.L36:
 1746              		.loc 1 894 1 view .LVU571
 1747 068a 38BD     		pop	{r3, r4, r5, pc}
 1748              	.LVL136:
 1749              	.L132:
 868:../../Drivers/STM32H7xx_HAL_Driver/Src/stm32h7xx_hal_rcc.c ****       }
 1750              		.loc 1 868 16 view .LVU572
 1751 068c 0120     		movs	r0, #1
 1752              	.LVL137:
 868:../../Drivers/STM32H7xx_HAL_Driver/Src/stm32h7xx_hal_rcc.c ****       }
 1753              		.loc 1 868 16 view .LVU573
 1754 068e FCE7     		b	.L36
 1755              	.LVL138:
 1756              	.L133:
 868:../../Drivers/STM32H7xx_HAL_Driver/Src/stm32h7xx_hal_rcc.c ****       }
 1757              		.loc 1 868 16 view .LVU574
 1758 0690 0120     		movs	r0, #1
 1759              	.LVL139:
 868:../../Drivers/STM32H7xx_HAL_Driver/Src/stm32h7xx_hal_rcc.c ****       }
 1760              		.loc 1 868 16 view .LVU575
 1761 0692 FAE7     		b	.L36
 1762              	.LVL140:
 1763              	.L134:
 868:../../Drivers/STM32H7xx_HAL_Driver/Src/stm32h7xx_hal_rcc.c ****       }
 1764              		.loc 1 868 16 view .LVU576
 1765 0694 0120     		movs	r0, #1
 1766              	.LVL141:
 868:../../Drivers/STM32H7xx_HAL_Driver/Src/stm32h7xx_hal_rcc.c ****       }
 1767              		.loc 1 868 16 view .LVU577
 1768 0696 F8E7     		b	.L36
 1769              	.LVL142:
 1770              	.L135:
 868:../../Drivers/STM32H7xx_HAL_Driver/Src/stm32h7xx_hal_rcc.c ****       }
 1771              		.loc 1 868 16 view .LVU578
 1772 0698 0120     		movs	r0, #1
 1773              	.LVL143:
 868:../../Drivers/STM32H7xx_HAL_Driver/Src/stm32h7xx_hal_rcc.c ****       }
 1774              		.loc 1 868 16 view .LVU579
 1775 069a F6E7     		b	.L36
 1776              	.LVL144:
 1777              	.L136:
 868:../../Drivers/STM32H7xx_HAL_Driver/Src/stm32h7xx_hal_rcc.c ****       }
 1778              		.loc 1 868 16 view .LVU580
 1779 069c 0120     		movs	r0, #1
 1780              	.LVL145:
 868:../../Drivers/STM32H7xx_HAL_Driver/Src/stm32h7xx_hal_rcc.c ****       }
 1781              		.loc 1 868 16 view .LVU581
 1782 069e F4E7     		b	.L36
 1783              	.LVL146:
 1784              	.L137:
 868:../../Drivers/STM32H7xx_HAL_Driver/Src/stm32h7xx_hal_rcc.c ****       }
ARM GAS  /tmp/ccooDZtA.s 			page 53


 1785              		.loc 1 868 16 view .LVU582
 1786 06a0 0120     		movs	r0, #1
 1787              	.LVL147:
 868:../../Drivers/STM32H7xx_HAL_Driver/Src/stm32h7xx_hal_rcc.c ****       }
 1788              		.loc 1 868 16 view .LVU583
 1789 06a2 F2E7     		b	.L36
 1790              	.L138:
 1791 06a4 0120     		movs	r0, #1
 1792 06a6 F0E7     		b	.L36
 1793              	.L171:
 1794              		.align	2
 1795              	.L170:
 1796 06a8 00440258 		.word	1476543488
 1797 06ac 0CFCFFFF 		.word	-1012
 1798 06b0 0700FFFF 		.word	-65529
 1799              		.cfi_endproc
 1800              	.LFE145:
 1802              		.section	.text.HAL_RCC_MCOConfig,"ax",%progbits
 1803              		.align	1
 1804              		.global	HAL_RCC_MCOConfig
 1805              		.syntax unified
 1806              		.thumb
 1807              		.thumb_func
 1808              		.fpu fpv5-d16
 1810              	HAL_RCC_MCOConfig:
 1811              	.LVL148:
 1812              	.LFB147:
 895:../../Drivers/STM32H7xx_HAL_Driver/Src/stm32h7xx_hal_rcc.c **** 
 896:../../Drivers/STM32H7xx_HAL_Driver/Src/stm32h7xx_hal_rcc.c **** /**
 897:../../Drivers/STM32H7xx_HAL_Driver/Src/stm32h7xx_hal_rcc.c ****   * @brief  Initializes the CPU, AHB and APB buses clocks according to the specified
 898:../../Drivers/STM32H7xx_HAL_Driver/Src/stm32h7xx_hal_rcc.c ****   *         parameters in the RCC_ClkInitStruct.
 899:../../Drivers/STM32H7xx_HAL_Driver/Src/stm32h7xx_hal_rcc.c ****   * @param  RCC_ClkInitStruct: pointer to an RCC_OscInitTypeDef structure that
 900:../../Drivers/STM32H7xx_HAL_Driver/Src/stm32h7xx_hal_rcc.c ****   *         contains the configuration information for the RCC peripheral.
 901:../../Drivers/STM32H7xx_HAL_Driver/Src/stm32h7xx_hal_rcc.c ****   * @param  FLatency: FLASH Latency, this parameter depend on device selected
 902:../../Drivers/STM32H7xx_HAL_Driver/Src/stm32h7xx_hal_rcc.c ****   *
 903:../../Drivers/STM32H7xx_HAL_Driver/Src/stm32h7xx_hal_rcc.c ****   * @note   The SystemCoreClock CMSIS variable is used to store System Core Clock Frequency
 904:../../Drivers/STM32H7xx_HAL_Driver/Src/stm32h7xx_hal_rcc.c ****   *         and updated by HAL_InitTick() function called within this function
 905:../../Drivers/STM32H7xx_HAL_Driver/Src/stm32h7xx_hal_rcc.c ****   *
 906:../../Drivers/STM32H7xx_HAL_Driver/Src/stm32h7xx_hal_rcc.c ****   * @note   The HSI is used (enabled by hardware) as system clock source after
 907:../../Drivers/STM32H7xx_HAL_Driver/Src/stm32h7xx_hal_rcc.c ****   *         start-up from Reset, wake-up from STOP and STANDBY mode, or in case
 908:../../Drivers/STM32H7xx_HAL_Driver/Src/stm32h7xx_hal_rcc.c ****   *         of failure of the HSE used directly or indirectly as system clock
 909:../../Drivers/STM32H7xx_HAL_Driver/Src/stm32h7xx_hal_rcc.c ****   *         (if the Clock Security System CSS is enabled).
 910:../../Drivers/STM32H7xx_HAL_Driver/Src/stm32h7xx_hal_rcc.c ****   *
 911:../../Drivers/STM32H7xx_HAL_Driver/Src/stm32h7xx_hal_rcc.c ****   * @note   A switch from one clock source to another occurs only if the target
 912:../../Drivers/STM32H7xx_HAL_Driver/Src/stm32h7xx_hal_rcc.c ****   *         clock source is ready (clock stable after start-up delay or PLL locked).
 913:../../Drivers/STM32H7xx_HAL_Driver/Src/stm32h7xx_hal_rcc.c ****   *         If a clock source which is not yet ready is selected, the switch will
 914:../../Drivers/STM32H7xx_HAL_Driver/Src/stm32h7xx_hal_rcc.c ****   *         occur when the clock source will be ready.
 915:../../Drivers/STM32H7xx_HAL_Driver/Src/stm32h7xx_hal_rcc.c ****   *         You can use HAL_RCC_GetClockConfig() function to know which clock is
 916:../../Drivers/STM32H7xx_HAL_Driver/Src/stm32h7xx_hal_rcc.c ****   *         currently used as system clock source.
 917:../../Drivers/STM32H7xx_HAL_Driver/Src/stm32h7xx_hal_rcc.c ****   * @note   Depending on the device voltage range, the software has to set correctly
 918:../../Drivers/STM32H7xx_HAL_Driver/Src/stm32h7xx_hal_rcc.c ****   *         D1CPRE[3:0] bits to ensure that  Domain1 core clock not exceed the maximum allowed freq
 919:../../Drivers/STM32H7xx_HAL_Driver/Src/stm32h7xx_hal_rcc.c ****   *         (for more details refer to section above "Initialization/de-initialization functions")
 920:../../Drivers/STM32H7xx_HAL_Driver/Src/stm32h7xx_hal_rcc.c ****   * @retval None
 921:../../Drivers/STM32H7xx_HAL_Driver/Src/stm32h7xx_hal_rcc.c ****   */
 922:../../Drivers/STM32H7xx_HAL_Driver/Src/stm32h7xx_hal_rcc.c **** HAL_StatusTypeDef HAL_RCC_ClockConfig(RCC_ClkInitTypeDef  *RCC_ClkInitStruct, uint32_t FLatency)
 923:../../Drivers/STM32H7xx_HAL_Driver/Src/stm32h7xx_hal_rcc.c **** {
 924:../../Drivers/STM32H7xx_HAL_Driver/Src/stm32h7xx_hal_rcc.c ****   HAL_StatusTypeDef halstatus;
ARM GAS  /tmp/ccooDZtA.s 			page 54


 925:../../Drivers/STM32H7xx_HAL_Driver/Src/stm32h7xx_hal_rcc.c ****   uint32_t tickstart;
 926:../../Drivers/STM32H7xx_HAL_Driver/Src/stm32h7xx_hal_rcc.c ****   uint32_t common_system_clock;
 927:../../Drivers/STM32H7xx_HAL_Driver/Src/stm32h7xx_hal_rcc.c **** 
 928:../../Drivers/STM32H7xx_HAL_Driver/Src/stm32h7xx_hal_rcc.c ****   /* Check Null pointer */
 929:../../Drivers/STM32H7xx_HAL_Driver/Src/stm32h7xx_hal_rcc.c ****   if (RCC_ClkInitStruct == NULL)
 930:../../Drivers/STM32H7xx_HAL_Driver/Src/stm32h7xx_hal_rcc.c ****   {
 931:../../Drivers/STM32H7xx_HAL_Driver/Src/stm32h7xx_hal_rcc.c ****     return HAL_ERROR;
 932:../../Drivers/STM32H7xx_HAL_Driver/Src/stm32h7xx_hal_rcc.c ****   }
 933:../../Drivers/STM32H7xx_HAL_Driver/Src/stm32h7xx_hal_rcc.c **** 
 934:../../Drivers/STM32H7xx_HAL_Driver/Src/stm32h7xx_hal_rcc.c ****   /* Check the parameters */
 935:../../Drivers/STM32H7xx_HAL_Driver/Src/stm32h7xx_hal_rcc.c ****   assert_param(IS_RCC_CLOCKTYPE(RCC_ClkInitStruct->ClockType));
 936:../../Drivers/STM32H7xx_HAL_Driver/Src/stm32h7xx_hal_rcc.c ****   assert_param(IS_FLASH_LATENCY(FLatency));
 937:../../Drivers/STM32H7xx_HAL_Driver/Src/stm32h7xx_hal_rcc.c **** 
 938:../../Drivers/STM32H7xx_HAL_Driver/Src/stm32h7xx_hal_rcc.c ****   /* To correctly read data from FLASH memory, the number of wait states (LATENCY)
 939:../../Drivers/STM32H7xx_HAL_Driver/Src/stm32h7xx_hal_rcc.c ****     must be correctly programmed according to the frequency of the CPU clock
 940:../../Drivers/STM32H7xx_HAL_Driver/Src/stm32h7xx_hal_rcc.c ****     (HCLK) and the supply voltage of the device. */
 941:../../Drivers/STM32H7xx_HAL_Driver/Src/stm32h7xx_hal_rcc.c **** 
 942:../../Drivers/STM32H7xx_HAL_Driver/Src/stm32h7xx_hal_rcc.c ****   /* Increasing the CPU frequency */
 943:../../Drivers/STM32H7xx_HAL_Driver/Src/stm32h7xx_hal_rcc.c ****   if (FLatency > __HAL_FLASH_GET_LATENCY())
 944:../../Drivers/STM32H7xx_HAL_Driver/Src/stm32h7xx_hal_rcc.c ****   {
 945:../../Drivers/STM32H7xx_HAL_Driver/Src/stm32h7xx_hal_rcc.c ****     /* Program the new number of wait states to the LATENCY bits in the FLASH_ACR register */
 946:../../Drivers/STM32H7xx_HAL_Driver/Src/stm32h7xx_hal_rcc.c ****     __HAL_FLASH_SET_LATENCY(FLatency);
 947:../../Drivers/STM32H7xx_HAL_Driver/Src/stm32h7xx_hal_rcc.c **** 
 948:../../Drivers/STM32H7xx_HAL_Driver/Src/stm32h7xx_hal_rcc.c ****     /* Check that the new number of wait states is taken into account to access the Flash
 949:../../Drivers/STM32H7xx_HAL_Driver/Src/stm32h7xx_hal_rcc.c ****     memory by reading the FLASH_ACR register */
 950:../../Drivers/STM32H7xx_HAL_Driver/Src/stm32h7xx_hal_rcc.c ****     if (__HAL_FLASH_GET_LATENCY() != FLatency)
 951:../../Drivers/STM32H7xx_HAL_Driver/Src/stm32h7xx_hal_rcc.c ****     {
 952:../../Drivers/STM32H7xx_HAL_Driver/Src/stm32h7xx_hal_rcc.c ****       return HAL_ERROR;
 953:../../Drivers/STM32H7xx_HAL_Driver/Src/stm32h7xx_hal_rcc.c ****     }
 954:../../Drivers/STM32H7xx_HAL_Driver/Src/stm32h7xx_hal_rcc.c **** 
 955:../../Drivers/STM32H7xx_HAL_Driver/Src/stm32h7xx_hal_rcc.c ****   }
 956:../../Drivers/STM32H7xx_HAL_Driver/Src/stm32h7xx_hal_rcc.c **** 
 957:../../Drivers/STM32H7xx_HAL_Driver/Src/stm32h7xx_hal_rcc.c ****   /* Increasing the BUS frequency divider */
 958:../../Drivers/STM32H7xx_HAL_Driver/Src/stm32h7xx_hal_rcc.c ****   /*-------------------------- D1PCLK1/CDPCLK1 Configuration ---------------------------*/
 959:../../Drivers/STM32H7xx_HAL_Driver/Src/stm32h7xx_hal_rcc.c ****   if (((RCC_ClkInitStruct->ClockType) & RCC_CLOCKTYPE_D1PCLK1) == RCC_CLOCKTYPE_D1PCLK1)
 960:../../Drivers/STM32H7xx_HAL_Driver/Src/stm32h7xx_hal_rcc.c ****   {
 961:../../Drivers/STM32H7xx_HAL_Driver/Src/stm32h7xx_hal_rcc.c **** #if defined (RCC_D1CFGR_D1PPRE)
 962:../../Drivers/STM32H7xx_HAL_Driver/Src/stm32h7xx_hal_rcc.c ****     if ((RCC_ClkInitStruct->APB3CLKDivider) > (RCC->D1CFGR & RCC_D1CFGR_D1PPRE))
 963:../../Drivers/STM32H7xx_HAL_Driver/Src/stm32h7xx_hal_rcc.c ****     {
 964:../../Drivers/STM32H7xx_HAL_Driver/Src/stm32h7xx_hal_rcc.c ****       assert_param(IS_RCC_D1PCLK1(RCC_ClkInitStruct->APB3CLKDivider));
 965:../../Drivers/STM32H7xx_HAL_Driver/Src/stm32h7xx_hal_rcc.c ****       MODIFY_REG(RCC->D1CFGR, RCC_D1CFGR_D1PPRE, RCC_ClkInitStruct->APB3CLKDivider);
 966:../../Drivers/STM32H7xx_HAL_Driver/Src/stm32h7xx_hal_rcc.c ****     }
 967:../../Drivers/STM32H7xx_HAL_Driver/Src/stm32h7xx_hal_rcc.c **** #else
 968:../../Drivers/STM32H7xx_HAL_Driver/Src/stm32h7xx_hal_rcc.c ****     if ((RCC_ClkInitStruct->APB3CLKDivider) > (RCC->CDCFGR1 & RCC_CDCFGR1_CDPPRE))
 969:../../Drivers/STM32H7xx_HAL_Driver/Src/stm32h7xx_hal_rcc.c ****     {
 970:../../Drivers/STM32H7xx_HAL_Driver/Src/stm32h7xx_hal_rcc.c ****       assert_param(IS_RCC_CDPCLK1(RCC_ClkInitStruct->APB3CLKDivider));
 971:../../Drivers/STM32H7xx_HAL_Driver/Src/stm32h7xx_hal_rcc.c ****       MODIFY_REG(RCC->CDCFGR1, RCC_CDCFGR1_CDPPRE, RCC_ClkInitStruct->APB3CLKDivider);
 972:../../Drivers/STM32H7xx_HAL_Driver/Src/stm32h7xx_hal_rcc.c ****     }
 973:../../Drivers/STM32H7xx_HAL_Driver/Src/stm32h7xx_hal_rcc.c **** #endif
 974:../../Drivers/STM32H7xx_HAL_Driver/Src/stm32h7xx_hal_rcc.c ****   }
 975:../../Drivers/STM32H7xx_HAL_Driver/Src/stm32h7xx_hal_rcc.c **** 
 976:../../Drivers/STM32H7xx_HAL_Driver/Src/stm32h7xx_hal_rcc.c ****   /*-------------------------- PCLK1 Configuration ---------------------------*/
 977:../../Drivers/STM32H7xx_HAL_Driver/Src/stm32h7xx_hal_rcc.c ****   if (((RCC_ClkInitStruct->ClockType) & RCC_CLOCKTYPE_PCLK1) == RCC_CLOCKTYPE_PCLK1)
 978:../../Drivers/STM32H7xx_HAL_Driver/Src/stm32h7xx_hal_rcc.c ****   {
 979:../../Drivers/STM32H7xx_HAL_Driver/Src/stm32h7xx_hal_rcc.c **** #if defined (RCC_D2CFGR_D2PPRE1)
 980:../../Drivers/STM32H7xx_HAL_Driver/Src/stm32h7xx_hal_rcc.c ****     if ((RCC_ClkInitStruct->APB1CLKDivider) > (RCC->D2CFGR & RCC_D2CFGR_D2PPRE1))
 981:../../Drivers/STM32H7xx_HAL_Driver/Src/stm32h7xx_hal_rcc.c ****     {
ARM GAS  /tmp/ccooDZtA.s 			page 55


 982:../../Drivers/STM32H7xx_HAL_Driver/Src/stm32h7xx_hal_rcc.c ****       assert_param(IS_RCC_PCLK1(RCC_ClkInitStruct->APB1CLKDivider));
 983:../../Drivers/STM32H7xx_HAL_Driver/Src/stm32h7xx_hal_rcc.c ****       MODIFY_REG(RCC->D2CFGR, RCC_D2CFGR_D2PPRE1, (RCC_ClkInitStruct->APB1CLKDivider));
 984:../../Drivers/STM32H7xx_HAL_Driver/Src/stm32h7xx_hal_rcc.c ****     }
 985:../../Drivers/STM32H7xx_HAL_Driver/Src/stm32h7xx_hal_rcc.c **** #else
 986:../../Drivers/STM32H7xx_HAL_Driver/Src/stm32h7xx_hal_rcc.c ****     if ((RCC_ClkInitStruct->APB1CLKDivider) > (RCC->CDCFGR2 & RCC_CDCFGR2_CDPPRE1))
 987:../../Drivers/STM32H7xx_HAL_Driver/Src/stm32h7xx_hal_rcc.c ****     {
 988:../../Drivers/STM32H7xx_HAL_Driver/Src/stm32h7xx_hal_rcc.c ****       assert_param(IS_RCC_PCLK1(RCC_ClkInitStruct->APB1CLKDivider));
 989:../../Drivers/STM32H7xx_HAL_Driver/Src/stm32h7xx_hal_rcc.c ****       MODIFY_REG(RCC->CDCFGR2, RCC_CDCFGR2_CDPPRE1, (RCC_ClkInitStruct->APB1CLKDivider));
 990:../../Drivers/STM32H7xx_HAL_Driver/Src/stm32h7xx_hal_rcc.c ****     }
 991:../../Drivers/STM32H7xx_HAL_Driver/Src/stm32h7xx_hal_rcc.c **** #endif
 992:../../Drivers/STM32H7xx_HAL_Driver/Src/stm32h7xx_hal_rcc.c ****   }
 993:../../Drivers/STM32H7xx_HAL_Driver/Src/stm32h7xx_hal_rcc.c ****   /*-------------------------- PCLK2 Configuration ---------------------------*/
 994:../../Drivers/STM32H7xx_HAL_Driver/Src/stm32h7xx_hal_rcc.c ****   if (((RCC_ClkInitStruct->ClockType) & RCC_CLOCKTYPE_PCLK2) == RCC_CLOCKTYPE_PCLK2)
 995:../../Drivers/STM32H7xx_HAL_Driver/Src/stm32h7xx_hal_rcc.c ****   {
 996:../../Drivers/STM32H7xx_HAL_Driver/Src/stm32h7xx_hal_rcc.c **** #if defined(RCC_D2CFGR_D2PPRE2)
 997:../../Drivers/STM32H7xx_HAL_Driver/Src/stm32h7xx_hal_rcc.c ****     if ((RCC_ClkInitStruct->APB2CLKDivider) > (RCC->D2CFGR & RCC_D2CFGR_D2PPRE2))
 998:../../Drivers/STM32H7xx_HAL_Driver/Src/stm32h7xx_hal_rcc.c ****     {
 999:../../Drivers/STM32H7xx_HAL_Driver/Src/stm32h7xx_hal_rcc.c ****       assert_param(IS_RCC_PCLK2(RCC_ClkInitStruct->APB2CLKDivider));
1000:../../Drivers/STM32H7xx_HAL_Driver/Src/stm32h7xx_hal_rcc.c ****       MODIFY_REG(RCC->D2CFGR, RCC_D2CFGR_D2PPRE2, (RCC_ClkInitStruct->APB2CLKDivider));
1001:../../Drivers/STM32H7xx_HAL_Driver/Src/stm32h7xx_hal_rcc.c ****     }
1002:../../Drivers/STM32H7xx_HAL_Driver/Src/stm32h7xx_hal_rcc.c **** #else
1003:../../Drivers/STM32H7xx_HAL_Driver/Src/stm32h7xx_hal_rcc.c ****     if ((RCC_ClkInitStruct->APB2CLKDivider) > (RCC->CDCFGR2 & RCC_CDCFGR2_CDPPRE2))
1004:../../Drivers/STM32H7xx_HAL_Driver/Src/stm32h7xx_hal_rcc.c ****     {
1005:../../Drivers/STM32H7xx_HAL_Driver/Src/stm32h7xx_hal_rcc.c ****       assert_param(IS_RCC_PCLK2(RCC_ClkInitStruct->APB2CLKDivider));
1006:../../Drivers/STM32H7xx_HAL_Driver/Src/stm32h7xx_hal_rcc.c ****       MODIFY_REG(RCC->CDCFGR2, RCC_CDCFGR2_CDPPRE2, (RCC_ClkInitStruct->APB2CLKDivider));
1007:../../Drivers/STM32H7xx_HAL_Driver/Src/stm32h7xx_hal_rcc.c ****     }
1008:../../Drivers/STM32H7xx_HAL_Driver/Src/stm32h7xx_hal_rcc.c **** #endif
1009:../../Drivers/STM32H7xx_HAL_Driver/Src/stm32h7xx_hal_rcc.c ****   }
1010:../../Drivers/STM32H7xx_HAL_Driver/Src/stm32h7xx_hal_rcc.c **** 
1011:../../Drivers/STM32H7xx_HAL_Driver/Src/stm32h7xx_hal_rcc.c ****   /*-------------------------- D3PCLK1 Configuration ---------------------------*/
1012:../../Drivers/STM32H7xx_HAL_Driver/Src/stm32h7xx_hal_rcc.c ****   if (((RCC_ClkInitStruct->ClockType) & RCC_CLOCKTYPE_D3PCLK1) == RCC_CLOCKTYPE_D3PCLK1)
1013:../../Drivers/STM32H7xx_HAL_Driver/Src/stm32h7xx_hal_rcc.c ****   {
1014:../../Drivers/STM32H7xx_HAL_Driver/Src/stm32h7xx_hal_rcc.c **** #if defined(RCC_D3CFGR_D3PPRE)
1015:../../Drivers/STM32H7xx_HAL_Driver/Src/stm32h7xx_hal_rcc.c ****     if ((RCC_ClkInitStruct->APB4CLKDivider) > (RCC->D3CFGR & RCC_D3CFGR_D3PPRE))
1016:../../Drivers/STM32H7xx_HAL_Driver/Src/stm32h7xx_hal_rcc.c ****     {
1017:../../Drivers/STM32H7xx_HAL_Driver/Src/stm32h7xx_hal_rcc.c ****       assert_param(IS_RCC_D3PCLK1(RCC_ClkInitStruct->APB4CLKDivider));
1018:../../Drivers/STM32H7xx_HAL_Driver/Src/stm32h7xx_hal_rcc.c ****       MODIFY_REG(RCC->D3CFGR, RCC_D3CFGR_D3PPRE, (RCC_ClkInitStruct->APB4CLKDivider));
1019:../../Drivers/STM32H7xx_HAL_Driver/Src/stm32h7xx_hal_rcc.c ****     }
1020:../../Drivers/STM32H7xx_HAL_Driver/Src/stm32h7xx_hal_rcc.c **** #else
1021:../../Drivers/STM32H7xx_HAL_Driver/Src/stm32h7xx_hal_rcc.c ****     if ((RCC_ClkInitStruct->APB4CLKDivider) > (RCC->SRDCFGR & RCC_SRDCFGR_SRDPPRE))
1022:../../Drivers/STM32H7xx_HAL_Driver/Src/stm32h7xx_hal_rcc.c ****     {
1023:../../Drivers/STM32H7xx_HAL_Driver/Src/stm32h7xx_hal_rcc.c ****       assert_param(IS_RCC_D3PCLK1(RCC_ClkInitStruct->APB4CLKDivider));
1024:../../Drivers/STM32H7xx_HAL_Driver/Src/stm32h7xx_hal_rcc.c ****       MODIFY_REG(RCC->SRDCFGR, RCC_SRDCFGR_SRDPPRE, (RCC_ClkInitStruct->APB4CLKDivider));
1025:../../Drivers/STM32H7xx_HAL_Driver/Src/stm32h7xx_hal_rcc.c ****     }
1026:../../Drivers/STM32H7xx_HAL_Driver/Src/stm32h7xx_hal_rcc.c **** #endif
1027:../../Drivers/STM32H7xx_HAL_Driver/Src/stm32h7xx_hal_rcc.c ****   }
1028:../../Drivers/STM32H7xx_HAL_Driver/Src/stm32h7xx_hal_rcc.c **** 
1029:../../Drivers/STM32H7xx_HAL_Driver/Src/stm32h7xx_hal_rcc.c ****   /*-------------------------- HCLK Configuration --------------------------*/
1030:../../Drivers/STM32H7xx_HAL_Driver/Src/stm32h7xx_hal_rcc.c ****   if (((RCC_ClkInitStruct->ClockType) & RCC_CLOCKTYPE_HCLK) == RCC_CLOCKTYPE_HCLK)
1031:../../Drivers/STM32H7xx_HAL_Driver/Src/stm32h7xx_hal_rcc.c ****   {
1032:../../Drivers/STM32H7xx_HAL_Driver/Src/stm32h7xx_hal_rcc.c **** #if defined (RCC_D1CFGR_HPRE)
1033:../../Drivers/STM32H7xx_HAL_Driver/Src/stm32h7xx_hal_rcc.c ****     if ((RCC_ClkInitStruct->AHBCLKDivider) > (RCC->D1CFGR & RCC_D1CFGR_HPRE))
1034:../../Drivers/STM32H7xx_HAL_Driver/Src/stm32h7xx_hal_rcc.c ****     {
1035:../../Drivers/STM32H7xx_HAL_Driver/Src/stm32h7xx_hal_rcc.c ****       /* Set the new HCLK clock divider */
1036:../../Drivers/STM32H7xx_HAL_Driver/Src/stm32h7xx_hal_rcc.c ****       assert_param(IS_RCC_HCLK(RCC_ClkInitStruct->AHBCLKDivider));
1037:../../Drivers/STM32H7xx_HAL_Driver/Src/stm32h7xx_hal_rcc.c ****       MODIFY_REG(RCC->D1CFGR, RCC_D1CFGR_HPRE, RCC_ClkInitStruct->AHBCLKDivider);
1038:../../Drivers/STM32H7xx_HAL_Driver/Src/stm32h7xx_hal_rcc.c ****     }
ARM GAS  /tmp/ccooDZtA.s 			page 56


1039:../../Drivers/STM32H7xx_HAL_Driver/Src/stm32h7xx_hal_rcc.c **** #else
1040:../../Drivers/STM32H7xx_HAL_Driver/Src/stm32h7xx_hal_rcc.c ****     if ((RCC_ClkInitStruct->AHBCLKDivider) > (RCC->CDCFGR1 & RCC_CDCFGR1_HPRE))
1041:../../Drivers/STM32H7xx_HAL_Driver/Src/stm32h7xx_hal_rcc.c ****     {
1042:../../Drivers/STM32H7xx_HAL_Driver/Src/stm32h7xx_hal_rcc.c ****       /* Set the new HCLK clock divider */
1043:../../Drivers/STM32H7xx_HAL_Driver/Src/stm32h7xx_hal_rcc.c ****       assert_param(IS_RCC_HCLK(RCC_ClkInitStruct->AHBCLKDivider));
1044:../../Drivers/STM32H7xx_HAL_Driver/Src/stm32h7xx_hal_rcc.c ****       MODIFY_REG(RCC->CDCFGR1, RCC_CDCFGR1_HPRE, RCC_ClkInitStruct->AHBCLKDivider);
1045:../../Drivers/STM32H7xx_HAL_Driver/Src/stm32h7xx_hal_rcc.c ****     }
1046:../../Drivers/STM32H7xx_HAL_Driver/Src/stm32h7xx_hal_rcc.c **** #endif
1047:../../Drivers/STM32H7xx_HAL_Driver/Src/stm32h7xx_hal_rcc.c ****   }
1048:../../Drivers/STM32H7xx_HAL_Driver/Src/stm32h7xx_hal_rcc.c **** 
1049:../../Drivers/STM32H7xx_HAL_Driver/Src/stm32h7xx_hal_rcc.c ****   /*------------------------- SYSCLK Configuration -------------------------*/
1050:../../Drivers/STM32H7xx_HAL_Driver/Src/stm32h7xx_hal_rcc.c ****   if (((RCC_ClkInitStruct->ClockType) & RCC_CLOCKTYPE_SYSCLK) == RCC_CLOCKTYPE_SYSCLK)
1051:../../Drivers/STM32H7xx_HAL_Driver/Src/stm32h7xx_hal_rcc.c ****   {
1052:../../Drivers/STM32H7xx_HAL_Driver/Src/stm32h7xx_hal_rcc.c ****     assert_param(IS_RCC_SYSCLK(RCC_ClkInitStruct->SYSCLKDivider));
1053:../../Drivers/STM32H7xx_HAL_Driver/Src/stm32h7xx_hal_rcc.c ****     assert_param(IS_RCC_SYSCLKSOURCE(RCC_ClkInitStruct->SYSCLKSource));
1054:../../Drivers/STM32H7xx_HAL_Driver/Src/stm32h7xx_hal_rcc.c **** #if defined(RCC_D1CFGR_D1CPRE)
1055:../../Drivers/STM32H7xx_HAL_Driver/Src/stm32h7xx_hal_rcc.c ****     MODIFY_REG(RCC->D1CFGR, RCC_D1CFGR_D1CPRE, RCC_ClkInitStruct->SYSCLKDivider);
1056:../../Drivers/STM32H7xx_HAL_Driver/Src/stm32h7xx_hal_rcc.c **** #else
1057:../../Drivers/STM32H7xx_HAL_Driver/Src/stm32h7xx_hal_rcc.c ****     MODIFY_REG(RCC->CDCFGR1, RCC_CDCFGR1_CDCPRE, RCC_ClkInitStruct->SYSCLKDivider);
1058:../../Drivers/STM32H7xx_HAL_Driver/Src/stm32h7xx_hal_rcc.c **** #endif
1059:../../Drivers/STM32H7xx_HAL_Driver/Src/stm32h7xx_hal_rcc.c ****     /* HSE is selected as System Clock Source */
1060:../../Drivers/STM32H7xx_HAL_Driver/Src/stm32h7xx_hal_rcc.c ****     if (RCC_ClkInitStruct->SYSCLKSource == RCC_SYSCLKSOURCE_HSE)
1061:../../Drivers/STM32H7xx_HAL_Driver/Src/stm32h7xx_hal_rcc.c ****     {
1062:../../Drivers/STM32H7xx_HAL_Driver/Src/stm32h7xx_hal_rcc.c ****       /* Check the HSE ready flag */
1063:../../Drivers/STM32H7xx_HAL_Driver/Src/stm32h7xx_hal_rcc.c ****       if (__HAL_RCC_GET_FLAG(RCC_FLAG_HSERDY) == 0U)
1064:../../Drivers/STM32H7xx_HAL_Driver/Src/stm32h7xx_hal_rcc.c ****       {
1065:../../Drivers/STM32H7xx_HAL_Driver/Src/stm32h7xx_hal_rcc.c ****         return HAL_ERROR;
1066:../../Drivers/STM32H7xx_HAL_Driver/Src/stm32h7xx_hal_rcc.c ****       }
1067:../../Drivers/STM32H7xx_HAL_Driver/Src/stm32h7xx_hal_rcc.c ****     }
1068:../../Drivers/STM32H7xx_HAL_Driver/Src/stm32h7xx_hal_rcc.c ****     /* PLL is selected as System Clock Source */
1069:../../Drivers/STM32H7xx_HAL_Driver/Src/stm32h7xx_hal_rcc.c ****     else if (RCC_ClkInitStruct->SYSCLKSource == RCC_SYSCLKSOURCE_PLLCLK)
1070:../../Drivers/STM32H7xx_HAL_Driver/Src/stm32h7xx_hal_rcc.c ****     {
1071:../../Drivers/STM32H7xx_HAL_Driver/Src/stm32h7xx_hal_rcc.c ****       /* Check the PLL ready flag */
1072:../../Drivers/STM32H7xx_HAL_Driver/Src/stm32h7xx_hal_rcc.c ****       if (__HAL_RCC_GET_FLAG(RCC_FLAG_PLLRDY) == 0U)
1073:../../Drivers/STM32H7xx_HAL_Driver/Src/stm32h7xx_hal_rcc.c ****       {
1074:../../Drivers/STM32H7xx_HAL_Driver/Src/stm32h7xx_hal_rcc.c ****         return HAL_ERROR;
1075:../../Drivers/STM32H7xx_HAL_Driver/Src/stm32h7xx_hal_rcc.c ****       }
1076:../../Drivers/STM32H7xx_HAL_Driver/Src/stm32h7xx_hal_rcc.c ****     }
1077:../../Drivers/STM32H7xx_HAL_Driver/Src/stm32h7xx_hal_rcc.c ****     /* CSI is selected as System Clock Source */
1078:../../Drivers/STM32H7xx_HAL_Driver/Src/stm32h7xx_hal_rcc.c ****     else if (RCC_ClkInitStruct->SYSCLKSource == RCC_SYSCLKSOURCE_CSI)
1079:../../Drivers/STM32H7xx_HAL_Driver/Src/stm32h7xx_hal_rcc.c ****     {
1080:../../Drivers/STM32H7xx_HAL_Driver/Src/stm32h7xx_hal_rcc.c ****       /* Check the PLL ready flag */
1081:../../Drivers/STM32H7xx_HAL_Driver/Src/stm32h7xx_hal_rcc.c ****       if (__HAL_RCC_GET_FLAG(RCC_FLAG_CSIRDY) == 0U)
1082:../../Drivers/STM32H7xx_HAL_Driver/Src/stm32h7xx_hal_rcc.c ****       {
1083:../../Drivers/STM32H7xx_HAL_Driver/Src/stm32h7xx_hal_rcc.c ****         return HAL_ERROR;
1084:../../Drivers/STM32H7xx_HAL_Driver/Src/stm32h7xx_hal_rcc.c ****       }
1085:../../Drivers/STM32H7xx_HAL_Driver/Src/stm32h7xx_hal_rcc.c ****     }
1086:../../Drivers/STM32H7xx_HAL_Driver/Src/stm32h7xx_hal_rcc.c ****     /* HSI is selected as System Clock Source */
1087:../../Drivers/STM32H7xx_HAL_Driver/Src/stm32h7xx_hal_rcc.c ****     else
1088:../../Drivers/STM32H7xx_HAL_Driver/Src/stm32h7xx_hal_rcc.c ****     {
1089:../../Drivers/STM32H7xx_HAL_Driver/Src/stm32h7xx_hal_rcc.c ****       /* Check the HSI ready flag */
1090:../../Drivers/STM32H7xx_HAL_Driver/Src/stm32h7xx_hal_rcc.c ****       if (__HAL_RCC_GET_FLAG(RCC_FLAG_HSIRDY) == 0U)
1091:../../Drivers/STM32H7xx_HAL_Driver/Src/stm32h7xx_hal_rcc.c ****       {
1092:../../Drivers/STM32H7xx_HAL_Driver/Src/stm32h7xx_hal_rcc.c ****         return HAL_ERROR;
1093:../../Drivers/STM32H7xx_HAL_Driver/Src/stm32h7xx_hal_rcc.c ****       }
1094:../../Drivers/STM32H7xx_HAL_Driver/Src/stm32h7xx_hal_rcc.c ****     }
1095:../../Drivers/STM32H7xx_HAL_Driver/Src/stm32h7xx_hal_rcc.c ****     MODIFY_REG(RCC->CFGR, RCC_CFGR_SW, RCC_ClkInitStruct->SYSCLKSource);
ARM GAS  /tmp/ccooDZtA.s 			page 57


1096:../../Drivers/STM32H7xx_HAL_Driver/Src/stm32h7xx_hal_rcc.c **** 
1097:../../Drivers/STM32H7xx_HAL_Driver/Src/stm32h7xx_hal_rcc.c ****     /* Get Start Tick*/
1098:../../Drivers/STM32H7xx_HAL_Driver/Src/stm32h7xx_hal_rcc.c ****     tickstart = HAL_GetTick();
1099:../../Drivers/STM32H7xx_HAL_Driver/Src/stm32h7xx_hal_rcc.c **** 
1100:../../Drivers/STM32H7xx_HAL_Driver/Src/stm32h7xx_hal_rcc.c ****     while (__HAL_RCC_GET_SYSCLK_SOURCE() != (RCC_ClkInitStruct->SYSCLKSource << RCC_CFGR_SWS_Pos))
1101:../../Drivers/STM32H7xx_HAL_Driver/Src/stm32h7xx_hal_rcc.c ****     {
1102:../../Drivers/STM32H7xx_HAL_Driver/Src/stm32h7xx_hal_rcc.c ****       if ((HAL_GetTick() - tickstart) > CLOCKSWITCH_TIMEOUT_VALUE)
1103:../../Drivers/STM32H7xx_HAL_Driver/Src/stm32h7xx_hal_rcc.c ****       {
1104:../../Drivers/STM32H7xx_HAL_Driver/Src/stm32h7xx_hal_rcc.c ****         return HAL_TIMEOUT;
1105:../../Drivers/STM32H7xx_HAL_Driver/Src/stm32h7xx_hal_rcc.c ****       }
1106:../../Drivers/STM32H7xx_HAL_Driver/Src/stm32h7xx_hal_rcc.c ****     }
1107:../../Drivers/STM32H7xx_HAL_Driver/Src/stm32h7xx_hal_rcc.c **** 
1108:../../Drivers/STM32H7xx_HAL_Driver/Src/stm32h7xx_hal_rcc.c ****   }
1109:../../Drivers/STM32H7xx_HAL_Driver/Src/stm32h7xx_hal_rcc.c **** 
1110:../../Drivers/STM32H7xx_HAL_Driver/Src/stm32h7xx_hal_rcc.c ****   /* Decreasing the BUS frequency divider */
1111:../../Drivers/STM32H7xx_HAL_Driver/Src/stm32h7xx_hal_rcc.c ****   /*-------------------------- HCLK Configuration --------------------------*/
1112:../../Drivers/STM32H7xx_HAL_Driver/Src/stm32h7xx_hal_rcc.c ****   if (((RCC_ClkInitStruct->ClockType) & RCC_CLOCKTYPE_HCLK) == RCC_CLOCKTYPE_HCLK)
1113:../../Drivers/STM32H7xx_HAL_Driver/Src/stm32h7xx_hal_rcc.c ****   {
1114:../../Drivers/STM32H7xx_HAL_Driver/Src/stm32h7xx_hal_rcc.c **** #if defined(RCC_D1CFGR_HPRE)
1115:../../Drivers/STM32H7xx_HAL_Driver/Src/stm32h7xx_hal_rcc.c ****     if ((RCC_ClkInitStruct->AHBCLKDivider) < (RCC->D1CFGR & RCC_D1CFGR_HPRE))
1116:../../Drivers/STM32H7xx_HAL_Driver/Src/stm32h7xx_hal_rcc.c ****     {
1117:../../Drivers/STM32H7xx_HAL_Driver/Src/stm32h7xx_hal_rcc.c ****       /* Set the new HCLK clock divider */
1118:../../Drivers/STM32H7xx_HAL_Driver/Src/stm32h7xx_hal_rcc.c ****       assert_param(IS_RCC_HCLK(RCC_ClkInitStruct->AHBCLKDivider));
1119:../../Drivers/STM32H7xx_HAL_Driver/Src/stm32h7xx_hal_rcc.c ****       MODIFY_REG(RCC->D1CFGR, RCC_D1CFGR_HPRE, RCC_ClkInitStruct->AHBCLKDivider);
1120:../../Drivers/STM32H7xx_HAL_Driver/Src/stm32h7xx_hal_rcc.c ****     }
1121:../../Drivers/STM32H7xx_HAL_Driver/Src/stm32h7xx_hal_rcc.c **** #else
1122:../../Drivers/STM32H7xx_HAL_Driver/Src/stm32h7xx_hal_rcc.c ****     if ((RCC_ClkInitStruct->AHBCLKDivider) < (RCC->CDCFGR1 & RCC_CDCFGR1_HPRE))
1123:../../Drivers/STM32H7xx_HAL_Driver/Src/stm32h7xx_hal_rcc.c ****     {
1124:../../Drivers/STM32H7xx_HAL_Driver/Src/stm32h7xx_hal_rcc.c ****       /* Set the new HCLK clock divider */
1125:../../Drivers/STM32H7xx_HAL_Driver/Src/stm32h7xx_hal_rcc.c ****       assert_param(IS_RCC_HCLK(RCC_ClkInitStruct->AHBCLKDivider));
1126:../../Drivers/STM32H7xx_HAL_Driver/Src/stm32h7xx_hal_rcc.c ****       MODIFY_REG(RCC->CDCFGR1, RCC_CDCFGR1_HPRE, RCC_ClkInitStruct->AHBCLKDivider);
1127:../../Drivers/STM32H7xx_HAL_Driver/Src/stm32h7xx_hal_rcc.c ****     }
1128:../../Drivers/STM32H7xx_HAL_Driver/Src/stm32h7xx_hal_rcc.c **** #endif
1129:../../Drivers/STM32H7xx_HAL_Driver/Src/stm32h7xx_hal_rcc.c ****   }
1130:../../Drivers/STM32H7xx_HAL_Driver/Src/stm32h7xx_hal_rcc.c **** 
1131:../../Drivers/STM32H7xx_HAL_Driver/Src/stm32h7xx_hal_rcc.c ****   /* Decreasing the number of wait states because of lower CPU frequency */
1132:../../Drivers/STM32H7xx_HAL_Driver/Src/stm32h7xx_hal_rcc.c ****   if (FLatency < __HAL_FLASH_GET_LATENCY())
1133:../../Drivers/STM32H7xx_HAL_Driver/Src/stm32h7xx_hal_rcc.c ****   {
1134:../../Drivers/STM32H7xx_HAL_Driver/Src/stm32h7xx_hal_rcc.c ****     /* Program the new number of wait states to the LATENCY bits in the FLASH_ACR register */
1135:../../Drivers/STM32H7xx_HAL_Driver/Src/stm32h7xx_hal_rcc.c ****     __HAL_FLASH_SET_LATENCY(FLatency);
1136:../../Drivers/STM32H7xx_HAL_Driver/Src/stm32h7xx_hal_rcc.c **** 
1137:../../Drivers/STM32H7xx_HAL_Driver/Src/stm32h7xx_hal_rcc.c ****     /* Check that the new number of wait states is taken into account to access the Flash
1138:../../Drivers/STM32H7xx_HAL_Driver/Src/stm32h7xx_hal_rcc.c ****     memory by reading the FLASH_ACR register */
1139:../../Drivers/STM32H7xx_HAL_Driver/Src/stm32h7xx_hal_rcc.c ****     if (__HAL_FLASH_GET_LATENCY() != FLatency)
1140:../../Drivers/STM32H7xx_HAL_Driver/Src/stm32h7xx_hal_rcc.c ****     {
1141:../../Drivers/STM32H7xx_HAL_Driver/Src/stm32h7xx_hal_rcc.c ****       return HAL_ERROR;
1142:../../Drivers/STM32H7xx_HAL_Driver/Src/stm32h7xx_hal_rcc.c ****     }
1143:../../Drivers/STM32H7xx_HAL_Driver/Src/stm32h7xx_hal_rcc.c ****   }
1144:../../Drivers/STM32H7xx_HAL_Driver/Src/stm32h7xx_hal_rcc.c **** 
1145:../../Drivers/STM32H7xx_HAL_Driver/Src/stm32h7xx_hal_rcc.c ****   /*-------------------------- D1PCLK1/CDPCLK Configuration ---------------------------*/
1146:../../Drivers/STM32H7xx_HAL_Driver/Src/stm32h7xx_hal_rcc.c ****   if (((RCC_ClkInitStruct->ClockType) & RCC_CLOCKTYPE_D1PCLK1) == RCC_CLOCKTYPE_D1PCLK1)
1147:../../Drivers/STM32H7xx_HAL_Driver/Src/stm32h7xx_hal_rcc.c ****   {
1148:../../Drivers/STM32H7xx_HAL_Driver/Src/stm32h7xx_hal_rcc.c **** #if defined(RCC_D1CFGR_D1PPRE)
1149:../../Drivers/STM32H7xx_HAL_Driver/Src/stm32h7xx_hal_rcc.c ****     if ((RCC_ClkInitStruct->APB3CLKDivider) < (RCC->D1CFGR & RCC_D1CFGR_D1PPRE))
1150:../../Drivers/STM32H7xx_HAL_Driver/Src/stm32h7xx_hal_rcc.c ****     {
1151:../../Drivers/STM32H7xx_HAL_Driver/Src/stm32h7xx_hal_rcc.c ****       assert_param(IS_RCC_D1PCLK1(RCC_ClkInitStruct->APB3CLKDivider));
1152:../../Drivers/STM32H7xx_HAL_Driver/Src/stm32h7xx_hal_rcc.c ****       MODIFY_REG(RCC->D1CFGR, RCC_D1CFGR_D1PPRE, RCC_ClkInitStruct->APB3CLKDivider);
ARM GAS  /tmp/ccooDZtA.s 			page 58


1153:../../Drivers/STM32H7xx_HAL_Driver/Src/stm32h7xx_hal_rcc.c ****     }
1154:../../Drivers/STM32H7xx_HAL_Driver/Src/stm32h7xx_hal_rcc.c **** #else
1155:../../Drivers/STM32H7xx_HAL_Driver/Src/stm32h7xx_hal_rcc.c ****     if ((RCC_ClkInitStruct->APB3CLKDivider) < (RCC->CDCFGR1 & RCC_CDCFGR1_CDPPRE))
1156:../../Drivers/STM32H7xx_HAL_Driver/Src/stm32h7xx_hal_rcc.c ****     {
1157:../../Drivers/STM32H7xx_HAL_Driver/Src/stm32h7xx_hal_rcc.c ****       assert_param(IS_RCC_CDPCLK1(RCC_ClkInitStruct->APB3CLKDivider));
1158:../../Drivers/STM32H7xx_HAL_Driver/Src/stm32h7xx_hal_rcc.c ****       MODIFY_REG(RCC->CDCFGR1, RCC_CDCFGR1_CDPPRE, RCC_ClkInitStruct->APB3CLKDivider);
1159:../../Drivers/STM32H7xx_HAL_Driver/Src/stm32h7xx_hal_rcc.c ****     }
1160:../../Drivers/STM32H7xx_HAL_Driver/Src/stm32h7xx_hal_rcc.c **** #endif
1161:../../Drivers/STM32H7xx_HAL_Driver/Src/stm32h7xx_hal_rcc.c ****   }
1162:../../Drivers/STM32H7xx_HAL_Driver/Src/stm32h7xx_hal_rcc.c **** 
1163:../../Drivers/STM32H7xx_HAL_Driver/Src/stm32h7xx_hal_rcc.c ****   /*-------------------------- PCLK1 Configuration ---------------------------*/
1164:../../Drivers/STM32H7xx_HAL_Driver/Src/stm32h7xx_hal_rcc.c ****   if (((RCC_ClkInitStruct->ClockType) & RCC_CLOCKTYPE_PCLK1) == RCC_CLOCKTYPE_PCLK1)
1165:../../Drivers/STM32H7xx_HAL_Driver/Src/stm32h7xx_hal_rcc.c ****   {
1166:../../Drivers/STM32H7xx_HAL_Driver/Src/stm32h7xx_hal_rcc.c **** #if defined(RCC_D2CFGR_D2PPRE1)
1167:../../Drivers/STM32H7xx_HAL_Driver/Src/stm32h7xx_hal_rcc.c ****     if ((RCC_ClkInitStruct->APB1CLKDivider) < (RCC->D2CFGR & RCC_D2CFGR_D2PPRE1))
1168:../../Drivers/STM32H7xx_HAL_Driver/Src/stm32h7xx_hal_rcc.c ****     {
1169:../../Drivers/STM32H7xx_HAL_Driver/Src/stm32h7xx_hal_rcc.c ****       assert_param(IS_RCC_PCLK1(RCC_ClkInitStruct->APB1CLKDivider));
1170:../../Drivers/STM32H7xx_HAL_Driver/Src/stm32h7xx_hal_rcc.c ****       MODIFY_REG(RCC->D2CFGR, RCC_D2CFGR_D2PPRE1, (RCC_ClkInitStruct->APB1CLKDivider));
1171:../../Drivers/STM32H7xx_HAL_Driver/Src/stm32h7xx_hal_rcc.c ****     }
1172:../../Drivers/STM32H7xx_HAL_Driver/Src/stm32h7xx_hal_rcc.c **** #else
1173:../../Drivers/STM32H7xx_HAL_Driver/Src/stm32h7xx_hal_rcc.c ****     if ((RCC_ClkInitStruct->APB1CLKDivider) < (RCC->CDCFGR2 & RCC_CDCFGR2_CDPPRE1))
1174:../../Drivers/STM32H7xx_HAL_Driver/Src/stm32h7xx_hal_rcc.c ****     {
1175:../../Drivers/STM32H7xx_HAL_Driver/Src/stm32h7xx_hal_rcc.c ****       assert_param(IS_RCC_PCLK1(RCC_ClkInitStruct->APB1CLKDivider));
1176:../../Drivers/STM32H7xx_HAL_Driver/Src/stm32h7xx_hal_rcc.c ****       MODIFY_REG(RCC->CDCFGR2, RCC_CDCFGR2_CDPPRE1, (RCC_ClkInitStruct->APB1CLKDivider));
1177:../../Drivers/STM32H7xx_HAL_Driver/Src/stm32h7xx_hal_rcc.c ****     }
1178:../../Drivers/STM32H7xx_HAL_Driver/Src/stm32h7xx_hal_rcc.c **** #endif
1179:../../Drivers/STM32H7xx_HAL_Driver/Src/stm32h7xx_hal_rcc.c ****   }
1180:../../Drivers/STM32H7xx_HAL_Driver/Src/stm32h7xx_hal_rcc.c **** 
1181:../../Drivers/STM32H7xx_HAL_Driver/Src/stm32h7xx_hal_rcc.c ****   /*-------------------------- PCLK2 Configuration ---------------------------*/
1182:../../Drivers/STM32H7xx_HAL_Driver/Src/stm32h7xx_hal_rcc.c ****   if (((RCC_ClkInitStruct->ClockType) & RCC_CLOCKTYPE_PCLK2) == RCC_CLOCKTYPE_PCLK2)
1183:../../Drivers/STM32H7xx_HAL_Driver/Src/stm32h7xx_hal_rcc.c ****   {
1184:../../Drivers/STM32H7xx_HAL_Driver/Src/stm32h7xx_hal_rcc.c **** #if defined (RCC_D2CFGR_D2PPRE2)
1185:../../Drivers/STM32H7xx_HAL_Driver/Src/stm32h7xx_hal_rcc.c ****     if ((RCC_ClkInitStruct->APB2CLKDivider) < (RCC->D2CFGR & RCC_D2CFGR_D2PPRE2))
1186:../../Drivers/STM32H7xx_HAL_Driver/Src/stm32h7xx_hal_rcc.c ****     {
1187:../../Drivers/STM32H7xx_HAL_Driver/Src/stm32h7xx_hal_rcc.c ****       assert_param(IS_RCC_PCLK2(RCC_ClkInitStruct->APB2CLKDivider));
1188:../../Drivers/STM32H7xx_HAL_Driver/Src/stm32h7xx_hal_rcc.c ****       MODIFY_REG(RCC->D2CFGR, RCC_D2CFGR_D2PPRE2, (RCC_ClkInitStruct->APB2CLKDivider));
1189:../../Drivers/STM32H7xx_HAL_Driver/Src/stm32h7xx_hal_rcc.c ****     }
1190:../../Drivers/STM32H7xx_HAL_Driver/Src/stm32h7xx_hal_rcc.c **** #else
1191:../../Drivers/STM32H7xx_HAL_Driver/Src/stm32h7xx_hal_rcc.c ****     if ((RCC_ClkInitStruct->APB2CLKDivider) < (RCC->CDCFGR2 & RCC_CDCFGR2_CDPPRE2))
1192:../../Drivers/STM32H7xx_HAL_Driver/Src/stm32h7xx_hal_rcc.c ****     {
1193:../../Drivers/STM32H7xx_HAL_Driver/Src/stm32h7xx_hal_rcc.c ****       assert_param(IS_RCC_PCLK2(RCC_ClkInitStruct->APB2CLKDivider));
1194:../../Drivers/STM32H7xx_HAL_Driver/Src/stm32h7xx_hal_rcc.c ****       MODIFY_REG(RCC->CDCFGR2, RCC_CDCFGR2_CDPPRE2, (RCC_ClkInitStruct->APB2CLKDivider));
1195:../../Drivers/STM32H7xx_HAL_Driver/Src/stm32h7xx_hal_rcc.c ****     }
1196:../../Drivers/STM32H7xx_HAL_Driver/Src/stm32h7xx_hal_rcc.c **** #endif
1197:../../Drivers/STM32H7xx_HAL_Driver/Src/stm32h7xx_hal_rcc.c ****   }
1198:../../Drivers/STM32H7xx_HAL_Driver/Src/stm32h7xx_hal_rcc.c **** 
1199:../../Drivers/STM32H7xx_HAL_Driver/Src/stm32h7xx_hal_rcc.c ****   /*-------------------------- D3PCLK1/SRDPCLK1 Configuration ---------------------------*/
1200:../../Drivers/STM32H7xx_HAL_Driver/Src/stm32h7xx_hal_rcc.c ****   if (((RCC_ClkInitStruct->ClockType) & RCC_CLOCKTYPE_D3PCLK1) == RCC_CLOCKTYPE_D3PCLK1)
1201:../../Drivers/STM32H7xx_HAL_Driver/Src/stm32h7xx_hal_rcc.c ****   {
1202:../../Drivers/STM32H7xx_HAL_Driver/Src/stm32h7xx_hal_rcc.c **** #if defined(RCC_D3CFGR_D3PPRE)
1203:../../Drivers/STM32H7xx_HAL_Driver/Src/stm32h7xx_hal_rcc.c ****     if ((RCC_ClkInitStruct->APB4CLKDivider) < (RCC->D3CFGR & RCC_D3CFGR_D3PPRE))
1204:../../Drivers/STM32H7xx_HAL_Driver/Src/stm32h7xx_hal_rcc.c ****     {
1205:../../Drivers/STM32H7xx_HAL_Driver/Src/stm32h7xx_hal_rcc.c ****       assert_param(IS_RCC_D3PCLK1(RCC_ClkInitStruct->APB4CLKDivider));
1206:../../Drivers/STM32H7xx_HAL_Driver/Src/stm32h7xx_hal_rcc.c ****       MODIFY_REG(RCC->D3CFGR, RCC_D3CFGR_D3PPRE, (RCC_ClkInitStruct->APB4CLKDivider));
1207:../../Drivers/STM32H7xx_HAL_Driver/Src/stm32h7xx_hal_rcc.c ****     }
1208:../../Drivers/STM32H7xx_HAL_Driver/Src/stm32h7xx_hal_rcc.c **** #else
1209:../../Drivers/STM32H7xx_HAL_Driver/Src/stm32h7xx_hal_rcc.c ****     if ((RCC_ClkInitStruct->APB4CLKDivider) < (RCC->SRDCFGR & RCC_SRDCFGR_SRDPPRE))
ARM GAS  /tmp/ccooDZtA.s 			page 59


1210:../../Drivers/STM32H7xx_HAL_Driver/Src/stm32h7xx_hal_rcc.c ****     {
1211:../../Drivers/STM32H7xx_HAL_Driver/Src/stm32h7xx_hal_rcc.c ****       assert_param(IS_RCC_SRDPCLK1(RCC_ClkInitStruct->APB4CLKDivider));
1212:../../Drivers/STM32H7xx_HAL_Driver/Src/stm32h7xx_hal_rcc.c ****       MODIFY_REG(RCC->SRDCFGR, RCC_SRDCFGR_SRDPPRE, (RCC_ClkInitStruct->APB4CLKDivider));
1213:../../Drivers/STM32H7xx_HAL_Driver/Src/stm32h7xx_hal_rcc.c ****     }
1214:../../Drivers/STM32H7xx_HAL_Driver/Src/stm32h7xx_hal_rcc.c **** #endif
1215:../../Drivers/STM32H7xx_HAL_Driver/Src/stm32h7xx_hal_rcc.c ****   }
1216:../../Drivers/STM32H7xx_HAL_Driver/Src/stm32h7xx_hal_rcc.c **** 
1217:../../Drivers/STM32H7xx_HAL_Driver/Src/stm32h7xx_hal_rcc.c ****   /* Update the SystemCoreClock global variable */
1218:../../Drivers/STM32H7xx_HAL_Driver/Src/stm32h7xx_hal_rcc.c **** #if defined(RCC_D1CFGR_D1CPRE)
1219:../../Drivers/STM32H7xx_HAL_Driver/Src/stm32h7xx_hal_rcc.c ****   common_system_clock = HAL_RCC_GetSysClockFreq() >> ((D1CorePrescTable[(RCC->D1CFGR & RCC_D1CFGR_D
1220:../../Drivers/STM32H7xx_HAL_Driver/Src/stm32h7xx_hal_rcc.c **** #else
1221:../../Drivers/STM32H7xx_HAL_Driver/Src/stm32h7xx_hal_rcc.c ****   common_system_clock = HAL_RCC_GetSysClockFreq() >> ((D1CorePrescTable[(RCC->CDCFGR1 & RCC_CDCFGR1
1222:../../Drivers/STM32H7xx_HAL_Driver/Src/stm32h7xx_hal_rcc.c **** #endif
1223:../../Drivers/STM32H7xx_HAL_Driver/Src/stm32h7xx_hal_rcc.c **** 
1224:../../Drivers/STM32H7xx_HAL_Driver/Src/stm32h7xx_hal_rcc.c **** #if defined(RCC_D1CFGR_HPRE)
1225:../../Drivers/STM32H7xx_HAL_Driver/Src/stm32h7xx_hal_rcc.c ****   SystemD2Clock = (common_system_clock >> ((D1CorePrescTable[(RCC->D1CFGR & RCC_D1CFGR_HPRE) >> RCC
1226:../../Drivers/STM32H7xx_HAL_Driver/Src/stm32h7xx_hal_rcc.c **** #else
1227:../../Drivers/STM32H7xx_HAL_Driver/Src/stm32h7xx_hal_rcc.c ****   SystemD2Clock = (common_system_clock >> ((D1CorePrescTable[(RCC->CDCFGR1 & RCC_CDCFGR1_HPRE) >> R
1228:../../Drivers/STM32H7xx_HAL_Driver/Src/stm32h7xx_hal_rcc.c **** #endif
1229:../../Drivers/STM32H7xx_HAL_Driver/Src/stm32h7xx_hal_rcc.c **** 
1230:../../Drivers/STM32H7xx_HAL_Driver/Src/stm32h7xx_hal_rcc.c **** #if defined(DUAL_CORE) && defined(CORE_CM4)
1231:../../Drivers/STM32H7xx_HAL_Driver/Src/stm32h7xx_hal_rcc.c ****   SystemCoreClock = SystemD2Clock;
1232:../../Drivers/STM32H7xx_HAL_Driver/Src/stm32h7xx_hal_rcc.c **** #else
1233:../../Drivers/STM32H7xx_HAL_Driver/Src/stm32h7xx_hal_rcc.c ****   SystemCoreClock = common_system_clock;
1234:../../Drivers/STM32H7xx_HAL_Driver/Src/stm32h7xx_hal_rcc.c **** #endif /* DUAL_CORE && CORE_CM4 */
1235:../../Drivers/STM32H7xx_HAL_Driver/Src/stm32h7xx_hal_rcc.c **** 
1236:../../Drivers/STM32H7xx_HAL_Driver/Src/stm32h7xx_hal_rcc.c ****   /* Configure the source of time base considering new system clocks settings*/
1237:../../Drivers/STM32H7xx_HAL_Driver/Src/stm32h7xx_hal_rcc.c ****   halstatus = HAL_InitTick(uwTickPrio);
1238:../../Drivers/STM32H7xx_HAL_Driver/Src/stm32h7xx_hal_rcc.c **** 
1239:../../Drivers/STM32H7xx_HAL_Driver/Src/stm32h7xx_hal_rcc.c ****   return halstatus;
1240:../../Drivers/STM32H7xx_HAL_Driver/Src/stm32h7xx_hal_rcc.c **** }
1241:../../Drivers/STM32H7xx_HAL_Driver/Src/stm32h7xx_hal_rcc.c **** 
1242:../../Drivers/STM32H7xx_HAL_Driver/Src/stm32h7xx_hal_rcc.c **** /**
1243:../../Drivers/STM32H7xx_HAL_Driver/Src/stm32h7xx_hal_rcc.c ****   * @}
1244:../../Drivers/STM32H7xx_HAL_Driver/Src/stm32h7xx_hal_rcc.c ****   */
1245:../../Drivers/STM32H7xx_HAL_Driver/Src/stm32h7xx_hal_rcc.c **** 
1246:../../Drivers/STM32H7xx_HAL_Driver/Src/stm32h7xx_hal_rcc.c **** /** @defgroup RCC_Exported_Functions_Group2 Peripheral Control functions
1247:../../Drivers/STM32H7xx_HAL_Driver/Src/stm32h7xx_hal_rcc.c ****  *  @brief   RCC clocks control functions
1248:../../Drivers/STM32H7xx_HAL_Driver/Src/stm32h7xx_hal_rcc.c ****  *
1249:../../Drivers/STM32H7xx_HAL_Driver/Src/stm32h7xx_hal_rcc.c **** @verbatim
1250:../../Drivers/STM32H7xx_HAL_Driver/Src/stm32h7xx_hal_rcc.c ****  ===============================================================================
1251:../../Drivers/STM32H7xx_HAL_Driver/Src/stm32h7xx_hal_rcc.c ****                       ##### Peripheral Control functions #####
1252:../../Drivers/STM32H7xx_HAL_Driver/Src/stm32h7xx_hal_rcc.c ****  ===============================================================================
1253:../../Drivers/STM32H7xx_HAL_Driver/Src/stm32h7xx_hal_rcc.c ****     [..]
1254:../../Drivers/STM32H7xx_HAL_Driver/Src/stm32h7xx_hal_rcc.c ****     This subsection provides a set of functions allowing to control the RCC Clocks
1255:../../Drivers/STM32H7xx_HAL_Driver/Src/stm32h7xx_hal_rcc.c ****     frequencies.
1256:../../Drivers/STM32H7xx_HAL_Driver/Src/stm32h7xx_hal_rcc.c **** 
1257:../../Drivers/STM32H7xx_HAL_Driver/Src/stm32h7xx_hal_rcc.c **** @endverbatim
1258:../../Drivers/STM32H7xx_HAL_Driver/Src/stm32h7xx_hal_rcc.c ****   * @{
1259:../../Drivers/STM32H7xx_HAL_Driver/Src/stm32h7xx_hal_rcc.c ****   */
1260:../../Drivers/STM32H7xx_HAL_Driver/Src/stm32h7xx_hal_rcc.c **** 
1261:../../Drivers/STM32H7xx_HAL_Driver/Src/stm32h7xx_hal_rcc.c **** /**
1262:../../Drivers/STM32H7xx_HAL_Driver/Src/stm32h7xx_hal_rcc.c ****   * @brief  Selects the clock source to output on MCO1 pin(PA8) or on MCO2 pin(PC9).
1263:../../Drivers/STM32H7xx_HAL_Driver/Src/stm32h7xx_hal_rcc.c ****   * @note   PA8/PC9 should be configured in alternate function mode.
1264:../../Drivers/STM32H7xx_HAL_Driver/Src/stm32h7xx_hal_rcc.c ****   * @param  RCC_MCOx: specifies the output direction for the clock source.
1265:../../Drivers/STM32H7xx_HAL_Driver/Src/stm32h7xx_hal_rcc.c ****   *          This parameter can be one of the following values:
1266:../../Drivers/STM32H7xx_HAL_Driver/Src/stm32h7xx_hal_rcc.c ****   *            @arg RCC_MCO1: Clock source to output on MCO1 pin(PA8).
ARM GAS  /tmp/ccooDZtA.s 			page 60


1267:../../Drivers/STM32H7xx_HAL_Driver/Src/stm32h7xx_hal_rcc.c ****   *            @arg RCC_MCO2: Clock source to output on MCO2 pin(PC9).
1268:../../Drivers/STM32H7xx_HAL_Driver/Src/stm32h7xx_hal_rcc.c ****   * @param  RCC_MCOSource: specifies the clock source to output.
1269:../../Drivers/STM32H7xx_HAL_Driver/Src/stm32h7xx_hal_rcc.c ****   *          This parameter can be one of the following values:
1270:../../Drivers/STM32H7xx_HAL_Driver/Src/stm32h7xx_hal_rcc.c ****   *            @arg RCC_MCO1SOURCE_HSI: HSI clock selected as MCO1 source
1271:../../Drivers/STM32H7xx_HAL_Driver/Src/stm32h7xx_hal_rcc.c ****   *            @arg RCC_MCO1SOURCE_LSE: LSE clock selected as MCO1 source
1272:../../Drivers/STM32H7xx_HAL_Driver/Src/stm32h7xx_hal_rcc.c ****   *            @arg RCC_MCO1SOURCE_HSE: HSE clock selected as MCO1 source
1273:../../Drivers/STM32H7xx_HAL_Driver/Src/stm32h7xx_hal_rcc.c ****   *            @arg RCC_MCO1SOURCE_PLL1QCLK:  PLL1Q clock selected as MCO1 source
1274:../../Drivers/STM32H7xx_HAL_Driver/Src/stm32h7xx_hal_rcc.c ****   *            @arg RCC_MCO1SOURCE_HSI48: HSI48 (48MHZ) selected as MCO1 source
1275:../../Drivers/STM32H7xx_HAL_Driver/Src/stm32h7xx_hal_rcc.c ****   *            @arg RCC_MCO2SOURCE_SYSCLK: System clock (SYSCLK) selected as MCO2 source
1276:../../Drivers/STM32H7xx_HAL_Driver/Src/stm32h7xx_hal_rcc.c ****   *            @arg RCC_MCO2SOURCE_PLL2PCLK: PLL2P clock selected as MCO2 source
1277:../../Drivers/STM32H7xx_HAL_Driver/Src/stm32h7xx_hal_rcc.c ****   *            @arg RCC_MCO2SOURCE_HSE: HSE clock selected as MCO2 source
1278:../../Drivers/STM32H7xx_HAL_Driver/Src/stm32h7xx_hal_rcc.c ****   *            @arg RCC_MCO2SOURCE_PLLCLK:  PLL1P clock selected as MCO2 source
1279:../../Drivers/STM32H7xx_HAL_Driver/Src/stm32h7xx_hal_rcc.c ****   *            @arg RCC_MCO2SOURCE_CSICLK:  CSI clock selected as MCO2 source
1280:../../Drivers/STM32H7xx_HAL_Driver/Src/stm32h7xx_hal_rcc.c ****   *            @arg RCC_MCO2SOURCE_LSICLK:  LSI clock selected as MCO2 source
1281:../../Drivers/STM32H7xx_HAL_Driver/Src/stm32h7xx_hal_rcc.c ****   * @param  RCC_MCODiv: specifies the MCOx pre-scaler.
1282:../../Drivers/STM32H7xx_HAL_Driver/Src/stm32h7xx_hal_rcc.c ****   *          This parameter can be one of the following values:
1283:../../Drivers/STM32H7xx_HAL_Driver/Src/stm32h7xx_hal_rcc.c ****   *            @arg RCC_MCODIV_1 up to RCC_MCODIV_15  : divider applied to MCOx clock
1284:../../Drivers/STM32H7xx_HAL_Driver/Src/stm32h7xx_hal_rcc.c ****   * @retval None
1285:../../Drivers/STM32H7xx_HAL_Driver/Src/stm32h7xx_hal_rcc.c ****   */
1286:../../Drivers/STM32H7xx_HAL_Driver/Src/stm32h7xx_hal_rcc.c **** void HAL_RCC_MCOConfig(uint32_t RCC_MCOx, uint32_t RCC_MCOSource, uint32_t RCC_MCODiv)
1287:../../Drivers/STM32H7xx_HAL_Driver/Src/stm32h7xx_hal_rcc.c **** {
 1813              		.loc 1 1287 1 is_stmt 1 view -0
 1814              		.cfi_startproc
 1815              		@ args = 0, pretend = 0, frame = 32
 1816              		@ frame_needed = 0, uses_anonymous_args = 0
 1817              		.loc 1 1287 1 is_stmt 0 view .LVU585
 1818 0000 70B5     		push	{r4, r5, r6, lr}
 1819              	.LCFI4:
 1820              		.cfi_def_cfa_offset 16
 1821              		.cfi_offset 4, -16
 1822              		.cfi_offset 5, -12
 1823              		.cfi_offset 6, -8
 1824              		.cfi_offset 14, -4
 1825 0002 88B0     		sub	sp, sp, #32
 1826              	.LCFI5:
 1827              		.cfi_def_cfa_offset 48
 1828 0004 0C46     		mov	r4, r1
 1829 0006 1546     		mov	r5, r2
1288:../../Drivers/STM32H7xx_HAL_Driver/Src/stm32h7xx_hal_rcc.c ****   GPIO_InitTypeDef GPIO_InitStruct;
 1830              		.loc 1 1288 3 is_stmt 1 view .LVU586
1289:../../Drivers/STM32H7xx_HAL_Driver/Src/stm32h7xx_hal_rcc.c ****   /* Check the parameters */
1290:../../Drivers/STM32H7xx_HAL_Driver/Src/stm32h7xx_hal_rcc.c ****   assert_param(IS_RCC_MCO(RCC_MCOx));
 1831              		.loc 1 1290 3 view .LVU587
1291:../../Drivers/STM32H7xx_HAL_Driver/Src/stm32h7xx_hal_rcc.c ****   assert_param(IS_RCC_MCODIV(RCC_MCODiv));
 1832              		.loc 1 1291 3 view .LVU588
1292:../../Drivers/STM32H7xx_HAL_Driver/Src/stm32h7xx_hal_rcc.c ****   /* RCC_MCO1 */
1293:../../Drivers/STM32H7xx_HAL_Driver/Src/stm32h7xx_hal_rcc.c ****   if (RCC_MCOx == RCC_MCO1)
 1833              		.loc 1 1293 3 view .LVU589
 1834              		.loc 1 1293 6 is_stmt 0 view .LVU590
 1835 0008 10BB     		cbnz	r0, .L173
1294:../../Drivers/STM32H7xx_HAL_Driver/Src/stm32h7xx_hal_rcc.c ****   {
1295:../../Drivers/STM32H7xx_HAL_Driver/Src/stm32h7xx_hal_rcc.c ****     assert_param(IS_RCC_MCO1SOURCE(RCC_MCOSource));
 1836              		.loc 1 1295 5 is_stmt 1 view .LVU591
1296:../../Drivers/STM32H7xx_HAL_Driver/Src/stm32h7xx_hal_rcc.c **** 
1297:../../Drivers/STM32H7xx_HAL_Driver/Src/stm32h7xx_hal_rcc.c ****     /* MCO1 Clock Enable */
1298:../../Drivers/STM32H7xx_HAL_Driver/Src/stm32h7xx_hal_rcc.c ****     MCO1_CLK_ENABLE();
 1837              		.loc 1 1298 5 view .LVU592
ARM GAS  /tmp/ccooDZtA.s 			page 61


 1838              	.LBB13:
 1839              		.loc 1 1298 5 view .LVU593
 1840              		.loc 1 1298 5 view .LVU594
 1841 000a 234E     		ldr	r6, .L176
 1842 000c D6F8E030 		ldr	r3, [r6, #224]
 1843 0010 43F00103 		orr	r3, r3, #1
 1844 0014 C6F8E030 		str	r3, [r6, #224]
 1845              		.loc 1 1298 5 view .LVU595
 1846 0018 D6F8E030 		ldr	r3, [r6, #224]
 1847 001c 03F00103 		and	r3, r3, #1
 1848 0020 0193     		str	r3, [sp, #4]
 1849              		.loc 1 1298 5 view .LVU596
 1850 0022 019B     		ldr	r3, [sp, #4]
 1851              	.LBE13:
 1852              		.loc 1 1298 5 view .LVU597
1299:../../Drivers/STM32H7xx_HAL_Driver/Src/stm32h7xx_hal_rcc.c **** 
1300:../../Drivers/STM32H7xx_HAL_Driver/Src/stm32h7xx_hal_rcc.c ****     /* Configure the MCO1 pin in alternate function mode */
1301:../../Drivers/STM32H7xx_HAL_Driver/Src/stm32h7xx_hal_rcc.c ****     GPIO_InitStruct.Pin = MCO1_PIN;
 1853              		.loc 1 1301 5 view .LVU598
 1854              		.loc 1 1301 25 is_stmt 0 view .LVU599
 1855 0024 4FF48073 		mov	r3, #256
 1856 0028 0393     		str	r3, [sp, #12]
1302:../../Drivers/STM32H7xx_HAL_Driver/Src/stm32h7xx_hal_rcc.c ****     GPIO_InitStruct.Mode = GPIO_MODE_AF_PP;
 1857              		.loc 1 1302 5 is_stmt 1 view .LVU600
 1858              		.loc 1 1302 26 is_stmt 0 view .LVU601
 1859 002a 0223     		movs	r3, #2
 1860 002c 0493     		str	r3, [sp, #16]
1303:../../Drivers/STM32H7xx_HAL_Driver/Src/stm32h7xx_hal_rcc.c ****     GPIO_InitStruct.Speed = GPIO_SPEED_FREQ_VERY_HIGH;
 1861              		.loc 1 1303 5 is_stmt 1 view .LVU602
 1862              		.loc 1 1303 27 is_stmt 0 view .LVU603
 1863 002e 0323     		movs	r3, #3
 1864 0030 0693     		str	r3, [sp, #24]
1304:../../Drivers/STM32H7xx_HAL_Driver/Src/stm32h7xx_hal_rcc.c ****     GPIO_InitStruct.Pull = GPIO_NOPULL;
 1865              		.loc 1 1304 5 is_stmt 1 view .LVU604
 1866              		.loc 1 1304 26 is_stmt 0 view .LVU605
 1867 0032 0023     		movs	r3, #0
 1868 0034 0593     		str	r3, [sp, #20]
1305:../../Drivers/STM32H7xx_HAL_Driver/Src/stm32h7xx_hal_rcc.c ****     GPIO_InitStruct.Alternate = GPIO_AF0_MCO;
 1869              		.loc 1 1305 5 is_stmt 1 view .LVU606
 1870              		.loc 1 1305 31 is_stmt 0 view .LVU607
 1871 0036 0793     		str	r3, [sp, #28]
1306:../../Drivers/STM32H7xx_HAL_Driver/Src/stm32h7xx_hal_rcc.c ****     HAL_GPIO_Init(MCO1_GPIO_PORT, &GPIO_InitStruct);
 1872              		.loc 1 1306 5 is_stmt 1 view .LVU608
 1873 0038 03A9     		add	r1, sp, #12
 1874              	.LVL149:
 1875              		.loc 1 1306 5 is_stmt 0 view .LVU609
 1876 003a 1848     		ldr	r0, .L176+4
 1877              	.LVL150:
 1878              		.loc 1 1306 5 view .LVU610
 1879 003c FFF7FEFF 		bl	HAL_GPIO_Init
 1880              	.LVL151:
1307:../../Drivers/STM32H7xx_HAL_Driver/Src/stm32h7xx_hal_rcc.c **** 
1308:../../Drivers/STM32H7xx_HAL_Driver/Src/stm32h7xx_hal_rcc.c ****     /* Mask MCO1 and MCO1PRE[3:0] bits then Select MCO1 clock source and pre-scaler */
1309:../../Drivers/STM32H7xx_HAL_Driver/Src/stm32h7xx_hal_rcc.c ****     MODIFY_REG(RCC->CFGR, (RCC_CFGR_MCO1 | RCC_CFGR_MCO1PRE), (RCC_MCOSource | RCC_MCODiv));
 1881              		.loc 1 1309 5 is_stmt 1 view .LVU611
 1882 0040 3369     		ldr	r3, [r6, #16]
 1883 0042 23F0FE73 		bic	r3, r3, #33292288
ARM GAS  /tmp/ccooDZtA.s 			page 62


 1884 0046 2543     		orrs	r5, r5, r4
 1885              	.LVL152:
 1886              		.loc 1 1309 5 is_stmt 0 view .LVU612
 1887 0048 1D43     		orrs	r5, r5, r3
 1888 004a 3561     		str	r5, [r6, #16]
 1889              	.LVL153:
 1890              	.L172:
1310:../../Drivers/STM32H7xx_HAL_Driver/Src/stm32h7xx_hal_rcc.c ****   }
1311:../../Drivers/STM32H7xx_HAL_Driver/Src/stm32h7xx_hal_rcc.c ****   else
1312:../../Drivers/STM32H7xx_HAL_Driver/Src/stm32h7xx_hal_rcc.c ****   {
1313:../../Drivers/STM32H7xx_HAL_Driver/Src/stm32h7xx_hal_rcc.c ****     assert_param(IS_RCC_MCO2SOURCE(RCC_MCOSource));
1314:../../Drivers/STM32H7xx_HAL_Driver/Src/stm32h7xx_hal_rcc.c **** 
1315:../../Drivers/STM32H7xx_HAL_Driver/Src/stm32h7xx_hal_rcc.c ****     /* MCO2 Clock Enable */
1316:../../Drivers/STM32H7xx_HAL_Driver/Src/stm32h7xx_hal_rcc.c ****     MCO2_CLK_ENABLE();
1317:../../Drivers/STM32H7xx_HAL_Driver/Src/stm32h7xx_hal_rcc.c **** 
1318:../../Drivers/STM32H7xx_HAL_Driver/Src/stm32h7xx_hal_rcc.c ****     /* Configure the MCO2 pin in alternate function mode */
1319:../../Drivers/STM32H7xx_HAL_Driver/Src/stm32h7xx_hal_rcc.c ****     GPIO_InitStruct.Pin = MCO2_PIN;
1320:../../Drivers/STM32H7xx_HAL_Driver/Src/stm32h7xx_hal_rcc.c ****     GPIO_InitStruct.Mode = GPIO_MODE_AF_PP;
1321:../../Drivers/STM32H7xx_HAL_Driver/Src/stm32h7xx_hal_rcc.c ****     GPIO_InitStruct.Speed = GPIO_SPEED_FREQ_VERY_HIGH;
1322:../../Drivers/STM32H7xx_HAL_Driver/Src/stm32h7xx_hal_rcc.c ****     GPIO_InitStruct.Pull = GPIO_NOPULL;
1323:../../Drivers/STM32H7xx_HAL_Driver/Src/stm32h7xx_hal_rcc.c ****     GPIO_InitStruct.Alternate = GPIO_AF0_MCO;
1324:../../Drivers/STM32H7xx_HAL_Driver/Src/stm32h7xx_hal_rcc.c ****     HAL_GPIO_Init(MCO2_GPIO_PORT, &GPIO_InitStruct);
1325:../../Drivers/STM32H7xx_HAL_Driver/Src/stm32h7xx_hal_rcc.c **** 
1326:../../Drivers/STM32H7xx_HAL_Driver/Src/stm32h7xx_hal_rcc.c ****     /* Mask MCO2 and MCO2PRE[3:0] bits then Select MCO2 clock source and pre-scaler */
1327:../../Drivers/STM32H7xx_HAL_Driver/Src/stm32h7xx_hal_rcc.c ****     MODIFY_REG(RCC->CFGR, (RCC_CFGR_MCO2 | RCC_CFGR_MCO2PRE), (RCC_MCOSource | (RCC_MCODiv << 7U)))
1328:../../Drivers/STM32H7xx_HAL_Driver/Src/stm32h7xx_hal_rcc.c ****   }
1329:../../Drivers/STM32H7xx_HAL_Driver/Src/stm32h7xx_hal_rcc.c **** }
 1891              		.loc 1 1329 1 view .LVU613
 1892 004c 08B0     		add	sp, sp, #32
 1893              	.LCFI6:
 1894              		.cfi_remember_state
 1895              		.cfi_def_cfa_offset 16
 1896              		@ sp needed
 1897 004e 70BD     		pop	{r4, r5, r6, pc}
 1898              	.LVL154:
 1899              	.L173:
 1900              	.LCFI7:
 1901              		.cfi_restore_state
1313:../../Drivers/STM32H7xx_HAL_Driver/Src/stm32h7xx_hal_rcc.c **** 
 1902              		.loc 1 1313 5 is_stmt 1 view .LVU614
1316:../../Drivers/STM32H7xx_HAL_Driver/Src/stm32h7xx_hal_rcc.c **** 
 1903              		.loc 1 1316 5 view .LVU615
 1904              	.LBB14:
1316:../../Drivers/STM32H7xx_HAL_Driver/Src/stm32h7xx_hal_rcc.c **** 
 1905              		.loc 1 1316 5 view .LVU616
1316:../../Drivers/STM32H7xx_HAL_Driver/Src/stm32h7xx_hal_rcc.c **** 
 1906              		.loc 1 1316 5 view .LVU617
 1907 0050 114E     		ldr	r6, .L176
 1908 0052 D6F8E030 		ldr	r3, [r6, #224]
 1909 0056 43F00403 		orr	r3, r3, #4
 1910 005a C6F8E030 		str	r3, [r6, #224]
1316:../../Drivers/STM32H7xx_HAL_Driver/Src/stm32h7xx_hal_rcc.c **** 
 1911              		.loc 1 1316 5 view .LVU618
 1912 005e D6F8E030 		ldr	r3, [r6, #224]
 1913 0062 03F00403 		and	r3, r3, #4
 1914 0066 0293     		str	r3, [sp, #8]
1316:../../Drivers/STM32H7xx_HAL_Driver/Src/stm32h7xx_hal_rcc.c **** 
ARM GAS  /tmp/ccooDZtA.s 			page 63


 1915              		.loc 1 1316 5 view .LVU619
 1916 0068 029B     		ldr	r3, [sp, #8]
 1917              	.LBE14:
1316:../../Drivers/STM32H7xx_HAL_Driver/Src/stm32h7xx_hal_rcc.c **** 
 1918              		.loc 1 1316 5 view .LVU620
1319:../../Drivers/STM32H7xx_HAL_Driver/Src/stm32h7xx_hal_rcc.c ****     GPIO_InitStruct.Mode = GPIO_MODE_AF_PP;
 1919              		.loc 1 1319 5 view .LVU621
1319:../../Drivers/STM32H7xx_HAL_Driver/Src/stm32h7xx_hal_rcc.c ****     GPIO_InitStruct.Mode = GPIO_MODE_AF_PP;
 1920              		.loc 1 1319 25 is_stmt 0 view .LVU622
 1921 006a 4FF40073 		mov	r3, #512
 1922 006e 0393     		str	r3, [sp, #12]
1320:../../Drivers/STM32H7xx_HAL_Driver/Src/stm32h7xx_hal_rcc.c ****     GPIO_InitStruct.Speed = GPIO_SPEED_FREQ_VERY_HIGH;
 1923              		.loc 1 1320 5 is_stmt 1 view .LVU623
1320:../../Drivers/STM32H7xx_HAL_Driver/Src/stm32h7xx_hal_rcc.c ****     GPIO_InitStruct.Speed = GPIO_SPEED_FREQ_VERY_HIGH;
 1924              		.loc 1 1320 26 is_stmt 0 view .LVU624
 1925 0070 0223     		movs	r3, #2
 1926 0072 0493     		str	r3, [sp, #16]
1321:../../Drivers/STM32H7xx_HAL_Driver/Src/stm32h7xx_hal_rcc.c ****     GPIO_InitStruct.Pull = GPIO_NOPULL;
 1927              		.loc 1 1321 5 is_stmt 1 view .LVU625
1321:../../Drivers/STM32H7xx_HAL_Driver/Src/stm32h7xx_hal_rcc.c ****     GPIO_InitStruct.Pull = GPIO_NOPULL;
 1928              		.loc 1 1321 27 is_stmt 0 view .LVU626
 1929 0074 0323     		movs	r3, #3
 1930 0076 0693     		str	r3, [sp, #24]
1322:../../Drivers/STM32H7xx_HAL_Driver/Src/stm32h7xx_hal_rcc.c ****     GPIO_InitStruct.Alternate = GPIO_AF0_MCO;
 1931              		.loc 1 1322 5 is_stmt 1 view .LVU627
1322:../../Drivers/STM32H7xx_HAL_Driver/Src/stm32h7xx_hal_rcc.c ****     GPIO_InitStruct.Alternate = GPIO_AF0_MCO;
 1932              		.loc 1 1322 26 is_stmt 0 view .LVU628
 1933 0078 0023     		movs	r3, #0
 1934 007a 0593     		str	r3, [sp, #20]
1323:../../Drivers/STM32H7xx_HAL_Driver/Src/stm32h7xx_hal_rcc.c ****     HAL_GPIO_Init(MCO2_GPIO_PORT, &GPIO_InitStruct);
 1935              		.loc 1 1323 5 is_stmt 1 view .LVU629
1323:../../Drivers/STM32H7xx_HAL_Driver/Src/stm32h7xx_hal_rcc.c ****     HAL_GPIO_Init(MCO2_GPIO_PORT, &GPIO_InitStruct);
 1936              		.loc 1 1323 31 is_stmt 0 view .LVU630
 1937 007c 0793     		str	r3, [sp, #28]
1324:../../Drivers/STM32H7xx_HAL_Driver/Src/stm32h7xx_hal_rcc.c **** 
 1938              		.loc 1 1324 5 is_stmt 1 view .LVU631
 1939 007e 03A9     		add	r1, sp, #12
 1940              	.LVL155:
1324:../../Drivers/STM32H7xx_HAL_Driver/Src/stm32h7xx_hal_rcc.c **** 
 1941              		.loc 1 1324 5 is_stmt 0 view .LVU632
 1942 0080 0748     		ldr	r0, .L176+8
 1943              	.LVL156:
1324:../../Drivers/STM32H7xx_HAL_Driver/Src/stm32h7xx_hal_rcc.c **** 
 1944              		.loc 1 1324 5 view .LVU633
 1945 0082 FFF7FEFF 		bl	HAL_GPIO_Init
 1946              	.LVL157:
1327:../../Drivers/STM32H7xx_HAL_Driver/Src/stm32h7xx_hal_rcc.c ****   }
 1947              		.loc 1 1327 5 is_stmt 1 view .LVU634
 1948 0086 3369     		ldr	r3, [r6, #16]
 1949 0088 23F07E43 		bic	r3, r3, #-33554432
 1950 008c 44EAC514 		orr	r4, r4, r5, lsl #7
 1951              	.LVL158:
1327:../../Drivers/STM32H7xx_HAL_Driver/Src/stm32h7xx_hal_rcc.c ****   }
 1952              		.loc 1 1327 5 is_stmt 0 view .LVU635
 1953 0090 1C43     		orrs	r4, r4, r3
 1954 0092 3461     		str	r4, [r6, #16]
 1955              		.loc 1 1329 1 view .LVU636
ARM GAS  /tmp/ccooDZtA.s 			page 64


 1956 0094 DAE7     		b	.L172
 1957              	.L177:
 1958 0096 00BF     		.align	2
 1959              	.L176:
 1960 0098 00440258 		.word	1476543488
 1961 009c 00000258 		.word	1476526080
 1962 00a0 00080258 		.word	1476528128
 1963              		.cfi_endproc
 1964              	.LFE147:
 1966              		.section	.text.HAL_RCC_EnableCSS,"ax",%progbits
 1967              		.align	1
 1968              		.global	HAL_RCC_EnableCSS
 1969              		.syntax unified
 1970              		.thumb
 1971              		.thumb_func
 1972              		.fpu fpv5-d16
 1974              	HAL_RCC_EnableCSS:
 1975              	.LFB148:
1330:../../Drivers/STM32H7xx_HAL_Driver/Src/stm32h7xx_hal_rcc.c **** 
1331:../../Drivers/STM32H7xx_HAL_Driver/Src/stm32h7xx_hal_rcc.c **** /**
1332:../../Drivers/STM32H7xx_HAL_Driver/Src/stm32h7xx_hal_rcc.c ****   * @brief  Enables the Clock Security System.
1333:../../Drivers/STM32H7xx_HAL_Driver/Src/stm32h7xx_hal_rcc.c ****   * @note   If a failure is detected on the HSE oscillator clock, this oscillator
1334:../../Drivers/STM32H7xx_HAL_Driver/Src/stm32h7xx_hal_rcc.c ****   *         is automatically disabled and an interrupt is generated to inform the
1335:../../Drivers/STM32H7xx_HAL_Driver/Src/stm32h7xx_hal_rcc.c ****   *         software about the failure (Clock Security System Interrupt, CSSI),
1336:../../Drivers/STM32H7xx_HAL_Driver/Src/stm32h7xx_hal_rcc.c ****   *         allowing the MCU to perform rescue operations. The CSSI is linked to
1337:../../Drivers/STM32H7xx_HAL_Driver/Src/stm32h7xx_hal_rcc.c ****   *         the Cortex-M NMI (Non-Mask-able Interrupt) exception vector.
1338:../../Drivers/STM32H7xx_HAL_Driver/Src/stm32h7xx_hal_rcc.c ****   * @retval None
1339:../../Drivers/STM32H7xx_HAL_Driver/Src/stm32h7xx_hal_rcc.c ****   */
1340:../../Drivers/STM32H7xx_HAL_Driver/Src/stm32h7xx_hal_rcc.c **** void HAL_RCC_EnableCSS(void)
1341:../../Drivers/STM32H7xx_HAL_Driver/Src/stm32h7xx_hal_rcc.c **** {
 1976              		.loc 1 1341 1 is_stmt 1 view -0
 1977              		.cfi_startproc
 1978              		@ args = 0, pretend = 0, frame = 0
 1979              		@ frame_needed = 0, uses_anonymous_args = 0
 1980              		@ link register save eliminated.
