ARM GAS  /tmp/ccooDZtA.s 			page 1


   1              		.cpu cortex-m7
   2              		.eabi_attribute 28, 1
   3              		.eabi_attribute 20, 1
   4              		.eabi_attribute 21, 1
   5              		.eabi_attribute 23, 3
   6              		.eabi_attribute 24, 1
   7              		.eabi_attribute 25, 1
   8              		.eabi_attribute 26, 1
   9              		.eabi_attribute 30, 1
  10              		.eabi_attribute 34, 1
  11              		.eabi_attribute 18, 4
  12              		.file	"stm32h7xx_hal_rcc.c"
  13              		.text
  14              	.Ltext0:
  15              		.cfi_sections	.debug_frame
  16              		.section	.text.HAL_RCC_DeInit,"ax",%progbits
  17              		.align	1
  18              		.global	HAL_RCC_DeInit
  19              		.arch armv7e-m
  20              		.syntax unified
  21              		.thumb
  22              		.thumb_func
  23              		.fpu fpv5-d16
  25              	HAL_RCC_DeInit:
  26              	.LFB144:
  27              		.file 1 "../../Drivers/STM32H7xx_HAL_Driver/Src/stm32h7xx_hal_rcc.c"
   1:../../Drivers/STM32H7xx_HAL_Driver/Src/stm32h7xx_hal_rcc.c **** /**
   2:../../Drivers/STM32H7xx_HAL_Driver/Src/stm32h7xx_hal_rcc.c ****   ******************************************************************************
   3:../../Drivers/STM32H7xx_HAL_Driver/Src/stm32h7xx_hal_rcc.c ****   * @file    stm32h7xx_hal_rcc.c
   4:../../Drivers/STM32H7xx_HAL_Driver/Src/stm32h7xx_hal_rcc.c ****   * @author  MCD Application Team
   5:../../Drivers/STM32H7xx_HAL_Driver/Src/stm32h7xx_hal_rcc.c ****   * @brief   RCC HAL module driver.
   6:../../Drivers/STM32H7xx_HAL_Driver/Src/stm32h7xx_hal_rcc.c ****   *          This file provides firmware functions to manage the following
   7:../../Drivers/STM32H7xx_HAL_Driver/Src/stm32h7xx_hal_rcc.c ****   *          functionalities of the Reset and Clock Control (RCC) peripheral:
   8:../../Drivers/STM32H7xx_HAL_Driver/Src/stm32h7xx_hal_rcc.c ****   *           + Initialization and de-initialization functions
   9:../../Drivers/STM32H7xx_HAL_Driver/Src/stm32h7xx_hal_rcc.c ****   *           + Peripheral Control functions
  10:../../Drivers/STM32H7xx_HAL_Driver/Src/stm32h7xx_hal_rcc.c ****   *
  11:../../Drivers/STM32H7xx_HAL_Driver/Src/stm32h7xx_hal_rcc.c ****   @verbatim
  12:../../Drivers/STM32H7xx_HAL_Driver/Src/stm32h7xx_hal_rcc.c ****   ==============================================================================
  13:../../Drivers/STM32H7xx_HAL_Driver/Src/stm32h7xx_hal_rcc.c ****                       ##### RCC specific features #####
  14:../../Drivers/STM32H7xx_HAL_Driver/Src/stm32h7xx_hal_rcc.c ****   ==============================================================================
  15:../../Drivers/STM32H7xx_HAL_Driver/Src/stm32h7xx_hal_rcc.c ****     [..]
  16:../../Drivers/STM32H7xx_HAL_Driver/Src/stm32h7xx_hal_rcc.c ****       After reset the device is running from Internal High Speed oscillator
  17:../../Drivers/STM32H7xx_HAL_Driver/Src/stm32h7xx_hal_rcc.c ****       (HSI 64MHz) with Flash 0 wait state,and all peripherals are off except
  18:../../Drivers/STM32H7xx_HAL_Driver/Src/stm32h7xx_hal_rcc.c ****       internal SRAM, Flash, JTAG and PWR
  19:../../Drivers/STM32H7xx_HAL_Driver/Src/stm32h7xx_hal_rcc.c ****       (+) There is no pre-scaler on High speed (AHB) and Low speed (APB) buses;
  20:../../Drivers/STM32H7xx_HAL_Driver/Src/stm32h7xx_hal_rcc.c ****           all peripherals mapped on these buses are running at HSI speed.
  21:../../Drivers/STM32H7xx_HAL_Driver/Src/stm32h7xx_hal_rcc.c ****       (+) The clock for all peripherals is switched off, except the SRAM and FLASH.
  22:../../Drivers/STM32H7xx_HAL_Driver/Src/stm32h7xx_hal_rcc.c ****       (+) All GPIOs are in analogue mode , except the JTAG pins which
  23:../../Drivers/STM32H7xx_HAL_Driver/Src/stm32h7xx_hal_rcc.c ****           are assigned to be used for debug purpose.
  24:../../Drivers/STM32H7xx_HAL_Driver/Src/stm32h7xx_hal_rcc.c **** 
  25:../../Drivers/STM32H7xx_HAL_Driver/Src/stm32h7xx_hal_rcc.c ****     [..]
  26:../../Drivers/STM32H7xx_HAL_Driver/Src/stm32h7xx_hal_rcc.c ****       Once the device started from reset, the user application has to:
  27:../../Drivers/STM32H7xx_HAL_Driver/Src/stm32h7xx_hal_rcc.c ****       (+) Configure the clock source to be used to drive the System clock
  28:../../Drivers/STM32H7xx_HAL_Driver/Src/stm32h7xx_hal_rcc.c ****           (if the application needs higher frequency/performance)
  29:../../Drivers/STM32H7xx_HAL_Driver/Src/stm32h7xx_hal_rcc.c ****       (+) Configure the System clock frequency and Flash settings
  30:../../Drivers/STM32H7xx_HAL_Driver/Src/stm32h7xx_hal_rcc.c ****       (+) Configure the AHB and APB buses pre-scalers
  31:../../Drivers/STM32H7xx_HAL_Driver/Src/stm32h7xx_hal_rcc.c ****       (+) Enable the clock for the peripheral(s) to be used
ARM GAS  /tmp/ccooDZtA.s 			page 2


  32:../../Drivers/STM32H7xx_HAL_Driver/Src/stm32h7xx_hal_rcc.c ****       (+) Configure the clock kernel source(s) for peripherals which clocks are not
  33:../../Drivers/STM32H7xx_HAL_Driver/Src/stm32h7xx_hal_rcc.c ****           derived from the System clock through :RCC_D1CCIPR,RCC_D2CCIP1R,RCC_D2CCIP2R
  34:../../Drivers/STM32H7xx_HAL_Driver/Src/stm32h7xx_hal_rcc.c ****           and RCC_D3CCIPR registers
  35:../../Drivers/STM32H7xx_HAL_Driver/Src/stm32h7xx_hal_rcc.c **** 
  36:../../Drivers/STM32H7xx_HAL_Driver/Src/stm32h7xx_hal_rcc.c ****                       ##### RCC Limitations #####
  37:../../Drivers/STM32H7xx_HAL_Driver/Src/stm32h7xx_hal_rcc.c ****   ==============================================================================
  38:../../Drivers/STM32H7xx_HAL_Driver/Src/stm32h7xx_hal_rcc.c ****     [..]
  39:../../Drivers/STM32H7xx_HAL_Driver/Src/stm32h7xx_hal_rcc.c ****       A delay between an RCC peripheral clock enable and the effective peripheral
  40:../../Drivers/STM32H7xx_HAL_Driver/Src/stm32h7xx_hal_rcc.c ****       enabling should be taken into account in order to manage the peripheral read/write
  41:../../Drivers/STM32H7xx_HAL_Driver/Src/stm32h7xx_hal_rcc.c ****       from/to registers.
  42:../../Drivers/STM32H7xx_HAL_Driver/Src/stm32h7xx_hal_rcc.c ****       (+) This delay depends on the peripheral mapping.
  43:../../Drivers/STM32H7xx_HAL_Driver/Src/stm32h7xx_hal_rcc.c ****       (+) If peripheral is mapped on AHB: the delay is 2 AHB clock cycle
  44:../../Drivers/STM32H7xx_HAL_Driver/Src/stm32h7xx_hal_rcc.c ****           after the clock enable bit is set on the hardware register
  45:../../Drivers/STM32H7xx_HAL_Driver/Src/stm32h7xx_hal_rcc.c ****       (+) If peripheral is mapped on APB: the delay is 2 APB clock cycle
  46:../../Drivers/STM32H7xx_HAL_Driver/Src/stm32h7xx_hal_rcc.c ****           after the clock enable bit is set on the hardware register
  47:../../Drivers/STM32H7xx_HAL_Driver/Src/stm32h7xx_hal_rcc.c **** 
  48:../../Drivers/STM32H7xx_HAL_Driver/Src/stm32h7xx_hal_rcc.c ****     [..]
  49:../../Drivers/STM32H7xx_HAL_Driver/Src/stm32h7xx_hal_rcc.c ****       Implemented Workaround:
  50:../../Drivers/STM32H7xx_HAL_Driver/Src/stm32h7xx_hal_rcc.c ****       (+) For AHB & APB peripherals, a dummy read to the peripheral register has been
  51:../../Drivers/STM32H7xx_HAL_Driver/Src/stm32h7xx_hal_rcc.c ****           inserted in each __HAL_RCC_PPP_CLK_ENABLE() macro.
  52:../../Drivers/STM32H7xx_HAL_Driver/Src/stm32h7xx_hal_rcc.c **** 
  53:../../Drivers/STM32H7xx_HAL_Driver/Src/stm32h7xx_hal_rcc.c ****   @endverbatim
  54:../../Drivers/STM32H7xx_HAL_Driver/Src/stm32h7xx_hal_rcc.c ****  ******************************************************************************
  55:../../Drivers/STM32H7xx_HAL_Driver/Src/stm32h7xx_hal_rcc.c ****   * @attention
  56:../../Drivers/STM32H7xx_HAL_Driver/Src/stm32h7xx_hal_rcc.c ****   *
  57:../../Drivers/STM32H7xx_HAL_Driver/Src/stm32h7xx_hal_rcc.c ****   * Copyright (c) 2017 STMicroelectronics.
  58:../../Drivers/STM32H7xx_HAL_Driver/Src/stm32h7xx_hal_rcc.c ****   * All rights reserved.
  59:../../Drivers/STM32H7xx_HAL_Driver/Src/stm32h7xx_hal_rcc.c ****   *
  60:../../Drivers/STM32H7xx_HAL_Driver/Src/stm32h7xx_hal_rcc.c ****   * This software is licensed under terms that can be found in the LICENSE file in
  61:../../Drivers/STM32H7xx_HAL_Driver/Src/stm32h7xx_hal_rcc.c ****   * the root directory of this software component.
  62:../../Drivers/STM32H7xx_HAL_Driver/Src/stm32h7xx_hal_rcc.c ****   * If no LICENSE file comes with this software, it is provided AS-IS.
  63:../../Drivers/STM32H7xx_HAL_Driver/Src/stm32h7xx_hal_rcc.c ****   ******************************************************************************
  64:../../Drivers/STM32H7xx_HAL_Driver/Src/stm32h7xx_hal_rcc.c ****   */
  65:../../Drivers/STM32H7xx_HAL_Driver/Src/stm32h7xx_hal_rcc.c **** 
  66:../../Drivers/STM32H7xx_HAL_Driver/Src/stm32h7xx_hal_rcc.c **** /* Includes ------------------------------------------------------------------*/
  67:../../Drivers/STM32H7xx_HAL_Driver/Src/stm32h7xx_hal_rcc.c **** #include "stm32h7xx_hal.h"
  68:../../Drivers/STM32H7xx_HAL_Driver/Src/stm32h7xx_hal_rcc.c **** 
  69:../../Drivers/STM32H7xx_HAL_Driver/Src/stm32h7xx_hal_rcc.c **** /** @addtogroup STM32H7xx_HAL_Driver
  70:../../Drivers/STM32H7xx_HAL_Driver/Src/stm32h7xx_hal_rcc.c ****   * @{
  71:../../Drivers/STM32H7xx_HAL_Driver/Src/stm32h7xx_hal_rcc.c ****   */
  72:../../Drivers/STM32H7xx_HAL_Driver/Src/stm32h7xx_hal_rcc.c **** 
  73:../../Drivers/STM32H7xx_HAL_Driver/Src/stm32h7xx_hal_rcc.c **** /** @defgroup RCC  RCC
  74:../../Drivers/STM32H7xx_HAL_Driver/Src/stm32h7xx_hal_rcc.c ****   * @brief RCC HAL module driver
  75:../../Drivers/STM32H7xx_HAL_Driver/Src/stm32h7xx_hal_rcc.c ****   * @{
  76:../../Drivers/STM32H7xx_HAL_Driver/Src/stm32h7xx_hal_rcc.c ****   */
  77:../../Drivers/STM32H7xx_HAL_Driver/Src/stm32h7xx_hal_rcc.c **** 
  78:../../Drivers/STM32H7xx_HAL_Driver/Src/stm32h7xx_hal_rcc.c **** #ifdef HAL_RCC_MODULE_ENABLED
  79:../../Drivers/STM32H7xx_HAL_Driver/Src/stm32h7xx_hal_rcc.c **** 
  80:../../Drivers/STM32H7xx_HAL_Driver/Src/stm32h7xx_hal_rcc.c **** /* Private typedef -----------------------------------------------------------*/
  81:../../Drivers/STM32H7xx_HAL_Driver/Src/stm32h7xx_hal_rcc.c **** /* Private define ------------------------------------------------------------*/
  82:../../Drivers/STM32H7xx_HAL_Driver/Src/stm32h7xx_hal_rcc.c **** /* Private macro -------------------------------------------------------------*/
  83:../../Drivers/STM32H7xx_HAL_Driver/Src/stm32h7xx_hal_rcc.c **** /** @defgroup RCC_Private_Macros RCC Private Macros
  84:../../Drivers/STM32H7xx_HAL_Driver/Src/stm32h7xx_hal_rcc.c ****   * @{
  85:../../Drivers/STM32H7xx_HAL_Driver/Src/stm32h7xx_hal_rcc.c ****   */
  86:../../Drivers/STM32H7xx_HAL_Driver/Src/stm32h7xx_hal_rcc.c **** #define MCO1_CLK_ENABLE()     __HAL_RCC_GPIOA_CLK_ENABLE()
  87:../../Drivers/STM32H7xx_HAL_Driver/Src/stm32h7xx_hal_rcc.c **** #define MCO1_GPIO_PORT        GPIOA
  88:../../Drivers/STM32H7xx_HAL_Driver/Src/stm32h7xx_hal_rcc.c **** #define MCO1_PIN              GPIO_PIN_8
ARM GAS  /tmp/ccooDZtA.s 			page 3


  89:../../Drivers/STM32H7xx_HAL_Driver/Src/stm32h7xx_hal_rcc.c **** 
  90:../../Drivers/STM32H7xx_HAL_Driver/Src/stm32h7xx_hal_rcc.c **** #define MCO2_CLK_ENABLE()      __HAL_RCC_GPIOC_CLK_ENABLE()
  91:../../Drivers/STM32H7xx_HAL_Driver/Src/stm32h7xx_hal_rcc.c **** #define MCO2_GPIO_PORT         GPIOC
  92:../../Drivers/STM32H7xx_HAL_Driver/Src/stm32h7xx_hal_rcc.c **** #define MCO2_PIN               GPIO_PIN_9
  93:../../Drivers/STM32H7xx_HAL_Driver/Src/stm32h7xx_hal_rcc.c **** 
  94:../../Drivers/STM32H7xx_HAL_Driver/Src/stm32h7xx_hal_rcc.c **** /**
  95:../../Drivers/STM32H7xx_HAL_Driver/Src/stm32h7xx_hal_rcc.c ****   * @}
  96:../../Drivers/STM32H7xx_HAL_Driver/Src/stm32h7xx_hal_rcc.c ****   */
  97:../../Drivers/STM32H7xx_HAL_Driver/Src/stm32h7xx_hal_rcc.c **** /* Private variables ---------------------------------------------------------*/
  98:../../Drivers/STM32H7xx_HAL_Driver/Src/stm32h7xx_hal_rcc.c **** /** @defgroup RCC_Private_Variables RCC Private Variables
  99:../../Drivers/STM32H7xx_HAL_Driver/Src/stm32h7xx_hal_rcc.c ****   * @{
 100:../../Drivers/STM32H7xx_HAL_Driver/Src/stm32h7xx_hal_rcc.c ****   */
 101:../../Drivers/STM32H7xx_HAL_Driver/Src/stm32h7xx_hal_rcc.c **** 
 102:../../Drivers/STM32H7xx_HAL_Driver/Src/stm32h7xx_hal_rcc.c **** /**
 103:../../Drivers/STM32H7xx_HAL_Driver/Src/stm32h7xx_hal_rcc.c ****   * @}
 104:../../Drivers/STM32H7xx_HAL_Driver/Src/stm32h7xx_hal_rcc.c ****   */
 105:../../Drivers/STM32H7xx_HAL_Driver/Src/stm32h7xx_hal_rcc.c **** /* Private function prototypes -----------------------------------------------*/
 106:../../Drivers/STM32H7xx_HAL_Driver/Src/stm32h7xx_hal_rcc.c **** /* Exported functions --------------------------------------------------------*/
 107:../../Drivers/STM32H7xx_HAL_Driver/Src/stm32h7xx_hal_rcc.c **** 
 108:../../Drivers/STM32H7xx_HAL_Driver/Src/stm32h7xx_hal_rcc.c **** /** @defgroup RCC_Exported_Functions RCC Exported Functions
 109:../../Drivers/STM32H7xx_HAL_Driver/Src/stm32h7xx_hal_rcc.c ****   * @{
 110:../../Drivers/STM32H7xx_HAL_Driver/Src/stm32h7xx_hal_rcc.c ****   */
 111:../../Drivers/STM32H7xx_HAL_Driver/Src/stm32h7xx_hal_rcc.c **** 
 112:../../Drivers/STM32H7xx_HAL_Driver/Src/stm32h7xx_hal_rcc.c **** /** @defgroup RCC_Exported_Functions_Group1 Initialization and de-initialization functions
 113:../../Drivers/STM32H7xx_HAL_Driver/Src/stm32h7xx_hal_rcc.c ****  *  @brief    Initialization and Configuration functions
 114:../../Drivers/STM32H7xx_HAL_Driver/Src/stm32h7xx_hal_rcc.c ****  *
 115:../../Drivers/STM32H7xx_HAL_Driver/Src/stm32h7xx_hal_rcc.c **** @verbatim
 116:../../Drivers/STM32H7xx_HAL_Driver/Src/stm32h7xx_hal_rcc.c ****  ===============================================================================
 117:../../Drivers/STM32H7xx_HAL_Driver/Src/stm32h7xx_hal_rcc.c ****            ##### Initialization and de-initialization functions #####
 118:../../Drivers/STM32H7xx_HAL_Driver/Src/stm32h7xx_hal_rcc.c ****  ===============================================================================
 119:../../Drivers/STM32H7xx_HAL_Driver/Src/stm32h7xx_hal_rcc.c ****     [..]
 120:../../Drivers/STM32H7xx_HAL_Driver/Src/stm32h7xx_hal_rcc.c ****       This section provides functions allowing to configure the internal/external oscillators
 121:../../Drivers/STM32H7xx_HAL_Driver/Src/stm32h7xx_hal_rcc.c ****       (HSE, HSI, LSE,CSI, LSI,HSI48, PLL, CSS and MCO) and the System buses clocks (SYSCLK, AHB3, A
 122:../../Drivers/STM32H7xx_HAL_Driver/Src/stm32h7xx_hal_rcc.c ****        AHB2,AHB4,APB3, APB1L, APB1H, APB2, and APB4).
 123:../../Drivers/STM32H7xx_HAL_Driver/Src/stm32h7xx_hal_rcc.c **** 
 124:../../Drivers/STM32H7xx_HAL_Driver/Src/stm32h7xx_hal_rcc.c ****     [..] Internal/external clock and PLL configuration
 125:../../Drivers/STM32H7xx_HAL_Driver/Src/stm32h7xx_hal_rcc.c ****          (#) HSI (high-speed internal), 64 MHz factory-trimmed RC used directly or through
 126:../../Drivers/STM32H7xx_HAL_Driver/Src/stm32h7xx_hal_rcc.c ****              the PLL as System clock source.
 127:../../Drivers/STM32H7xx_HAL_Driver/Src/stm32h7xx_hal_rcc.c ****          (#) CSI is a low-power RC oscillator which can be used directly as system clock, periphera
 128:../../Drivers/STM32H7xx_HAL_Driver/Src/stm32h7xx_hal_rcc.c ****              clock, or PLL input.But even with frequency calibration, is less accurate than an
 129:../../Drivers/STM32H7xx_HAL_Driver/Src/stm32h7xx_hal_rcc.c ****              external crystal oscillator or ceramic resonator.
 130:../../Drivers/STM32H7xx_HAL_Driver/Src/stm32h7xx_hal_rcc.c ****          (#) LSI (low-speed internal), 32 KHz low consumption RC used as IWDG and/or RTC
 131:../../Drivers/STM32H7xx_HAL_Driver/Src/stm32h7xx_hal_rcc.c ****              clock source.
 132:../../Drivers/STM32H7xx_HAL_Driver/Src/stm32h7xx_hal_rcc.c **** 
 133:../../Drivers/STM32H7xx_HAL_Driver/Src/stm32h7xx_hal_rcc.c ****          (#) HSE (high-speed external), 4 to 48 MHz crystal oscillator used directly or
 134:../../Drivers/STM32H7xx_HAL_Driver/Src/stm32h7xx_hal_rcc.c ****              through the PLL as System clock source. Can be used also as RTC clock source.
 135:../../Drivers/STM32H7xx_HAL_Driver/Src/stm32h7xx_hal_rcc.c **** 
 136:../../Drivers/STM32H7xx_HAL_Driver/Src/stm32h7xx_hal_rcc.c ****          (#) LSE (low-speed external), 32 KHz oscillator used as RTC clock source.
 137:../../Drivers/STM32H7xx_HAL_Driver/Src/stm32h7xx_hal_rcc.c **** 
 138:../../Drivers/STM32H7xx_HAL_Driver/Src/stm32h7xx_hal_rcc.c ****          (#) PLL , The RCC features three independent PLLs (clocked by HSI , HSE or CSI),
 139:../../Drivers/STM32H7xx_HAL_Driver/Src/stm32h7xx_hal_rcc.c ****              featuring three different output clocks and able  to work either in integer or Fractio
 140:../../Drivers/STM32H7xx_HAL_Driver/Src/stm32h7xx_hal_rcc.c ****            (++) A main PLL, PLL1, which is generally used to provide clocks to the CPU
 141:../../Drivers/STM32H7xx_HAL_Driver/Src/stm32h7xx_hal_rcc.c ****                 and to some peripherals.
 142:../../Drivers/STM32H7xx_HAL_Driver/Src/stm32h7xx_hal_rcc.c ****            (++) Two dedicated PLLs, PLL2 and PLL3, which are used to generate the kernel clock for 
 143:../../Drivers/STM32H7xx_HAL_Driver/Src/stm32h7xx_hal_rcc.c **** 
 144:../../Drivers/STM32H7xx_HAL_Driver/Src/stm32h7xx_hal_rcc.c **** 
 145:../../Drivers/STM32H7xx_HAL_Driver/Src/stm32h7xx_hal_rcc.c ****          (#) CSS (Clock security system), once enabled and if a HSE clock failure occurs
ARM GAS  /tmp/ccooDZtA.s 			page 4


 146:../../Drivers/STM32H7xx_HAL_Driver/Src/stm32h7xx_hal_rcc.c ****             (HSE used directly or through PLL as System clock source), the System clock
 147:../../Drivers/STM32H7xx_HAL_Driver/Src/stm32h7xx_hal_rcc.c ****              is automatically switched to HSI and an interrupt is generated if enabled.
 148:../../Drivers/STM32H7xx_HAL_Driver/Src/stm32h7xx_hal_rcc.c ****              The interrupt is linked to the Cortex-M NMI (Non-Mask-able Interrupt)
 149:../../Drivers/STM32H7xx_HAL_Driver/Src/stm32h7xx_hal_rcc.c ****              exception vector.
 150:../../Drivers/STM32H7xx_HAL_Driver/Src/stm32h7xx_hal_rcc.c **** 
 151:../../Drivers/STM32H7xx_HAL_Driver/Src/stm32h7xx_hal_rcc.c ****          (#) MCO1 (micro controller clock output), used to output HSI, LSE, HSE, PLL1(PLL1_Q)
 152:../../Drivers/STM32H7xx_HAL_Driver/Src/stm32h7xx_hal_rcc.c ****              or HSI48 clock (through a configurable pre-scaler) on PA8 pin.
 153:../../Drivers/STM32H7xx_HAL_Driver/Src/stm32h7xx_hal_rcc.c **** 
 154:../../Drivers/STM32H7xx_HAL_Driver/Src/stm32h7xx_hal_rcc.c ****          (#) MCO2 (micro controller clock output), used to output HSE, PLL2(PLL2_P), SYSCLK,
 155:../../Drivers/STM32H7xx_HAL_Driver/Src/stm32h7xx_hal_rcc.c ****              LSI, CSI, or PLL1(PLL1_P) clock (through a configurable pre-scaler) on PC9 pin.
 156:../../Drivers/STM32H7xx_HAL_Driver/Src/stm32h7xx_hal_rcc.c **** 
 157:../../Drivers/STM32H7xx_HAL_Driver/Src/stm32h7xx_hal_rcc.c ****     [..] System, AHB and APB buses clocks configuration
 158:../../Drivers/STM32H7xx_HAL_Driver/Src/stm32h7xx_hal_rcc.c ****          (#) Several clock sources can be used to drive the System clock (SYSCLK): CSI,HSI,
 159:../../Drivers/STM32H7xx_HAL_Driver/Src/stm32h7xx_hal_rcc.c ****              HSE and PLL.
 160:../../Drivers/STM32H7xx_HAL_Driver/Src/stm32h7xx_hal_rcc.c ****              The AHB clock (HCLK) is derived from System core clock through configurable
 161:../../Drivers/STM32H7xx_HAL_Driver/Src/stm32h7xx_hal_rcc.c ****              pre-scaler and used to clock the CPU, memory and peripherals mapped
 162:../../Drivers/STM32H7xx_HAL_Driver/Src/stm32h7xx_hal_rcc.c ****              on AHB and APB bus of the 3 Domains (D1, D2, D3)* through configurable pre-scalers
 163:../../Drivers/STM32H7xx_HAL_Driver/Src/stm32h7xx_hal_rcc.c ****              and used to clock the peripherals mapped on these buses. You can use
 164:../../Drivers/STM32H7xx_HAL_Driver/Src/stm32h7xx_hal_rcc.c ****              "HAL_RCC_GetSysClockFreq()" function to retrieve system clock frequency.
 165:../../Drivers/STM32H7xx_HAL_Driver/Src/stm32h7xx_hal_rcc.c **** 
 166:../../Drivers/STM32H7xx_HAL_Driver/Src/stm32h7xx_hal_rcc.c ****          -@- All the peripheral clocks are derived from the System clock (SYSCLK) except those
 167:../../Drivers/STM32H7xx_HAL_Driver/Src/stm32h7xx_hal_rcc.c ****              with dual clock domain where kernel source clock could be selected through
 168:../../Drivers/STM32H7xx_HAL_Driver/Src/stm32h7xx_hal_rcc.c ****              RCC_D1CCIPR,RCC_D2CCIP1R,RCC_D2CCIP2R and RCC_D3CCIPR registers.
 169:../../Drivers/STM32H7xx_HAL_Driver/Src/stm32h7xx_hal_rcc.c **** 
 170:../../Drivers/STM32H7xx_HAL_Driver/Src/stm32h7xx_hal_rcc.c ****      (*) : 2 Domains (CD and SRD) for stm32h7a3xx and stm32h7b3xx family lines.
 171:../../Drivers/STM32H7xx_HAL_Driver/Src/stm32h7xx_hal_rcc.c **** @endverbatim
 172:../../Drivers/STM32H7xx_HAL_Driver/Src/stm32h7xx_hal_rcc.c ****   * @{
 173:../../Drivers/STM32H7xx_HAL_Driver/Src/stm32h7xx_hal_rcc.c ****   */
 174:../../Drivers/STM32H7xx_HAL_Driver/Src/stm32h7xx_hal_rcc.c **** 
 175:../../Drivers/STM32H7xx_HAL_Driver/Src/stm32h7xx_hal_rcc.c **** /**
 176:../../Drivers/STM32H7xx_HAL_Driver/Src/stm32h7xx_hal_rcc.c ****   * @brief  Resets the RCC clock configuration to the default reset state.
 177:../../Drivers/STM32H7xx_HAL_Driver/Src/stm32h7xx_hal_rcc.c ****   * @note   The default reset state of the clock configuration is given below:
 178:../../Drivers/STM32H7xx_HAL_Driver/Src/stm32h7xx_hal_rcc.c ****   *            - HSI ON and used as system clock source
 179:../../Drivers/STM32H7xx_HAL_Driver/Src/stm32h7xx_hal_rcc.c ****   *            - HSE, PLL1, PLL2 and PLL3 OFF
 180:../../Drivers/STM32H7xx_HAL_Driver/Src/stm32h7xx_hal_rcc.c ****   *            - AHB, APB Bus pre-scaler set to 1.
 181:../../Drivers/STM32H7xx_HAL_Driver/Src/stm32h7xx_hal_rcc.c ****   *            - CSS, MCO1 and MCO2 OFF
 182:../../Drivers/STM32H7xx_HAL_Driver/Src/stm32h7xx_hal_rcc.c ****   *            - All interrupts disabled
 183:../../Drivers/STM32H7xx_HAL_Driver/Src/stm32h7xx_hal_rcc.c ****   * @note   This function doesn't modify the configuration of the
 184:../../Drivers/STM32H7xx_HAL_Driver/Src/stm32h7xx_hal_rcc.c ****   *            - Peripheral clocks
 185:../../Drivers/STM32H7xx_HAL_Driver/Src/stm32h7xx_hal_rcc.c ****   *            - LSI, LSE and RTC clocks
 186:../../Drivers/STM32H7xx_HAL_Driver/Src/stm32h7xx_hal_rcc.c ****   * @retval HAL status
 187:../../Drivers/STM32H7xx_HAL_Driver/Src/stm32h7xx_hal_rcc.c ****   */
 188:../../Drivers/STM32H7xx_HAL_Driver/Src/stm32h7xx_hal_rcc.c **** HAL_StatusTypeDef HAL_RCC_DeInit(void)
 189:../../Drivers/STM32H7xx_HAL_Driver/Src/stm32h7xx_hal_rcc.c **** {
  28              		.loc 1 189 1 view -0
  29              		.cfi_startproc
  30              		@ args = 0, pretend = 0, frame = 0
  31              		@ frame_needed = 0, uses_anonymous_args = 0
  32 0000 38B5     		push	{r3, r4, r5, lr}
  33              	.LCFI0:
  34              		.cfi_def_cfa_offset 16
  35              		.cfi_offset 3, -16
  36              		.cfi_offset 4, -12
  37              		.cfi_offset 5, -8
  38              		.cfi_offset 14, -4
 190:../../Drivers/STM32H7xx_HAL_Driver/Src/stm32h7xx_hal_rcc.c ****   uint32_t tickstart;
  39              		.loc 1 190 3 view .LVU1
ARM GAS  /tmp/ccooDZtA.s 			page 5


 191:../../Drivers/STM32H7xx_HAL_Driver/Src/stm32h7xx_hal_rcc.c **** 
 192:../../Drivers/STM32H7xx_HAL_Driver/Src/stm32h7xx_hal_rcc.c ****   /* Increasing the CPU frequency */
 193:../../Drivers/STM32H7xx_HAL_Driver/Src/stm32h7xx_hal_rcc.c ****   if (FLASH_LATENCY_DEFAULT  > __HAL_FLASH_GET_LATENCY())
  40              		.loc 1 193 3 view .LVU2
  41              		.loc 1 193 32 is_stmt 0 view .LVU3
  42 0002 684B     		ldr	r3, .L33
  43 0004 1B68     		ldr	r3, [r3]
  44 0006 03F00F03 		and	r3, r3, #15
  45              		.loc 1 193 6 view .LVU4
  46 000a 062B     		cmp	r3, #6
  47 000c 0CD8     		bhi	.L2
 194:../../Drivers/STM32H7xx_HAL_Driver/Src/stm32h7xx_hal_rcc.c ****   {
 195:../../Drivers/STM32H7xx_HAL_Driver/Src/stm32h7xx_hal_rcc.c ****     /* Program the new number of wait states to the LATENCY bits in the FLASH_ACR register */
 196:../../Drivers/STM32H7xx_HAL_Driver/Src/stm32h7xx_hal_rcc.c ****     __HAL_FLASH_SET_LATENCY(FLASH_LATENCY_DEFAULT);
  48              		.loc 1 196 5 is_stmt 1 view .LVU5
  49 000e 654A     		ldr	r2, .L33
  50 0010 1368     		ldr	r3, [r2]
  51 0012 23F00F03 		bic	r3, r3, #15
  52 0016 43F00703 		orr	r3, r3, #7
  53 001a 1360     		str	r3, [r2]
 197:../../Drivers/STM32H7xx_HAL_Driver/Src/stm32h7xx_hal_rcc.c **** 
 198:../../Drivers/STM32H7xx_HAL_Driver/Src/stm32h7xx_hal_rcc.c ****     /* Check that the new number of wait states is taken into account to access the Flash
 199:../../Drivers/STM32H7xx_HAL_Driver/Src/stm32h7xx_hal_rcc.c ****     memory by reading the FLASH_ACR register */
 200:../../Drivers/STM32H7xx_HAL_Driver/Src/stm32h7xx_hal_rcc.c ****     if (__HAL_FLASH_GET_LATENCY() != FLASH_LATENCY_DEFAULT)
  54              		.loc 1 200 5 view .LVU6
  55              		.loc 1 200 9 is_stmt 0 view .LVU7
  56 001c 1368     		ldr	r3, [r2]
  57 001e 03F00F03 		and	r3, r3, #15
  58              		.loc 1 200 8 view .LVU8
  59 0022 072B     		cmp	r3, #7
  60 0024 40F0BA80 		bne	.L16
  61              	.L2:
 201:../../Drivers/STM32H7xx_HAL_Driver/Src/stm32h7xx_hal_rcc.c ****     {
 202:../../Drivers/STM32H7xx_HAL_Driver/Src/stm32h7xx_hal_rcc.c ****       return HAL_ERROR;
 203:../../Drivers/STM32H7xx_HAL_Driver/Src/stm32h7xx_hal_rcc.c ****     }
 204:../../Drivers/STM32H7xx_HAL_Driver/Src/stm32h7xx_hal_rcc.c **** 
 205:../../Drivers/STM32H7xx_HAL_Driver/Src/stm32h7xx_hal_rcc.c ****   }
 206:../../Drivers/STM32H7xx_HAL_Driver/Src/stm32h7xx_hal_rcc.c **** 
 207:../../Drivers/STM32H7xx_HAL_Driver/Src/stm32h7xx_hal_rcc.c **** 
 208:../../Drivers/STM32H7xx_HAL_Driver/Src/stm32h7xx_hal_rcc.c ****   /* Get Start Tick */
 209:../../Drivers/STM32H7xx_HAL_Driver/Src/stm32h7xx_hal_rcc.c ****   tickstart = HAL_GetTick();
  62              		.loc 1 209 3 is_stmt 1 view .LVU9
  63              		.loc 1 209 15 is_stmt 0 view .LVU10
  64 0028 FFF7FEFF 		bl	HAL_GetTick
  65              	.LVL0:
  66 002c 0446     		mov	r4, r0
  67              	.LVL1:
 210:../../Drivers/STM32H7xx_HAL_Driver/Src/stm32h7xx_hal_rcc.c **** 
 211:../../Drivers/STM32H7xx_HAL_Driver/Src/stm32h7xx_hal_rcc.c ****   /* Set HSION bit */
 212:../../Drivers/STM32H7xx_HAL_Driver/Src/stm32h7xx_hal_rcc.c ****   SET_BIT(RCC->CR, RCC_CR_HSION);
  68              		.loc 1 212 3 is_stmt 1 view .LVU11
  69 002e 5E4A     		ldr	r2, .L33+4
  70 0030 1368     		ldr	r3, [r2]
  71 0032 43F00103 		orr	r3, r3, #1
  72 0036 1360     		str	r3, [r2]
 213:../../Drivers/STM32H7xx_HAL_Driver/Src/stm32h7xx_hal_rcc.c **** 
 214:../../Drivers/STM32H7xx_HAL_Driver/Src/stm32h7xx_hal_rcc.c ****   /* Wait till HSI is ready */
ARM GAS  /tmp/ccooDZtA.s 			page 6


 215:../../Drivers/STM32H7xx_HAL_Driver/Src/stm32h7xx_hal_rcc.c ****   while (READ_BIT(RCC->CR, RCC_CR_HSIRDY) == 0U)
  73              		.loc 1 215 3 view .LVU12
  74              	.LVL2:
  75              	.L4:
  76              		.loc 1 215 9 view .LVU13
  77              		.loc 1 215 10 is_stmt 0 view .LVU14
  78 0038 5B4B     		ldr	r3, .L33+4
  79 003a 1B68     		ldr	r3, [r3]
  80              		.loc 1 215 9 view .LVU15
  81 003c 13F0040F 		tst	r3, #4
  82 0040 06D1     		bne	.L26
 216:../../Drivers/STM32H7xx_HAL_Driver/Src/stm32h7xx_hal_rcc.c ****   {
 217:../../Drivers/STM32H7xx_HAL_Driver/Src/stm32h7xx_hal_rcc.c ****     if ((HAL_GetTick() - tickstart) > HSI_TIMEOUT_VALUE)
  83              		.loc 1 217 5 is_stmt 1 view .LVU16
  84              		.loc 1 217 10 is_stmt 0 view .LVU17
  85 0042 FFF7FEFF 		bl	HAL_GetTick
  86              	.LVL3:
  87              		.loc 1 217 24 view .LVU18
  88 0046 001B     		subs	r0, r0, r4
  89              		.loc 1 217 8 view .LVU19
  90 0048 0228     		cmp	r0, #2
  91 004a F5D9     		bls	.L4
 218:../../Drivers/STM32H7xx_HAL_Driver/Src/stm32h7xx_hal_rcc.c ****     {
 219:../../Drivers/STM32H7xx_HAL_Driver/Src/stm32h7xx_hal_rcc.c ****       return HAL_TIMEOUT;
  92              		.loc 1 219 14 view .LVU20
  93 004c 0324     		movs	r4, #3
  94              	.LVL4:
  95              		.loc 1 219 14 view .LVU21
  96 004e A6E0     		b	.L3
  97              	.LVL5:
  98              	.L26:
 220:../../Drivers/STM32H7xx_HAL_Driver/Src/stm32h7xx_hal_rcc.c ****     }
 221:../../Drivers/STM32H7xx_HAL_Driver/Src/stm32h7xx_hal_rcc.c ****   }
 222:../../Drivers/STM32H7xx_HAL_Driver/Src/stm32h7xx_hal_rcc.c **** 
 223:../../Drivers/STM32H7xx_HAL_Driver/Src/stm32h7xx_hal_rcc.c ****   /* Set HSITRIM[6:0] bits to the reset value */
 224:../../Drivers/STM32H7xx_HAL_Driver/Src/stm32h7xx_hal_rcc.c ****   SET_BIT(RCC->HSICFGR, RCC_HSICFGR_HSITRIM_6);
  99              		.loc 1 224 3 is_stmt 1 view .LVU22
 100 0050 554B     		ldr	r3, .L33+4
 101 0052 5A68     		ldr	r2, [r3, #4]
 102 0054 42F08042 		orr	r2, r2, #1073741824
 103 0058 5A60     		str	r2, [r3, #4]
 225:../../Drivers/STM32H7xx_HAL_Driver/Src/stm32h7xx_hal_rcc.c **** 
 226:../../Drivers/STM32H7xx_HAL_Driver/Src/stm32h7xx_hal_rcc.c ****   /* Reset CFGR register */
 227:../../Drivers/STM32H7xx_HAL_Driver/Src/stm32h7xx_hal_rcc.c ****   CLEAR_REG(RCC->CFGR);
 104              		.loc 1 227 3 view .LVU23
 105 005a 0022     		movs	r2, #0
 106 005c 1A61     		str	r2, [r3, #16]
 228:../../Drivers/STM32H7xx_HAL_Driver/Src/stm32h7xx_hal_rcc.c **** 
 229:../../Drivers/STM32H7xx_HAL_Driver/Src/stm32h7xx_hal_rcc.c ****   /* Update the SystemCoreClock and SystemD2Clock global variables */
 230:../../Drivers/STM32H7xx_HAL_Driver/Src/stm32h7xx_hal_rcc.c ****   SystemCoreClock = HSI_VALUE;
 107              		.loc 1 230 3 view .LVU24
 108              		.loc 1 230 19 is_stmt 0 view .LVU25
 109 005e 534B     		ldr	r3, .L33+8
 110 0060 534A     		ldr	r2, .L33+12
 111 0062 1360     		str	r3, [r2]
 231:../../Drivers/STM32H7xx_HAL_Driver/Src/stm32h7xx_hal_rcc.c ****   SystemD2Clock = HSI_VALUE;
 112              		.loc 1 231 3 is_stmt 1 view .LVU26
ARM GAS  /tmp/ccooDZtA.s 			page 7


 113              		.loc 1 231 17 is_stmt 0 view .LVU27
 114 0064 534A     		ldr	r2, .L33+16
 115 0066 1360     		str	r3, [r2]
 232:../../Drivers/STM32H7xx_HAL_Driver/Src/stm32h7xx_hal_rcc.c **** 
 233:../../Drivers/STM32H7xx_HAL_Driver/Src/stm32h7xx_hal_rcc.c ****   /* Adapt Systick interrupt period */
 234:../../Drivers/STM32H7xx_HAL_Driver/Src/stm32h7xx_hal_rcc.c ****   if (HAL_InitTick(uwTickPrio) != HAL_OK)
 116              		.loc 1 234 3 is_stmt 1 view .LVU28
 117              		.loc 1 234 7 is_stmt 0 view .LVU29
 118 0068 534B     		ldr	r3, .L33+20
 119 006a 1868     		ldr	r0, [r3]
 120 006c FFF7FEFF 		bl	HAL_InitTick
 121              	.LVL6:
 122              		.loc 1 234 6 view .LVU30
 123 0070 0446     		mov	r4, r0
 124              	.LVL7:
 125              		.loc 1 234 6 view .LVU31
 126 0072 08B1     		cbz	r0, .L27
 235:../../Drivers/STM32H7xx_HAL_Driver/Src/stm32h7xx_hal_rcc.c ****   {
 236:../../Drivers/STM32H7xx_HAL_Driver/Src/stm32h7xx_hal_rcc.c ****     return HAL_ERROR;
 127              		.loc 1 236 12 view .LVU32
 128 0074 0124     		movs	r4, #1
 129 0076 92E0     		b	.L3
 130              	.L27:
 237:../../Drivers/STM32H7xx_HAL_Driver/Src/stm32h7xx_hal_rcc.c ****   }
 238:../../Drivers/STM32H7xx_HAL_Driver/Src/stm32h7xx_hal_rcc.c **** 
 239:../../Drivers/STM32H7xx_HAL_Driver/Src/stm32h7xx_hal_rcc.c ****   /* Get Start Tick */
 240:../../Drivers/STM32H7xx_HAL_Driver/Src/stm32h7xx_hal_rcc.c ****   tickstart = HAL_GetTick();
 131              		.loc 1 240 3 is_stmt 1 view .LVU33
 132              		.loc 1 240 15 is_stmt 0 view .LVU34
 133 0078 FFF7FEFF 		bl	HAL_GetTick
 134              	.LVL8:
 135 007c 0546     		mov	r5, r0
 136              	.LVL9:
 241:../../Drivers/STM32H7xx_HAL_Driver/Src/stm32h7xx_hal_rcc.c **** 
 242:../../Drivers/STM32H7xx_HAL_Driver/Src/stm32h7xx_hal_rcc.c ****   /* Wait till clock switch is ready */
 243:../../Drivers/STM32H7xx_HAL_Driver/Src/stm32h7xx_hal_rcc.c ****   while (READ_BIT(RCC->CFGR, RCC_CFGR_SWS) != 0U)
 137              		.loc 1 243 3 is_stmt 1 view .LVU35
 138              	.L6:
 139              		.loc 1 243 9 view .LVU36
 140              		.loc 1 243 10 is_stmt 0 view .LVU37
 141 007e 4A4B     		ldr	r3, .L33+4
 142 0080 1B69     		ldr	r3, [r3, #16]
 143              		.loc 1 243 9 view .LVU38
 144 0082 13F0380F 		tst	r3, #56
 145 0086 08D0     		beq	.L28
 244:../../Drivers/STM32H7xx_HAL_Driver/Src/stm32h7xx_hal_rcc.c ****   {
 245:../../Drivers/STM32H7xx_HAL_Driver/Src/stm32h7xx_hal_rcc.c ****     if ((HAL_GetTick() - tickstart) > CLOCKSWITCH_TIMEOUT_VALUE)
 146              		.loc 1 245 5 is_stmt 1 view .LVU39
 147              		.loc 1 245 10 is_stmt 0 view .LVU40
 148 0088 FFF7FEFF 		bl	HAL_GetTick
 149              	.LVL10:
 150              		.loc 1 245 24 view .LVU41
 151 008c 401B     		subs	r0, r0, r5
 152              		.loc 1 245 8 view .LVU42
 153 008e 41F28833 		movw	r3, #5000
 154 0092 9842     		cmp	r0, r3
 155 0094 F3D9     		bls	.L6
ARM GAS  /tmp/ccooDZtA.s 			page 8


 246:../../Drivers/STM32H7xx_HAL_Driver/Src/stm32h7xx_hal_rcc.c ****     {
 247:../../Drivers/STM32H7xx_HAL_Driver/Src/stm32h7xx_hal_rcc.c ****       return HAL_TIMEOUT;
 156              		.loc 1 247 14 view .LVU43
 157 0096 0324     		movs	r4, #3
 158 0098 81E0     		b	.L3
 159              	.L28:
 248:../../Drivers/STM32H7xx_HAL_Driver/Src/stm32h7xx_hal_rcc.c ****     }
 249:../../Drivers/STM32H7xx_HAL_Driver/Src/stm32h7xx_hal_rcc.c ****   }
 250:../../Drivers/STM32H7xx_HAL_Driver/Src/stm32h7xx_hal_rcc.c **** 
 251:../../Drivers/STM32H7xx_HAL_Driver/Src/stm32h7xx_hal_rcc.c ****   /* Get Start Tick */
 252:../../Drivers/STM32H7xx_HAL_Driver/Src/stm32h7xx_hal_rcc.c ****   tickstart = HAL_GetTick();
 160              		.loc 1 252 3 is_stmt 1 view .LVU44
 161              		.loc 1 252 15 is_stmt 0 view .LVU45
 162 009a FFF7FEFF 		bl	HAL_GetTick
 163              	.LVL11:
 164 009e 0546     		mov	r5, r0
 165              	.LVL12:
 253:../../Drivers/STM32H7xx_HAL_Driver/Src/stm32h7xx_hal_rcc.c **** 
 254:../../Drivers/STM32H7xx_HAL_Driver/Src/stm32h7xx_hal_rcc.c ****   /* Reset CSION, CSIKERON, HSEON, HSI48ON, HSECSSON, HSIDIV bits */
 255:../../Drivers/STM32H7xx_HAL_Driver/Src/stm32h7xx_hal_rcc.c ****   CLEAR_BIT(RCC->CR, RCC_CR_HSEON | RCC_CR_HSIKERON | RCC_CR_HSIDIV | RCC_CR_HSIDIVF | RCC_CR_CSION
 166              		.loc 1 255 3 is_stmt 1 view .LVU46
 167 00a0 414A     		ldr	r2, .L33+4
 168 00a2 1168     		ldr	r1, [r2]
 169 00a4 454B     		ldr	r3, .L33+24
 170 00a6 0B40     		ands	r3, r3, r1
 171 00a8 1360     		str	r3, [r2]
 256:../../Drivers/STM32H7xx_HAL_Driver/Src/stm32h7xx_hal_rcc.c ****             | RCC_CR_HSI48ON | RCC_CR_CSSHSEON);
 257:../../Drivers/STM32H7xx_HAL_Driver/Src/stm32h7xx_hal_rcc.c **** 
 258:../../Drivers/STM32H7xx_HAL_Driver/Src/stm32h7xx_hal_rcc.c ****   /* Wait till HSE is disabled */
 259:../../Drivers/STM32H7xx_HAL_Driver/Src/stm32h7xx_hal_rcc.c ****   while (READ_BIT(RCC->CR, RCC_CR_HSERDY) != 0U)
 172              		.loc 1 259 3 view .LVU47
 173              	.LVL13:
 174              	.L8:
 175              		.loc 1 259 9 view .LVU48
 176              		.loc 1 259 10 is_stmt 0 view .LVU49
 177 00aa 3F4B     		ldr	r3, .L33+4
 178 00ac 1B68     		ldr	r3, [r3]
 179              		.loc 1 259 9 view .LVU50
 180 00ae 13F4003F 		tst	r3, #131072
 181 00b2 06D0     		beq	.L29
 260:../../Drivers/STM32H7xx_HAL_Driver/Src/stm32h7xx_hal_rcc.c ****   {
 261:../../Drivers/STM32H7xx_HAL_Driver/Src/stm32h7xx_hal_rcc.c ****     if ((HAL_GetTick() - tickstart) > HSE_TIMEOUT_VALUE)
 182              		.loc 1 261 5 is_stmt 1 view .LVU51
 183              		.loc 1 261 10 is_stmt 0 view .LVU52
 184 00b4 FFF7FEFF 		bl	HAL_GetTick
 185              	.LVL14:
 186              		.loc 1 261 24 view .LVU53
 187 00b8 401B     		subs	r0, r0, r5
 188              		.loc 1 261 8 view .LVU54
 189 00ba 6428     		cmp	r0, #100
 190 00bc F5D9     		bls	.L8
 262:../../Drivers/STM32H7xx_HAL_Driver/Src/stm32h7xx_hal_rcc.c ****     {
 263:../../Drivers/STM32H7xx_HAL_Driver/Src/stm32h7xx_hal_rcc.c ****       return HAL_TIMEOUT;
 191              		.loc 1 263 14 view .LVU55
 192 00be 0324     		movs	r4, #3
 193 00c0 6DE0     		b	.L3
 194              	.L29:
ARM GAS  /tmp/ccooDZtA.s 			page 9


 264:../../Drivers/STM32H7xx_HAL_Driver/Src/stm32h7xx_hal_rcc.c ****     }
 265:../../Drivers/STM32H7xx_HAL_Driver/Src/stm32h7xx_hal_rcc.c ****   }
 266:../../Drivers/STM32H7xx_HAL_Driver/Src/stm32h7xx_hal_rcc.c **** 
 267:../../Drivers/STM32H7xx_HAL_Driver/Src/stm32h7xx_hal_rcc.c ****   /* Get Start Tick */
 268:../../Drivers/STM32H7xx_HAL_Driver/Src/stm32h7xx_hal_rcc.c ****   tickstart = HAL_GetTick();
 195              		.loc 1 268 3 is_stmt 1 view .LVU56
 196              		.loc 1 268 15 is_stmt 0 view .LVU57
 197 00c2 FFF7FEFF 		bl	HAL_GetTick
 198              	.LVL15:
 199 00c6 0546     		mov	r5, r0
 200              	.LVL16:
 269:../../Drivers/STM32H7xx_HAL_Driver/Src/stm32h7xx_hal_rcc.c **** 
 270:../../Drivers/STM32H7xx_HAL_Driver/Src/stm32h7xx_hal_rcc.c ****   /* Clear PLLON bit */
 271:../../Drivers/STM32H7xx_HAL_Driver/Src/stm32h7xx_hal_rcc.c ****   CLEAR_BIT(RCC->CR, RCC_CR_PLL1ON);
 201              		.loc 1 271 3 is_stmt 1 view .LVU58
 202 00c8 374A     		ldr	r2, .L33+4
 203 00ca 1368     		ldr	r3, [r2]
 204 00cc 23F08073 		bic	r3, r3, #16777216
 205 00d0 1360     		str	r3, [r2]
 272:../../Drivers/STM32H7xx_HAL_Driver/Src/stm32h7xx_hal_rcc.c **** 
 273:../../Drivers/STM32H7xx_HAL_Driver/Src/stm32h7xx_hal_rcc.c ****   /* Wait till PLL is disabled */
 274:../../Drivers/STM32H7xx_HAL_Driver/Src/stm32h7xx_hal_rcc.c ****   while (READ_BIT(RCC->CR, RCC_CR_PLL1RDY) != 0U)
 206              		.loc 1 274 3 view .LVU59
 207              	.LVL17:
 208              	.L10:
 209              		.loc 1 274 9 view .LVU60
 210              		.loc 1 274 10 is_stmt 0 view .LVU61
 211 00d2 354B     		ldr	r3, .L33+4
 212 00d4 1B68     		ldr	r3, [r3]
 213              		.loc 1 274 9 view .LVU62
 214 00d6 13F0007F 		tst	r3, #33554432
 215 00da 06D0     		beq	.L30
 275:../../Drivers/STM32H7xx_HAL_Driver/Src/stm32h7xx_hal_rcc.c ****   {
 276:../../Drivers/STM32H7xx_HAL_Driver/Src/stm32h7xx_hal_rcc.c ****     if ((HAL_GetTick() - tickstart) > PLL_TIMEOUT_VALUE)
 216              		.loc 1 276 5 is_stmt 1 view .LVU63
 217              		.loc 1 276 10 is_stmt 0 view .LVU64
 218 00dc FFF7FEFF 		bl	HAL_GetTick
 219              	.LVL18:
 220              		.loc 1 276 24 view .LVU65
 221 00e0 401B     		subs	r0, r0, r5
 222              		.loc 1 276 8 view .LVU66
 223 00e2 0228     		cmp	r0, #2
 224 00e4 F5D9     		bls	.L10
 277:../../Drivers/STM32H7xx_HAL_Driver/Src/stm32h7xx_hal_rcc.c ****     {
 278:../../Drivers/STM32H7xx_HAL_Driver/Src/stm32h7xx_hal_rcc.c ****       return HAL_TIMEOUT;
 225              		.loc 1 278 14 view .LVU67
 226 00e6 0324     		movs	r4, #3
 227 00e8 59E0     		b	.L3
 228              	.L30:
 279:../../Drivers/STM32H7xx_HAL_Driver/Src/stm32h7xx_hal_rcc.c ****     }
 280:../../Drivers/STM32H7xx_HAL_Driver/Src/stm32h7xx_hal_rcc.c ****   }
 281:../../Drivers/STM32H7xx_HAL_Driver/Src/stm32h7xx_hal_rcc.c **** 
 282:../../Drivers/STM32H7xx_HAL_Driver/Src/stm32h7xx_hal_rcc.c ****   /* Get Start Tick */
 283:../../Drivers/STM32H7xx_HAL_Driver/Src/stm32h7xx_hal_rcc.c ****   tickstart = HAL_GetTick();
 229              		.loc 1 283 3 is_stmt 1 view .LVU68
 230              		.loc 1 283 15 is_stmt 0 view .LVU69
 231 00ea FFF7FEFF 		bl	HAL_GetTick
ARM GAS  /tmp/ccooDZtA.s 			page 10


 232              	.LVL19:
 233 00ee 0546     		mov	r5, r0
 234              	.LVL20:
 284:../../Drivers/STM32H7xx_HAL_Driver/Src/stm32h7xx_hal_rcc.c **** 
 285:../../Drivers/STM32H7xx_HAL_Driver/Src/stm32h7xx_hal_rcc.c ****   /* Reset PLL2ON bit */
 286:../../Drivers/STM32H7xx_HAL_Driver/Src/stm32h7xx_hal_rcc.c ****   CLEAR_BIT(RCC->CR, RCC_CR_PLL2ON);
 235              		.loc 1 286 3 is_stmt 1 view .LVU70
 236 00f0 2D4A     		ldr	r2, .L33+4
 237 00f2 1368     		ldr	r3, [r2]
 238 00f4 23F08063 		bic	r3, r3, #67108864
 239 00f8 1360     		str	r3, [r2]
 287:../../Drivers/STM32H7xx_HAL_Driver/Src/stm32h7xx_hal_rcc.c **** 
 288:../../Drivers/STM32H7xx_HAL_Driver/Src/stm32h7xx_hal_rcc.c ****   /* Wait till PLL2 is disabled */
 289:../../Drivers/STM32H7xx_HAL_Driver/Src/stm32h7xx_hal_rcc.c ****   while (READ_BIT(RCC->CR, RCC_CR_PLL2RDY) != 0U)
 240              		.loc 1 289 3 view .LVU71
 241              	.LVL21:
 242              	.L12:
 243              		.loc 1 289 9 view .LVU72
 244              		.loc 1 289 10 is_stmt 0 view .LVU73
 245 00fa 2B4B     		ldr	r3, .L33+4
 246 00fc 1B68     		ldr	r3, [r3]
 247              		.loc 1 289 9 view .LVU74
 248 00fe 13F0006F 		tst	r3, #134217728
 249 0102 06D0     		beq	.L31
 290:../../Drivers/STM32H7xx_HAL_Driver/Src/stm32h7xx_hal_rcc.c ****   {
 291:../../Drivers/STM32H7xx_HAL_Driver/Src/stm32h7xx_hal_rcc.c ****     if ((HAL_GetTick() - tickstart) > PLL_TIMEOUT_VALUE)
 250              		.loc 1 291 5 is_stmt 1 view .LVU75
 251              		.loc 1 291 10 is_stmt 0 view .LVU76
 252 0104 FFF7FEFF 		bl	HAL_GetTick
 253              	.LVL22:
 254              		.loc 1 291 24 view .LVU77
 255 0108 401B     		subs	r0, r0, r5
 256              		.loc 1 291 8 view .LVU78
 257 010a 0228     		cmp	r0, #2
 258 010c F5D9     		bls	.L12
 292:../../Drivers/STM32H7xx_HAL_Driver/Src/stm32h7xx_hal_rcc.c ****     {
 293:../../Drivers/STM32H7xx_HAL_Driver/Src/stm32h7xx_hal_rcc.c ****       return HAL_TIMEOUT;
 259              		.loc 1 293 14 view .LVU79
 260 010e 0324     		movs	r4, #3
 261 0110 45E0     		b	.L3
 262              	.L31:
 294:../../Drivers/STM32H7xx_HAL_Driver/Src/stm32h7xx_hal_rcc.c ****     }
 295:../../Drivers/STM32H7xx_HAL_Driver/Src/stm32h7xx_hal_rcc.c ****   }
 296:../../Drivers/STM32H7xx_HAL_Driver/Src/stm32h7xx_hal_rcc.c **** 
 297:../../Drivers/STM32H7xx_HAL_Driver/Src/stm32h7xx_hal_rcc.c ****   /* Get Start Tick */
 298:../../Drivers/STM32H7xx_HAL_Driver/Src/stm32h7xx_hal_rcc.c ****   tickstart = HAL_GetTick();
 263              		.loc 1 298 3 is_stmt 1 view .LVU80
 264              		.loc 1 298 15 is_stmt 0 view .LVU81
 265 0112 FFF7FEFF 		bl	HAL_GetTick
 266              	.LVL23:
 267 0116 0546     		mov	r5, r0
 268              	.LVL24:
 299:../../Drivers/STM32H7xx_HAL_Driver/Src/stm32h7xx_hal_rcc.c **** 
 300:../../Drivers/STM32H7xx_HAL_Driver/Src/stm32h7xx_hal_rcc.c ****   /* Reset PLL3 bit */
 301:../../Drivers/STM32H7xx_HAL_Driver/Src/stm32h7xx_hal_rcc.c ****   CLEAR_BIT(RCC->CR, RCC_CR_PLL3ON);
 269              		.loc 1 301 3 is_stmt 1 view .LVU82
 270 0118 234A     		ldr	r2, .L33+4
ARM GAS  /tmp/ccooDZtA.s 			page 11


 271 011a 1368     		ldr	r3, [r2]
 272 011c 23F08053 		bic	r3, r3, #268435456
 273 0120 1360     		str	r3, [r2]
 302:../../Drivers/STM32H7xx_HAL_Driver/Src/stm32h7xx_hal_rcc.c **** 
 303:../../Drivers/STM32H7xx_HAL_Driver/Src/stm32h7xx_hal_rcc.c ****   /* Wait till PLL3 is disabled */
 304:../../Drivers/STM32H7xx_HAL_Driver/Src/stm32h7xx_hal_rcc.c ****   while (READ_BIT(RCC->CR, RCC_CR_PLL3RDY) != 0U)
 274              		.loc 1 304 3 view .LVU83
 275              	.LVL25:
 276              	.L14:
 277              		.loc 1 304 9 view .LVU84
 278              		.loc 1 304 10 is_stmt 0 view .LVU85
 279 0122 214B     		ldr	r3, .L33+4
 280 0124 1B68     		ldr	r3, [r3]
 281              		.loc 1 304 9 view .LVU86
 282 0126 13F0005F 		tst	r3, #536870912
 283 012a 06D0     		beq	.L32
 305:../../Drivers/STM32H7xx_HAL_Driver/Src/stm32h7xx_hal_rcc.c ****   {
 306:../../Drivers/STM32H7xx_HAL_Driver/Src/stm32h7xx_hal_rcc.c ****     if ((HAL_GetTick() - tickstart) > PLL_TIMEOUT_VALUE)
 284              		.loc 1 306 5 is_stmt 1 view .LVU87
 285              		.loc 1 306 10 is_stmt 0 view .LVU88
 286 012c FFF7FEFF 		bl	HAL_GetTick
 287              	.LVL26:
 288              		.loc 1 306 24 view .LVU89
 289 0130 401B     		subs	r0, r0, r5
 290              		.loc 1 306 8 view .LVU90
 291 0132 0228     		cmp	r0, #2
 292 0134 F5D9     		bls	.L14
 307:../../Drivers/STM32H7xx_HAL_Driver/Src/stm32h7xx_hal_rcc.c ****     {
 308:../../Drivers/STM32H7xx_HAL_Driver/Src/stm32h7xx_hal_rcc.c ****       return HAL_TIMEOUT;
 293              		.loc 1 308 14 view .LVU91
 294 0136 0324     		movs	r4, #3
 295 0138 31E0     		b	.L3
 296              	.L32:
 309:../../Drivers/STM32H7xx_HAL_Driver/Src/stm32h7xx_hal_rcc.c ****     }
 310:../../Drivers/STM32H7xx_HAL_Driver/Src/stm32h7xx_hal_rcc.c ****   }
 311:../../Drivers/STM32H7xx_HAL_Driver/Src/stm32h7xx_hal_rcc.c **** 
 312:../../Drivers/STM32H7xx_HAL_Driver/Src/stm32h7xx_hal_rcc.c **** #if defined(RCC_D1CFGR_HPRE)
 313:../../Drivers/STM32H7xx_HAL_Driver/Src/stm32h7xx_hal_rcc.c ****   /* Reset D1CFGR register */
 314:../../Drivers/STM32H7xx_HAL_Driver/Src/stm32h7xx_hal_rcc.c ****   CLEAR_REG(RCC->D1CFGR);
 297              		.loc 1 314 3 is_stmt 1 view .LVU92
 298 013a 1B4B     		ldr	r3, .L33+4
 299 013c 0022     		movs	r2, #0
 300 013e 9A61     		str	r2, [r3, #24]
 315:../../Drivers/STM32H7xx_HAL_Driver/Src/stm32h7xx_hal_rcc.c **** 
 316:../../Drivers/STM32H7xx_HAL_Driver/Src/stm32h7xx_hal_rcc.c ****   /* Reset D2CFGR register */
 317:../../Drivers/STM32H7xx_HAL_Driver/Src/stm32h7xx_hal_rcc.c ****   CLEAR_REG(RCC->D2CFGR);
 301              		.loc 1 317 3 view .LVU93
 302 0140 DA61     		str	r2, [r3, #28]
 318:../../Drivers/STM32H7xx_HAL_Driver/Src/stm32h7xx_hal_rcc.c **** 
 319:../../Drivers/STM32H7xx_HAL_Driver/Src/stm32h7xx_hal_rcc.c ****   /* Reset D3CFGR register */
 320:../../Drivers/STM32H7xx_HAL_Driver/Src/stm32h7xx_hal_rcc.c ****   CLEAR_REG(RCC->D3CFGR);
 303              		.loc 1 320 3 view .LVU94
 304 0142 1A62     		str	r2, [r3, #32]
 321:../../Drivers/STM32H7xx_HAL_Driver/Src/stm32h7xx_hal_rcc.c **** #else
 322:../../Drivers/STM32H7xx_HAL_Driver/Src/stm32h7xx_hal_rcc.c ****   /* Reset CDCFGR1 register */
 323:../../Drivers/STM32H7xx_HAL_Driver/Src/stm32h7xx_hal_rcc.c ****   CLEAR_REG(RCC->CDCFGR1);
 324:../../Drivers/STM32H7xx_HAL_Driver/Src/stm32h7xx_hal_rcc.c **** 
ARM GAS  /tmp/ccooDZtA.s 			page 12


 325:../../Drivers/STM32H7xx_HAL_Driver/Src/stm32h7xx_hal_rcc.c ****   /* Reset CDCFGR2 register */
 326:../../Drivers/STM32H7xx_HAL_Driver/Src/stm32h7xx_hal_rcc.c ****   CLEAR_REG(RCC->CDCFGR2);
 327:../../Drivers/STM32H7xx_HAL_Driver/Src/stm32h7xx_hal_rcc.c **** 
 328:../../Drivers/STM32H7xx_HAL_Driver/Src/stm32h7xx_hal_rcc.c ****   /* Reset SRDCFGR register */
 329:../../Drivers/STM32H7xx_HAL_Driver/Src/stm32h7xx_hal_rcc.c ****   CLEAR_REG(RCC->SRDCFGR);
 330:../../Drivers/STM32H7xx_HAL_Driver/Src/stm32h7xx_hal_rcc.c **** #endif
 331:../../Drivers/STM32H7xx_HAL_Driver/Src/stm32h7xx_hal_rcc.c **** 
 332:../../Drivers/STM32H7xx_HAL_Driver/Src/stm32h7xx_hal_rcc.c ****   /* Reset PLLCKSELR register to default value */
 333:../../Drivers/STM32H7xx_HAL_Driver/Src/stm32h7xx_hal_rcc.c ****   RCC->PLLCKSELR = RCC_PLLCKSELR_DIVM1_5 | RCC_PLLCKSELR_DIVM2_5 | RCC_PLLCKSELR_DIVM3_5;
 305              		.loc 1 333 3 view .LVU95
 306              		.loc 1 333 18 is_stmt 0 view .LVU96
 307 0144 1E49     		ldr	r1, .L33+28
 308 0146 9962     		str	r1, [r3, #40]
 334:../../Drivers/STM32H7xx_HAL_Driver/Src/stm32h7xx_hal_rcc.c **** 
 335:../../Drivers/STM32H7xx_HAL_Driver/Src/stm32h7xx_hal_rcc.c ****   /* Reset PLLCFGR register to default value */
 336:../../Drivers/STM32H7xx_HAL_Driver/Src/stm32h7xx_hal_rcc.c ****   WRITE_REG(RCC->PLLCFGR, 0x01FF0000U);
 309              		.loc 1 336 3 is_stmt 1 view .LVU97
 310 0148 1E49     		ldr	r1, .L33+32
 311 014a D962     		str	r1, [r3, #44]
 337:../../Drivers/STM32H7xx_HAL_Driver/Src/stm32h7xx_hal_rcc.c **** 
 338:../../Drivers/STM32H7xx_HAL_Driver/Src/stm32h7xx_hal_rcc.c ****   /* Reset PLL1DIVR register to default value */
 339:../../Drivers/STM32H7xx_HAL_Driver/Src/stm32h7xx_hal_rcc.c ****   WRITE_REG(RCC->PLL1DIVR, 0x01010280U);
 312              		.loc 1 339 3 view .LVU98
 313 014c 1E49     		ldr	r1, .L33+36
 314 014e 1963     		str	r1, [r3, #48]
 340:../../Drivers/STM32H7xx_HAL_Driver/Src/stm32h7xx_hal_rcc.c **** 
 341:../../Drivers/STM32H7xx_HAL_Driver/Src/stm32h7xx_hal_rcc.c ****   /* Reset PLL1FRACR register */
 342:../../Drivers/STM32H7xx_HAL_Driver/Src/stm32h7xx_hal_rcc.c ****   CLEAR_REG(RCC->PLL1FRACR);
 315              		.loc 1 342 3 view .LVU99
 316 0150 5A63     		str	r2, [r3, #52]
 343:../../Drivers/STM32H7xx_HAL_Driver/Src/stm32h7xx_hal_rcc.c **** 
 344:../../Drivers/STM32H7xx_HAL_Driver/Src/stm32h7xx_hal_rcc.c ****   /* Reset PLL2DIVR register to default value */
 345:../../Drivers/STM32H7xx_HAL_Driver/Src/stm32h7xx_hal_rcc.c ****   WRITE_REG(RCC->PLL2DIVR, 0x01010280U);
 317              		.loc 1 345 3 view .LVU100
 318 0152 9963     		str	r1, [r3, #56]
 346:../../Drivers/STM32H7xx_HAL_Driver/Src/stm32h7xx_hal_rcc.c **** 
 347:../../Drivers/STM32H7xx_HAL_Driver/Src/stm32h7xx_hal_rcc.c ****   /* Reset PLL2FRACR register */
 348:../../Drivers/STM32H7xx_HAL_Driver/Src/stm32h7xx_hal_rcc.c ****   CLEAR_REG(RCC->PLL2FRACR);
 319              		.loc 1 348 3 view .LVU101
 320 0154 DA63     		str	r2, [r3, #60]
 349:../../Drivers/STM32H7xx_HAL_Driver/Src/stm32h7xx_hal_rcc.c **** 
 350:../../Drivers/STM32H7xx_HAL_Driver/Src/stm32h7xx_hal_rcc.c ****   /* Reset PLL3DIVR register to default value */
 351:../../Drivers/STM32H7xx_HAL_Driver/Src/stm32h7xx_hal_rcc.c ****   WRITE_REG(RCC->PLL3DIVR, 0x01010280U);
 321              		.loc 1 351 3 view .LVU102
 322 0156 1964     		str	r1, [r3, #64]
 352:../../Drivers/STM32H7xx_HAL_Driver/Src/stm32h7xx_hal_rcc.c **** 
 353:../../Drivers/STM32H7xx_HAL_Driver/Src/stm32h7xx_hal_rcc.c ****   /* Reset PLL3FRACR register */
 354:../../Drivers/STM32H7xx_HAL_Driver/Src/stm32h7xx_hal_rcc.c ****   CLEAR_REG(RCC->PLL3FRACR);
 323              		.loc 1 354 3 view .LVU103
 324 0158 5A64     		str	r2, [r3, #68]
 355:../../Drivers/STM32H7xx_HAL_Driver/Src/stm32h7xx_hal_rcc.c **** 
 356:../../Drivers/STM32H7xx_HAL_Driver/Src/stm32h7xx_hal_rcc.c **** #if defined(RCC_CR_HSEEXT)
 357:../../Drivers/STM32H7xx_HAL_Driver/Src/stm32h7xx_hal_rcc.c ****   /* Reset HSEEXT  */
 358:../../Drivers/STM32H7xx_HAL_Driver/Src/stm32h7xx_hal_rcc.c ****   CLEAR_BIT(RCC->CR, RCC_CR_HSEEXT);
 359:../../Drivers/STM32H7xx_HAL_Driver/Src/stm32h7xx_hal_rcc.c **** #endif /* RCC_CR_HSEEXT */
 360:../../Drivers/STM32H7xx_HAL_Driver/Src/stm32h7xx_hal_rcc.c **** 
 361:../../Drivers/STM32H7xx_HAL_Driver/Src/stm32h7xx_hal_rcc.c ****   /* Reset HSEBYP bit */
ARM GAS  /tmp/ccooDZtA.s 			page 13


 362:../../Drivers/STM32H7xx_HAL_Driver/Src/stm32h7xx_hal_rcc.c ****   CLEAR_BIT(RCC->CR, RCC_CR_HSEBYP);
 325              		.loc 1 362 3 view .LVU104
 326 015a 1968     		ldr	r1, [r3]
 327 015c 21F48021 		bic	r1, r1, #262144
 328 0160 1960     		str	r1, [r3]
 363:../../Drivers/STM32H7xx_HAL_Driver/Src/stm32h7xx_hal_rcc.c **** 
 364:../../Drivers/STM32H7xx_HAL_Driver/Src/stm32h7xx_hal_rcc.c ****   /* Disable all interrupts */
 365:../../Drivers/STM32H7xx_HAL_Driver/Src/stm32h7xx_hal_rcc.c ****   CLEAR_REG(RCC->CIER);
 329              		.loc 1 365 3 view .LVU105
 330 0162 1A66     		str	r2, [r3, #96]
 366:../../Drivers/STM32H7xx_HAL_Driver/Src/stm32h7xx_hal_rcc.c **** 
 367:../../Drivers/STM32H7xx_HAL_Driver/Src/stm32h7xx_hal_rcc.c ****   /* Clear all interrupts flags */
 368:../../Drivers/STM32H7xx_HAL_Driver/Src/stm32h7xx_hal_rcc.c ****   WRITE_REG(RCC->CICR, 0xFFFFFFFFU);
 331              		.loc 1 368 3 view .LVU106
 332 0164 4FF0FF32 		mov	r2, #-1
 333 0168 9A66     		str	r2, [r3, #104]
 369:../../Drivers/STM32H7xx_HAL_Driver/Src/stm32h7xx_hal_rcc.c **** 
 370:../../Drivers/STM32H7xx_HAL_Driver/Src/stm32h7xx_hal_rcc.c ****   /* Reset all RSR flags */
 371:../../Drivers/STM32H7xx_HAL_Driver/Src/stm32h7xx_hal_rcc.c ****   SET_BIT(RCC->RSR, RCC_RSR_RMVF);
 334              		.loc 1 371 3 view .LVU107
 335 016a D3F8D020 		ldr	r2, [r3, #208]
 336 016e 42F48032 		orr	r2, r2, #65536
 337 0172 C3F8D020 		str	r2, [r3, #208]
 372:../../Drivers/STM32H7xx_HAL_Driver/Src/stm32h7xx_hal_rcc.c **** 
 373:../../Drivers/STM32H7xx_HAL_Driver/Src/stm32h7xx_hal_rcc.c ****   /* Decreasing the number of wait states because of lower CPU frequency */
 374:../../Drivers/STM32H7xx_HAL_Driver/Src/stm32h7xx_hal_rcc.c ****   if (FLASH_LATENCY_DEFAULT  < __HAL_FLASH_GET_LATENCY())
 338              		.loc 1 374 3 view .LVU108
 339              		.loc 1 374 32 is_stmt 0 view .LVU109
 340 0176 0B4B     		ldr	r3, .L33
 341 0178 1B68     		ldr	r3, [r3]
 342              		.loc 1 374 6 view .LVU110
 343 017a 13F0080F 		tst	r3, #8
 344 017e 0ED0     		beq	.L3
 375:../../Drivers/STM32H7xx_HAL_Driver/Src/stm32h7xx_hal_rcc.c ****   {
 376:../../Drivers/STM32H7xx_HAL_Driver/Src/stm32h7xx_hal_rcc.c ****     /* Program the new number of wait states to the LATENCY bits in the FLASH_ACR register */
 377:../../Drivers/STM32H7xx_HAL_Driver/Src/stm32h7xx_hal_rcc.c ****     __HAL_FLASH_SET_LATENCY(FLASH_LATENCY_DEFAULT);
 345              		.loc 1 377 5 is_stmt 1 view .LVU111
 346 0180 084A     		ldr	r2, .L33
 347 0182 1368     		ldr	r3, [r2]
 348 0184 23F00F03 		bic	r3, r3, #15
 349 0188 43F00703 		orr	r3, r3, #7
 350 018c 1360     		str	r3, [r2]
 378:../../Drivers/STM32H7xx_HAL_Driver/Src/stm32h7xx_hal_rcc.c **** 
 379:../../Drivers/STM32H7xx_HAL_Driver/Src/stm32h7xx_hal_rcc.c ****     /* Check that the new number of wait states is taken into account to access the Flash
 380:../../Drivers/STM32H7xx_HAL_Driver/Src/stm32h7xx_hal_rcc.c ****     memory by reading the FLASH_ACR register */
 381:../../Drivers/STM32H7xx_HAL_Driver/Src/stm32h7xx_hal_rcc.c ****     if (__HAL_FLASH_GET_LATENCY() != FLASH_LATENCY_DEFAULT)
 351              		.loc 1 381 5 view .LVU112
 352              		.loc 1 381 9 is_stmt 0 view .LVU113
 353 018e 1368     		ldr	r3, [r2]
 354 0190 03F00F03 		and	r3, r3, #15
 355              		.loc 1 381 8 view .LVU114
 356 0194 072B     		cmp	r3, #7
 357 0196 02D0     		beq	.L3
 382:../../Drivers/STM32H7xx_HAL_Driver/Src/stm32h7xx_hal_rcc.c ****     {
 383:../../Drivers/STM32H7xx_HAL_Driver/Src/stm32h7xx_hal_rcc.c ****       return HAL_ERROR;
 358              		.loc 1 383 14 view .LVU115
 359 0198 0124     		movs	r4, #1
ARM GAS  /tmp/ccooDZtA.s 			page 14


 360 019a 00E0     		b	.L3
 361              	.LVL27:
 362              	.L16:
 202:../../Drivers/STM32H7xx_HAL_Driver/Src/stm32h7xx_hal_rcc.c ****     }
 363              		.loc 1 202 14 view .LVU116
 364 019c 0124     		movs	r4, #1
 365              	.L3:
 384:../../Drivers/STM32H7xx_HAL_Driver/Src/stm32h7xx_hal_rcc.c ****     }
 385:../../Drivers/STM32H7xx_HAL_Driver/Src/stm32h7xx_hal_rcc.c **** 
 386:../../Drivers/STM32H7xx_HAL_Driver/Src/stm32h7xx_hal_rcc.c ****   }
 387:../../Drivers/STM32H7xx_HAL_Driver/Src/stm32h7xx_hal_rcc.c **** 
 388:../../Drivers/STM32H7xx_HAL_Driver/Src/stm32h7xx_hal_rcc.c ****   return HAL_OK;
 389:../../Drivers/STM32H7xx_HAL_Driver/Src/stm32h7xx_hal_rcc.c **** }
 366              		.loc 1 389 1 view .LVU117
 367 019e 2046     		mov	r0, r4
 368 01a0 38BD     		pop	{r3, r4, r5, pc}
 369              	.L34:
 370 01a2 00BF     		.align	2
 371              	.L33:
 372 01a4 00200052 		.word	1375739904
 373 01a8 00440258 		.word	1476543488
 374 01ac 0090D003 		.word	64000000
 375 01b0 00000000 		.word	SystemCoreClock
 376 01b4 00000000 		.word	SystemD2Clock
 377 01b8 00000000 		.word	uwTickPrio
 378 01bc 45EDF6FF 		.word	-594619
 379 01c0 00020202 		.word	33686016
 380 01c4 0000FF01 		.word	33488896
 381 01c8 80020101 		.word	16843392
 382              		.cfi_endproc
 383              	.LFE144:
 385              		.section	.text.HAL_RCC_OscConfig,"ax",%progbits
 386              		.align	1
 387              		.weak	HAL_RCC_OscConfig
 388              		.syntax unified
 389              		.thumb
 390              		.thumb_func
 391              		.fpu fpv5-d16
 393              	HAL_RCC_OscConfig:
 394              	.LVL28:
 395              	.LFB145:
 390:../../Drivers/STM32H7xx_HAL_Driver/Src/stm32h7xx_hal_rcc.c **** 
 391:../../Drivers/STM32H7xx_HAL_Driver/Src/stm32h7xx_hal_rcc.c **** /**
 392:../../Drivers/STM32H7xx_HAL_Driver/Src/stm32h7xx_hal_rcc.c ****   * @brief  Initializes the RCC Oscillators according to the specified parameters in the
 393:../../Drivers/STM32H7xx_HAL_Driver/Src/stm32h7xx_hal_rcc.c ****   *         RCC_OscInitTypeDef.
 394:../../Drivers/STM32H7xx_HAL_Driver/Src/stm32h7xx_hal_rcc.c ****   * @param  RCC_OscInitStruct: pointer to an RCC_OscInitTypeDef structure that
 395:../../Drivers/STM32H7xx_HAL_Driver/Src/stm32h7xx_hal_rcc.c ****   *         contains the configuration information for the RCC Oscillators.
 396:../../Drivers/STM32H7xx_HAL_Driver/Src/stm32h7xx_hal_rcc.c ****   * @note   The PLL is not disabled when used as system clock.
 397:../../Drivers/STM32H7xx_HAL_Driver/Src/stm32h7xx_hal_rcc.c ****   * @note   Transitions LSE Bypass to LSE On and LSE On to LSE Bypass are not
 398:../../Drivers/STM32H7xx_HAL_Driver/Src/stm32h7xx_hal_rcc.c ****   *         supported by this function. User should request a transition to LSE Off
 399:../../Drivers/STM32H7xx_HAL_Driver/Src/stm32h7xx_hal_rcc.c ****   *         first and then LSE On or LSE Bypass.
 400:../../Drivers/STM32H7xx_HAL_Driver/Src/stm32h7xx_hal_rcc.c ****   * @note   Transition HSE Bypass to HSE On and HSE On to HSE Bypass are not
 401:../../Drivers/STM32H7xx_HAL_Driver/Src/stm32h7xx_hal_rcc.c ****   *         supported by this function. User should request a transition to HSE Off
 402:../../Drivers/STM32H7xx_HAL_Driver/Src/stm32h7xx_hal_rcc.c ****   *         first and then HSE On or HSE Bypass.
 403:../../Drivers/STM32H7xx_HAL_Driver/Src/stm32h7xx_hal_rcc.c ****   * @retval HAL status
 404:../../Drivers/STM32H7xx_HAL_Driver/Src/stm32h7xx_hal_rcc.c ****   */
 405:../../Drivers/STM32H7xx_HAL_Driver/Src/stm32h7xx_hal_rcc.c **** __weak HAL_StatusTypeDef HAL_RCC_OscConfig(RCC_OscInitTypeDef  *RCC_OscInitStruct)
ARM GAS  /tmp/ccooDZtA.s 			page 15


 406:../../Drivers/STM32H7xx_HAL_Driver/Src/stm32h7xx_hal_rcc.c **** {
 396              		.loc 1 406 1 is_stmt 1 view -0
 397              		.cfi_startproc
 398              		@ args = 0, pretend = 0, frame = 0
 399              		@ frame_needed = 0, uses_anonymous_args = 0
 407:../../Drivers/STM32H7xx_HAL_Driver/Src/stm32h7xx_hal_rcc.c ****   uint32_t tickstart;
 400              		.loc 1 407 3 view .LVU119
 408:../../Drivers/STM32H7xx_HAL_Driver/Src/stm32h7xx_hal_rcc.c ****   uint32_t temp1_pllckcfg, temp2_pllckcfg;
 401              		.loc 1 408 3 view .LVU120
 409:../../Drivers/STM32H7xx_HAL_Driver/Src/stm32h7xx_hal_rcc.c **** 
 410:../../Drivers/STM32H7xx_HAL_Driver/Src/stm32h7xx_hal_rcc.c ****   /* Check Null pointer */
 411:../../Drivers/STM32H7xx_HAL_Driver/Src/stm32h7xx_hal_rcc.c ****   if (RCC_OscInitStruct == NULL)
 402              		.loc 1 411 3 view .LVU121
 403              		.loc 1 411 6 is_stmt 0 view .LVU122
 404 0000 0028     		cmp	r0, #0
 405 0002 00F03983 		beq	.L110
 406:../../Drivers/STM32H7xx_HAL_Driver/Src/stm32h7xx_hal_rcc.c ****   uint32_t tickstart;
 406              		.loc 1 406 1 view .LVU123
 407 0006 38B5     		push	{r3, r4, r5, lr}
 408              	.LCFI1:
 409              		.cfi_def_cfa_offset 16
 410              		.cfi_offset 3, -16
 411              		.cfi_offset 4, -12
 412              		.cfi_offset 5, -8
 413              		.cfi_offset 14, -4
 414 0008 0446     		mov	r4, r0
 412:../../Drivers/STM32H7xx_HAL_Driver/Src/stm32h7xx_hal_rcc.c ****   {
 413:../../Drivers/STM32H7xx_HAL_Driver/Src/stm32h7xx_hal_rcc.c ****     return HAL_ERROR;
 414:../../Drivers/STM32H7xx_HAL_Driver/Src/stm32h7xx_hal_rcc.c ****   }
 415:../../Drivers/STM32H7xx_HAL_Driver/Src/stm32h7xx_hal_rcc.c **** 
 416:../../Drivers/STM32H7xx_HAL_Driver/Src/stm32h7xx_hal_rcc.c ****   /* Check the parameters */
 417:../../Drivers/STM32H7xx_HAL_Driver/Src/stm32h7xx_hal_rcc.c ****   assert_param(IS_RCC_OSCILLATORTYPE(RCC_OscInitStruct->OscillatorType));
 415              		.loc 1 417 3 is_stmt 1 view .LVU124
 418:../../Drivers/STM32H7xx_HAL_Driver/Src/stm32h7xx_hal_rcc.c ****   /*------------------------------- HSE Configuration ------------------------*/
 419:../../Drivers/STM32H7xx_HAL_Driver/Src/stm32h7xx_hal_rcc.c ****   if (((RCC_OscInitStruct->OscillatorType) & RCC_OSCILLATORTYPE_HSE) == RCC_OSCILLATORTYPE_HSE)
 416              		.loc 1 419 3 view .LVU125
 417              		.loc 1 419 26 is_stmt 0 view .LVU126
 418 000a 0368     		ldr	r3, [r0]
 419              		.loc 1 419 6 view .LVU127
 420 000c 13F0010F 		tst	r3, #1
 421 0010 25D0     		beq	.L37
 422              	.LBB2:
 420:../../Drivers/STM32H7xx_HAL_Driver/Src/stm32h7xx_hal_rcc.c ****   {
 421:../../Drivers/STM32H7xx_HAL_Driver/Src/stm32h7xx_hal_rcc.c ****     /* Check the parameters */
 422:../../Drivers/STM32H7xx_HAL_Driver/Src/stm32h7xx_hal_rcc.c ****     assert_param(IS_RCC_HSE(RCC_OscInitStruct->HSEState));
 423              		.loc 1 422 5 is_stmt 1 view .LVU128
 423:../../Drivers/STM32H7xx_HAL_Driver/Src/stm32h7xx_hal_rcc.c **** 
 424:../../Drivers/STM32H7xx_HAL_Driver/Src/stm32h7xx_hal_rcc.c ****     const uint32_t temp_sysclksrc = __HAL_RCC_GET_SYSCLK_SOURCE();
 424              		.loc 1 424 5 view .LVU129
 425              		.loc 1 424 37 is_stmt 0 view .LVU130
 426 0012 944A     		ldr	r2, .L166
 427 0014 1369     		ldr	r3, [r2, #16]
 428              		.loc 1 424 20 view .LVU131
 429 0016 03F03803 		and	r3, r3, #56
 430              	.LVL29:
 425:../../Drivers/STM32H7xx_HAL_Driver/Src/stm32h7xx_hal_rcc.c ****     const uint32_t temp_pllckselr = RCC->PLLCKSELR;
 431              		.loc 1 425 5 is_stmt 1 view .LVU132
ARM GAS  /tmp/ccooDZtA.s 			page 16


 432              		.loc 1 425 20 is_stmt 0 view .LVU133
 433 001a 926A     		ldr	r2, [r2, #40]
 434              	.LVL30:
 426:../../Drivers/STM32H7xx_HAL_Driver/Src/stm32h7xx_hal_rcc.c ****     /* When the HSE is used as system clock or clock source for PLL in these cases HSE will not dis
 427:../../Drivers/STM32H7xx_HAL_Driver/Src/stm32h7xx_hal_rcc.c ****     if ((temp_sysclksrc == RCC_CFGR_SWS_HSE) || ((temp_sysclksrc == RCC_CFGR_SWS_PLL1) && ((temp_pl
 435              		.loc 1 427 5 is_stmt 1 view .LVU134
 436              		.loc 1 427 8 is_stmt 0 view .LVU135
 437 001c 102B     		cmp	r3, #16
 438 001e 15D0     		beq	.L38
 439              		.loc 1 427 46 discriminator 1 view .LVU136
 440 0020 182B     		cmp	r3, #24
 441 0022 0FD0     		beq	.L144
 442              	.LVL31:
 443              	.L39:
 428:../../Drivers/STM32H7xx_HAL_Driver/Src/stm32h7xx_hal_rcc.c ****     {
 429:../../Drivers/STM32H7xx_HAL_Driver/Src/stm32h7xx_hal_rcc.c ****       if ((__HAL_RCC_GET_FLAG(RCC_FLAG_HSERDY) != 0U) && (RCC_OscInitStruct->HSEState == RCC_HSE_OF
 430:../../Drivers/STM32H7xx_HAL_Driver/Src/stm32h7xx_hal_rcc.c ****       {
 431:../../Drivers/STM32H7xx_HAL_Driver/Src/stm32h7xx_hal_rcc.c ****         return HAL_ERROR;
 432:../../Drivers/STM32H7xx_HAL_Driver/Src/stm32h7xx_hal_rcc.c ****       }
 433:../../Drivers/STM32H7xx_HAL_Driver/Src/stm32h7xx_hal_rcc.c ****     }
 434:../../Drivers/STM32H7xx_HAL_Driver/Src/stm32h7xx_hal_rcc.c ****     else
 435:../../Drivers/STM32H7xx_HAL_Driver/Src/stm32h7xx_hal_rcc.c ****     {
 436:../../Drivers/STM32H7xx_HAL_Driver/Src/stm32h7xx_hal_rcc.c ****       /* Set the new HSE configuration ---------------------------------------*/
 437:../../Drivers/STM32H7xx_HAL_Driver/Src/stm32h7xx_hal_rcc.c ****       __HAL_RCC_HSE_CONFIG(RCC_OscInitStruct->HSEState);
 444              		.loc 1 437 7 is_stmt 1 view .LVU137
 445              		.loc 1 437 7 view .LVU138
 446 0024 6368     		ldr	r3, [r4, #4]
 447              	.LVL32:
 448              		.loc 1 437 7 is_stmt 0 view .LVU139
 449 0026 B3F5803F 		cmp	r3, #65536
 450 002a 3FD0     		beq	.L145
 451              		.loc 1 437 7 is_stmt 1 discriminator 2 view .LVU140
 452 002c 002B     		cmp	r3, #0
 453 002e 53D1     		bne	.L42
 454              		.loc 1 437 7 discriminator 4 view .LVU141
 455 0030 8C4B     		ldr	r3, .L166
 456 0032 1A68     		ldr	r2, [r3]
 457 0034 22F48032 		bic	r2, r2, #65536
 458 0038 1A60     		str	r2, [r3]
 459              		.loc 1 437 7 discriminator 4 view .LVU142
 460 003a 1A68     		ldr	r2, [r3]
 461 003c 22F48022 		bic	r2, r2, #262144
 462 0040 1A60     		str	r2, [r3]
 463 0042 38E0     		b	.L41
 464              	.LVL33:
 465              	.L144:
 427:../../Drivers/STM32H7xx_HAL_Driver/Src/stm32h7xx_hal_rcc.c ****     {
 466              		.loc 1 427 108 is_stmt 0 discriminator 2 view .LVU143
 467 0044 02F00302 		and	r2, r2, #3
 468              	.LVL34:
 427:../../Drivers/STM32H7xx_HAL_Driver/Src/stm32h7xx_hal_rcc.c ****     {
 469              		.loc 1 427 88 discriminator 2 view .LVU144
 470 0048 022A     		cmp	r2, #2
 471 004a EBD1     		bne	.L39
 472              	.L38:
 429:../../Drivers/STM32H7xx_HAL_Driver/Src/stm32h7xx_hal_rcc.c ****       {
 473              		.loc 1 429 7 is_stmt 1 view .LVU145
ARM GAS  /tmp/ccooDZtA.s 			page 17


 429:../../Drivers/STM32H7xx_HAL_Driver/Src/stm32h7xx_hal_rcc.c ****       {
 474              		.loc 1 429 12 is_stmt 0 view .LVU146
 475 004c 854B     		ldr	r3, .L166
 476              	.LVL35:
 429:../../Drivers/STM32H7xx_HAL_Driver/Src/stm32h7xx_hal_rcc.c ****       {
 477              		.loc 1 429 12 view .LVU147
 478 004e 1B68     		ldr	r3, [r3]
 429:../../Drivers/STM32H7xx_HAL_Driver/Src/stm32h7xx_hal_rcc.c ****       {
 479              		.loc 1 429 10 view .LVU148
 480 0050 13F4003F 		tst	r3, #131072
 481 0054 03D0     		beq	.L37
 429:../../Drivers/STM32H7xx_HAL_Driver/Src/stm32h7xx_hal_rcc.c ****       {
 482              		.loc 1 429 76 discriminator 1 view .LVU149
 483 0056 6368     		ldr	r3, [r4, #4]
 429:../../Drivers/STM32H7xx_HAL_Driver/Src/stm32h7xx_hal_rcc.c ****       {
 484              		.loc 1 429 55 discriminator 1 view .LVU150
 485 0058 002B     		cmp	r3, #0
 486 005a 00F00F83 		beq	.L146
 487              	.LVL36:
 488              	.L37:
 429:../../Drivers/STM32H7xx_HAL_Driver/Src/stm32h7xx_hal_rcc.c ****       {
 489              		.loc 1 429 55 discriminator 1 view .LVU151
 490              	.LBE2:
 438:../../Drivers/STM32H7xx_HAL_Driver/Src/stm32h7xx_hal_rcc.c **** 
 439:../../Drivers/STM32H7xx_HAL_Driver/Src/stm32h7xx_hal_rcc.c ****       /* Check the HSE State */
 440:../../Drivers/STM32H7xx_HAL_Driver/Src/stm32h7xx_hal_rcc.c ****       if (RCC_OscInitStruct->HSEState != RCC_HSE_OFF)
 441:../../Drivers/STM32H7xx_HAL_Driver/Src/stm32h7xx_hal_rcc.c ****       {
 442:../../Drivers/STM32H7xx_HAL_Driver/Src/stm32h7xx_hal_rcc.c ****         /* Get Start Tick*/
 443:../../Drivers/STM32H7xx_HAL_Driver/Src/stm32h7xx_hal_rcc.c ****         tickstart = HAL_GetTick();
 444:../../Drivers/STM32H7xx_HAL_Driver/Src/stm32h7xx_hal_rcc.c **** 
 445:../../Drivers/STM32H7xx_HAL_Driver/Src/stm32h7xx_hal_rcc.c ****         /* Wait till HSE is ready */
 446:../../Drivers/STM32H7xx_HAL_Driver/Src/stm32h7xx_hal_rcc.c ****         while (__HAL_RCC_GET_FLAG(RCC_FLAG_HSERDY) == 0U)
 447:../../Drivers/STM32H7xx_HAL_Driver/Src/stm32h7xx_hal_rcc.c ****         {
 448:../../Drivers/STM32H7xx_HAL_Driver/Src/stm32h7xx_hal_rcc.c ****           if ((uint32_t)(HAL_GetTick() - tickstart) > HSE_TIMEOUT_VALUE)
 449:../../Drivers/STM32H7xx_HAL_Driver/Src/stm32h7xx_hal_rcc.c ****           {
 450:../../Drivers/STM32H7xx_HAL_Driver/Src/stm32h7xx_hal_rcc.c ****             return HAL_TIMEOUT;
 451:../../Drivers/STM32H7xx_HAL_Driver/Src/stm32h7xx_hal_rcc.c ****           }
 452:../../Drivers/STM32H7xx_HAL_Driver/Src/stm32h7xx_hal_rcc.c ****         }
 453:../../Drivers/STM32H7xx_HAL_Driver/Src/stm32h7xx_hal_rcc.c ****       }
 454:../../Drivers/STM32H7xx_HAL_Driver/Src/stm32h7xx_hal_rcc.c ****       else
 455:../../Drivers/STM32H7xx_HAL_Driver/Src/stm32h7xx_hal_rcc.c ****       {
 456:../../Drivers/STM32H7xx_HAL_Driver/Src/stm32h7xx_hal_rcc.c ****         /* Get Start Tick*/
 457:../../Drivers/STM32H7xx_HAL_Driver/Src/stm32h7xx_hal_rcc.c ****         tickstart = HAL_GetTick();
 458:../../Drivers/STM32H7xx_HAL_Driver/Src/stm32h7xx_hal_rcc.c **** 
 459:../../Drivers/STM32H7xx_HAL_Driver/Src/stm32h7xx_hal_rcc.c ****         /* Wait till HSE is disabled */
 460:../../Drivers/STM32H7xx_HAL_Driver/Src/stm32h7xx_hal_rcc.c ****         while (__HAL_RCC_GET_FLAG(RCC_FLAG_HSERDY) != 0U)
 461:../../Drivers/STM32H7xx_HAL_Driver/Src/stm32h7xx_hal_rcc.c ****         {
 462:../../Drivers/STM32H7xx_HAL_Driver/Src/stm32h7xx_hal_rcc.c ****           if ((uint32_t)(HAL_GetTick() - tickstart) > HSE_TIMEOUT_VALUE)
 463:../../Drivers/STM32H7xx_HAL_Driver/Src/stm32h7xx_hal_rcc.c ****           {
 464:../../Drivers/STM32H7xx_HAL_Driver/Src/stm32h7xx_hal_rcc.c ****             return HAL_TIMEOUT;
 465:../../Drivers/STM32H7xx_HAL_Driver/Src/stm32h7xx_hal_rcc.c ****           }
 466:../../Drivers/STM32H7xx_HAL_Driver/Src/stm32h7xx_hal_rcc.c ****         }
 467:../../Drivers/STM32H7xx_HAL_Driver/Src/stm32h7xx_hal_rcc.c ****       }
 468:../../Drivers/STM32H7xx_HAL_Driver/Src/stm32h7xx_hal_rcc.c ****     }
 469:../../Drivers/STM32H7xx_HAL_Driver/Src/stm32h7xx_hal_rcc.c ****   }
 470:../../Drivers/STM32H7xx_HAL_Driver/Src/stm32h7xx_hal_rcc.c ****   /*----------------------------- HSI Configuration --------------------------*/
 471:../../Drivers/STM32H7xx_HAL_Driver/Src/stm32h7xx_hal_rcc.c ****   if (((RCC_OscInitStruct->OscillatorType) & RCC_OSCILLATORTYPE_HSI) == RCC_OSCILLATORTYPE_HSI)
ARM GAS  /tmp/ccooDZtA.s 			page 18


 491              		.loc 1 471 3 is_stmt 1 view .LVU152
 492              		.loc 1 471 26 is_stmt 0 view .LVU153
 493 005e 2368     		ldr	r3, [r4]
 494              		.loc 1 471 6 view .LVU154
 495 0060 13F0020F 		tst	r3, #2
 496 0064 00F0A180 		beq	.L49
 497              	.LBB3:
 472:../../Drivers/STM32H7xx_HAL_Driver/Src/stm32h7xx_hal_rcc.c ****   {
 473:../../Drivers/STM32H7xx_HAL_Driver/Src/stm32h7xx_hal_rcc.c ****     /* Check the parameters */
 474:../../Drivers/STM32H7xx_HAL_Driver/Src/stm32h7xx_hal_rcc.c ****     assert_param(IS_RCC_HSI(RCC_OscInitStruct->HSIState));
 498              		.loc 1 474 5 is_stmt 1 view .LVU155
 475:../../Drivers/STM32H7xx_HAL_Driver/Src/stm32h7xx_hal_rcc.c ****     assert_param(IS_RCC_HSICALIBRATION_VALUE(RCC_OscInitStruct->HSICalibrationValue));
 499              		.loc 1 475 5 view .LVU156
 476:../../Drivers/STM32H7xx_HAL_Driver/Src/stm32h7xx_hal_rcc.c **** 
 477:../../Drivers/STM32H7xx_HAL_Driver/Src/stm32h7xx_hal_rcc.c ****     /* When the HSI is used as system clock it will not be disabled */
 478:../../Drivers/STM32H7xx_HAL_Driver/Src/stm32h7xx_hal_rcc.c ****     const uint32_t temp_sysclksrc = __HAL_RCC_GET_SYSCLK_SOURCE();
 500              		.loc 1 478 5 view .LVU157
 501              		.loc 1 478 37 is_stmt 0 view .LVU158
 502 0068 7E4A     		ldr	r2, .L166
 503 006a 1369     		ldr	r3, [r2, #16]
 504              	.LVL37:
 479:../../Drivers/STM32H7xx_HAL_Driver/Src/stm32h7xx_hal_rcc.c ****     const uint32_t temp_pllckselr = RCC->PLLCKSELR;
 505              		.loc 1 479 5 is_stmt 1 view .LVU159
 506              		.loc 1 479 20 is_stmt 0 view .LVU160
 507 006c 926A     		ldr	r2, [r2, #40]
 508              	.LVL38:
 480:../../Drivers/STM32H7xx_HAL_Driver/Src/stm32h7xx_hal_rcc.c ****     if ((temp_sysclksrc == RCC_CFGR_SWS_HSI) || ((temp_sysclksrc == RCC_CFGR_SWS_PLL1) && ((temp_pl
 509              		.loc 1 480 5 is_stmt 1 view .LVU161
 510              		.loc 1 480 8 is_stmt 0 view .LVU162
 511 006e 13F03803 		ands	r3, r3, #56
 512              	.LVL39:
 513              		.loc 1 480 8 view .LVU163
 514 0072 5AD0     		beq	.L50
 515              		.loc 1 480 46 discriminator 1 view .LVU164
 516 0074 182B     		cmp	r3, #24
 517 0076 55D0     		beq	.L147
 518              	.L51:
 481:../../Drivers/STM32H7xx_HAL_Driver/Src/stm32h7xx_hal_rcc.c ****     {
 482:../../Drivers/STM32H7xx_HAL_Driver/Src/stm32h7xx_hal_rcc.c ****       /* When HSI is used as system clock it will not be disabled */
 483:../../Drivers/STM32H7xx_HAL_Driver/Src/stm32h7xx_hal_rcc.c ****       if ((__HAL_RCC_GET_FLAG(RCC_FLAG_HSIRDY) != 0U) && (RCC_OscInitStruct->HSIState == RCC_HSI_OF
 484:../../Drivers/STM32H7xx_HAL_Driver/Src/stm32h7xx_hal_rcc.c ****       {
 485:../../Drivers/STM32H7xx_HAL_Driver/Src/stm32h7xx_hal_rcc.c ****         return HAL_ERROR;
 486:../../Drivers/STM32H7xx_HAL_Driver/Src/stm32h7xx_hal_rcc.c ****       }
 487:../../Drivers/STM32H7xx_HAL_Driver/Src/stm32h7xx_hal_rcc.c ****       /* Otherwise, only HSI division and calibration are allowed */
 488:../../Drivers/STM32H7xx_HAL_Driver/Src/stm32h7xx_hal_rcc.c ****       else
 489:../../Drivers/STM32H7xx_HAL_Driver/Src/stm32h7xx_hal_rcc.c ****       {
 490:../../Drivers/STM32H7xx_HAL_Driver/Src/stm32h7xx_hal_rcc.c ****         /* Enable the Internal High Speed oscillator (HSI, HSIDIV2, HSIDIV4, or HSIDIV8) */
 491:../../Drivers/STM32H7xx_HAL_Driver/Src/stm32h7xx_hal_rcc.c ****         __HAL_RCC_HSI_CONFIG(RCC_OscInitStruct->HSIState);
 492:../../Drivers/STM32H7xx_HAL_Driver/Src/stm32h7xx_hal_rcc.c **** 
 493:../../Drivers/STM32H7xx_HAL_Driver/Src/stm32h7xx_hal_rcc.c ****         /* Get Start Tick*/
 494:../../Drivers/STM32H7xx_HAL_Driver/Src/stm32h7xx_hal_rcc.c ****         tickstart = HAL_GetTick();
 495:../../Drivers/STM32H7xx_HAL_Driver/Src/stm32h7xx_hal_rcc.c **** 
 496:../../Drivers/STM32H7xx_HAL_Driver/Src/stm32h7xx_hal_rcc.c ****         /* Wait till HSI is ready */
 497:../../Drivers/STM32H7xx_HAL_Driver/Src/stm32h7xx_hal_rcc.c ****         while (__HAL_RCC_GET_FLAG(RCC_FLAG_HSIRDY) == 0U)
 498:../../Drivers/STM32H7xx_HAL_Driver/Src/stm32h7xx_hal_rcc.c ****         {
 499:../../Drivers/STM32H7xx_HAL_Driver/Src/stm32h7xx_hal_rcc.c ****           if ((uint32_t)(HAL_GetTick() - tickstart) > HSI_TIMEOUT_VALUE)
 500:../../Drivers/STM32H7xx_HAL_Driver/Src/stm32h7xx_hal_rcc.c ****           {
ARM GAS  /tmp/ccooDZtA.s 			page 19


 501:../../Drivers/STM32H7xx_HAL_Driver/Src/stm32h7xx_hal_rcc.c ****             return HAL_TIMEOUT;
 502:../../Drivers/STM32H7xx_HAL_Driver/Src/stm32h7xx_hal_rcc.c ****           }
 503:../../Drivers/STM32H7xx_HAL_Driver/Src/stm32h7xx_hal_rcc.c ****         }
 504:../../Drivers/STM32H7xx_HAL_Driver/Src/stm32h7xx_hal_rcc.c ****         /* Adjusts the Internal High Speed oscillator (HSI) calibration value.*/
 505:../../Drivers/STM32H7xx_HAL_Driver/Src/stm32h7xx_hal_rcc.c ****         __HAL_RCC_HSI_CALIBRATIONVALUE_ADJUST(RCC_OscInitStruct->HSICalibrationValue);
 506:../../Drivers/STM32H7xx_HAL_Driver/Src/stm32h7xx_hal_rcc.c ****       }
 507:../../Drivers/STM32H7xx_HAL_Driver/Src/stm32h7xx_hal_rcc.c ****     }
 508:../../Drivers/STM32H7xx_HAL_Driver/Src/stm32h7xx_hal_rcc.c **** 
 509:../../Drivers/STM32H7xx_HAL_Driver/Src/stm32h7xx_hal_rcc.c ****     else
 510:../../Drivers/STM32H7xx_HAL_Driver/Src/stm32h7xx_hal_rcc.c ****     {
 511:../../Drivers/STM32H7xx_HAL_Driver/Src/stm32h7xx_hal_rcc.c ****       /* Check the HSI State */
 512:../../Drivers/STM32H7xx_HAL_Driver/Src/stm32h7xx_hal_rcc.c ****       if ((RCC_OscInitStruct->HSIState) != RCC_HSI_OFF)
 519              		.loc 1 512 7 is_stmt 1 view .LVU165
 520              		.loc 1 512 29 is_stmt 0 view .LVU166
 521 0078 E368     		ldr	r3, [r4, #12]
 522              	.LVL40:
 523              		.loc 1 512 10 view .LVU167
 524 007a 002B     		cmp	r3, #0
 525 007c 00F0DE80 		beq	.L57
 513:../../Drivers/STM32H7xx_HAL_Driver/Src/stm32h7xx_hal_rcc.c ****       {
 514:../../Drivers/STM32H7xx_HAL_Driver/Src/stm32h7xx_hal_rcc.c ****         /* Enable the Internal High Speed oscillator (HSI, HSIDIV2,HSIDIV4, or HSIDIV8) */
 515:../../Drivers/STM32H7xx_HAL_Driver/Src/stm32h7xx_hal_rcc.c ****         __HAL_RCC_HSI_CONFIG(RCC_OscInitStruct->HSIState);
 526              		.loc 1 515 9 is_stmt 1 view .LVU168
 527 0080 7849     		ldr	r1, .L166
 528 0082 0A68     		ldr	r2, [r1]
 529              	.LVL41:
 530              		.loc 1 515 9 is_stmt 0 view .LVU169
 531 0084 22F01902 		bic	r2, r2, #25
 532 0088 1343     		orrs	r3, r3, r2
 533 008a 0B60     		str	r3, [r1]
 516:../../Drivers/STM32H7xx_HAL_Driver/Src/stm32h7xx_hal_rcc.c **** 
 517:../../Drivers/STM32H7xx_HAL_Driver/Src/stm32h7xx_hal_rcc.c ****         /* Get Start Tick*/
 518:../../Drivers/STM32H7xx_HAL_Driver/Src/stm32h7xx_hal_rcc.c ****         tickstart = HAL_GetTick();
 534              		.loc 1 518 9 is_stmt 1 view .LVU170
 535              		.loc 1 518 21 is_stmt 0 view .LVU171
 536 008c FFF7FEFF 		bl	HAL_GetTick
 537              	.LVL42:
 538 0090 0546     		mov	r5, r0
 539              	.LVL43:
 519:../../Drivers/STM32H7xx_HAL_Driver/Src/stm32h7xx_hal_rcc.c **** 
 520:../../Drivers/STM32H7xx_HAL_Driver/Src/stm32h7xx_hal_rcc.c ****         /* Wait till HSI is ready */
 521:../../Drivers/STM32H7xx_HAL_Driver/Src/stm32h7xx_hal_rcc.c ****         while (__HAL_RCC_GET_FLAG(RCC_FLAG_HSIRDY) == 0U)
 540              		.loc 1 521 9 is_stmt 1 view .LVU172
 541              	.L58:
 542              		.loc 1 521 15 view .LVU173
 543              		.loc 1 521 16 is_stmt 0 view .LVU174
 544 0092 744B     		ldr	r3, .L166
 545 0094 1B68     		ldr	r3, [r3]
 546              		.loc 1 521 15 view .LVU175
 547 0096 13F0040F 		tst	r3, #4
 548 009a 40F0AD80 		bne	.L148
 522:../../Drivers/STM32H7xx_HAL_Driver/Src/stm32h7xx_hal_rcc.c ****         {
 523:../../Drivers/STM32H7xx_HAL_Driver/Src/stm32h7xx_hal_rcc.c ****           if ((HAL_GetTick() - tickstart) > HSI_TIMEOUT_VALUE)
 549              		.loc 1 523 11 is_stmt 1 view .LVU176
 550              		.loc 1 523 16 is_stmt 0 view .LVU177
 551 009e FFF7FEFF 		bl	HAL_GetTick
 552              	.LVL44:
ARM GAS  /tmp/ccooDZtA.s 			page 20


 553              		.loc 1 523 30 view .LVU178
 554 00a2 401B     		subs	r0, r0, r5
 555              		.loc 1 523 14 view .LVU179
 556 00a4 0228     		cmp	r0, #2
 557 00a6 F4D9     		bls	.L58
 524:../../Drivers/STM32H7xx_HAL_Driver/Src/stm32h7xx_hal_rcc.c ****           {
 525:../../Drivers/STM32H7xx_HAL_Driver/Src/stm32h7xx_hal_rcc.c ****             return HAL_TIMEOUT;
 558              		.loc 1 525 20 view .LVU180
 559 00a8 0320     		movs	r0, #3
 560 00aa EEE2     		b	.L36
 561              	.LVL45:
 562              	.L145:
 563              		.loc 1 525 20 view .LVU181
 564              	.LBE3:
 565              	.LBB4:
 437:../../Drivers/STM32H7xx_HAL_Driver/Src/stm32h7xx_hal_rcc.c **** 
 566              		.loc 1 437 7 is_stmt 1 discriminator 1 view .LVU182
 567 00ac 6D4A     		ldr	r2, .L166
 568 00ae 1368     		ldr	r3, [r2]
 569 00b0 43F48033 		orr	r3, r3, #65536
 570 00b4 1360     		str	r3, [r2]
 571              	.L41:
 437:../../Drivers/STM32H7xx_HAL_Driver/Src/stm32h7xx_hal_rcc.c **** 
 572              		.loc 1 437 7 discriminator 10 view .LVU183
 440:../../Drivers/STM32H7xx_HAL_Driver/Src/stm32h7xx_hal_rcc.c ****       {
 573              		.loc 1 440 7 discriminator 10 view .LVU184
 440:../../Drivers/STM32H7xx_HAL_Driver/Src/stm32h7xx_hal_rcc.c ****       {
 574              		.loc 1 440 28 is_stmt 0 discriminator 10 view .LVU185
 575 00b6 6368     		ldr	r3, [r4, #4]
 440:../../Drivers/STM32H7xx_HAL_Driver/Src/stm32h7xx_hal_rcc.c ****       {
 576              		.loc 1 440 10 discriminator 10 view .LVU186
 577 00b8 2BB3     		cbz	r3, .L44
 443:../../Drivers/STM32H7xx_HAL_Driver/Src/stm32h7xx_hal_rcc.c **** 
 578              		.loc 1 443 9 is_stmt 1 view .LVU187
 443:../../Drivers/STM32H7xx_HAL_Driver/Src/stm32h7xx_hal_rcc.c **** 
 579              		.loc 1 443 21 is_stmt 0 view .LVU188
 580 00ba FFF7FEFF 		bl	HAL_GetTick
 581              	.LVL46:
 443:../../Drivers/STM32H7xx_HAL_Driver/Src/stm32h7xx_hal_rcc.c **** 
 582              		.loc 1 443 21 view .LVU189
 583 00be 0546     		mov	r5, r0
 584              	.LVL47:
 446:../../Drivers/STM32H7xx_HAL_Driver/Src/stm32h7xx_hal_rcc.c ****         {
 585              		.loc 1 446 9 is_stmt 1 view .LVU190
 586              	.L45:
 446:../../Drivers/STM32H7xx_HAL_Driver/Src/stm32h7xx_hal_rcc.c ****         {
 587              		.loc 1 446 15 view .LVU191
 446:../../Drivers/STM32H7xx_HAL_Driver/Src/stm32h7xx_hal_rcc.c ****         {
 588              		.loc 1 446 16 is_stmt 0 view .LVU192
 589 00c0 684B     		ldr	r3, .L166
 590 00c2 1B68     		ldr	r3, [r3]
 446:../../Drivers/STM32H7xx_HAL_Driver/Src/stm32h7xx_hal_rcc.c ****         {
 591              		.loc 1 446 15 view .LVU193
 592 00c4 13F4003F 		tst	r3, #131072
 593 00c8 C9D1     		bne	.L37
 448:../../Drivers/STM32H7xx_HAL_Driver/Src/stm32h7xx_hal_rcc.c ****           {
 594              		.loc 1 448 11 is_stmt 1 view .LVU194
ARM GAS  /tmp/ccooDZtA.s 			page 21


 448:../../Drivers/STM32H7xx_HAL_Driver/Src/stm32h7xx_hal_rcc.c ****           {
 595              		.loc 1 448 26 is_stmt 0 view .LVU195
 596 00ca FFF7FEFF 		bl	HAL_GetTick
 597              	.LVL48:
 448:../../Drivers/STM32H7xx_HAL_Driver/Src/stm32h7xx_hal_rcc.c ****           {
 598              		.loc 1 448 40 view .LVU196
 599 00ce 401B     		subs	r0, r0, r5
 448:../../Drivers/STM32H7xx_HAL_Driver/Src/stm32h7xx_hal_rcc.c ****           {
 600              		.loc 1 448 14 view .LVU197
 601 00d0 6428     		cmp	r0, #100
 602 00d2 F5D9     		bls	.L45
 450:../../Drivers/STM32H7xx_HAL_Driver/Src/stm32h7xx_hal_rcc.c ****           }
 603              		.loc 1 450 20 view .LVU198
 604 00d4 0320     		movs	r0, #3
 605 00d6 D8E2     		b	.L36
 606              	.LVL49:
 607              	.L42:
 437:../../Drivers/STM32H7xx_HAL_Driver/Src/stm32h7xx_hal_rcc.c **** 
 608              		.loc 1 437 7 is_stmt 1 discriminator 5 view .LVU199
 609 00d8 B3F5A02F 		cmp	r3, #327680
 610 00dc 09D0     		beq	.L149
 437:../../Drivers/STM32H7xx_HAL_Driver/Src/stm32h7xx_hal_rcc.c **** 
 611              		.loc 1 437 7 discriminator 8 view .LVU200
 612 00de 614B     		ldr	r3, .L166
 613 00e0 1A68     		ldr	r2, [r3]
 614 00e2 22F48032 		bic	r2, r2, #65536
 615 00e6 1A60     		str	r2, [r3]
 437:../../Drivers/STM32H7xx_HAL_Driver/Src/stm32h7xx_hal_rcc.c **** 
 616              		.loc 1 437 7 discriminator 8 view .LVU201
 617 00e8 1A68     		ldr	r2, [r3]
 618 00ea 22F48022 		bic	r2, r2, #262144
 619 00ee 1A60     		str	r2, [r3]
 620 00f0 E1E7     		b	.L41
 621              	.L149:
 437:../../Drivers/STM32H7xx_HAL_Driver/Src/stm32h7xx_hal_rcc.c **** 
 622              		.loc 1 437 7 discriminator 7 view .LVU202
 623 00f2 5C4B     		ldr	r3, .L166
 624 00f4 1A68     		ldr	r2, [r3]
 625 00f6 42F48022 		orr	r2, r2, #262144
 626 00fa 1A60     		str	r2, [r3]
 437:../../Drivers/STM32H7xx_HAL_Driver/Src/stm32h7xx_hal_rcc.c **** 
 627              		.loc 1 437 7 discriminator 7 view .LVU203
 628 00fc 1A68     		ldr	r2, [r3]
 629 00fe 42F48032 		orr	r2, r2, #65536
 630 0102 1A60     		str	r2, [r3]
 631 0104 D7E7     		b	.L41
 632              	.L44:
 457:../../Drivers/STM32H7xx_HAL_Driver/Src/stm32h7xx_hal_rcc.c **** 
 633              		.loc 1 457 9 view .LVU204
 457:../../Drivers/STM32H7xx_HAL_Driver/Src/stm32h7xx_hal_rcc.c **** 
 634              		.loc 1 457 21 is_stmt 0 view .LVU205
 635 0106 FFF7FEFF 		bl	HAL_GetTick
 636              	.LVL50:
 457:../../Drivers/STM32H7xx_HAL_Driver/Src/stm32h7xx_hal_rcc.c **** 
 637              		.loc 1 457 21 view .LVU206
 638 010a 0546     		mov	r5, r0
 639              	.LVL51:
ARM GAS  /tmp/ccooDZtA.s 			page 22


 460:../../Drivers/STM32H7xx_HAL_Driver/Src/stm32h7xx_hal_rcc.c ****         {
 640              		.loc 1 460 9 is_stmt 1 view .LVU207
 641              	.L47:
 460:../../Drivers/STM32H7xx_HAL_Driver/Src/stm32h7xx_hal_rcc.c ****         {
 642              		.loc 1 460 15 view .LVU208
 460:../../Drivers/STM32H7xx_HAL_Driver/Src/stm32h7xx_hal_rcc.c ****         {
 643              		.loc 1 460 16 is_stmt 0 view .LVU209
 644 010c 554B     		ldr	r3, .L166
 645 010e 1B68     		ldr	r3, [r3]
 460:../../Drivers/STM32H7xx_HAL_Driver/Src/stm32h7xx_hal_rcc.c ****         {
 646              		.loc 1 460 15 view .LVU210
 647 0110 13F4003F 		tst	r3, #131072
 648 0114 A3D0     		beq	.L37
 462:../../Drivers/STM32H7xx_HAL_Driver/Src/stm32h7xx_hal_rcc.c ****           {
 649              		.loc 1 462 11 is_stmt 1 view .LVU211
 462:../../Drivers/STM32H7xx_HAL_Driver/Src/stm32h7xx_hal_rcc.c ****           {
 650              		.loc 1 462 26 is_stmt 0 view .LVU212
 651 0116 FFF7FEFF 		bl	HAL_GetTick
 652              	.LVL52:
 462:../../Drivers/STM32H7xx_HAL_Driver/Src/stm32h7xx_hal_rcc.c ****           {
 653              		.loc 1 462 40 view .LVU213
 654 011a 401B     		subs	r0, r0, r5
 462:../../Drivers/STM32H7xx_HAL_Driver/Src/stm32h7xx_hal_rcc.c ****           {
 655              		.loc 1 462 14 view .LVU214
 656 011c 6428     		cmp	r0, #100
 657 011e F5D9     		bls	.L47
 464:../../Drivers/STM32H7xx_HAL_Driver/Src/stm32h7xx_hal_rcc.c ****           }
 658              		.loc 1 464 20 view .LVU215
 659 0120 0320     		movs	r0, #3
 660 0122 B2E2     		b	.L36
 661              	.LVL53:
 662              	.L147:
 464:../../Drivers/STM32H7xx_HAL_Driver/Src/stm32h7xx_hal_rcc.c ****           }
 663              		.loc 1 464 20 view .LVU216
 664              	.LBE4:
 665              	.LBB5:
 480:../../Drivers/STM32H7xx_HAL_Driver/Src/stm32h7xx_hal_rcc.c ****     {
 666              		.loc 1 480 88 discriminator 2 view .LVU217
 667 0124 12F0030F 		tst	r2, #3
 668 0128 A6D1     		bne	.L51
 669              	.L50:
 483:../../Drivers/STM32H7xx_HAL_Driver/Src/stm32h7xx_hal_rcc.c ****       {
 670              		.loc 1 483 7 is_stmt 1 view .LVU218
 483:../../Drivers/STM32H7xx_HAL_Driver/Src/stm32h7xx_hal_rcc.c ****       {
 671              		.loc 1 483 12 is_stmt 0 view .LVU219
 672 012a 4E4B     		ldr	r3, .L166
 673              	.LVL54:
 483:../../Drivers/STM32H7xx_HAL_Driver/Src/stm32h7xx_hal_rcc.c ****       {
 674              		.loc 1 483 12 view .LVU220
 675 012c 1B68     		ldr	r3, [r3]
 483:../../Drivers/STM32H7xx_HAL_Driver/Src/stm32h7xx_hal_rcc.c ****       {
 676              		.loc 1 483 10 view .LVU221
 677 012e 13F0040F 		tst	r3, #4
 678 0132 03D0     		beq	.L52
 483:../../Drivers/STM32H7xx_HAL_Driver/Src/stm32h7xx_hal_rcc.c ****       {
 679              		.loc 1 483 76 discriminator 1 view .LVU222
 680 0134 E368     		ldr	r3, [r4, #12]
ARM GAS  /tmp/ccooDZtA.s 			page 23


 483:../../Drivers/STM32H7xx_HAL_Driver/Src/stm32h7xx_hal_rcc.c ****       {
 681              		.loc 1 483 55 discriminator 1 view .LVU223
 682 0136 002B     		cmp	r3, #0
 683 0138 00F0A282 		beq	.L114
 684              	.L52:
 491:../../Drivers/STM32H7xx_HAL_Driver/Src/stm32h7xx_hal_rcc.c **** 
 685              		.loc 1 491 9 is_stmt 1 view .LVU224
 686 013c 494A     		ldr	r2, .L166
 687              	.LVL55:
 491:../../Drivers/STM32H7xx_HAL_Driver/Src/stm32h7xx_hal_rcc.c **** 
 688              		.loc 1 491 9 is_stmt 0 view .LVU225
 689 013e 1368     		ldr	r3, [r2]
 690 0140 23F01903 		bic	r3, r3, #25
 691 0144 E168     		ldr	r1, [r4, #12]
 692 0146 0B43     		orrs	r3, r3, r1
 693 0148 1360     		str	r3, [r2]
 494:../../Drivers/STM32H7xx_HAL_Driver/Src/stm32h7xx_hal_rcc.c **** 
 694              		.loc 1 494 9 is_stmt 1 view .LVU226
 494:../../Drivers/STM32H7xx_HAL_Driver/Src/stm32h7xx_hal_rcc.c **** 
 695              		.loc 1 494 21 is_stmt 0 view .LVU227
 696 014a FFF7FEFF 		bl	HAL_GetTick
 697              	.LVL56:
 698 014e 0546     		mov	r5, r0
 699              	.LVL57:
 497:../../Drivers/STM32H7xx_HAL_Driver/Src/stm32h7xx_hal_rcc.c ****         {
 700              		.loc 1 497 9 is_stmt 1 view .LVU228
 701              	.L53:
 497:../../Drivers/STM32H7xx_HAL_Driver/Src/stm32h7xx_hal_rcc.c ****         {
 702              		.loc 1 497 15 view .LVU229
 497:../../Drivers/STM32H7xx_HAL_Driver/Src/stm32h7xx_hal_rcc.c ****         {
 703              		.loc 1 497 16 is_stmt 0 view .LVU230
 704 0150 444B     		ldr	r3, .L166
 705 0152 1B68     		ldr	r3, [r3]
 497:../../Drivers/STM32H7xx_HAL_Driver/Src/stm32h7xx_hal_rcc.c ****         {
 706              		.loc 1 497 15 view .LVU231
 707 0154 13F0040F 		tst	r3, #4
 708 0158 06D1     		bne	.L150
 499:../../Drivers/STM32H7xx_HAL_Driver/Src/stm32h7xx_hal_rcc.c ****           {
 709              		.loc 1 499 11 is_stmt 1 view .LVU232
 499:../../Drivers/STM32H7xx_HAL_Driver/Src/stm32h7xx_hal_rcc.c ****           {
 710              		.loc 1 499 26 is_stmt 0 view .LVU233
 711 015a FFF7FEFF 		bl	HAL_GetTick
 712              	.LVL58:
 499:../../Drivers/STM32H7xx_HAL_Driver/Src/stm32h7xx_hal_rcc.c ****           {
 713              		.loc 1 499 40 view .LVU234
 714 015e 401B     		subs	r0, r0, r5
 499:../../Drivers/STM32H7xx_HAL_Driver/Src/stm32h7xx_hal_rcc.c ****           {
 715              		.loc 1 499 14 view .LVU235
 716 0160 0228     		cmp	r0, #2
 717 0162 F5D9     		bls	.L53
 501:../../Drivers/STM32H7xx_HAL_Driver/Src/stm32h7xx_hal_rcc.c ****           }
 718              		.loc 1 501 20 view .LVU236
 719 0164 0320     		movs	r0, #3
 720 0166 90E2     		b	.L36
 721              	.L150:
 505:../../Drivers/STM32H7xx_HAL_Driver/Src/stm32h7xx_hal_rcc.c ****       }
 722              		.loc 1 505 9 is_stmt 1 view .LVU237
ARM GAS  /tmp/ccooDZtA.s 			page 24


 505:../../Drivers/STM32H7xx_HAL_Driver/Src/stm32h7xx_hal_rcc.c ****       }
 723              		.loc 1 505 9 view .LVU238
 724 0168 FFF7FEFF 		bl	HAL_GetREVID
 725              	.LVL59:
 726 016c 41F20303 		movw	r3, #4099
 727 0170 9842     		cmp	r0, r3
 728 0172 12D8     		bhi	.L55
 505:../../Drivers/STM32H7xx_HAL_Driver/Src/stm32h7xx_hal_rcc.c ****       }
 729              		.loc 1 505 9 discriminator 1 view .LVU239
 730 0174 2269     		ldr	r2, [r4, #16]
 731 0176 402A     		cmp	r2, #64
 732 0178 07D0     		beq	.L151
 505:../../Drivers/STM32H7xx_HAL_Driver/Src/stm32h7xx_hal_rcc.c ****       }
 733              		.loc 1 505 9 discriminator 4 view .LVU240
 734 017a 3A49     		ldr	r1, .L166
 735 017c 4B68     		ldr	r3, [r1, #4]
 736 017e 23F47C33 		bic	r3, r3, #258048
 737 0182 43EA0233 		orr	r3, r3, r2, lsl #12
 738 0186 4B60     		str	r3, [r1, #4]
 739 0188 0FE0     		b	.L49
 740              	.L151:
 505:../../Drivers/STM32H7xx_HAL_Driver/Src/stm32h7xx_hal_rcc.c ****       }
 741              		.loc 1 505 9 discriminator 3 view .LVU241
 742 018a 364A     		ldr	r2, .L166
 743 018c 5368     		ldr	r3, [r2, #4]
 744 018e 23F47C33 		bic	r3, r3, #258048
 745 0192 43F40033 		orr	r3, r3, #131072
 746 0196 5360     		str	r3, [r2, #4]
 747 0198 07E0     		b	.L49
 748              	.L55:
 505:../../Drivers/STM32H7xx_HAL_Driver/Src/stm32h7xx_hal_rcc.c ****       }
 749              		.loc 1 505 9 discriminator 2 view .LVU242
 750 019a 324A     		ldr	r2, .L166
 751 019c 5368     		ldr	r3, [r2, #4]
 752 019e 23F0FE43 		bic	r3, r3, #2130706432
 753 01a2 2169     		ldr	r1, [r4, #16]
 754 01a4 43EA0163 		orr	r3, r3, r1, lsl #24
 755 01a8 5360     		str	r3, [r2, #4]
 756              	.LVL60:
 757              	.L49:
 505:../../Drivers/STM32H7xx_HAL_Driver/Src/stm32h7xx_hal_rcc.c ****       }
 758              		.loc 1 505 9 is_stmt 0 discriminator 2 view .LVU243
 759              	.LBE5:
 526:../../Drivers/STM32H7xx_HAL_Driver/Src/stm32h7xx_hal_rcc.c ****           }
 527:../../Drivers/STM32H7xx_HAL_Driver/Src/stm32h7xx_hal_rcc.c ****         }
 528:../../Drivers/STM32H7xx_HAL_Driver/Src/stm32h7xx_hal_rcc.c **** 
 529:../../Drivers/STM32H7xx_HAL_Driver/Src/stm32h7xx_hal_rcc.c ****         /* Adjusts the Internal High Speed oscillator (HSI) calibration value.*/
 530:../../Drivers/STM32H7xx_HAL_Driver/Src/stm32h7xx_hal_rcc.c ****         __HAL_RCC_HSI_CALIBRATIONVALUE_ADJUST(RCC_OscInitStruct->HSICalibrationValue);
 531:../../Drivers/STM32H7xx_HAL_Driver/Src/stm32h7xx_hal_rcc.c ****       }
 532:../../Drivers/STM32H7xx_HAL_Driver/Src/stm32h7xx_hal_rcc.c ****       else
 533:../../Drivers/STM32H7xx_HAL_Driver/Src/stm32h7xx_hal_rcc.c ****       {
 534:../../Drivers/STM32H7xx_HAL_Driver/Src/stm32h7xx_hal_rcc.c ****         /* Disable the Internal High Speed oscillator (HSI). */
 535:../../Drivers/STM32H7xx_HAL_Driver/Src/stm32h7xx_hal_rcc.c ****         __HAL_RCC_HSI_DISABLE();
 536:../../Drivers/STM32H7xx_HAL_Driver/Src/stm32h7xx_hal_rcc.c **** 
 537:../../Drivers/STM32H7xx_HAL_Driver/Src/stm32h7xx_hal_rcc.c ****         /* Get Start Tick*/
 538:../../Drivers/STM32H7xx_HAL_Driver/Src/stm32h7xx_hal_rcc.c ****         tickstart = HAL_GetTick();
 539:../../Drivers/STM32H7xx_HAL_Driver/Src/stm32h7xx_hal_rcc.c **** 
ARM GAS  /tmp/ccooDZtA.s 			page 25


 540:../../Drivers/STM32H7xx_HAL_Driver/Src/stm32h7xx_hal_rcc.c ****         /* Wait till HSI is disabled */
 541:../../Drivers/STM32H7xx_HAL_Driver/Src/stm32h7xx_hal_rcc.c ****         while (__HAL_RCC_GET_FLAG(RCC_FLAG_HSIRDY) != 0U)
 542:../../Drivers/STM32H7xx_HAL_Driver/Src/stm32h7xx_hal_rcc.c ****         {
 543:../../Drivers/STM32H7xx_HAL_Driver/Src/stm32h7xx_hal_rcc.c ****           if ((HAL_GetTick() - tickstart) > HSI_TIMEOUT_VALUE)
 544:../../Drivers/STM32H7xx_HAL_Driver/Src/stm32h7xx_hal_rcc.c ****           {
 545:../../Drivers/STM32H7xx_HAL_Driver/Src/stm32h7xx_hal_rcc.c ****             return HAL_TIMEOUT;
 546:../../Drivers/STM32H7xx_HAL_Driver/Src/stm32h7xx_hal_rcc.c ****           }
 547:../../Drivers/STM32H7xx_HAL_Driver/Src/stm32h7xx_hal_rcc.c ****         }
 548:../../Drivers/STM32H7xx_HAL_Driver/Src/stm32h7xx_hal_rcc.c ****       }
 549:../../Drivers/STM32H7xx_HAL_Driver/Src/stm32h7xx_hal_rcc.c ****     }
 550:../../Drivers/STM32H7xx_HAL_Driver/Src/stm32h7xx_hal_rcc.c ****   }
 551:../../Drivers/STM32H7xx_HAL_Driver/Src/stm32h7xx_hal_rcc.c ****   /*----------------------------- CSI Configuration --------------------------*/
 552:../../Drivers/STM32H7xx_HAL_Driver/Src/stm32h7xx_hal_rcc.c ****   if (((RCC_OscInitStruct->OscillatorType) & RCC_OSCILLATORTYPE_CSI) == RCC_OSCILLATORTYPE_CSI)
 760              		.loc 1 552 3 is_stmt 1 view .LVU244
 761              		.loc 1 552 26 is_stmt 0 view .LVU245
 762 01aa 2368     		ldr	r3, [r4]
 763              		.loc 1 552 6 view .LVU246
 764 01ac 13F0100F 		tst	r3, #16
 765 01b0 00F08880 		beq	.L64
 766              	.LBB6:
 553:../../Drivers/STM32H7xx_HAL_Driver/Src/stm32h7xx_hal_rcc.c ****   {
 554:../../Drivers/STM32H7xx_HAL_Driver/Src/stm32h7xx_hal_rcc.c ****     /* Check the parameters */
 555:../../Drivers/STM32H7xx_HAL_Driver/Src/stm32h7xx_hal_rcc.c ****     assert_param(IS_RCC_CSI(RCC_OscInitStruct->CSIState));
 767              		.loc 1 555 5 is_stmt 1 view .LVU247
 556:../../Drivers/STM32H7xx_HAL_Driver/Src/stm32h7xx_hal_rcc.c ****     assert_param(IS_RCC_CSICALIBRATION_VALUE(RCC_OscInitStruct->CSICalibrationValue));
 768              		.loc 1 556 5 view .LVU248
 557:../../Drivers/STM32H7xx_HAL_Driver/Src/stm32h7xx_hal_rcc.c **** 
 558:../../Drivers/STM32H7xx_HAL_Driver/Src/stm32h7xx_hal_rcc.c ****     /* When the CSI is used as system clock it will not disabled */
 559:../../Drivers/STM32H7xx_HAL_Driver/Src/stm32h7xx_hal_rcc.c ****     const uint32_t temp_sysclksrc = __HAL_RCC_GET_SYSCLK_SOURCE();
 769              		.loc 1 559 5 view .LVU249
 770              		.loc 1 559 37 is_stmt 0 view .LVU250
 771 01b4 2B4A     		ldr	r2, .L166
 772 01b6 1369     		ldr	r3, [r2, #16]
 773              		.loc 1 559 20 view .LVU251
 774 01b8 03F03803 		and	r3, r3, #56
 775              	.LVL61:
 560:../../Drivers/STM32H7xx_HAL_Driver/Src/stm32h7xx_hal_rcc.c ****     const uint32_t temp_pllckselr = RCC->PLLCKSELR;
 776              		.loc 1 560 5 is_stmt 1 view .LVU252
 777              		.loc 1 560 20 is_stmt 0 view .LVU253
 778 01bc 926A     		ldr	r2, [r2, #40]
 779              	.LVL62:
 561:../../Drivers/STM32H7xx_HAL_Driver/Src/stm32h7xx_hal_rcc.c ****     if ((temp_sysclksrc == RCC_CFGR_SWS_CSI) || ((temp_sysclksrc == RCC_CFGR_SWS_PLL1) && ((temp_pl
 780              		.loc 1 561 5 is_stmt 1 view .LVU254
 781              		.loc 1 561 8 is_stmt 0 view .LVU255
 782 01be 082B     		cmp	r3, #8
 783 01c0 56D0     		beq	.L65
 784              		.loc 1 561 46 discriminator 1 view .LVU256
 785 01c2 182B     		cmp	r3, #24
 786 01c4 50D0     		beq	.L152
 787              	.LVL63:
 788              	.L66:
 562:../../Drivers/STM32H7xx_HAL_Driver/Src/stm32h7xx_hal_rcc.c ****     {
 563:../../Drivers/STM32H7xx_HAL_Driver/Src/stm32h7xx_hal_rcc.c ****       /* When CSI is used as system clock it will not disabled */
 564:../../Drivers/STM32H7xx_HAL_Driver/Src/stm32h7xx_hal_rcc.c ****       if ((__HAL_RCC_GET_FLAG(RCC_FLAG_CSIRDY) != 0U) && (RCC_OscInitStruct->CSIState != RCC_CSI_ON
 565:../../Drivers/STM32H7xx_HAL_Driver/Src/stm32h7xx_hal_rcc.c ****       {
 566:../../Drivers/STM32H7xx_HAL_Driver/Src/stm32h7xx_hal_rcc.c ****         return HAL_ERROR;
 567:../../Drivers/STM32H7xx_HAL_Driver/Src/stm32h7xx_hal_rcc.c ****       }
ARM GAS  /tmp/ccooDZtA.s 			page 26


 568:../../Drivers/STM32H7xx_HAL_Driver/Src/stm32h7xx_hal_rcc.c ****       /* Otherwise, just the calibration is allowed */
 569:../../Drivers/STM32H7xx_HAL_Driver/Src/stm32h7xx_hal_rcc.c ****       else
 570:../../Drivers/STM32H7xx_HAL_Driver/Src/stm32h7xx_hal_rcc.c ****       {
 571:../../Drivers/STM32H7xx_HAL_Driver/Src/stm32h7xx_hal_rcc.c ****         /* Adjusts the Internal High Speed oscillator (CSI) calibration value.*/
 572:../../Drivers/STM32H7xx_HAL_Driver/Src/stm32h7xx_hal_rcc.c ****         __HAL_RCC_CSI_CALIBRATIONVALUE_ADJUST(RCC_OscInitStruct->CSICalibrationValue);
 573:../../Drivers/STM32H7xx_HAL_Driver/Src/stm32h7xx_hal_rcc.c ****       }
 574:../../Drivers/STM32H7xx_HAL_Driver/Src/stm32h7xx_hal_rcc.c ****     }
 575:../../Drivers/STM32H7xx_HAL_Driver/Src/stm32h7xx_hal_rcc.c ****     else
 576:../../Drivers/STM32H7xx_HAL_Driver/Src/stm32h7xx_hal_rcc.c ****     {
 577:../../Drivers/STM32H7xx_HAL_Driver/Src/stm32h7xx_hal_rcc.c ****       /* Check the CSI State */
 578:../../Drivers/STM32H7xx_HAL_Driver/Src/stm32h7xx_hal_rcc.c ****       if ((RCC_OscInitStruct->CSIState) != RCC_CSI_OFF)
 789              		.loc 1 578 7 is_stmt 1 view .LVU257
 790              		.loc 1 578 29 is_stmt 0 view .LVU258
 791 01c6 E369     		ldr	r3, [r4, #28]
 792              	.LVL64:
 793              		.loc 1 578 10 view .LVU259
 794 01c8 002B     		cmp	r3, #0
 795 01ca 00F0B880 		beq	.L70
 579:../../Drivers/STM32H7xx_HAL_Driver/Src/stm32h7xx_hal_rcc.c ****       {
 580:../../Drivers/STM32H7xx_HAL_Driver/Src/stm32h7xx_hal_rcc.c ****         /* Enable the Internal High Speed oscillator (CSI). */
 581:../../Drivers/STM32H7xx_HAL_Driver/Src/stm32h7xx_hal_rcc.c ****         __HAL_RCC_CSI_ENABLE();
 796              		.loc 1 581 9 is_stmt 1 view .LVU260
 797 01ce 254A     		ldr	r2, .L166
 798 01d0 1368     		ldr	r3, [r2]
 799 01d2 43F08003 		orr	r3, r3, #128
 800 01d6 1360     		str	r3, [r2]
 582:../../Drivers/STM32H7xx_HAL_Driver/Src/stm32h7xx_hal_rcc.c **** 
 583:../../Drivers/STM32H7xx_HAL_Driver/Src/stm32h7xx_hal_rcc.c ****         /* Get Start Tick*/
 584:../../Drivers/STM32H7xx_HAL_Driver/Src/stm32h7xx_hal_rcc.c ****         tickstart = HAL_GetTick();
 801              		.loc 1 584 9 view .LVU261
 802              		.loc 1 584 21 is_stmt 0 view .LVU262
 803 01d8 FFF7FEFF 		bl	HAL_GetTick
 804              	.LVL65:
 805 01dc 0546     		mov	r5, r0
 806              	.LVL66:
 585:../../Drivers/STM32H7xx_HAL_Driver/Src/stm32h7xx_hal_rcc.c **** 
 586:../../Drivers/STM32H7xx_HAL_Driver/Src/stm32h7xx_hal_rcc.c ****         /* Wait till CSI is ready */
 587:../../Drivers/STM32H7xx_HAL_Driver/Src/stm32h7xx_hal_rcc.c ****         while (__HAL_RCC_GET_FLAG(RCC_FLAG_CSIRDY) == 0U)
 807              		.loc 1 587 9 is_stmt 1 view .LVU263
 808              	.L71:
 809              		.loc 1 587 15 view .LVU264
 810              		.loc 1 587 16 is_stmt 0 view .LVU265
 811 01de 214B     		ldr	r3, .L166
 812 01e0 1B68     		ldr	r3, [r3]
 813              		.loc 1 587 15 view .LVU266
 814 01e2 13F4807F 		tst	r3, #256
 815 01e6 40F08880 		bne	.L153
 588:../../Drivers/STM32H7xx_HAL_Driver/Src/stm32h7xx_hal_rcc.c ****         {
 589:../../Drivers/STM32H7xx_HAL_Driver/Src/stm32h7xx_hal_rcc.c ****           if ((HAL_GetTick() - tickstart) > CSI_TIMEOUT_VALUE)
 816              		.loc 1 589 11 is_stmt 1 view .LVU267
 817              		.loc 1 589 16 is_stmt 0 view .LVU268
 818 01ea FFF7FEFF 		bl	HAL_GetTick
 819              	.LVL67:
 820              		.loc 1 589 30 view .LVU269
 821 01ee 401B     		subs	r0, r0, r5
 822              		.loc 1 589 14 view .LVU270
 823 01f0 0228     		cmp	r0, #2
ARM GAS  /tmp/ccooDZtA.s 			page 27


 824 01f2 F4D9     		bls	.L71
 590:../../Drivers/STM32H7xx_HAL_Driver/Src/stm32h7xx_hal_rcc.c ****           {
 591:../../Drivers/STM32H7xx_HAL_Driver/Src/stm32h7xx_hal_rcc.c ****             return HAL_TIMEOUT;
 825              		.loc 1 591 20 view .LVU271
 826 01f4 0320     		movs	r0, #3
 827 01f6 48E2     		b	.L36
 828              	.L148:
 829              		.loc 1 591 20 view .LVU272
 830              	.LBE6:
 831              	.LBB7:
 530:../../Drivers/STM32H7xx_HAL_Driver/Src/stm32h7xx_hal_rcc.c ****       }
 832              		.loc 1 530 9 is_stmt 1 view .LVU273
 530:../../Drivers/STM32H7xx_HAL_Driver/Src/stm32h7xx_hal_rcc.c ****       }
 833              		.loc 1 530 9 view .LVU274
 834 01f8 FFF7FEFF 		bl	HAL_GetREVID
 835              	.LVL68:
 836 01fc 41F20303 		movw	r3, #4099
 837 0200 9842     		cmp	r0, r3
 838 0202 12D8     		bhi	.L60
 530:../../Drivers/STM32H7xx_HAL_Driver/Src/stm32h7xx_hal_rcc.c ****       }
 839              		.loc 1 530 9 discriminator 1 view .LVU275
 840 0204 2269     		ldr	r2, [r4, #16]
 841 0206 402A     		cmp	r2, #64
 842 0208 07D0     		beq	.L154
 530:../../Drivers/STM32H7xx_HAL_Driver/Src/stm32h7xx_hal_rcc.c ****       }
 843              		.loc 1 530 9 discriminator 4 view .LVU276
 844 020a 1649     		ldr	r1, .L166
 845 020c 4B68     		ldr	r3, [r1, #4]
 846 020e 23F47C33 		bic	r3, r3, #258048
 847 0212 43EA0233 		orr	r3, r3, r2, lsl #12
 848 0216 4B60     		str	r3, [r1, #4]
 849 0218 C7E7     		b	.L49
 850              	.L154:
 530:../../Drivers/STM32H7xx_HAL_Driver/Src/stm32h7xx_hal_rcc.c ****       }
 851              		.loc 1 530 9 discriminator 3 view .LVU277
 852 021a 124A     		ldr	r2, .L166
 853 021c 5368     		ldr	r3, [r2, #4]
 854 021e 23F47C33 		bic	r3, r3, #258048
 855 0222 43F40033 		orr	r3, r3, #131072
 856 0226 5360     		str	r3, [r2, #4]
 857 0228 BFE7     		b	.L49
 858              	.L60:
 530:../../Drivers/STM32H7xx_HAL_Driver/Src/stm32h7xx_hal_rcc.c ****       }
 859              		.loc 1 530 9 discriminator 2 view .LVU278
 860 022a 0E4A     		ldr	r2, .L166
 861 022c 5368     		ldr	r3, [r2, #4]
 862 022e 23F0FE43 		bic	r3, r3, #2130706432
 863 0232 2169     		ldr	r1, [r4, #16]
 864 0234 43EA0163 		orr	r3, r3, r1, lsl #24
 865 0238 5360     		str	r3, [r2, #4]
 866 023a B6E7     		b	.L49
 867              	.LVL69:
 868              	.L57:
 535:../../Drivers/STM32H7xx_HAL_Driver/Src/stm32h7xx_hal_rcc.c **** 
 869              		.loc 1 535 9 view .LVU279
 870 023c 094A     		ldr	r2, .L166
 871              	.LVL70:
ARM GAS  /tmp/ccooDZtA.s 			page 28


 535:../../Drivers/STM32H7xx_HAL_Driver/Src/stm32h7xx_hal_rcc.c **** 
 872              		.loc 1 535 9 is_stmt 0 view .LVU280
 873 023e 1368     		ldr	r3, [r2]
 874 0240 23F00103 		bic	r3, r3, #1
 875 0244 1360     		str	r3, [r2]
 538:../../Drivers/STM32H7xx_HAL_Driver/Src/stm32h7xx_hal_rcc.c **** 
 876              		.loc 1 538 9 is_stmt 1 view .LVU281
 538:../../Drivers/STM32H7xx_HAL_Driver/Src/stm32h7xx_hal_rcc.c **** 
 877              		.loc 1 538 21 is_stmt 0 view .LVU282
 878 0246 FFF7FEFF 		bl	HAL_GetTick
 879              	.LVL71:
 880 024a 0546     		mov	r5, r0
 881              	.LVL72:
 541:../../Drivers/STM32H7xx_HAL_Driver/Src/stm32h7xx_hal_rcc.c ****         {
 882              		.loc 1 541 9 is_stmt 1 view .LVU283
 883              	.L62:
 541:../../Drivers/STM32H7xx_HAL_Driver/Src/stm32h7xx_hal_rcc.c ****         {
 884              		.loc 1 541 15 view .LVU284
 541:../../Drivers/STM32H7xx_HAL_Driver/Src/stm32h7xx_hal_rcc.c ****         {
 885              		.loc 1 541 16 is_stmt 0 view .LVU285
 886 024c 054B     		ldr	r3, .L166
 887 024e 1B68     		ldr	r3, [r3]
 541:../../Drivers/STM32H7xx_HAL_Driver/Src/stm32h7xx_hal_rcc.c ****         {
 888              		.loc 1 541 15 view .LVU286
 889 0250 13F0040F 		tst	r3, #4
 890 0254 A9D0     		beq	.L49
 543:../../Drivers/STM32H7xx_HAL_Driver/Src/stm32h7xx_hal_rcc.c ****           {
 891              		.loc 1 543 11 is_stmt 1 view .LVU287
 543:../../Drivers/STM32H7xx_HAL_Driver/Src/stm32h7xx_hal_rcc.c ****           {
 892              		.loc 1 543 16 is_stmt 0 view .LVU288
 893 0256 FFF7FEFF 		bl	HAL_GetTick
 894              	.LVL73:
 543:../../Drivers/STM32H7xx_HAL_Driver/Src/stm32h7xx_hal_rcc.c ****           {
 895              		.loc 1 543 30 view .LVU289
 896 025a 401B     		subs	r0, r0, r5
 543:../../Drivers/STM32H7xx_HAL_Driver/Src/stm32h7xx_hal_rcc.c ****           {
 897              		.loc 1 543 14 view .LVU290
 898 025c 0228     		cmp	r0, #2
 899 025e F5D9     		bls	.L62
 545:../../Drivers/STM32H7xx_HAL_Driver/Src/stm32h7xx_hal_rcc.c ****           }
 900              		.loc 1 545 20 view .LVU291
 901 0260 0320     		movs	r0, #3
 902 0262 12E2     		b	.L36
 903              	.L167:
 904              		.align	2
 905              	.L166:
 906 0264 00440258 		.word	1476543488
 907              	.LVL74:
 908              	.L152:
 545:../../Drivers/STM32H7xx_HAL_Driver/Src/stm32h7xx_hal_rcc.c ****           }
 909              		.loc 1 545 20 view .LVU292
 910              	.LBE7:
 911              	.LBB8:
 561:../../Drivers/STM32H7xx_HAL_Driver/Src/stm32h7xx_hal_rcc.c ****     {
 912              		.loc 1 561 108 discriminator 2 view .LVU293
 913 0268 02F00302 		and	r2, r2, #3
 914              	.LVL75:
ARM GAS  /tmp/ccooDZtA.s 			page 29


 561:../../Drivers/STM32H7xx_HAL_Driver/Src/stm32h7xx_hal_rcc.c ****     {
 915              		.loc 1 561 88 discriminator 2 view .LVU294
 916 026c 012A     		cmp	r2, #1
 917 026e AAD1     		bne	.L66
 918              	.L65:
 564:../../Drivers/STM32H7xx_HAL_Driver/Src/stm32h7xx_hal_rcc.c ****       {
 919              		.loc 1 564 7 is_stmt 1 view .LVU295
 564:../../Drivers/STM32H7xx_HAL_Driver/Src/stm32h7xx_hal_rcc.c ****       {
 920              		.loc 1 564 12 is_stmt 0 view .LVU296
 921 0270 A14B     		ldr	r3, .L168
 922              	.LVL76:
 564:../../Drivers/STM32H7xx_HAL_Driver/Src/stm32h7xx_hal_rcc.c ****       {
 923              		.loc 1 564 12 view .LVU297
 924 0272 1B68     		ldr	r3, [r3]
 564:../../Drivers/STM32H7xx_HAL_Driver/Src/stm32h7xx_hal_rcc.c ****       {
 925              		.loc 1 564 10 view .LVU298
 926 0274 13F4807F 		tst	r3, #256
 927 0278 03D0     		beq	.L67
 564:../../Drivers/STM32H7xx_HAL_Driver/Src/stm32h7xx_hal_rcc.c ****       {
 928              		.loc 1 564 76 discriminator 1 view .LVU299
 929 027a E369     		ldr	r3, [r4, #28]
 564:../../Drivers/STM32H7xx_HAL_Driver/Src/stm32h7xx_hal_rcc.c ****       {
 930              		.loc 1 564 55 discriminator 1 view .LVU300
 931 027c 802B     		cmp	r3, #128
 932 027e 40F00182 		bne	.L118
 933              	.L67:
 572:../../Drivers/STM32H7xx_HAL_Driver/Src/stm32h7xx_hal_rcc.c ****       }
 934              		.loc 1 572 9 is_stmt 1 view .LVU301
 572:../../Drivers/STM32H7xx_HAL_Driver/Src/stm32h7xx_hal_rcc.c ****       }
 935              		.loc 1 572 9 view .LVU302
 936 0282 FFF7FEFF 		bl	HAL_GetREVID
 937              	.LVL77:
 938 0286 41F20303 		movw	r3, #4099
 939 028a 9842     		cmp	r0, r3
 940 028c 12D8     		bhi	.L68
 572:../../Drivers/STM32H7xx_HAL_Driver/Src/stm32h7xx_hal_rcc.c ****       }
 941              		.loc 1 572 9 discriminator 1 view .LVU303
 942 028e 226A     		ldr	r2, [r4, #32]
 943 0290 202A     		cmp	r2, #32
 944 0292 07D0     		beq	.L155
 572:../../Drivers/STM32H7xx_HAL_Driver/Src/stm32h7xx_hal_rcc.c ****       }
 945              		.loc 1 572 9 discriminator 4 view .LVU304
 946 0294 9849     		ldr	r1, .L168
 947 0296 4B68     		ldr	r3, [r1, #4]
 948 0298 23F0F843 		bic	r3, r3, #2080374784
 949 029c 43EA8263 		orr	r3, r3, r2, lsl #26
 950 02a0 4B60     		str	r3, [r1, #4]
 951 02a2 0FE0     		b	.L64
 952              	.L155:
 572:../../Drivers/STM32H7xx_HAL_Driver/Src/stm32h7xx_hal_rcc.c ****       }
 953              		.loc 1 572 9 discriminator 3 view .LVU305
 954 02a4 944A     		ldr	r2, .L168
 955 02a6 5368     		ldr	r3, [r2, #4]
 956 02a8 23F0F843 		bic	r3, r3, #2080374784
 957 02ac 43F08043 		orr	r3, r3, #1073741824
 958 02b0 5360     		str	r3, [r2, #4]
 959 02b2 07E0     		b	.L64
ARM GAS  /tmp/ccooDZtA.s 			page 30


 960              	.L68:
 572:../../Drivers/STM32H7xx_HAL_Driver/Src/stm32h7xx_hal_rcc.c ****       }
 961              		.loc 1 572 9 discriminator 2 view .LVU306
 962 02b4 904A     		ldr	r2, .L168
 963 02b6 D368     		ldr	r3, [r2, #12]
 964 02b8 23F07C53 		bic	r3, r3, #1056964608
 965 02bc 216A     		ldr	r1, [r4, #32]
 966 02be 43EA0163 		orr	r3, r3, r1, lsl #24
 967 02c2 D360     		str	r3, [r2, #12]
 968              	.L64:
 572:../../Drivers/STM32H7xx_HAL_Driver/Src/stm32h7xx_hal_rcc.c ****       }
 969              		.loc 1 572 9 is_stmt 0 discriminator 2 view .LVU307
 970              	.LBE8:
 592:../../Drivers/STM32H7xx_HAL_Driver/Src/stm32h7xx_hal_rcc.c ****           }
 593:../../Drivers/STM32H7xx_HAL_Driver/Src/stm32h7xx_hal_rcc.c ****         }
 594:../../Drivers/STM32H7xx_HAL_Driver/Src/stm32h7xx_hal_rcc.c **** 
 595:../../Drivers/STM32H7xx_HAL_Driver/Src/stm32h7xx_hal_rcc.c ****         /* Adjusts the Internal High Speed oscillator (CSI) calibration value.*/
 596:../../Drivers/STM32H7xx_HAL_Driver/Src/stm32h7xx_hal_rcc.c ****         __HAL_RCC_CSI_CALIBRATIONVALUE_ADJUST(RCC_OscInitStruct->CSICalibrationValue);
 597:../../Drivers/STM32H7xx_HAL_Driver/Src/stm32h7xx_hal_rcc.c ****       }
 598:../../Drivers/STM32H7xx_HAL_Driver/Src/stm32h7xx_hal_rcc.c ****       else
 599:../../Drivers/STM32H7xx_HAL_Driver/Src/stm32h7xx_hal_rcc.c ****       {
 600:../../Drivers/STM32H7xx_HAL_Driver/Src/stm32h7xx_hal_rcc.c ****         /* Disable the Internal High Speed oscillator (CSI). */
 601:../../Drivers/STM32H7xx_HAL_Driver/Src/stm32h7xx_hal_rcc.c ****         __HAL_RCC_CSI_DISABLE();
 602:../../Drivers/STM32H7xx_HAL_Driver/Src/stm32h7xx_hal_rcc.c **** 
 603:../../Drivers/STM32H7xx_HAL_Driver/Src/stm32h7xx_hal_rcc.c ****         /* Get Start Tick*/
 604:../../Drivers/STM32H7xx_HAL_Driver/Src/stm32h7xx_hal_rcc.c ****         tickstart = HAL_GetTick();
 605:../../Drivers/STM32H7xx_HAL_Driver/Src/stm32h7xx_hal_rcc.c **** 
 606:../../Drivers/STM32H7xx_HAL_Driver/Src/stm32h7xx_hal_rcc.c ****         /* Wait till CSI is disabled */
 607:../../Drivers/STM32H7xx_HAL_Driver/Src/stm32h7xx_hal_rcc.c ****         while (__HAL_RCC_GET_FLAG(RCC_FLAG_CSIRDY) != 0U)
 608:../../Drivers/STM32H7xx_HAL_Driver/Src/stm32h7xx_hal_rcc.c ****         {
 609:../../Drivers/STM32H7xx_HAL_Driver/Src/stm32h7xx_hal_rcc.c ****           if ((HAL_GetTick() - tickstart) > CSI_TIMEOUT_VALUE)
 610:../../Drivers/STM32H7xx_HAL_Driver/Src/stm32h7xx_hal_rcc.c ****           {
 611:../../Drivers/STM32H7xx_HAL_Driver/Src/stm32h7xx_hal_rcc.c ****             return HAL_TIMEOUT;
 612:../../Drivers/STM32H7xx_HAL_Driver/Src/stm32h7xx_hal_rcc.c ****           }
 613:../../Drivers/STM32H7xx_HAL_Driver/Src/stm32h7xx_hal_rcc.c ****         }
 614:../../Drivers/STM32H7xx_HAL_Driver/Src/stm32h7xx_hal_rcc.c ****       }
 615:../../Drivers/STM32H7xx_HAL_Driver/Src/stm32h7xx_hal_rcc.c ****     }
 616:../../Drivers/STM32H7xx_HAL_Driver/Src/stm32h7xx_hal_rcc.c ****   }
 617:../../Drivers/STM32H7xx_HAL_Driver/Src/stm32h7xx_hal_rcc.c ****   /*------------------------------ LSI Configuration -------------------------*/
 618:../../Drivers/STM32H7xx_HAL_Driver/Src/stm32h7xx_hal_rcc.c ****   if (((RCC_OscInitStruct->OscillatorType) & RCC_OSCILLATORTYPE_LSI) == RCC_OSCILLATORTYPE_LSI)
 971              		.loc 1 618 3 is_stmt 1 view .LVU308
 972              		.loc 1 618 26 is_stmt 0 view .LVU309
 973 02c4 2368     		ldr	r3, [r4]
 974              		.loc 1 618 6 view .LVU310
 975 02c6 13F0080F 		tst	r3, #8
 976 02ca 60D0     		beq	.L77
 619:../../Drivers/STM32H7xx_HAL_Driver/Src/stm32h7xx_hal_rcc.c ****   {
 620:../../Drivers/STM32H7xx_HAL_Driver/Src/stm32h7xx_hal_rcc.c ****     /* Check the parameters */
 621:../../Drivers/STM32H7xx_HAL_Driver/Src/stm32h7xx_hal_rcc.c ****     assert_param(IS_RCC_LSI(RCC_OscInitStruct->LSIState));
 977              		.loc 1 621 5 is_stmt 1 view .LVU311
 622:../../Drivers/STM32H7xx_HAL_Driver/Src/stm32h7xx_hal_rcc.c **** 
 623:../../Drivers/STM32H7xx_HAL_Driver/Src/stm32h7xx_hal_rcc.c ****     /* Check the LSI State */
 624:../../Drivers/STM32H7xx_HAL_Driver/Src/stm32h7xx_hal_rcc.c ****     if ((RCC_OscInitStruct->LSIState) != RCC_LSI_OFF)
 978              		.loc 1 624 5 view .LVU312
 979              		.loc 1 624 27 is_stmt 0 view .LVU313
 980 02cc 6369     		ldr	r3, [r4, #20]
 981              		.loc 1 624 8 view .LVU314
ARM GAS  /tmp/ccooDZtA.s 			page 31


 982 02ce 002B     		cmp	r3, #0
 983 02d0 49D0     		beq	.L78
 625:../../Drivers/STM32H7xx_HAL_Driver/Src/stm32h7xx_hal_rcc.c ****     {
 626:../../Drivers/STM32H7xx_HAL_Driver/Src/stm32h7xx_hal_rcc.c ****       /* Enable the Internal Low Speed oscillator (LSI). */
 627:../../Drivers/STM32H7xx_HAL_Driver/Src/stm32h7xx_hal_rcc.c ****       __HAL_RCC_LSI_ENABLE();
 984              		.loc 1 627 7 is_stmt 1 view .LVU315
 985 02d2 894A     		ldr	r2, .L168
 986 02d4 536F     		ldr	r3, [r2, #116]
 987 02d6 43F00103 		orr	r3, r3, #1
 988 02da 5367     		str	r3, [r2, #116]
 628:../../Drivers/STM32H7xx_HAL_Driver/Src/stm32h7xx_hal_rcc.c **** 
 629:../../Drivers/STM32H7xx_HAL_Driver/Src/stm32h7xx_hal_rcc.c ****       /* Get Start Tick*/
 630:../../Drivers/STM32H7xx_HAL_Driver/Src/stm32h7xx_hal_rcc.c ****       tickstart = HAL_GetTick();
 989              		.loc 1 630 7 view .LVU316
 990              		.loc 1 630 19 is_stmt 0 view .LVU317
 991 02dc FFF7FEFF 		bl	HAL_GetTick
 992              	.LVL78:
 993 02e0 0546     		mov	r5, r0
 994              	.LVL79:
 631:../../Drivers/STM32H7xx_HAL_Driver/Src/stm32h7xx_hal_rcc.c **** 
 632:../../Drivers/STM32H7xx_HAL_Driver/Src/stm32h7xx_hal_rcc.c ****       /* Wait till LSI is ready */
 633:../../Drivers/STM32H7xx_HAL_Driver/Src/stm32h7xx_hal_rcc.c ****       while (__HAL_RCC_GET_FLAG(RCC_FLAG_LSIRDY) == 0U)
 995              		.loc 1 633 7 is_stmt 1 view .LVU318
 996              	.L79:
 997              		.loc 1 633 13 view .LVU319
 998              		.loc 1 633 14 is_stmt 0 view .LVU320
 999 02e2 854B     		ldr	r3, .L168
 1000 02e4 5B6F     		ldr	r3, [r3, #116]
 1001              		.loc 1 633 13 view .LVU321
 1002 02e6 13F0020F 		tst	r3, #2
 1003 02ea 50D1     		bne	.L77
 634:../../Drivers/STM32H7xx_HAL_Driver/Src/stm32h7xx_hal_rcc.c ****       {
 635:../../Drivers/STM32H7xx_HAL_Driver/Src/stm32h7xx_hal_rcc.c ****         if ((HAL_GetTick() - tickstart) > LSI_TIMEOUT_VALUE)
 1004              		.loc 1 635 9 is_stmt 1 view .LVU322
 1005              		.loc 1 635 14 is_stmt 0 view .LVU323
 1006 02ec FFF7FEFF 		bl	HAL_GetTick
 1007              	.LVL80:
 1008              		.loc 1 635 28 view .LVU324
 1009 02f0 401B     		subs	r0, r0, r5
 1010              		.loc 1 635 12 view .LVU325
 1011 02f2 0228     		cmp	r0, #2
 1012 02f4 F5D9     		bls	.L79
 636:../../Drivers/STM32H7xx_HAL_Driver/Src/stm32h7xx_hal_rcc.c ****         {
 637:../../Drivers/STM32H7xx_HAL_Driver/Src/stm32h7xx_hal_rcc.c ****           return HAL_TIMEOUT;
 1013              		.loc 1 637 18 view .LVU326
 1014 02f6 0320     		movs	r0, #3
 1015 02f8 C7E1     		b	.L36
 1016              	.L153:
 1017              	.LBB9:
 596:../../Drivers/STM32H7xx_HAL_Driver/Src/stm32h7xx_hal_rcc.c ****       }
 1018              		.loc 1 596 9 is_stmt 1 view .LVU327
 596:../../Drivers/STM32H7xx_HAL_Driver/Src/stm32h7xx_hal_rcc.c ****       }
 1019              		.loc 1 596 9 view .LVU328
 1020 02fa FFF7FEFF 		bl	HAL_GetREVID
 1021              	.LVL81:
 1022 02fe 41F20303 		movw	r3, #4099
 1023 0302 9842     		cmp	r0, r3
ARM GAS  /tmp/ccooDZtA.s 			page 32


 1024 0304 12D8     		bhi	.L73
 596:../../Drivers/STM32H7xx_HAL_Driver/Src/stm32h7xx_hal_rcc.c ****       }
 1025              		.loc 1 596 9 discriminator 1 view .LVU329
 1026 0306 226A     		ldr	r2, [r4, #32]
 1027 0308 202A     		cmp	r2, #32
 1028 030a 07D0     		beq	.L156
 596:../../Drivers/STM32H7xx_HAL_Driver/Src/stm32h7xx_hal_rcc.c ****       }
 1029              		.loc 1 596 9 discriminator 4 view .LVU330
 1030 030c 7A49     		ldr	r1, .L168
 1031 030e 4B68     		ldr	r3, [r1, #4]
 1032 0310 23F0F843 		bic	r3, r3, #2080374784
 1033 0314 43EA8263 		orr	r3, r3, r2, lsl #26
 1034 0318 4B60     		str	r3, [r1, #4]
 1035 031a D3E7     		b	.L64
 1036              	.L156:
 596:../../Drivers/STM32H7xx_HAL_Driver/Src/stm32h7xx_hal_rcc.c ****       }
 1037              		.loc 1 596 9 discriminator 3 view .LVU331
 1038 031c 764A     		ldr	r2, .L168
 1039 031e 5368     		ldr	r3, [r2, #4]
 1040 0320 23F0F843 		bic	r3, r3, #2080374784
 1041 0324 43F08043 		orr	r3, r3, #1073741824
 1042 0328 5360     		str	r3, [r2, #4]
 1043 032a CBE7     		b	.L64
 1044              	.L73:
 596:../../Drivers/STM32H7xx_HAL_Driver/Src/stm32h7xx_hal_rcc.c ****       }
 1045              		.loc 1 596 9 discriminator 2 view .LVU332
 1046 032c 724A     		ldr	r2, .L168
 1047 032e D368     		ldr	r3, [r2, #12]
 1048 0330 23F07C53 		bic	r3, r3, #1056964608
 1049 0334 216A     		ldr	r1, [r4, #32]
 1050 0336 43EA0163 		orr	r3, r3, r1, lsl #24
 1051 033a D360     		str	r3, [r2, #12]
 1052 033c C2E7     		b	.L64
 1053              	.LVL82:
 1054              	.L70:
 601:../../Drivers/STM32H7xx_HAL_Driver/Src/stm32h7xx_hal_rcc.c **** 
 1055              		.loc 1 601 9 view .LVU333
 1056 033e 6E4A     		ldr	r2, .L168
 1057 0340 1368     		ldr	r3, [r2]
 1058 0342 23F08003 		bic	r3, r3, #128
 1059 0346 1360     		str	r3, [r2]
 604:../../Drivers/STM32H7xx_HAL_Driver/Src/stm32h7xx_hal_rcc.c **** 
 1060              		.loc 1 604 9 view .LVU334
 604:../../Drivers/STM32H7xx_HAL_Driver/Src/stm32h7xx_hal_rcc.c **** 
 1061              		.loc 1 604 21 is_stmt 0 view .LVU335
 1062 0348 FFF7FEFF 		bl	HAL_GetTick
 1063              	.LVL83:
 1064 034c 0546     		mov	r5, r0
 1065              	.LVL84:
 607:../../Drivers/STM32H7xx_HAL_Driver/Src/stm32h7xx_hal_rcc.c ****         {
 1066              		.loc 1 607 9 is_stmt 1 view .LVU336
 1067              	.L75:
 607:../../Drivers/STM32H7xx_HAL_Driver/Src/stm32h7xx_hal_rcc.c ****         {
 1068              		.loc 1 607 15 view .LVU337
 607:../../Drivers/STM32H7xx_HAL_Driver/Src/stm32h7xx_hal_rcc.c ****         {
 1069              		.loc 1 607 16 is_stmt 0 view .LVU338
 1070 034e 6A4B     		ldr	r3, .L168
ARM GAS  /tmp/ccooDZtA.s 			page 33


 1071 0350 1B68     		ldr	r3, [r3]
 607:../../Drivers/STM32H7xx_HAL_Driver/Src/stm32h7xx_hal_rcc.c ****         {
 1072              		.loc 1 607 15 view .LVU339
 1073 0352 13F4807F 		tst	r3, #256
 1074 0356 B5D0     		beq	.L64
 609:../../Drivers/STM32H7xx_HAL_Driver/Src/stm32h7xx_hal_rcc.c ****           {
 1075              		.loc 1 609 11 is_stmt 1 view .LVU340
 609:../../Drivers/STM32H7xx_HAL_Driver/Src/stm32h7xx_hal_rcc.c ****           {
 1076              		.loc 1 609 16 is_stmt 0 view .LVU341
 1077 0358 FFF7FEFF 		bl	HAL_GetTick
 1078              	.LVL85:
 609:../../Drivers/STM32H7xx_HAL_Driver/Src/stm32h7xx_hal_rcc.c ****           {
 1079              		.loc 1 609 30 view .LVU342
 1080 035c 401B     		subs	r0, r0, r5
 609:../../Drivers/STM32H7xx_HAL_Driver/Src/stm32h7xx_hal_rcc.c ****           {
 1081              		.loc 1 609 14 view .LVU343
 1082 035e 0228     		cmp	r0, #2
 1083 0360 F5D9     		bls	.L75
 611:../../Drivers/STM32H7xx_HAL_Driver/Src/stm32h7xx_hal_rcc.c ****           }
 1084              		.loc 1 611 20 view .LVU344
 1085 0362 0320     		movs	r0, #3
 1086 0364 91E1     		b	.L36
 1087              	.LVL86:
 1088              	.L78:
 611:../../Drivers/STM32H7xx_HAL_Driver/Src/stm32h7xx_hal_rcc.c ****           }
 1089              		.loc 1 611 20 view .LVU345
 1090              	.LBE9:
 638:../../Drivers/STM32H7xx_HAL_Driver/Src/stm32h7xx_hal_rcc.c ****         }
 639:../../Drivers/STM32H7xx_HAL_Driver/Src/stm32h7xx_hal_rcc.c ****       }
 640:../../Drivers/STM32H7xx_HAL_Driver/Src/stm32h7xx_hal_rcc.c ****     }
 641:../../Drivers/STM32H7xx_HAL_Driver/Src/stm32h7xx_hal_rcc.c ****     else
 642:../../Drivers/STM32H7xx_HAL_Driver/Src/stm32h7xx_hal_rcc.c ****     {
 643:../../Drivers/STM32H7xx_HAL_Driver/Src/stm32h7xx_hal_rcc.c ****       /* Disable the Internal Low Speed oscillator (LSI). */
 644:../../Drivers/STM32H7xx_HAL_Driver/Src/stm32h7xx_hal_rcc.c ****       __HAL_RCC_LSI_DISABLE();
 1091              		.loc 1 644 7 is_stmt 1 view .LVU346
 1092 0366 644A     		ldr	r2, .L168
 1093 0368 536F     		ldr	r3, [r2, #116]
 1094 036a 23F00103 		bic	r3, r3, #1
 1095 036e 5367     		str	r3, [r2, #116]
 645:../../Drivers/STM32H7xx_HAL_Driver/Src/stm32h7xx_hal_rcc.c **** 
 646:../../Drivers/STM32H7xx_HAL_Driver/Src/stm32h7xx_hal_rcc.c ****       /* Get Start Tick*/
 647:../../Drivers/STM32H7xx_HAL_Driver/Src/stm32h7xx_hal_rcc.c ****       tickstart = HAL_GetTick();
 1096              		.loc 1 647 7 view .LVU347
 1097              		.loc 1 647 19 is_stmt 0 view .LVU348
 1098 0370 FFF7FEFF 		bl	HAL_GetTick
 1099              	.LVL87:
 1100 0374 0546     		mov	r5, r0
 1101              	.LVL88:
 648:../../Drivers/STM32H7xx_HAL_Driver/Src/stm32h7xx_hal_rcc.c **** 
 649:../../Drivers/STM32H7xx_HAL_Driver/Src/stm32h7xx_hal_rcc.c ****       /* Wait till LSI is ready */
 650:../../Drivers/STM32H7xx_HAL_Driver/Src/stm32h7xx_hal_rcc.c ****       while (__HAL_RCC_GET_FLAG(RCC_FLAG_LSIRDY) != 0U)
 1102              		.loc 1 650 7 is_stmt 1 view .LVU349
 1103              	.L81:
 1104              		.loc 1 650 13 view .LVU350
 1105              		.loc 1 650 14 is_stmt 0 view .LVU351
 1106 0376 604B     		ldr	r3, .L168
 1107 0378 5B6F     		ldr	r3, [r3, #116]
ARM GAS  /tmp/ccooDZtA.s 			page 34


 1108              		.loc 1 650 13 view .LVU352
 1109 037a 13F0020F 		tst	r3, #2
 1110 037e 06D0     		beq	.L77
 651:../../Drivers/STM32H7xx_HAL_Driver/Src/stm32h7xx_hal_rcc.c ****       {
 652:../../Drivers/STM32H7xx_HAL_Driver/Src/stm32h7xx_hal_rcc.c ****         if ((HAL_GetTick() - tickstart) > LSI_TIMEOUT_VALUE)
 1111              		.loc 1 652 9 is_stmt 1 view .LVU353
 1112              		.loc 1 652 14 is_stmt 0 view .LVU354
 1113 0380 FFF7FEFF 		bl	HAL_GetTick
 1114              	.LVL89:
 1115              		.loc 1 652 28 view .LVU355
 1116 0384 401B     		subs	r0, r0, r5
 1117              		.loc 1 652 12 view .LVU356
 1118 0386 0228     		cmp	r0, #2
 1119 0388 F5D9     		bls	.L81
 653:../../Drivers/STM32H7xx_HAL_Driver/Src/stm32h7xx_hal_rcc.c ****         {
 654:../../Drivers/STM32H7xx_HAL_Driver/Src/stm32h7xx_hal_rcc.c ****           return HAL_TIMEOUT;
 1120              		.loc 1 654 18 view .LVU357
 1121 038a 0320     		movs	r0, #3
 1122 038c 7DE1     		b	.L36
 1123              	.LVL90:
 1124              	.L77:
 655:../../Drivers/STM32H7xx_HAL_Driver/Src/stm32h7xx_hal_rcc.c ****         }
 656:../../Drivers/STM32H7xx_HAL_Driver/Src/stm32h7xx_hal_rcc.c ****       }
 657:../../Drivers/STM32H7xx_HAL_Driver/Src/stm32h7xx_hal_rcc.c ****     }
 658:../../Drivers/STM32H7xx_HAL_Driver/Src/stm32h7xx_hal_rcc.c ****   }
 659:../../Drivers/STM32H7xx_HAL_Driver/Src/stm32h7xx_hal_rcc.c **** 
 660:../../Drivers/STM32H7xx_HAL_Driver/Src/stm32h7xx_hal_rcc.c ****   /*------------------------------ HSI48 Configuration -------------------------*/
 661:../../Drivers/STM32H7xx_HAL_Driver/Src/stm32h7xx_hal_rcc.c ****   if (((RCC_OscInitStruct->OscillatorType) & RCC_OSCILLATORTYPE_HSI48) == RCC_OSCILLATORTYPE_HSI48)
 1125              		.loc 1 661 3 is_stmt 1 view .LVU358
 1126              		.loc 1 661 26 is_stmt 0 view .LVU359
 1127 038e 2368     		ldr	r3, [r4]
 1128              		.loc 1 661 6 view .LVU360
 1129 0390 13F0200F 		tst	r3, #32
 1130 0394 29D0     		beq	.L83
 662:../../Drivers/STM32H7xx_HAL_Driver/Src/stm32h7xx_hal_rcc.c ****   {
 663:../../Drivers/STM32H7xx_HAL_Driver/Src/stm32h7xx_hal_rcc.c ****     /* Check the parameters */
 664:../../Drivers/STM32H7xx_HAL_Driver/Src/stm32h7xx_hal_rcc.c ****     assert_param(IS_RCC_HSI48(RCC_OscInitStruct->HSI48State));
 1131              		.loc 1 664 5 is_stmt 1 view .LVU361
 665:../../Drivers/STM32H7xx_HAL_Driver/Src/stm32h7xx_hal_rcc.c **** 
 666:../../Drivers/STM32H7xx_HAL_Driver/Src/stm32h7xx_hal_rcc.c ****     /* Check the HSI48 State */
 667:../../Drivers/STM32H7xx_HAL_Driver/Src/stm32h7xx_hal_rcc.c ****     if ((RCC_OscInitStruct->HSI48State) != RCC_HSI48_OFF)
 1132              		.loc 1 667 5 view .LVU362
 1133              		.loc 1 667 27 is_stmt 0 view .LVU363
 1134 0396 A369     		ldr	r3, [r4, #24]
 1135              		.loc 1 667 8 view .LVU364
 1136 0398 9BB1     		cbz	r3, .L84
 668:../../Drivers/STM32H7xx_HAL_Driver/Src/stm32h7xx_hal_rcc.c ****     {
 669:../../Drivers/STM32H7xx_HAL_Driver/Src/stm32h7xx_hal_rcc.c ****       /* Enable the Internal Low Speed oscillator (HSI48). */
 670:../../Drivers/STM32H7xx_HAL_Driver/Src/stm32h7xx_hal_rcc.c ****       __HAL_RCC_HSI48_ENABLE();
 1137              		.loc 1 670 7 is_stmt 1 view .LVU365
 1138 039a 574A     		ldr	r2, .L168
 1139 039c 1368     		ldr	r3, [r2]
 1140 039e 43F48053 		orr	r3, r3, #4096
 1141 03a2 1360     		str	r3, [r2]
 1142              		.loc 1 670 31 view .LVU366
 671:../../Drivers/STM32H7xx_HAL_Driver/Src/stm32h7xx_hal_rcc.c **** 
 672:../../Drivers/STM32H7xx_HAL_Driver/Src/stm32h7xx_hal_rcc.c ****       /* Get time-out */
ARM GAS  /tmp/ccooDZtA.s 			page 35


 673:../../Drivers/STM32H7xx_HAL_Driver/Src/stm32h7xx_hal_rcc.c ****       tickstart = HAL_GetTick();
 1143              		.loc 1 673 7 view .LVU367
 1144              		.loc 1 673 19 is_stmt 0 view .LVU368
 1145 03a4 FFF7FEFF 		bl	HAL_GetTick
 1146              	.LVL91:
 1147 03a8 0546     		mov	r5, r0
 1148              	.LVL92:
 674:../../Drivers/STM32H7xx_HAL_Driver/Src/stm32h7xx_hal_rcc.c **** 
 675:../../Drivers/STM32H7xx_HAL_Driver/Src/stm32h7xx_hal_rcc.c ****       /* Wait till HSI48 is ready */
 676:../../Drivers/STM32H7xx_HAL_Driver/Src/stm32h7xx_hal_rcc.c ****       while (__HAL_RCC_GET_FLAG(RCC_FLAG_HSI48RDY) == 0U)
 1149              		.loc 1 676 7 is_stmt 1 view .LVU369
 1150              	.L85:
 1151              		.loc 1 676 13 view .LVU370
 1152              		.loc 1 676 14 is_stmt 0 view .LVU371
 1153 03aa 534B     		ldr	r3, .L168
 1154 03ac 1B68     		ldr	r3, [r3]
 1155              		.loc 1 676 13 view .LVU372
 1156 03ae 13F4005F 		tst	r3, #8192
 1157 03b2 1AD1     		bne	.L83
 677:../../Drivers/STM32H7xx_HAL_Driver/Src/stm32h7xx_hal_rcc.c ****       {
 678:../../Drivers/STM32H7xx_HAL_Driver/Src/stm32h7xx_hal_rcc.c ****         if ((HAL_GetTick() - tickstart) > HSI48_TIMEOUT_VALUE)
 1158              		.loc 1 678 9 is_stmt 1 view .LVU373
 1159              		.loc 1 678 14 is_stmt 0 view .LVU374
 1160 03b4 FFF7FEFF 		bl	HAL_GetTick
 1161              	.LVL93:
 1162              		.loc 1 678 28 view .LVU375
 1163 03b8 401B     		subs	r0, r0, r5
 1164              		.loc 1 678 12 view .LVU376
 1165 03ba 0228     		cmp	r0, #2
 1166 03bc F5D9     		bls	.L85
 679:../../Drivers/STM32H7xx_HAL_Driver/Src/stm32h7xx_hal_rcc.c ****         {
 680:../../Drivers/STM32H7xx_HAL_Driver/Src/stm32h7xx_hal_rcc.c ****           return HAL_TIMEOUT;
 1167              		.loc 1 680 18 view .LVU377
 1168 03be 0320     		movs	r0, #3
 1169 03c0 63E1     		b	.L36
 1170              	.LVL94:
 1171              	.L84:
 681:../../Drivers/STM32H7xx_HAL_Driver/Src/stm32h7xx_hal_rcc.c ****         }
 682:../../Drivers/STM32H7xx_HAL_Driver/Src/stm32h7xx_hal_rcc.c ****       }
 683:../../Drivers/STM32H7xx_HAL_Driver/Src/stm32h7xx_hal_rcc.c ****     }
 684:../../Drivers/STM32H7xx_HAL_Driver/Src/stm32h7xx_hal_rcc.c ****     else
 685:../../Drivers/STM32H7xx_HAL_Driver/Src/stm32h7xx_hal_rcc.c ****     {
 686:../../Drivers/STM32H7xx_HAL_Driver/Src/stm32h7xx_hal_rcc.c ****       /* Disable the Internal Low Speed oscillator (HSI48). */
 687:../../Drivers/STM32H7xx_HAL_Driver/Src/stm32h7xx_hal_rcc.c ****       __HAL_RCC_HSI48_DISABLE();
 1172              		.loc 1 687 7 is_stmt 1 view .LVU378
 1173 03c2 4D4A     		ldr	r2, .L168
 1174 03c4 1368     		ldr	r3, [r2]
 1175 03c6 23F48053 		bic	r3, r3, #4096
 1176 03ca 1360     		str	r3, [r2]
 1177              		.loc 1 687 32 view .LVU379
 688:../../Drivers/STM32H7xx_HAL_Driver/Src/stm32h7xx_hal_rcc.c **** 
 689:../../Drivers/STM32H7xx_HAL_Driver/Src/stm32h7xx_hal_rcc.c ****       /* Get time-out */
 690:../../Drivers/STM32H7xx_HAL_Driver/Src/stm32h7xx_hal_rcc.c ****       tickstart = HAL_GetTick();
 1178              		.loc 1 690 7 view .LVU380
 1179              		.loc 1 690 19 is_stmt 0 view .LVU381
 1180 03cc FFF7FEFF 		bl	HAL_GetTick
 1181              	.LVL95:
ARM GAS  /tmp/ccooDZtA.s 			page 36


 1182 03d0 0546     		mov	r5, r0
 1183              	.LVL96:
 691:../../Drivers/STM32H7xx_HAL_Driver/Src/stm32h7xx_hal_rcc.c **** 
 692:../../Drivers/STM32H7xx_HAL_Driver/Src/stm32h7xx_hal_rcc.c ****       /* Wait till HSI48 is ready */
 693:../../Drivers/STM32H7xx_HAL_Driver/Src/stm32h7xx_hal_rcc.c ****       while (__HAL_RCC_GET_FLAG(RCC_FLAG_HSI48RDY) != 0U)
 1184              		.loc 1 693 7 is_stmt 1 view .LVU382
 1185              	.L87:
 1186              		.loc 1 693 13 view .LVU383
 1187              		.loc 1 693 14 is_stmt 0 view .LVU384
 1188 03d2 494B     		ldr	r3, .L168
 1189 03d4 1B68     		ldr	r3, [r3]
 1190              		.loc 1 693 13 view .LVU385
 1191 03d6 13F4005F 		tst	r3, #8192
 1192 03da 06D0     		beq	.L83
 694:../../Drivers/STM32H7xx_HAL_Driver/Src/stm32h7xx_hal_rcc.c ****       {
 695:../../Drivers/STM32H7xx_HAL_Driver/Src/stm32h7xx_hal_rcc.c ****         if ((HAL_GetTick() - tickstart) > HSI48_TIMEOUT_VALUE)
 1193              		.loc 1 695 9 is_stmt 1 view .LVU386
 1194              		.loc 1 695 14 is_stmt 0 view .LVU387
 1195 03dc FFF7FEFF 		bl	HAL_GetTick
 1196              	.LVL97:
 1197              		.loc 1 695 28 view .LVU388
 1198 03e0 401B     		subs	r0, r0, r5
 1199              		.loc 1 695 12 view .LVU389
 1200 03e2 0228     		cmp	r0, #2
 1201 03e4 F5D9     		bls	.L87
 696:../../Drivers/STM32H7xx_HAL_Driver/Src/stm32h7xx_hal_rcc.c ****         {
 697:../../Drivers/STM32H7xx_HAL_Driver/Src/stm32h7xx_hal_rcc.c ****           return HAL_TIMEOUT;
 1202              		.loc 1 697 18 view .LVU390
 1203 03e6 0320     		movs	r0, #3
 1204 03e8 4FE1     		b	.L36
 1205              	.LVL98:
 1206              	.L83:
 698:../../Drivers/STM32H7xx_HAL_Driver/Src/stm32h7xx_hal_rcc.c ****         }
 699:../../Drivers/STM32H7xx_HAL_Driver/Src/stm32h7xx_hal_rcc.c ****       }
 700:../../Drivers/STM32H7xx_HAL_Driver/Src/stm32h7xx_hal_rcc.c ****     }
 701:../../Drivers/STM32H7xx_HAL_Driver/Src/stm32h7xx_hal_rcc.c ****   }
 702:../../Drivers/STM32H7xx_HAL_Driver/Src/stm32h7xx_hal_rcc.c ****   /*------------------------------ LSE Configuration -------------------------*/
 703:../../Drivers/STM32H7xx_HAL_Driver/Src/stm32h7xx_hal_rcc.c ****   if (((RCC_OscInitStruct->OscillatorType) & RCC_OSCILLATORTYPE_LSE) == RCC_OSCILLATORTYPE_LSE)
 1207              		.loc 1 703 3 is_stmt 1 view .LVU391
 1208              		.loc 1 703 26 is_stmt 0 view .LVU392
 1209 03ea 2368     		ldr	r3, [r4]
 1210              		.loc 1 703 6 view .LVU393
 1211 03ec 13F0040F 		tst	r3, #4
 1212 03f0 21D1     		bne	.L157
 1213              	.L89:
 704:../../Drivers/STM32H7xx_HAL_Driver/Src/stm32h7xx_hal_rcc.c ****   {
 705:../../Drivers/STM32H7xx_HAL_Driver/Src/stm32h7xx_hal_rcc.c ****     /* Check the parameters */
 706:../../Drivers/STM32H7xx_HAL_Driver/Src/stm32h7xx_hal_rcc.c ****     assert_param(IS_RCC_LSE(RCC_OscInitStruct->LSEState));
 707:../../Drivers/STM32H7xx_HAL_Driver/Src/stm32h7xx_hal_rcc.c **** 
 708:../../Drivers/STM32H7xx_HAL_Driver/Src/stm32h7xx_hal_rcc.c ****     /* Enable write access to Backup domain */
 709:../../Drivers/STM32H7xx_HAL_Driver/Src/stm32h7xx_hal_rcc.c ****     PWR->CR1 |= PWR_CR1_DBP;
 710:../../Drivers/STM32H7xx_HAL_Driver/Src/stm32h7xx_hal_rcc.c **** 
 711:../../Drivers/STM32H7xx_HAL_Driver/Src/stm32h7xx_hal_rcc.c ****     /* Wait for Backup domain Write protection disable */
 712:../../Drivers/STM32H7xx_HAL_Driver/Src/stm32h7xx_hal_rcc.c ****     tickstart = HAL_GetTick();
 713:../../Drivers/STM32H7xx_HAL_Driver/Src/stm32h7xx_hal_rcc.c **** 
 714:../../Drivers/STM32H7xx_HAL_Driver/Src/stm32h7xx_hal_rcc.c ****     while ((PWR->CR1 & PWR_CR1_DBP) == 0U)
 715:../../Drivers/STM32H7xx_HAL_Driver/Src/stm32h7xx_hal_rcc.c ****     {
ARM GAS  /tmp/ccooDZtA.s 			page 37


 716:../../Drivers/STM32H7xx_HAL_Driver/Src/stm32h7xx_hal_rcc.c ****       if ((HAL_GetTick() - tickstart) > RCC_DBP_TIMEOUT_VALUE)
 717:../../Drivers/STM32H7xx_HAL_Driver/Src/stm32h7xx_hal_rcc.c ****       {
 718:../../Drivers/STM32H7xx_HAL_Driver/Src/stm32h7xx_hal_rcc.c ****         return HAL_TIMEOUT;
 719:../../Drivers/STM32H7xx_HAL_Driver/Src/stm32h7xx_hal_rcc.c ****       }
 720:../../Drivers/STM32H7xx_HAL_Driver/Src/stm32h7xx_hal_rcc.c ****     }
 721:../../Drivers/STM32H7xx_HAL_Driver/Src/stm32h7xx_hal_rcc.c **** 
 722:../../Drivers/STM32H7xx_HAL_Driver/Src/stm32h7xx_hal_rcc.c ****     /* Set the new LSE configuration -----------------------------------------*/
 723:../../Drivers/STM32H7xx_HAL_Driver/Src/stm32h7xx_hal_rcc.c ****     __HAL_RCC_LSE_CONFIG(RCC_OscInitStruct->LSEState);
 724:../../Drivers/STM32H7xx_HAL_Driver/Src/stm32h7xx_hal_rcc.c ****     /* Check the LSE State */
 725:../../Drivers/STM32H7xx_HAL_Driver/Src/stm32h7xx_hal_rcc.c ****     if ((RCC_OscInitStruct->LSEState) != RCC_LSE_OFF)
 726:../../Drivers/STM32H7xx_HAL_Driver/Src/stm32h7xx_hal_rcc.c ****     {
 727:../../Drivers/STM32H7xx_HAL_Driver/Src/stm32h7xx_hal_rcc.c ****       /* Get Start Tick*/
 728:../../Drivers/STM32H7xx_HAL_Driver/Src/stm32h7xx_hal_rcc.c ****       tickstart = HAL_GetTick();
 729:../../Drivers/STM32H7xx_HAL_Driver/Src/stm32h7xx_hal_rcc.c **** 
 730:../../Drivers/STM32H7xx_HAL_Driver/Src/stm32h7xx_hal_rcc.c ****       /* Wait till LSE is ready */
 731:../../Drivers/STM32H7xx_HAL_Driver/Src/stm32h7xx_hal_rcc.c ****       while (__HAL_RCC_GET_FLAG(RCC_FLAG_LSERDY) == 0U)
 732:../../Drivers/STM32H7xx_HAL_Driver/Src/stm32h7xx_hal_rcc.c ****       {
 733:../../Drivers/STM32H7xx_HAL_Driver/Src/stm32h7xx_hal_rcc.c ****         if ((HAL_GetTick() - tickstart) > RCC_LSE_TIMEOUT_VALUE)
 734:../../Drivers/STM32H7xx_HAL_Driver/Src/stm32h7xx_hal_rcc.c ****         {
 735:../../Drivers/STM32H7xx_HAL_Driver/Src/stm32h7xx_hal_rcc.c ****           return HAL_TIMEOUT;
 736:../../Drivers/STM32H7xx_HAL_Driver/Src/stm32h7xx_hal_rcc.c ****         }
 737:../../Drivers/STM32H7xx_HAL_Driver/Src/stm32h7xx_hal_rcc.c ****       }
 738:../../Drivers/STM32H7xx_HAL_Driver/Src/stm32h7xx_hal_rcc.c ****     }
 739:../../Drivers/STM32H7xx_HAL_Driver/Src/stm32h7xx_hal_rcc.c ****     else
 740:../../Drivers/STM32H7xx_HAL_Driver/Src/stm32h7xx_hal_rcc.c ****     {
 741:../../Drivers/STM32H7xx_HAL_Driver/Src/stm32h7xx_hal_rcc.c ****       /* Get Start Tick*/
 742:../../Drivers/STM32H7xx_HAL_Driver/Src/stm32h7xx_hal_rcc.c ****       tickstart = HAL_GetTick();
 743:../../Drivers/STM32H7xx_HAL_Driver/Src/stm32h7xx_hal_rcc.c **** 
 744:../../Drivers/STM32H7xx_HAL_Driver/Src/stm32h7xx_hal_rcc.c ****       /* Wait till LSE is disabled */
 745:../../Drivers/STM32H7xx_HAL_Driver/Src/stm32h7xx_hal_rcc.c ****       while (__HAL_RCC_GET_FLAG(RCC_FLAG_LSERDY) != 0U)
 746:../../Drivers/STM32H7xx_HAL_Driver/Src/stm32h7xx_hal_rcc.c ****       {
 747:../../Drivers/STM32H7xx_HAL_Driver/Src/stm32h7xx_hal_rcc.c ****         if ((HAL_GetTick() - tickstart) > RCC_LSE_TIMEOUT_VALUE)
 748:../../Drivers/STM32H7xx_HAL_Driver/Src/stm32h7xx_hal_rcc.c ****         {
 749:../../Drivers/STM32H7xx_HAL_Driver/Src/stm32h7xx_hal_rcc.c ****           return HAL_TIMEOUT;
 750:../../Drivers/STM32H7xx_HAL_Driver/Src/stm32h7xx_hal_rcc.c ****         }
 751:../../Drivers/STM32H7xx_HAL_Driver/Src/stm32h7xx_hal_rcc.c ****       }
 752:../../Drivers/STM32H7xx_HAL_Driver/Src/stm32h7xx_hal_rcc.c ****     }
 753:../../Drivers/STM32H7xx_HAL_Driver/Src/stm32h7xx_hal_rcc.c ****   }
 754:../../Drivers/STM32H7xx_HAL_Driver/Src/stm32h7xx_hal_rcc.c ****   /*-------------------------------- PLL Configuration -----------------------*/
 755:../../Drivers/STM32H7xx_HAL_Driver/Src/stm32h7xx_hal_rcc.c ****   /* Check the parameters */
 756:../../Drivers/STM32H7xx_HAL_Driver/Src/stm32h7xx_hal_rcc.c ****   assert_param(IS_RCC_PLL(RCC_OscInitStruct->PLL.PLLState));
 1214              		.loc 1 756 3 is_stmt 1 view .LVU394
 757:../../Drivers/STM32H7xx_HAL_Driver/Src/stm32h7xx_hal_rcc.c ****   if ((RCC_OscInitStruct->PLL.PLLState) != RCC_PLL_NONE)
 1215              		.loc 1 757 3 view .LVU395
 1216              		.loc 1 757 30 is_stmt 0 view .LVU396
 1217 03f2 636A     		ldr	r3, [r4, #36]
 1218              		.loc 1 757 6 view .LVU397
 1219 03f4 002B     		cmp	r3, #0
 1220 03f6 00F04781 		beq	.L128
 758:../../Drivers/STM32H7xx_HAL_Driver/Src/stm32h7xx_hal_rcc.c ****   {
 759:../../Drivers/STM32H7xx_HAL_Driver/Src/stm32h7xx_hal_rcc.c ****     /* Check if the PLL is used as system clock or not */
 760:../../Drivers/STM32H7xx_HAL_Driver/Src/stm32h7xx_hal_rcc.c ****     if (__HAL_RCC_GET_SYSCLK_SOURCE() != RCC_CFGR_SWS_PLL1)
 1221              		.loc 1 760 5 is_stmt 1 view .LVU398
 1222              		.loc 1 760 9 is_stmt 0 view .LVU399
 1223 03fa 3F4A     		ldr	r2, .L168
 1224 03fc 1269     		ldr	r2, [r2, #16]
 1225 03fe 02F03802 		and	r2, r2, #56
ARM GAS  /tmp/ccooDZtA.s 			page 38


 1226              		.loc 1 760 8 view .LVU400
 1227 0402 182A     		cmp	r2, #24
 1228 0404 00F0EE80 		beq	.L101
 761:../../Drivers/STM32H7xx_HAL_Driver/Src/stm32h7xx_hal_rcc.c ****     {
 762:../../Drivers/STM32H7xx_HAL_Driver/Src/stm32h7xx_hal_rcc.c ****       if ((RCC_OscInitStruct->PLL.PLLState) == RCC_PLL_ON)
 1229              		.loc 1 762 7 is_stmt 1 view .LVU401
 1230              		.loc 1 762 10 is_stmt 0 view .LVU402
 1231 0408 022B     		cmp	r3, #2
 1232 040a 79D0     		beq	.L158
 763:../../Drivers/STM32H7xx_HAL_Driver/Src/stm32h7xx_hal_rcc.c ****       {
 764:../../Drivers/STM32H7xx_HAL_Driver/Src/stm32h7xx_hal_rcc.c ****         /* Check the parameters */
 765:../../Drivers/STM32H7xx_HAL_Driver/Src/stm32h7xx_hal_rcc.c ****         assert_param(IS_RCC_PLLSOURCE(RCC_OscInitStruct->PLL.PLLSource));
 766:../../Drivers/STM32H7xx_HAL_Driver/Src/stm32h7xx_hal_rcc.c ****         assert_param(IS_RCC_PLLRGE_VALUE(RCC_OscInitStruct->PLL.PLLRGE));
 767:../../Drivers/STM32H7xx_HAL_Driver/Src/stm32h7xx_hal_rcc.c ****         assert_param(IS_RCC_PLLVCO_VALUE(RCC_OscInitStruct->PLL.PLLVCOSEL));
 768:../../Drivers/STM32H7xx_HAL_Driver/Src/stm32h7xx_hal_rcc.c ****         assert_param(IS_RCC_PLLM_VALUE(RCC_OscInitStruct->PLL.PLLM));
 769:../../Drivers/STM32H7xx_HAL_Driver/Src/stm32h7xx_hal_rcc.c ****         assert_param(IS_RCC_PLLN_VALUE(RCC_OscInitStruct->PLL.PLLN));
 770:../../Drivers/STM32H7xx_HAL_Driver/Src/stm32h7xx_hal_rcc.c ****         assert_param(IS_RCC_PLLP_VALUE(RCC_OscInitStruct->PLL.PLLP));
 771:../../Drivers/STM32H7xx_HAL_Driver/Src/stm32h7xx_hal_rcc.c ****         assert_param(IS_RCC_PLLQ_VALUE(RCC_OscInitStruct->PLL.PLLQ));
 772:../../Drivers/STM32H7xx_HAL_Driver/Src/stm32h7xx_hal_rcc.c ****         assert_param(IS_RCC_PLLR_VALUE(RCC_OscInitStruct->PLL.PLLR));
 773:../../Drivers/STM32H7xx_HAL_Driver/Src/stm32h7xx_hal_rcc.c ****         assert_param(IS_RCC_PLLFRACN_VALUE(RCC_OscInitStruct->PLL.PLLFRACN));
 774:../../Drivers/STM32H7xx_HAL_Driver/Src/stm32h7xx_hal_rcc.c **** 
 775:../../Drivers/STM32H7xx_HAL_Driver/Src/stm32h7xx_hal_rcc.c ****         /* Disable the main PLL. */
 776:../../Drivers/STM32H7xx_HAL_Driver/Src/stm32h7xx_hal_rcc.c ****         __HAL_RCC_PLL_DISABLE();
 777:../../Drivers/STM32H7xx_HAL_Driver/Src/stm32h7xx_hal_rcc.c **** 
 778:../../Drivers/STM32H7xx_HAL_Driver/Src/stm32h7xx_hal_rcc.c ****         /* Get Start Tick*/
 779:../../Drivers/STM32H7xx_HAL_Driver/Src/stm32h7xx_hal_rcc.c ****         tickstart = HAL_GetTick();
 780:../../Drivers/STM32H7xx_HAL_Driver/Src/stm32h7xx_hal_rcc.c **** 
 781:../../Drivers/STM32H7xx_HAL_Driver/Src/stm32h7xx_hal_rcc.c ****         /* Wait till PLL is disabled */
 782:../../Drivers/STM32H7xx_HAL_Driver/Src/stm32h7xx_hal_rcc.c ****         while (__HAL_RCC_GET_FLAG(RCC_FLAG_PLLRDY) != 0U)
 783:../../Drivers/STM32H7xx_HAL_Driver/Src/stm32h7xx_hal_rcc.c ****         {
 784:../../Drivers/STM32H7xx_HAL_Driver/Src/stm32h7xx_hal_rcc.c ****           if ((HAL_GetTick() - tickstart) > PLL_TIMEOUT_VALUE)
 785:../../Drivers/STM32H7xx_HAL_Driver/Src/stm32h7xx_hal_rcc.c ****           {
 786:../../Drivers/STM32H7xx_HAL_Driver/Src/stm32h7xx_hal_rcc.c ****             return HAL_TIMEOUT;
 787:../../Drivers/STM32H7xx_HAL_Driver/Src/stm32h7xx_hal_rcc.c ****           }
 788:../../Drivers/STM32H7xx_HAL_Driver/Src/stm32h7xx_hal_rcc.c ****         }
 789:../../Drivers/STM32H7xx_HAL_Driver/Src/stm32h7xx_hal_rcc.c **** 
 790:../../Drivers/STM32H7xx_HAL_Driver/Src/stm32h7xx_hal_rcc.c ****         /* Configure the main PLL clock source, multiplication and division factors. */
 791:../../Drivers/STM32H7xx_HAL_Driver/Src/stm32h7xx_hal_rcc.c ****         __HAL_RCC_PLL_CONFIG(RCC_OscInitStruct->PLL.PLLSource,
 792:../../Drivers/STM32H7xx_HAL_Driver/Src/stm32h7xx_hal_rcc.c ****                              RCC_OscInitStruct->PLL.PLLM,
 793:../../Drivers/STM32H7xx_HAL_Driver/Src/stm32h7xx_hal_rcc.c ****                              RCC_OscInitStruct->PLL.PLLN,
 794:../../Drivers/STM32H7xx_HAL_Driver/Src/stm32h7xx_hal_rcc.c ****                              RCC_OscInitStruct->PLL.PLLP,
 795:../../Drivers/STM32H7xx_HAL_Driver/Src/stm32h7xx_hal_rcc.c ****                              RCC_OscInitStruct->PLL.PLLQ,
 796:../../Drivers/STM32H7xx_HAL_Driver/Src/stm32h7xx_hal_rcc.c ****                              RCC_OscInitStruct->PLL.PLLR);
 797:../../Drivers/STM32H7xx_HAL_Driver/Src/stm32h7xx_hal_rcc.c **** 
 798:../../Drivers/STM32H7xx_HAL_Driver/Src/stm32h7xx_hal_rcc.c ****         /* Disable PLLFRACN . */
 799:../../Drivers/STM32H7xx_HAL_Driver/Src/stm32h7xx_hal_rcc.c ****         __HAL_RCC_PLLFRACN_DISABLE();
 800:../../Drivers/STM32H7xx_HAL_Driver/Src/stm32h7xx_hal_rcc.c **** 
 801:../../Drivers/STM32H7xx_HAL_Driver/Src/stm32h7xx_hal_rcc.c ****         /* Configure PLL PLL1FRACN */
 802:../../Drivers/STM32H7xx_HAL_Driver/Src/stm32h7xx_hal_rcc.c ****         __HAL_RCC_PLLFRACN_CONFIG(RCC_OscInitStruct->PLL.PLLFRACN);
 803:../../Drivers/STM32H7xx_HAL_Driver/Src/stm32h7xx_hal_rcc.c **** 
 804:../../Drivers/STM32H7xx_HAL_Driver/Src/stm32h7xx_hal_rcc.c ****         /* Select PLL1 input reference frequency range: VCI */
 805:../../Drivers/STM32H7xx_HAL_Driver/Src/stm32h7xx_hal_rcc.c ****         __HAL_RCC_PLL_VCIRANGE(RCC_OscInitStruct->PLL.PLLRGE) ;
 806:../../Drivers/STM32H7xx_HAL_Driver/Src/stm32h7xx_hal_rcc.c **** 
 807:../../Drivers/STM32H7xx_HAL_Driver/Src/stm32h7xx_hal_rcc.c ****         /* Select PLL1 output frequency range : VCO */
 808:../../Drivers/STM32H7xx_HAL_Driver/Src/stm32h7xx_hal_rcc.c ****         __HAL_RCC_PLL_VCORANGE(RCC_OscInitStruct->PLL.PLLVCOSEL) ;
 809:../../Drivers/STM32H7xx_HAL_Driver/Src/stm32h7xx_hal_rcc.c **** 
 810:../../Drivers/STM32H7xx_HAL_Driver/Src/stm32h7xx_hal_rcc.c ****         /* Enable PLL System Clock output. */
ARM GAS  /tmp/ccooDZtA.s 			page 39


 811:../../Drivers/STM32H7xx_HAL_Driver/Src/stm32h7xx_hal_rcc.c ****         __HAL_RCC_PLLCLKOUT_ENABLE(RCC_PLL1_DIVP);
 812:../../Drivers/STM32H7xx_HAL_Driver/Src/stm32h7xx_hal_rcc.c **** 
 813:../../Drivers/STM32H7xx_HAL_Driver/Src/stm32h7xx_hal_rcc.c ****         /* Enable PLL1Q Clock output. */
 814:../../Drivers/STM32H7xx_HAL_Driver/Src/stm32h7xx_hal_rcc.c ****         __HAL_RCC_PLLCLKOUT_ENABLE(RCC_PLL1_DIVQ);
 815:../../Drivers/STM32H7xx_HAL_Driver/Src/stm32h7xx_hal_rcc.c **** 
 816:../../Drivers/STM32H7xx_HAL_Driver/Src/stm32h7xx_hal_rcc.c ****         /* Enable PLL1R  Clock output. */
 817:../../Drivers/STM32H7xx_HAL_Driver/Src/stm32h7xx_hal_rcc.c ****         __HAL_RCC_PLLCLKOUT_ENABLE(RCC_PLL1_DIVR);
 818:../../Drivers/STM32H7xx_HAL_Driver/Src/stm32h7xx_hal_rcc.c **** 
 819:../../Drivers/STM32H7xx_HAL_Driver/Src/stm32h7xx_hal_rcc.c ****         /* Enable PLL1FRACN . */
 820:../../Drivers/STM32H7xx_HAL_Driver/Src/stm32h7xx_hal_rcc.c ****         __HAL_RCC_PLLFRACN_ENABLE();
 821:../../Drivers/STM32H7xx_HAL_Driver/Src/stm32h7xx_hal_rcc.c **** 
 822:../../Drivers/STM32H7xx_HAL_Driver/Src/stm32h7xx_hal_rcc.c ****         /* Enable the main PLL. */
 823:../../Drivers/STM32H7xx_HAL_Driver/Src/stm32h7xx_hal_rcc.c ****         __HAL_RCC_PLL_ENABLE();
 824:../../Drivers/STM32H7xx_HAL_Driver/Src/stm32h7xx_hal_rcc.c **** 
 825:../../Drivers/STM32H7xx_HAL_Driver/Src/stm32h7xx_hal_rcc.c ****         /* Get Start Tick*/
 826:../../Drivers/STM32H7xx_HAL_Driver/Src/stm32h7xx_hal_rcc.c ****         tickstart = HAL_GetTick();
 827:../../Drivers/STM32H7xx_HAL_Driver/Src/stm32h7xx_hal_rcc.c **** 
 828:../../Drivers/STM32H7xx_HAL_Driver/Src/stm32h7xx_hal_rcc.c ****         /* Wait till PLL is ready */
 829:../../Drivers/STM32H7xx_HAL_Driver/Src/stm32h7xx_hal_rcc.c ****         while (__HAL_RCC_GET_FLAG(RCC_FLAG_PLLRDY) == 0U)
 830:../../Drivers/STM32H7xx_HAL_Driver/Src/stm32h7xx_hal_rcc.c ****         {
 831:../../Drivers/STM32H7xx_HAL_Driver/Src/stm32h7xx_hal_rcc.c ****           if ((HAL_GetTick() - tickstart) > PLL_TIMEOUT_VALUE)
 832:../../Drivers/STM32H7xx_HAL_Driver/Src/stm32h7xx_hal_rcc.c ****           {
 833:../../Drivers/STM32H7xx_HAL_Driver/Src/stm32h7xx_hal_rcc.c ****             return HAL_TIMEOUT;
 834:../../Drivers/STM32H7xx_HAL_Driver/Src/stm32h7xx_hal_rcc.c ****           }
 835:../../Drivers/STM32H7xx_HAL_Driver/Src/stm32h7xx_hal_rcc.c ****         }
 836:../../Drivers/STM32H7xx_HAL_Driver/Src/stm32h7xx_hal_rcc.c ****       }
 837:../../Drivers/STM32H7xx_HAL_Driver/Src/stm32h7xx_hal_rcc.c ****       else
 838:../../Drivers/STM32H7xx_HAL_Driver/Src/stm32h7xx_hal_rcc.c ****       {
 839:../../Drivers/STM32H7xx_HAL_Driver/Src/stm32h7xx_hal_rcc.c ****         /* Disable the main PLL. */
 840:../../Drivers/STM32H7xx_HAL_Driver/Src/stm32h7xx_hal_rcc.c ****         __HAL_RCC_PLL_DISABLE();
 1233              		.loc 1 840 9 is_stmt 1 view .LVU403
 1234 040c 3A4A     		ldr	r2, .L168
 1235 040e 1368     		ldr	r3, [r2]
 1236 0410 23F08073 		bic	r3, r3, #16777216
 1237 0414 1360     		str	r3, [r2]
 841:../../Drivers/STM32H7xx_HAL_Driver/Src/stm32h7xx_hal_rcc.c **** 
 842:../../Drivers/STM32H7xx_HAL_Driver/Src/stm32h7xx_hal_rcc.c ****         /* Get Start Tick*/
 843:../../Drivers/STM32H7xx_HAL_Driver/Src/stm32h7xx_hal_rcc.c ****         tickstart = HAL_GetTick();
 1238              		.loc 1 843 9 view .LVU404
 1239              		.loc 1 843 21 is_stmt 0 view .LVU405
 1240 0416 FFF7FEFF 		bl	HAL_GetTick
 1241              	.LVL99:
 1242 041a 0446     		mov	r4, r0
 1243              	.LVL100:
 844:../../Drivers/STM32H7xx_HAL_Driver/Src/stm32h7xx_hal_rcc.c **** 
 845:../../Drivers/STM32H7xx_HAL_Driver/Src/stm32h7xx_hal_rcc.c ****         /* Wait till PLL is disabled */
 846:../../Drivers/STM32H7xx_HAL_Driver/Src/stm32h7xx_hal_rcc.c ****         while (__HAL_RCC_GET_FLAG(RCC_FLAG_PLLRDY) != 0U)
 1244              		.loc 1 846 9 is_stmt 1 view .LVU406
 1245              	.L107:
 1246              		.loc 1 846 15 view .LVU407
 1247              		.loc 1 846 16 is_stmt 0 view .LVU408
 1248 041c 364B     		ldr	r3, .L168
 1249 041e 1B68     		ldr	r3, [r3]
 1250              		.loc 1 846 15 view .LVU409
 1251 0420 13F0007F 		tst	r3, #33554432
 1252 0424 00F0DC80 		beq	.L159
 847:../../Drivers/STM32H7xx_HAL_Driver/Src/stm32h7xx_hal_rcc.c ****         {
ARM GAS  /tmp/ccooDZtA.s 			page 40


 848:../../Drivers/STM32H7xx_HAL_Driver/Src/stm32h7xx_hal_rcc.c ****           if ((HAL_GetTick() - tickstart) > PLL_TIMEOUT_VALUE)
 1253              		.loc 1 848 11 is_stmt 1 view .LVU410
 1254              		.loc 1 848 16 is_stmt 0 view .LVU411
 1255 0428 FFF7FEFF 		bl	HAL_GetTick
 1256              	.LVL101:
 1257              		.loc 1 848 30 view .LVU412
 1258 042c 001B     		subs	r0, r0, r4
 1259              		.loc 1 848 14 view .LVU413
 1260 042e 0228     		cmp	r0, #2
 1261 0430 F4D9     		bls	.L107
 849:../../Drivers/STM32H7xx_HAL_Driver/Src/stm32h7xx_hal_rcc.c ****           {
 850:../../Drivers/STM32H7xx_HAL_Driver/Src/stm32h7xx_hal_rcc.c ****             return HAL_TIMEOUT;
 1262              		.loc 1 850 20 view .LVU414
 1263 0432 0320     		movs	r0, #3
 1264 0434 29E1     		b	.L36
 1265              	.LVL102:
 1266              	.L157:
 706:../../Drivers/STM32H7xx_HAL_Driver/Src/stm32h7xx_hal_rcc.c **** 
 1267              		.loc 1 706 5 is_stmt 1 view .LVU415
 709:../../Drivers/STM32H7xx_HAL_Driver/Src/stm32h7xx_hal_rcc.c **** 
 1268              		.loc 1 709 5 view .LVU416
 709:../../Drivers/STM32H7xx_HAL_Driver/Src/stm32h7xx_hal_rcc.c **** 
 1269              		.loc 1 709 14 is_stmt 0 view .LVU417
 1270 0436 314A     		ldr	r2, .L168+4
 1271 0438 1368     		ldr	r3, [r2]
 1272 043a 43F48073 		orr	r3, r3, #256
 1273 043e 1360     		str	r3, [r2]
 712:../../Drivers/STM32H7xx_HAL_Driver/Src/stm32h7xx_hal_rcc.c **** 
 1274              		.loc 1 712 5 is_stmt 1 view .LVU418
 712:../../Drivers/STM32H7xx_HAL_Driver/Src/stm32h7xx_hal_rcc.c **** 
 1275              		.loc 1 712 17 is_stmt 0 view .LVU419
 1276 0440 FFF7FEFF 		bl	HAL_GetTick
 1277              	.LVL103:
 1278 0444 0546     		mov	r5, r0
 1279              	.LVL104:
 714:../../Drivers/STM32H7xx_HAL_Driver/Src/stm32h7xx_hal_rcc.c ****     {
 1280              		.loc 1 714 5 is_stmt 1 view .LVU420
 1281              	.L90:
 714:../../Drivers/STM32H7xx_HAL_Driver/Src/stm32h7xx_hal_rcc.c ****     {
 1282              		.loc 1 714 11 view .LVU421
 714:../../Drivers/STM32H7xx_HAL_Driver/Src/stm32h7xx_hal_rcc.c ****     {
 1283              		.loc 1 714 16 is_stmt 0 view .LVU422
 1284 0446 2D4B     		ldr	r3, .L168+4
 1285 0448 1B68     		ldr	r3, [r3]
 714:../../Drivers/STM32H7xx_HAL_Driver/Src/stm32h7xx_hal_rcc.c ****     {
 1286              		.loc 1 714 11 view .LVU423
 1287 044a 13F4807F 		tst	r3, #256
 1288 044e 06D1     		bne	.L160
 716:../../Drivers/STM32H7xx_HAL_Driver/Src/stm32h7xx_hal_rcc.c ****       {
 1289              		.loc 1 716 7 is_stmt 1 view .LVU424
 716:../../Drivers/STM32H7xx_HAL_Driver/Src/stm32h7xx_hal_rcc.c ****       {
 1290              		.loc 1 716 12 is_stmt 0 view .LVU425
 1291 0450 FFF7FEFF 		bl	HAL_GetTick
 1292              	.LVL105:
 716:../../Drivers/STM32H7xx_HAL_Driver/Src/stm32h7xx_hal_rcc.c ****       {
 1293              		.loc 1 716 26 view .LVU426
 1294 0454 401B     		subs	r0, r0, r5
ARM GAS  /tmp/ccooDZtA.s 			page 41


 716:../../Drivers/STM32H7xx_HAL_Driver/Src/stm32h7xx_hal_rcc.c ****       {
 1295              		.loc 1 716 10 view .LVU427
 1296 0456 6428     		cmp	r0, #100
 1297 0458 F5D9     		bls	.L90
 718:../../Drivers/STM32H7xx_HAL_Driver/Src/stm32h7xx_hal_rcc.c ****       }
 1298              		.loc 1 718 16 view .LVU428
 1299 045a 0320     		movs	r0, #3
 1300 045c 15E1     		b	.L36
 1301              	.L160:
 723:../../Drivers/STM32H7xx_HAL_Driver/Src/stm32h7xx_hal_rcc.c ****     /* Check the LSE State */
 1302              		.loc 1 723 5 is_stmt 1 view .LVU429
 723:../../Drivers/STM32H7xx_HAL_Driver/Src/stm32h7xx_hal_rcc.c ****     /* Check the LSE State */
 1303              		.loc 1 723 5 view .LVU430
 1304 045e A368     		ldr	r3, [r4, #8]
 1305 0460 012B     		cmp	r3, #1
 1306 0462 0AD0     		beq	.L161
 723:../../Drivers/STM32H7xx_HAL_Driver/Src/stm32h7xx_hal_rcc.c ****     /* Check the LSE State */
 1307              		.loc 1 723 5 discriminator 2 view .LVU431
 1308 0464 0BBB     		cbnz	r3, .L94
 723:../../Drivers/STM32H7xx_HAL_Driver/Src/stm32h7xx_hal_rcc.c ****     /* Check the LSE State */
 1309              		.loc 1 723 5 discriminator 4 view .LVU432
 1310 0466 244B     		ldr	r3, .L168
 1311 0468 1A6F     		ldr	r2, [r3, #112]
 1312 046a 22F00102 		bic	r2, r2, #1
 1313 046e 1A67     		str	r2, [r3, #112]
 723:../../Drivers/STM32H7xx_HAL_Driver/Src/stm32h7xx_hal_rcc.c ****     /* Check the LSE State */
 1314              		.loc 1 723 5 discriminator 4 view .LVU433
 1315 0470 1A6F     		ldr	r2, [r3, #112]
 1316 0472 22F00402 		bic	r2, r2, #4
 1317 0476 1A67     		str	r2, [r3, #112]
 1318 0478 04E0     		b	.L93
 1319              	.L161:
 723:../../Drivers/STM32H7xx_HAL_Driver/Src/stm32h7xx_hal_rcc.c ****     /* Check the LSE State */
 1320              		.loc 1 723 5 discriminator 1 view .LVU434
 1321 047a 1F4A     		ldr	r2, .L168
 1322 047c 136F     		ldr	r3, [r2, #112]
 1323 047e 43F00103 		orr	r3, r3, #1
 1324 0482 1367     		str	r3, [r2, #112]
 1325              	.L93:
 723:../../Drivers/STM32H7xx_HAL_Driver/Src/stm32h7xx_hal_rcc.c ****     /* Check the LSE State */
 1326              		.loc 1 723 5 discriminator 10 view .LVU435
 725:../../Drivers/STM32H7xx_HAL_Driver/Src/stm32h7xx_hal_rcc.c ****     {
 1327              		.loc 1 725 5 discriminator 10 view .LVU436
 725:../../Drivers/STM32H7xx_HAL_Driver/Src/stm32h7xx_hal_rcc.c ****     {
 1328              		.loc 1 725 27 is_stmt 0 discriminator 10 view .LVU437
 1329 0484 A368     		ldr	r3, [r4, #8]
 725:../../Drivers/STM32H7xx_HAL_Driver/Src/stm32h7xx_hal_rcc.c ****     {
 1330              		.loc 1 725 8 discriminator 10 view .LVU438
 1331 0486 33B3     		cbz	r3, .L96
 728:../../Drivers/STM32H7xx_HAL_Driver/Src/stm32h7xx_hal_rcc.c **** 
 1332              		.loc 1 728 7 is_stmt 1 view .LVU439
 728:../../Drivers/STM32H7xx_HAL_Driver/Src/stm32h7xx_hal_rcc.c **** 
 1333              		.loc 1 728 19 is_stmt 0 view .LVU440
 1334 0488 FFF7FEFF 		bl	HAL_GetTick
 1335              	.LVL106:
 1336 048c 0546     		mov	r5, r0
 1337              	.LVL107:
ARM GAS  /tmp/ccooDZtA.s 			page 42


 731:../../Drivers/STM32H7xx_HAL_Driver/Src/stm32h7xx_hal_rcc.c ****       {
 1338              		.loc 1 731 7 is_stmt 1 view .LVU441
 1339              	.L97:
 731:../../Drivers/STM32H7xx_HAL_Driver/Src/stm32h7xx_hal_rcc.c ****       {
 1340              		.loc 1 731 13 view .LVU442
 731:../../Drivers/STM32H7xx_HAL_Driver/Src/stm32h7xx_hal_rcc.c ****       {
 1341              		.loc 1 731 14 is_stmt 0 view .LVU443
 1342 048e 1A4B     		ldr	r3, .L168
 1343 0490 1B6F     		ldr	r3, [r3, #112]
 731:../../Drivers/STM32H7xx_HAL_Driver/Src/stm32h7xx_hal_rcc.c ****       {
 1344              		.loc 1 731 13 view .LVU444
 1345 0492 13F0020F 		tst	r3, #2
 1346 0496 ACD1     		bne	.L89
 733:../../Drivers/STM32H7xx_HAL_Driver/Src/stm32h7xx_hal_rcc.c ****         {
 1347              		.loc 1 733 9 is_stmt 1 view .LVU445
 733:../../Drivers/STM32H7xx_HAL_Driver/Src/stm32h7xx_hal_rcc.c ****         {
 1348              		.loc 1 733 14 is_stmt 0 view .LVU446
 1349 0498 FFF7FEFF 		bl	HAL_GetTick
 1350              	.LVL108:
 733:../../Drivers/STM32H7xx_HAL_Driver/Src/stm32h7xx_hal_rcc.c ****         {
 1351              		.loc 1 733 28 view .LVU447
 1352 049c 401B     		subs	r0, r0, r5
 733:../../Drivers/STM32H7xx_HAL_Driver/Src/stm32h7xx_hal_rcc.c ****         {
 1353              		.loc 1 733 12 view .LVU448
 1354 049e 41F28833 		movw	r3, #5000
 1355 04a2 9842     		cmp	r0, r3
 1356 04a4 F3D9     		bls	.L97
 735:../../Drivers/STM32H7xx_HAL_Driver/Src/stm32h7xx_hal_rcc.c ****         }
 1357              		.loc 1 735 18 view .LVU449
 1358 04a6 0320     		movs	r0, #3
 1359 04a8 EFE0     		b	.L36
 1360              	.L94:
 723:../../Drivers/STM32H7xx_HAL_Driver/Src/stm32h7xx_hal_rcc.c ****     /* Check the LSE State */
 1361              		.loc 1 723 5 is_stmt 1 discriminator 5 view .LVU450
 1362 04aa 052B     		cmp	r3, #5
 1363 04ac 09D0     		beq	.L162
 723:../../Drivers/STM32H7xx_HAL_Driver/Src/stm32h7xx_hal_rcc.c ****     /* Check the LSE State */
 1364              		.loc 1 723 5 discriminator 8 view .LVU451
 1365 04ae 124B     		ldr	r3, .L168
 1366 04b0 1A6F     		ldr	r2, [r3, #112]
 1367 04b2 22F00102 		bic	r2, r2, #1
 1368 04b6 1A67     		str	r2, [r3, #112]
 723:../../Drivers/STM32H7xx_HAL_Driver/Src/stm32h7xx_hal_rcc.c ****     /* Check the LSE State */
 1369              		.loc 1 723 5 discriminator 8 view .LVU452
 1370 04b8 1A6F     		ldr	r2, [r3, #112]
 1371 04ba 22F00402 		bic	r2, r2, #4
 1372 04be 1A67     		str	r2, [r3, #112]
 1373 04c0 E0E7     		b	.L93
 1374              	.L162:
 723:../../Drivers/STM32H7xx_HAL_Driver/Src/stm32h7xx_hal_rcc.c ****     /* Check the LSE State */
 1375              		.loc 1 723 5 discriminator 7 view .LVU453
 1376 04c2 0D4B     		ldr	r3, .L168
 1377 04c4 1A6F     		ldr	r2, [r3, #112]
 1378 04c6 42F00402 		orr	r2, r2, #4
 1379 04ca 1A67     		str	r2, [r3, #112]
 723:../../Drivers/STM32H7xx_HAL_Driver/Src/stm32h7xx_hal_rcc.c ****     /* Check the LSE State */
 1380              		.loc 1 723 5 discriminator 7 view .LVU454
ARM GAS  /tmp/ccooDZtA.s 			page 43


 1381 04cc 1A6F     		ldr	r2, [r3, #112]
 1382 04ce 42F00102 		orr	r2, r2, #1
 1383 04d2 1A67     		str	r2, [r3, #112]
 1384 04d4 D6E7     		b	.L93
 1385              	.L96:
 742:../../Drivers/STM32H7xx_HAL_Driver/Src/stm32h7xx_hal_rcc.c **** 
 1386              		.loc 1 742 7 view .LVU455
 742:../../Drivers/STM32H7xx_HAL_Driver/Src/stm32h7xx_hal_rcc.c **** 
 1387              		.loc 1 742 19 is_stmt 0 view .LVU456
 1388 04d6 FFF7FEFF 		bl	HAL_GetTick
 1389              	.LVL109:
 1390 04da 0546     		mov	r5, r0
 1391              	.LVL110:
 745:../../Drivers/STM32H7xx_HAL_Driver/Src/stm32h7xx_hal_rcc.c ****       {
 1392              		.loc 1 745 7 is_stmt 1 view .LVU457
 1393              	.L99:
 745:../../Drivers/STM32H7xx_HAL_Driver/Src/stm32h7xx_hal_rcc.c ****       {
 1394              		.loc 1 745 13 view .LVU458
 745:../../Drivers/STM32H7xx_HAL_Driver/Src/stm32h7xx_hal_rcc.c ****       {
 1395              		.loc 1 745 14 is_stmt 0 view .LVU459
 1396 04dc 064B     		ldr	r3, .L168
 1397 04de 1B6F     		ldr	r3, [r3, #112]
 745:../../Drivers/STM32H7xx_HAL_Driver/Src/stm32h7xx_hal_rcc.c ****       {
 1398              		.loc 1 745 13 view .LVU460
 1399 04e0 13F0020F 		tst	r3, #2
 1400 04e4 85D0     		beq	.L89
 747:../../Drivers/STM32H7xx_HAL_Driver/Src/stm32h7xx_hal_rcc.c ****         {
 1401              		.loc 1 747 9 is_stmt 1 view .LVU461
 747:../../Drivers/STM32H7xx_HAL_Driver/Src/stm32h7xx_hal_rcc.c ****         {
 1402              		.loc 1 747 14 is_stmt 0 view .LVU462
 1403 04e6 FFF7FEFF 		bl	HAL_GetTick
 1404              	.LVL111:
 747:../../Drivers/STM32H7xx_HAL_Driver/Src/stm32h7xx_hal_rcc.c ****         {
 1405              		.loc 1 747 28 view .LVU463
 1406 04ea 401B     		subs	r0, r0, r5
 747:../../Drivers/STM32H7xx_HAL_Driver/Src/stm32h7xx_hal_rcc.c ****         {
 1407              		.loc 1 747 12 view .LVU464
 1408 04ec 41F28833 		movw	r3, #5000
 1409 04f0 9842     		cmp	r0, r3
 1410 04f2 F3D9     		bls	.L99
 749:../../Drivers/STM32H7xx_HAL_Driver/Src/stm32h7xx_hal_rcc.c ****         }
 1411              		.loc 1 749 18 view .LVU465
 1412 04f4 0320     		movs	r0, #3
 1413 04f6 C8E0     		b	.L36
 1414              	.L169:
 1415              		.align	2
 1416              	.L168:
 1417 04f8 00440258 		.word	1476543488
 1418 04fc 00480258 		.word	1476544512
 1419              	.LVL112:
 1420              	.L158:
 765:../../Drivers/STM32H7xx_HAL_Driver/Src/stm32h7xx_hal_rcc.c ****         assert_param(IS_RCC_PLLRGE_VALUE(RCC_OscInitStruct->PLL.PLLRGE));
 1421              		.loc 1 765 9 is_stmt 1 view .LVU466
 766:../../Drivers/STM32H7xx_HAL_Driver/Src/stm32h7xx_hal_rcc.c ****         assert_param(IS_RCC_PLLVCO_VALUE(RCC_OscInitStruct->PLL.PLLVCOSEL));
 1422              		.loc 1 766 9 view .LVU467
 767:../../Drivers/STM32H7xx_HAL_Driver/Src/stm32h7xx_hal_rcc.c ****         assert_param(IS_RCC_PLLM_VALUE(RCC_OscInitStruct->PLL.PLLM));
 1423              		.loc 1 767 9 view .LVU468
ARM GAS  /tmp/ccooDZtA.s 			page 44


 768:../../Drivers/STM32H7xx_HAL_Driver/Src/stm32h7xx_hal_rcc.c ****         assert_param(IS_RCC_PLLN_VALUE(RCC_OscInitStruct->PLL.PLLN));
 1424              		.loc 1 768 9 view .LVU469
 769:../../Drivers/STM32H7xx_HAL_Driver/Src/stm32h7xx_hal_rcc.c ****         assert_param(IS_RCC_PLLP_VALUE(RCC_OscInitStruct->PLL.PLLP));
 1425              		.loc 1 769 9 view .LVU470
 770:../../Drivers/STM32H7xx_HAL_Driver/Src/stm32h7xx_hal_rcc.c ****         assert_param(IS_RCC_PLLQ_VALUE(RCC_OscInitStruct->PLL.PLLQ));
 1426              		.loc 1 770 9 view .LVU471
 771:../../Drivers/STM32H7xx_HAL_Driver/Src/stm32h7xx_hal_rcc.c ****         assert_param(IS_RCC_PLLR_VALUE(RCC_OscInitStruct->PLL.PLLR));
 1427              		.loc 1 771 9 view .LVU472
 772:../../Drivers/STM32H7xx_HAL_Driver/Src/stm32h7xx_hal_rcc.c ****         assert_param(IS_RCC_PLLFRACN_VALUE(RCC_OscInitStruct->PLL.PLLFRACN));
 1428              		.loc 1 772 9 view .LVU473
 773:../../Drivers/STM32H7xx_HAL_Driver/Src/stm32h7xx_hal_rcc.c **** 
 1429              		.loc 1 773 9 view .LVU474
 776:../../Drivers/STM32H7xx_HAL_Driver/Src/stm32h7xx_hal_rcc.c **** 
 1430              		.loc 1 776 9 view .LVU475
 1431 0500 694A     		ldr	r2, .L170
 1432 0502 1368     		ldr	r3, [r2]
 1433 0504 23F08073 		bic	r3, r3, #16777216
 1434 0508 1360     		str	r3, [r2]
 779:../../Drivers/STM32H7xx_HAL_Driver/Src/stm32h7xx_hal_rcc.c **** 
 1435              		.loc 1 779 9 view .LVU476
 779:../../Drivers/STM32H7xx_HAL_Driver/Src/stm32h7xx_hal_rcc.c **** 
 1436              		.loc 1 779 21 is_stmt 0 view .LVU477
 1437 050a FFF7FEFF 		bl	HAL_GetTick
 1438              	.LVL113:
 1439 050e 0546     		mov	r5, r0
 1440              	.LVL114:
 782:../../Drivers/STM32H7xx_HAL_Driver/Src/stm32h7xx_hal_rcc.c ****         {
 1441              		.loc 1 782 9 is_stmt 1 view .LVU478
 1442              	.L103:
 782:../../Drivers/STM32H7xx_HAL_Driver/Src/stm32h7xx_hal_rcc.c ****         {
 1443              		.loc 1 782 15 view .LVU479
 782:../../Drivers/STM32H7xx_HAL_Driver/Src/stm32h7xx_hal_rcc.c ****         {
 1444              		.loc 1 782 16 is_stmt 0 view .LVU480
 1445 0510 654B     		ldr	r3, .L170
 1446 0512 1B68     		ldr	r3, [r3]
 782:../../Drivers/STM32H7xx_HAL_Driver/Src/stm32h7xx_hal_rcc.c ****         {
 1447              		.loc 1 782 15 view .LVU481
 1448 0514 13F0007F 		tst	r3, #33554432
 1449 0518 06D0     		beq	.L163
 784:../../Drivers/STM32H7xx_HAL_Driver/Src/stm32h7xx_hal_rcc.c ****           {
 1450              		.loc 1 784 11 is_stmt 1 view .LVU482
 784:../../Drivers/STM32H7xx_HAL_Driver/Src/stm32h7xx_hal_rcc.c ****           {
 1451              		.loc 1 784 16 is_stmt 0 view .LVU483
 1452 051a FFF7FEFF 		bl	HAL_GetTick
 1453              	.LVL115:
 784:../../Drivers/STM32H7xx_HAL_Driver/Src/stm32h7xx_hal_rcc.c ****           {
 1454              		.loc 1 784 30 view .LVU484
 1455 051e 401B     		subs	r0, r0, r5
 784:../../Drivers/STM32H7xx_HAL_Driver/Src/stm32h7xx_hal_rcc.c ****           {
 1456              		.loc 1 784 14 view .LVU485
 1457 0520 0228     		cmp	r0, #2
 1458 0522 F5D9     		bls	.L103
 786:../../Drivers/STM32H7xx_HAL_Driver/Src/stm32h7xx_hal_rcc.c ****           }
 1459              		.loc 1 786 20 view .LVU486
 1460 0524 0320     		movs	r0, #3
 1461 0526 B0E0     		b	.L36
 1462              	.L163:
ARM GAS  /tmp/ccooDZtA.s 			page 45


 791:../../Drivers/STM32H7xx_HAL_Driver/Src/stm32h7xx_hal_rcc.c ****                              RCC_OscInitStruct->PLL.PLLM,
 1463              		.loc 1 791 9 is_stmt 1 view .LVU487
 791:../../Drivers/STM32H7xx_HAL_Driver/Src/stm32h7xx_hal_rcc.c ****                              RCC_OscInitStruct->PLL.PLLM,
 1464              		.loc 1 791 9 view .LVU488
 1465 0528 5F4B     		ldr	r3, .L170
 1466 052a 996A     		ldr	r1, [r3, #40]
 1467 052c 5F4A     		ldr	r2, .L170+4
 1468 052e 0A40     		ands	r2, r2, r1
 1469 0530 A16A     		ldr	r1, [r4, #40]
 1470 0532 E06A     		ldr	r0, [r4, #44]
 1471 0534 41EA0011 		orr	r1, r1, r0, lsl #4
 1472 0538 0A43     		orrs	r2, r2, r1
 1473 053a 9A62     		str	r2, [r3, #40]
 791:../../Drivers/STM32H7xx_HAL_Driver/Src/stm32h7xx_hal_rcc.c ****                              RCC_OscInitStruct->PLL.PLLM,
 1474              		.loc 1 791 9 view .LVU489
 1475 053c 226B     		ldr	r2, [r4, #48]
 1476 053e 013A     		subs	r2, r2, #1
 1477 0540 C2F30802 		ubfx	r2, r2, #0, #9
 1478 0544 616B     		ldr	r1, [r4, #52]
 1479 0546 0139     		subs	r1, r1, #1
 1480 0548 4902     		lsls	r1, r1, #9
 1481 054a 89B2     		uxth	r1, r1
 1482 054c 0A43     		orrs	r2, r2, r1
 1483 054e A16B     		ldr	r1, [r4, #56]
 1484 0550 0139     		subs	r1, r1, #1
 1485 0552 0904     		lsls	r1, r1, #16
 1486 0554 01F4FE01 		and	r1, r1, #8323072
 1487 0558 0A43     		orrs	r2, r2, r1
 1488 055a E16B     		ldr	r1, [r4, #60]
 1489 055c 0139     		subs	r1, r1, #1
 1490 055e 0906     		lsls	r1, r1, #24
 1491 0560 01F0FE41 		and	r1, r1, #2130706432
 1492 0564 0A43     		orrs	r2, r2, r1
 1493 0566 1A63     		str	r2, [r3, #48]
 791:../../Drivers/STM32H7xx_HAL_Driver/Src/stm32h7xx_hal_rcc.c ****                              RCC_OscInitStruct->PLL.PLLM,
 1494              		.loc 1 791 9 view .LVU490
 799:../../Drivers/STM32H7xx_HAL_Driver/Src/stm32h7xx_hal_rcc.c **** 
 1495              		.loc 1 799 9 view .LVU491
 1496 0568 DA6A     		ldr	r2, [r3, #44]
 1497 056a 22F00102 		bic	r2, r2, #1
 1498 056e DA62     		str	r2, [r3, #44]
 802:../../Drivers/STM32H7xx_HAL_Driver/Src/stm32h7xx_hal_rcc.c **** 
 1499              		.loc 1 802 9 view .LVU492
 1500 0570 596B     		ldr	r1, [r3, #52]
 1501 0572 4F4A     		ldr	r2, .L170+8
 1502 0574 0A40     		ands	r2, r2, r1
 1503 0576 A16C     		ldr	r1, [r4, #72]
 1504 0578 42EAC102 		orr	r2, r2, r1, lsl #3
 1505 057c 5A63     		str	r2, [r3, #52]
 805:../../Drivers/STM32H7xx_HAL_Driver/Src/stm32h7xx_hal_rcc.c **** 
 1506              		.loc 1 805 9 view .LVU493
 1507 057e DA6A     		ldr	r2, [r3, #44]
 1508 0580 22F00C02 		bic	r2, r2, #12
 1509 0584 216C     		ldr	r1, [r4, #64]
 1510 0586 0A43     		orrs	r2, r2, r1
 1511 0588 DA62     		str	r2, [r3, #44]
 808:../../Drivers/STM32H7xx_HAL_Driver/Src/stm32h7xx_hal_rcc.c **** 
ARM GAS  /tmp/ccooDZtA.s 			page 46


 1512              		.loc 1 808 9 view .LVU494
 1513 058a DA6A     		ldr	r2, [r3, #44]
 1514 058c 22F00202 		bic	r2, r2, #2
 1515 0590 616C     		ldr	r1, [r4, #68]
 1516 0592 0A43     		orrs	r2, r2, r1
 1517 0594 DA62     		str	r2, [r3, #44]
 811:../../Drivers/STM32H7xx_HAL_Driver/Src/stm32h7xx_hal_rcc.c **** 
 1518              		.loc 1 811 9 view .LVU495
 1519 0596 DA6A     		ldr	r2, [r3, #44]
 1520 0598 42F48032 		orr	r2, r2, #65536
 1521 059c DA62     		str	r2, [r3, #44]
 814:../../Drivers/STM32H7xx_HAL_Driver/Src/stm32h7xx_hal_rcc.c **** 
 1522              		.loc 1 814 9 view .LVU496
 1523 059e DA6A     		ldr	r2, [r3, #44]
 1524 05a0 42F40032 		orr	r2, r2, #131072
 1525 05a4 DA62     		str	r2, [r3, #44]
 817:../../Drivers/STM32H7xx_HAL_Driver/Src/stm32h7xx_hal_rcc.c **** 
 1526              		.loc 1 817 9 view .LVU497
 1527 05a6 DA6A     		ldr	r2, [r3, #44]
 1528 05a8 42F48022 		orr	r2, r2, #262144
 1529 05ac DA62     		str	r2, [r3, #44]
 820:../../Drivers/STM32H7xx_HAL_Driver/Src/stm32h7xx_hal_rcc.c **** 
 1530              		.loc 1 820 9 view .LVU498
 1531 05ae DA6A     		ldr	r2, [r3, #44]
 1532 05b0 42F00102 		orr	r2, r2, #1
 1533 05b4 DA62     		str	r2, [r3, #44]
 823:../../Drivers/STM32H7xx_HAL_Driver/Src/stm32h7xx_hal_rcc.c **** 
 1534              		.loc 1 823 9 view .LVU499
 1535 05b6 1A68     		ldr	r2, [r3]
 1536 05b8 42F08072 		orr	r2, r2, #16777216
 1537 05bc 1A60     		str	r2, [r3]
 826:../../Drivers/STM32H7xx_HAL_Driver/Src/stm32h7xx_hal_rcc.c **** 
 1538              		.loc 1 826 9 view .LVU500
 826:../../Drivers/STM32H7xx_HAL_Driver/Src/stm32h7xx_hal_rcc.c **** 
 1539              		.loc 1 826 21 is_stmt 0 view .LVU501
 1540 05be FFF7FEFF 		bl	HAL_GetTick
 1541              	.LVL116:
 1542 05c2 0446     		mov	r4, r0
 1543              	.LVL117:
 829:../../Drivers/STM32H7xx_HAL_Driver/Src/stm32h7xx_hal_rcc.c ****         {
 1544              		.loc 1 829 9 is_stmt 1 view .LVU502
 1545              	.L105:
 829:../../Drivers/STM32H7xx_HAL_Driver/Src/stm32h7xx_hal_rcc.c ****         {
 1546              		.loc 1 829 15 view .LVU503
 829:../../Drivers/STM32H7xx_HAL_Driver/Src/stm32h7xx_hal_rcc.c ****         {
 1547              		.loc 1 829 16 is_stmt 0 view .LVU504
 1548 05c4 384B     		ldr	r3, .L170
 1549 05c6 1B68     		ldr	r3, [r3]
 829:../../Drivers/STM32H7xx_HAL_Driver/Src/stm32h7xx_hal_rcc.c ****         {
 1550              		.loc 1 829 15 view .LVU505
 1551 05c8 13F0007F 		tst	r3, #33554432
 1552 05cc 06D1     		bne	.L164
 831:../../Drivers/STM32H7xx_HAL_Driver/Src/stm32h7xx_hal_rcc.c ****           {
 1553              		.loc 1 831 11 is_stmt 1 view .LVU506
 831:../../Drivers/STM32H7xx_HAL_Driver/Src/stm32h7xx_hal_rcc.c ****           {
 1554              		.loc 1 831 16 is_stmt 0 view .LVU507
 1555 05ce FFF7FEFF 		bl	HAL_GetTick
ARM GAS  /tmp/ccooDZtA.s 			page 47


 1556              	.LVL118:
 831:../../Drivers/STM32H7xx_HAL_Driver/Src/stm32h7xx_hal_rcc.c ****           {
 1557              		.loc 1 831 30 view .LVU508
 1558 05d2 001B     		subs	r0, r0, r4
 831:../../Drivers/STM32H7xx_HAL_Driver/Src/stm32h7xx_hal_rcc.c ****           {
 1559              		.loc 1 831 14 view .LVU509
 1560 05d4 0228     		cmp	r0, #2
 1561 05d6 F5D9     		bls	.L105
 833:../../Drivers/STM32H7xx_HAL_Driver/Src/stm32h7xx_hal_rcc.c ****           }
 1562              		.loc 1 833 20 view .LVU510
 1563 05d8 0320     		movs	r0, #3
 1564 05da 56E0     		b	.L36
 1565              	.L164:
 851:../../Drivers/STM32H7xx_HAL_Driver/Src/stm32h7xx_hal_rcc.c ****           }
 852:../../Drivers/STM32H7xx_HAL_Driver/Src/stm32h7xx_hal_rcc.c ****         }
 853:../../Drivers/STM32H7xx_HAL_Driver/Src/stm32h7xx_hal_rcc.c ****       }
 854:../../Drivers/STM32H7xx_HAL_Driver/Src/stm32h7xx_hal_rcc.c ****     }
 855:../../Drivers/STM32H7xx_HAL_Driver/Src/stm32h7xx_hal_rcc.c ****     else
 856:../../Drivers/STM32H7xx_HAL_Driver/Src/stm32h7xx_hal_rcc.c ****     {
 857:../../Drivers/STM32H7xx_HAL_Driver/Src/stm32h7xx_hal_rcc.c ****       /* Do not return HAL_ERROR if request repeats the current configuration */
 858:../../Drivers/STM32H7xx_HAL_Driver/Src/stm32h7xx_hal_rcc.c ****       temp1_pllckcfg = RCC->PLLCKSELR;
 859:../../Drivers/STM32H7xx_HAL_Driver/Src/stm32h7xx_hal_rcc.c ****       temp2_pllckcfg = RCC->PLL1DIVR;
 860:../../Drivers/STM32H7xx_HAL_Driver/Src/stm32h7xx_hal_rcc.c ****       if (((RCC_OscInitStruct->PLL.PLLState) == RCC_PLL_OFF) ||
 861:../../Drivers/STM32H7xx_HAL_Driver/Src/stm32h7xx_hal_rcc.c ****           (READ_BIT(temp1_pllckcfg, RCC_PLLCKSELR_PLLSRC) != RCC_OscInitStruct->PLL.PLLSource) ||
 862:../../Drivers/STM32H7xx_HAL_Driver/Src/stm32h7xx_hal_rcc.c ****           ((READ_BIT(temp1_pllckcfg, RCC_PLLCKSELR_DIVM1) >> RCC_PLLCKSELR_DIVM1_Pos) != RCC_OscIni
 863:../../Drivers/STM32H7xx_HAL_Driver/Src/stm32h7xx_hal_rcc.c ****           (READ_BIT(temp2_pllckcfg, RCC_PLL1DIVR_N1) != (RCC_OscInitStruct->PLL.PLLN - 1U)) ||
 864:../../Drivers/STM32H7xx_HAL_Driver/Src/stm32h7xx_hal_rcc.c ****           ((READ_BIT(temp2_pllckcfg, RCC_PLL1DIVR_P1) >> RCC_PLL1DIVR_P1_Pos) != (RCC_OscInitStruct
 865:../../Drivers/STM32H7xx_HAL_Driver/Src/stm32h7xx_hal_rcc.c ****           ((READ_BIT(temp2_pllckcfg, RCC_PLL1DIVR_Q1) >> RCC_PLL1DIVR_Q1_Pos) != (RCC_OscInitStruct
 866:../../Drivers/STM32H7xx_HAL_Driver/Src/stm32h7xx_hal_rcc.c ****           ((READ_BIT(temp2_pllckcfg, RCC_PLL1DIVR_R1) >> RCC_PLL1DIVR_R1_Pos) != (RCC_OscInitStruct
 867:../../Drivers/STM32H7xx_HAL_Driver/Src/stm32h7xx_hal_rcc.c ****       {
 868:../../Drivers/STM32H7xx_HAL_Driver/Src/stm32h7xx_hal_rcc.c ****         return HAL_ERROR;
 869:../../Drivers/STM32H7xx_HAL_Driver/Src/stm32h7xx_hal_rcc.c ****       }
 870:../../Drivers/STM32H7xx_HAL_Driver/Src/stm32h7xx_hal_rcc.c ****       else
 871:../../Drivers/STM32H7xx_HAL_Driver/Src/stm32h7xx_hal_rcc.c ****       {
 872:../../Drivers/STM32H7xx_HAL_Driver/Src/stm32h7xx_hal_rcc.c ****         /* Check if only fractional part needs to be updated  */
 873:../../Drivers/STM32H7xx_HAL_Driver/Src/stm32h7xx_hal_rcc.c ****         temp1_pllckcfg = ((RCC->PLL1FRACR & RCC_PLL1FRACR_FRACN1) >> RCC_PLL1FRACR_FRACN1_Pos);
 874:../../Drivers/STM32H7xx_HAL_Driver/Src/stm32h7xx_hal_rcc.c ****         if (RCC_OscInitStruct->PLL.PLLFRACN != temp1_pllckcfg)
 875:../../Drivers/STM32H7xx_HAL_Driver/Src/stm32h7xx_hal_rcc.c ****         {
 876:../../Drivers/STM32H7xx_HAL_Driver/Src/stm32h7xx_hal_rcc.c ****           assert_param(IS_RCC_PLLFRACN_VALUE(RCC_OscInitStruct->PLL.PLLFRACN));
 877:../../Drivers/STM32H7xx_HAL_Driver/Src/stm32h7xx_hal_rcc.c ****           /* Disable PLL1FRACEN */
 878:../../Drivers/STM32H7xx_HAL_Driver/Src/stm32h7xx_hal_rcc.c ****           __HAL_RCC_PLLFRACN_DISABLE();
 879:../../Drivers/STM32H7xx_HAL_Driver/Src/stm32h7xx_hal_rcc.c ****           /* Get Start Tick*/
 880:../../Drivers/STM32H7xx_HAL_Driver/Src/stm32h7xx_hal_rcc.c ****           tickstart = HAL_GetTick();
 881:../../Drivers/STM32H7xx_HAL_Driver/Src/stm32h7xx_hal_rcc.c ****           /* Wait at least 2 CK_REF (PLL input source divided by M) period to make sure next latche
 882:../../Drivers/STM32H7xx_HAL_Driver/Src/stm32h7xx_hal_rcc.c ****           while ((HAL_GetTick() - tickstart) < PLL_FRAC_TIMEOUT_VALUE)
 883:../../Drivers/STM32H7xx_HAL_Driver/Src/stm32h7xx_hal_rcc.c ****           {
 884:../../Drivers/STM32H7xx_HAL_Driver/Src/stm32h7xx_hal_rcc.c ****           }
 885:../../Drivers/STM32H7xx_HAL_Driver/Src/stm32h7xx_hal_rcc.c ****           /* Configure PLL1 PLL1FRACN */
 886:../../Drivers/STM32H7xx_HAL_Driver/Src/stm32h7xx_hal_rcc.c ****           __HAL_RCC_PLLFRACN_CONFIG(RCC_OscInitStruct->PLL.PLLFRACN);
 887:../../Drivers/STM32H7xx_HAL_Driver/Src/stm32h7xx_hal_rcc.c ****           /* Enable PLL1FRACEN to latch new value. */
 888:../../Drivers/STM32H7xx_HAL_Driver/Src/stm32h7xx_hal_rcc.c ****           __HAL_RCC_PLLFRACN_ENABLE();
 889:../../Drivers/STM32H7xx_HAL_Driver/Src/stm32h7xx_hal_rcc.c ****         }
 890:../../Drivers/STM32H7xx_HAL_Driver/Src/stm32h7xx_hal_rcc.c ****       }
 891:../../Drivers/STM32H7xx_HAL_Driver/Src/stm32h7xx_hal_rcc.c ****     }
 892:../../Drivers/STM32H7xx_HAL_Driver/Src/stm32h7xx_hal_rcc.c ****   }
 893:../../Drivers/STM32H7xx_HAL_Driver/Src/stm32h7xx_hal_rcc.c ****   return HAL_OK;
 1566              		.loc 1 893 10 view .LVU511
ARM GAS  /tmp/ccooDZtA.s 			page 48


 1567 05dc 0020     		movs	r0, #0
 1568 05de 54E0     		b	.L36
 1569              	.L159:
 1570              		.loc 1 893 10 view .LVU512
 1571 05e0 0020     		movs	r0, #0
 1572 05e2 52E0     		b	.L36
 1573              	.LVL119:
 1574              	.L101:
 858:../../Drivers/STM32H7xx_HAL_Driver/Src/stm32h7xx_hal_rcc.c ****       temp2_pllckcfg = RCC->PLL1DIVR;
 1575              		.loc 1 858 7 is_stmt 1 view .LVU513
 858:../../Drivers/STM32H7xx_HAL_Driver/Src/stm32h7xx_hal_rcc.c ****       temp2_pllckcfg = RCC->PLL1DIVR;
 1576              		.loc 1 858 22 is_stmt 0 view .LVU514
 1577 05e4 304A     		ldr	r2, .L170
 1578 05e6 916A     		ldr	r1, [r2, #40]
 1579              	.LVL120:
 859:../../Drivers/STM32H7xx_HAL_Driver/Src/stm32h7xx_hal_rcc.c ****       if (((RCC_OscInitStruct->PLL.PLLState) == RCC_PLL_OFF) ||
 1580              		.loc 1 859 7 is_stmt 1 view .LVU515
 859:../../Drivers/STM32H7xx_HAL_Driver/Src/stm32h7xx_hal_rcc.c ****       if (((RCC_OscInitStruct->PLL.PLLState) == RCC_PLL_OFF) ||
 1581              		.loc 1 859 22 is_stmt 0 view .LVU516
 1582 05e8 106B     		ldr	r0, [r2, #48]
 1583              	.LVL121:
 860:../../Drivers/STM32H7xx_HAL_Driver/Src/stm32h7xx_hal_rcc.c ****           (READ_BIT(temp1_pllckcfg, RCC_PLLCKSELR_PLLSRC) != RCC_OscInitStruct->PLL.PLLSource) ||
 1584              		.loc 1 860 7 is_stmt 1 view .LVU517
 860:../../Drivers/STM32H7xx_HAL_Driver/Src/stm32h7xx_hal_rcc.c ****           (READ_BIT(temp1_pllckcfg, RCC_PLLCKSELR_PLLSRC) != RCC_OscInitStruct->PLL.PLLSource) ||
 1585              		.loc 1 860 10 is_stmt 0 view .LVU518
 1586 05ea 012B     		cmp	r3, #1
 1587 05ec 4ED0     		beq	.L132
 861:../../Drivers/STM32H7xx_HAL_Driver/Src/stm32h7xx_hal_rcc.c ****           ((READ_BIT(temp1_pllckcfg, RCC_PLLCKSELR_DIVM1) >> RCC_PLLCKSELR_DIVM1_Pos) != RCC_OscIni
 1588              		.loc 1 861 12 discriminator 1 view .LVU519
 1589 05ee 01F00303 		and	r3, r1, #3
 861:../../Drivers/STM32H7xx_HAL_Driver/Src/stm32h7xx_hal_rcc.c ****           ((READ_BIT(temp1_pllckcfg, RCC_PLLCKSELR_DIVM1) >> RCC_PLLCKSELR_DIVM1_Pos) != RCC_OscIni
 1590              		.loc 1 861 84 discriminator 1 view .LVU520
 1591 05f2 A26A     		ldr	r2, [r4, #40]
 860:../../Drivers/STM32H7xx_HAL_Driver/Src/stm32h7xx_hal_rcc.c ****           (READ_BIT(temp1_pllckcfg, RCC_PLLCKSELR_PLLSRC) != RCC_OscInitStruct->PLL.PLLSource) ||
 1592              		.loc 1 860 62 discriminator 1 view .LVU521
 1593 05f4 9342     		cmp	r3, r2
 1594 05f6 4BD1     		bne	.L133
 862:../../Drivers/STM32H7xx_HAL_Driver/Src/stm32h7xx_hal_rcc.c ****           (READ_BIT(temp2_pllckcfg, RCC_PLL1DIVR_N1) != (RCC_OscInitStruct->PLL.PLLN - 1U)) ||
 1595              		.loc 1 862 59 view .LVU522
 1596 05f8 C1F30511 		ubfx	r1, r1, #4, #6
 1597              	.LVL122:
 862:../../Drivers/STM32H7xx_HAL_Driver/Src/stm32h7xx_hal_rcc.c ****           (READ_BIT(temp2_pllckcfg, RCC_PLL1DIVR_N1) != (RCC_OscInitStruct->PLL.PLLN - 1U)) ||
 1598              		.loc 1 862 112 view .LVU523
 1599 05fc E36A     		ldr	r3, [r4, #44]
 861:../../Drivers/STM32H7xx_HAL_Driver/Src/stm32h7xx_hal_rcc.c ****           ((READ_BIT(temp1_pllckcfg, RCC_PLLCKSELR_DIVM1) >> RCC_PLLCKSELR_DIVM1_Pos) != RCC_OscIni
 1600              		.loc 1 861 96 view .LVU524
 1601 05fe 9942     		cmp	r1, r3
 1602 0600 48D1     		bne	.L134
 863:../../Drivers/STM32H7xx_HAL_Driver/Src/stm32h7xx_hal_rcc.c ****           ((READ_BIT(temp2_pllckcfg, RCC_PLL1DIVR_P1) >> RCC_PLL1DIVR_P1_Pos) != (RCC_OscInitStruct
 1603              		.loc 1 863 12 view .LVU525
 1604 0602 C0F30802 		ubfx	r2, r0, #0, #9
 863:../../Drivers/STM32H7xx_HAL_Driver/Src/stm32h7xx_hal_rcc.c ****           ((READ_BIT(temp2_pllckcfg, RCC_PLL1DIVR_P1) >> RCC_PLL1DIVR_P1_Pos) != (RCC_OscInitStruct
 1605              		.loc 1 863 80 view .LVU526
 1606 0606 236B     		ldr	r3, [r4, #48]
 863:../../Drivers/STM32H7xx_HAL_Driver/Src/stm32h7xx_hal_rcc.c ****           ((READ_BIT(temp2_pllckcfg, RCC_PLL1DIVR_P1) >> RCC_PLL1DIVR_P1_Pos) != (RCC_OscInitStruct
 1607              		.loc 1 863 86 view .LVU527
 1608 0608 013B     		subs	r3, r3, #1
ARM GAS  /tmp/ccooDZtA.s 			page 49


 862:../../Drivers/STM32H7xx_HAL_Driver/Src/stm32h7xx_hal_rcc.c ****           (READ_BIT(temp2_pllckcfg, RCC_PLL1DIVR_N1) != (RCC_OscInitStruct->PLL.PLLN - 1U)) ||
 1609              		.loc 1 862 119 view .LVU528
 1610 060a 9A42     		cmp	r2, r3
 1611 060c 44D1     		bne	.L135
 864:../../Drivers/STM32H7xx_HAL_Driver/Src/stm32h7xx_hal_rcc.c ****           ((READ_BIT(temp2_pllckcfg, RCC_PLL1DIVR_Q1) >> RCC_PLL1DIVR_Q1_Pos) != (RCC_OscInitStruct
 1612              		.loc 1 864 55 view .LVU529
 1613 060e C0F34622 		ubfx	r2, r0, #9, #7
 864:../../Drivers/STM32H7xx_HAL_Driver/Src/stm32h7xx_hal_rcc.c ****           ((READ_BIT(temp2_pllckcfg, RCC_PLL1DIVR_Q1) >> RCC_PLL1DIVR_Q1_Pos) != (RCC_OscInitStruct
 1614              		.loc 1 864 105 view .LVU530
 1615 0612 636B     		ldr	r3, [r4, #52]
 864:../../Drivers/STM32H7xx_HAL_Driver/Src/stm32h7xx_hal_rcc.c ****           ((READ_BIT(temp2_pllckcfg, RCC_PLL1DIVR_Q1) >> RCC_PLL1DIVR_Q1_Pos) != (RCC_OscInitStruct
 1616              		.loc 1 864 111 view .LVU531
 1617 0614 013B     		subs	r3, r3, #1
 863:../../Drivers/STM32H7xx_HAL_Driver/Src/stm32h7xx_hal_rcc.c ****           ((READ_BIT(temp2_pllckcfg, RCC_PLL1DIVR_P1) >> RCC_PLL1DIVR_P1_Pos) != (RCC_OscInitStruct
 1618              		.loc 1 863 93 view .LVU532
 1619 0616 9A42     		cmp	r2, r3
 1620 0618 40D1     		bne	.L136
 865:../../Drivers/STM32H7xx_HAL_Driver/Src/stm32h7xx_hal_rcc.c ****           ((READ_BIT(temp2_pllckcfg, RCC_PLL1DIVR_R1) >> RCC_PLL1DIVR_R1_Pos) != (RCC_OscInitStruct
 1621              		.loc 1 865 55 view .LVU533
 1622 061a C0F30642 		ubfx	r2, r0, #16, #7
 865:../../Drivers/STM32H7xx_HAL_Driver/Src/stm32h7xx_hal_rcc.c ****           ((READ_BIT(temp2_pllckcfg, RCC_PLL1DIVR_R1) >> RCC_PLL1DIVR_R1_Pos) != (RCC_OscInitStruct
 1623              		.loc 1 865 105 view .LVU534
 1624 061e A36B     		ldr	r3, [r4, #56]
 865:../../Drivers/STM32H7xx_HAL_Driver/Src/stm32h7xx_hal_rcc.c ****           ((READ_BIT(temp2_pllckcfg, RCC_PLL1DIVR_R1) >> RCC_PLL1DIVR_R1_Pos) != (RCC_OscInitStruct
 1625              		.loc 1 865 111 view .LVU535
 1626 0620 013B     		subs	r3, r3, #1
 864:../../Drivers/STM32H7xx_HAL_Driver/Src/stm32h7xx_hal_rcc.c ****           ((READ_BIT(temp2_pllckcfg, RCC_PLL1DIVR_Q1) >> RCC_PLL1DIVR_Q1_Pos) != (RCC_OscInitStruct
 1627              		.loc 1 864 118 view .LVU536
 1628 0622 9A42     		cmp	r2, r3
 1629 0624 3CD1     		bne	.L137
 866:../../Drivers/STM32H7xx_HAL_Driver/Src/stm32h7xx_hal_rcc.c ****       {
 1630              		.loc 1 866 55 view .LVU537
 1631 0626 C0F30660 		ubfx	r0, r0, #24, #7
 1632              	.LVL123:
 866:../../Drivers/STM32H7xx_HAL_Driver/Src/stm32h7xx_hal_rcc.c ****       {
 1633              		.loc 1 866 105 view .LVU538
 1634 062a E36B     		ldr	r3, [r4, #60]
 866:../../Drivers/STM32H7xx_HAL_Driver/Src/stm32h7xx_hal_rcc.c ****       {
 1635              		.loc 1 866 111 view .LVU539
 1636 062c 013B     		subs	r3, r3, #1
 865:../../Drivers/STM32H7xx_HAL_Driver/Src/stm32h7xx_hal_rcc.c ****           ((READ_BIT(temp2_pllckcfg, RCC_PLL1DIVR_R1) >> RCC_PLL1DIVR_R1_Pos) != (RCC_OscInitStruct
 1637              		.loc 1 865 118 view .LVU540
 1638 062e 9842     		cmp	r0, r3
 1639 0630 38D1     		bne	.L138
 873:../../Drivers/STM32H7xx_HAL_Driver/Src/stm32h7xx_hal_rcc.c ****         if (RCC_OscInitStruct->PLL.PLLFRACN != temp1_pllckcfg)
 1640              		.loc 1 873 9 is_stmt 1 view .LVU541
 873:../../Drivers/STM32H7xx_HAL_Driver/Src/stm32h7xx_hal_rcc.c ****         if (RCC_OscInitStruct->PLL.PLLFRACN != temp1_pllckcfg)
 1641              		.loc 1 873 31 is_stmt 0 view .LVU542
 1642 0632 1D4B     		ldr	r3, .L170
 1643 0634 5B6B     		ldr	r3, [r3, #52]
 873:../../Drivers/STM32H7xx_HAL_Driver/Src/stm32h7xx_hal_rcc.c ****         if (RCC_OscInitStruct->PLL.PLLFRACN != temp1_pllckcfg)
 1644              		.loc 1 873 24 view .LVU543
 1645 0636 C3F3CC03 		ubfx	r3, r3, #3, #13
 1646              	.LVL124:
 874:../../Drivers/STM32H7xx_HAL_Driver/Src/stm32h7xx_hal_rcc.c ****         {
 1647              		.loc 1 874 9 is_stmt 1 view .LVU544
 874:../../Drivers/STM32H7xx_HAL_Driver/Src/stm32h7xx_hal_rcc.c ****         {
ARM GAS  /tmp/ccooDZtA.s 			page 50


 1648              		.loc 1 874 35 is_stmt 0 view .LVU545
 1649 063a A26C     		ldr	r2, [r4, #72]
 874:../../Drivers/STM32H7xx_HAL_Driver/Src/stm32h7xx_hal_rcc.c ****         {
 1650              		.loc 1 874 12 view .LVU546
 1651 063c 9A42     		cmp	r2, r3
 1652 063e 01D1     		bne	.L165
 1653              		.loc 1 893 10 view .LVU547
 1654 0640 0020     		movs	r0, #0
 1655 0642 22E0     		b	.L36
 1656              	.L165:
 876:../../Drivers/STM32H7xx_HAL_Driver/Src/stm32h7xx_hal_rcc.c ****           /* Disable PLL1FRACEN */
 1657              		.loc 1 876 11 is_stmt 1 view .LVU548
 878:../../Drivers/STM32H7xx_HAL_Driver/Src/stm32h7xx_hal_rcc.c ****           /* Get Start Tick*/
 1658              		.loc 1 878 11 view .LVU549
 1659 0644 184A     		ldr	r2, .L170
 1660 0646 D36A     		ldr	r3, [r2, #44]
 1661              	.LVL125:
 878:../../Drivers/STM32H7xx_HAL_Driver/Src/stm32h7xx_hal_rcc.c ****           /* Get Start Tick*/
 1662              		.loc 1 878 11 is_stmt 0 view .LVU550
 1663 0648 23F00103 		bic	r3, r3, #1
 1664 064c D362     		str	r3, [r2, #44]
 880:../../Drivers/STM32H7xx_HAL_Driver/Src/stm32h7xx_hal_rcc.c ****           /* Wait at least 2 CK_REF (PLL input source divided by M) period to make sure next latche
 1665              		.loc 1 880 11 is_stmt 1 view .LVU551
 880:../../Drivers/STM32H7xx_HAL_Driver/Src/stm32h7xx_hal_rcc.c ****           /* Wait at least 2 CK_REF (PLL input source divided by M) period to make sure next latche
 1666              		.loc 1 880 23 is_stmt 0 view .LVU552
 1667 064e FFF7FEFF 		bl	HAL_GetTick
 1668              	.LVL126:
 1669 0652 0546     		mov	r5, r0
 1670              	.LVL127:
 882:../../Drivers/STM32H7xx_HAL_Driver/Src/stm32h7xx_hal_rcc.c ****           {
 1671              		.loc 1 882 11 is_stmt 1 view .LVU553
 1672              	.L109:
 884:../../Drivers/STM32H7xx_HAL_Driver/Src/stm32h7xx_hal_rcc.c ****           /* Configure PLL1 PLL1FRACN */
 1673              		.loc 1 884 11 discriminator 1 view .LVU554
 882:../../Drivers/STM32H7xx_HAL_Driver/Src/stm32h7xx_hal_rcc.c ****           {
 1674              		.loc 1 882 17 discriminator 1 view .LVU555
 882:../../Drivers/STM32H7xx_HAL_Driver/Src/stm32h7xx_hal_rcc.c ****           {
 1675              		.loc 1 882 19 is_stmt 0 discriminator 1 view .LVU556
 1676 0654 FFF7FEFF 		bl	HAL_GetTick
 1677              	.LVL128:
 882:../../Drivers/STM32H7xx_HAL_Driver/Src/stm32h7xx_hal_rcc.c ****           {
 1678              		.loc 1 882 17 discriminator 1 view .LVU557
 1679 0658 A842     		cmp	r0, r5
 1680 065a FBD0     		beq	.L109
 886:../../Drivers/STM32H7xx_HAL_Driver/Src/stm32h7xx_hal_rcc.c ****           /* Enable PLL1FRACEN to latch new value. */
 1681              		.loc 1 886 11 is_stmt 1 view .LVU558
 1682 065c 124A     		ldr	r2, .L170
 1683 065e 516B     		ldr	r1, [r2, #52]
 1684 0660 134B     		ldr	r3, .L170+8
 1685 0662 0B40     		ands	r3, r3, r1
 1686 0664 A16C     		ldr	r1, [r4, #72]
 1687 0666 43EAC103 		orr	r3, r3, r1, lsl #3
 1688 066a 5363     		str	r3, [r2, #52]
 888:../../Drivers/STM32H7xx_HAL_Driver/Src/stm32h7xx_hal_rcc.c ****         }
 1689              		.loc 1 888 11 view .LVU559
 1690 066c D36A     		ldr	r3, [r2, #44]
 1691 066e 43F00103 		orr	r3, r3, #1
ARM GAS  /tmp/ccooDZtA.s 			page 51


 1692 0672 D362     		str	r3, [r2, #44]
 1693              		.loc 1 893 10 is_stmt 0 view .LVU560
 1694 0674 0020     		movs	r0, #0
 1695 0676 08E0     		b	.L36
 1696              	.LVL129:
 1697              	.L110:
 1698              	.LCFI2:
 1699              		.cfi_def_cfa_offset 0
 1700              		.cfi_restore 3
 1701              		.cfi_restore 4
 1702              		.cfi_restore 5
 1703              		.cfi_restore 14
 413:../../Drivers/STM32H7xx_HAL_Driver/Src/stm32h7xx_hal_rcc.c ****   }
 1704              		.loc 1 413 12 view .LVU561
 1705 0678 0120     		movs	r0, #1
 1706              	.LVL130:
 894:../../Drivers/STM32H7xx_HAL_Driver/Src/stm32h7xx_hal_rcc.c **** }
 1707              		.loc 1 894 1 view .LVU562
 1708 067a 7047     		bx	lr
 1709              	.LVL131:
 1710              	.L146:
 1711              	.LCFI3:
 1712              		.cfi_def_cfa_offset 16
 1713              		.cfi_offset 3, -16
 1714              		.cfi_offset 4, -12
 1715              		.cfi_offset 5, -8
 1716              		.cfi_offset 14, -4
 1717              	.LBB10:
 431:../../Drivers/STM32H7xx_HAL_Driver/Src/stm32h7xx_hal_rcc.c ****       }
 1718              		.loc 1 431 16 view .LVU563
 1719 067c 0120     		movs	r0, #1
 1720              	.LVL132:
 431:../../Drivers/STM32H7xx_HAL_Driver/Src/stm32h7xx_hal_rcc.c ****       }
 1721              		.loc 1 431 16 view .LVU564
 1722 067e 04E0     		b	.L36
 1723              	.LVL133:
 1724              	.L114:
 431:../../Drivers/STM32H7xx_HAL_Driver/Src/stm32h7xx_hal_rcc.c ****       }
 1725              		.loc 1 431 16 view .LVU565
 1726              	.LBE10:
 1727              	.LBB11:
 485:../../Drivers/STM32H7xx_HAL_Driver/Src/stm32h7xx_hal_rcc.c ****       }
 1728              		.loc 1 485 16 view .LVU566
 1729 0680 0120     		movs	r0, #1
 1730 0682 02E0     		b	.L36
 1731              	.LVL134:
 1732              	.L118:
 485:../../Drivers/STM32H7xx_HAL_Driver/Src/stm32h7xx_hal_rcc.c ****       }
 1733              		.loc 1 485 16 view .LVU567
 1734              	.LBE11:
 1735              	.LBB12:
 566:../../Drivers/STM32H7xx_HAL_Driver/Src/stm32h7xx_hal_rcc.c ****       }
 1736              		.loc 1 566 16 view .LVU568
 1737 0684 0120     		movs	r0, #1
 1738 0686 00E0     		b	.L36
 1739              	.L128:
 566:../../Drivers/STM32H7xx_HAL_Driver/Src/stm32h7xx_hal_rcc.c ****       }
ARM GAS  /tmp/ccooDZtA.s 			page 52


 1740              		.loc 1 566 16 view .LVU569
 1741              	.LBE12:
 893:../../Drivers/STM32H7xx_HAL_Driver/Src/stm32h7xx_hal_rcc.c **** }
 1742              		.loc 1 893 10 view .LVU570
 1743 0688 0020     		movs	r0, #0
 1744              	.LVL135:
 1745              	.L36:
 1746              		.loc 1 894 1 view .LVU571
 1747 068a 38BD     		pop	{r3, r4, r5, pc}
 1748              	.LVL136:
 1749              	.L132:
 868:../../Drivers/STM32H7xx_HAL_Driver/Src/stm32h7xx_hal_rcc.c ****       }
 1750              		.loc 1 868 16 view .LVU572
 1751 068c 0120     		movs	r0, #1
 1752              	.LVL137:
 868:../../Drivers/STM32H7xx_HAL_Driver/Src/stm32h7xx_hal_rcc.c ****       }
 1753              		.loc 1 868 16 view .LVU573
 1754 068e FCE7     		b	.L36
 1755              	.LVL138:
 1756              	.L133:
 868:../../Drivers/STM32H7xx_HAL_Driver/Src/stm32h7xx_hal_rcc.c ****       }
 1757              		.loc 1 868 16 view .LVU574
 1758 0690 0120     		movs	r0, #1
 1759              	.LVL139:
 868:../../Drivers/STM32H7xx_HAL_Driver/Src/stm32h7xx_hal_rcc.c ****       }
 1760              		.loc 1 868 16 view .LVU575
 1761 0692 FAE7     		b	.L36
 1762              	.LVL140:
 1763              	.L134:
 868:../../Drivers/STM32H7xx_HAL_Driver/Src/stm32h7xx_hal_rcc.c ****       }
 1764              		.loc 1 868 16 view .LVU576
 1765 0694 0120     		movs	r0, #1
 1766              	.LVL141:
 868:../../Drivers/STM32H7xx_HAL_Driver/Src/stm32h7xx_hal_rcc.c ****       }
 1767              		.loc 1 868 16 view .LVU577
 1768 0696 F8E7     		b	.L36
 1769              	.LVL142:
 1770              	.L135:
 868:../../Drivers/STM32H7xx_HAL_Driver/Src/stm32h7xx_hal_rcc.c ****       }
 1771              		.loc 1 868 16 view .LVU578
 1772 0698 0120     		movs	r0, #1
 1773              	.LVL143:
 868:../../Drivers/STM32H7xx_HAL_Driver/Src/stm32h7xx_hal_rcc.c ****       }
 1774              		.loc 1 868 16 view .LVU579
 1775 069a F6E7     		b	.L36
 1776              	.LVL144:
 1777              	.L136:
 868:../../Drivers/STM32H7xx_HAL_Driver/Src/stm32h7xx_hal_rcc.c ****       }
 1778              		.loc 1 868 16 view .LVU580
 1779 069c 0120     		movs	r0, #1
 1780              	.LVL145:
 868:../../Drivers/STM32H7xx_HAL_Driver/Src/stm32h7xx_hal_rcc.c ****       }
 1781              		.loc 1 868 16 view .LVU581
 1782 069e F4E7     		b	.L36
 1783              	.LVL146:
 1784              	.L137:
 868:../../Drivers/STM32H7xx_HAL_Driver/Src/stm32h7xx_hal_rcc.c ****       }
ARM GAS  /tmp/ccooDZtA.s 			page 53


 1785              		.loc 1 868 16 view .LVU582
 1786 06a0 0120     		movs	r0, #1
 1787              	.LVL147:
 868:../../Drivers/STM32H7xx_HAL_Driver/Src/stm32h7xx_hal_rcc.c ****       }
 1788              		.loc 1 868 16 view .LVU583
 1789 06a2 F2E7     		b	.L36
 1790              	.L138:
 1791 06a4 0120     		movs	r0, #1
 1792 06a6 F0E7     		b	.L36
 1793              	.L171:
 1794              		.align	2
 1795              	.L170:
 1796 06a8 00440258 		.word	1476543488
 1797 06ac 0CFCFFFF 		.word	-1012
 1798 06b0 0700FFFF 		.word	-65529
 1799              		.cfi_endproc
 1800              	.LFE145:
 1802              		.section	.text.HAL_RCC_MCOConfig,"ax",%progbits
 1803              		.align	1
 1804              		.global	HAL_RCC_MCOConfig
 1805              		.syntax unified
 1806              		.thumb
 1807              		.thumb_func
 1808              		.fpu fpv5-d16
 1810              	HAL_RCC_MCOConfig:
 1811              	.LVL148:
 1812              	.LFB147:
 895:../../Drivers/STM32H7xx_HAL_Driver/Src/stm32h7xx_hal_rcc.c **** 
 896:../../Drivers/STM32H7xx_HAL_Driver/Src/stm32h7xx_hal_rcc.c **** /**
 897:../../Drivers/STM32H7xx_HAL_Driver/Src/stm32h7xx_hal_rcc.c ****   * @brief  Initializes the CPU, AHB and APB buses clocks according to the specified
 898:../../Drivers/STM32H7xx_HAL_Driver/Src/stm32h7xx_hal_rcc.c ****   *         parameters in the RCC_ClkInitStruct.
 899:../../Drivers/STM32H7xx_HAL_Driver/Src/stm32h7xx_hal_rcc.c ****   * @param  RCC_ClkInitStruct: pointer to an RCC_OscInitTypeDef structure that
 900:../../Drivers/STM32H7xx_HAL_Driver/Src/stm32h7xx_hal_rcc.c ****   *         contains the configuration information for the RCC peripheral.
 901:../../Drivers/STM32H7xx_HAL_Driver/Src/stm32h7xx_hal_rcc.c ****   * @param  FLatency: FLASH Latency, this parameter depend on device selected
 902:../../Drivers/STM32H7xx_HAL_Driver/Src/stm32h7xx_hal_rcc.c ****   *
 903:../../Drivers/STM32H7xx_HAL_Driver/Src/stm32h7xx_hal_rcc.c ****   * @note   The SystemCoreClock CMSIS variable is used to store System Core Clock Frequency
 904:../../Drivers/STM32H7xx_HAL_Driver/Src/stm32h7xx_hal_rcc.c ****   *         and updated by HAL_InitTick() function called within this function
 905:../../Drivers/STM32H7xx_HAL_Driver/Src/stm32h7xx_hal_rcc.c ****   *
 906:../../Drivers/STM32H7xx_HAL_Driver/Src/stm32h7xx_hal_rcc.c ****   * @note   The HSI is used (enabled by hardware) as system clock source after
 907:../../Drivers/STM32H7xx_HAL_Driver/Src/stm32h7xx_hal_rcc.c ****   *         start-up from Reset, wake-up from STOP and STANDBY mode, or in case
 908:../../Drivers/STM32H7xx_HAL_Driver/Src/stm32h7xx_hal_rcc.c ****   *         of failure of the HSE used directly or indirectly as system clock
 909:../../Drivers/STM32H7xx_HAL_Driver/Src/stm32h7xx_hal_rcc.c ****   *         (if the Clock Security System CSS is enabled).
 910:../../Drivers/STM32H7xx_HAL_Driver/Src/stm32h7xx_hal_rcc.c ****   *
 911:../../Drivers/STM32H7xx_HAL_Driver/Src/stm32h7xx_hal_rcc.c ****   * @note   A switch from one clock source to another occurs only if the target
 912:../../Drivers/STM32H7xx_HAL_Driver/Src/stm32h7xx_hal_rcc.c ****   *         clock source is ready (clock stable after start-up delay or PLL locked).
 913:../../Drivers/STM32H7xx_HAL_Driver/Src/stm32h7xx_hal_rcc.c ****   *         If a clock source which is not yet ready is selected, the switch will
 914:../../Drivers/STM32H7xx_HAL_Driver/Src/stm32h7xx_hal_rcc.c ****   *         occur when the clock source will be ready.
 915:../../Drivers/STM32H7xx_HAL_Driver/Src/stm32h7xx_hal_rcc.c ****   *         You can use HAL_RCC_GetClockConfig() function to know which clock is
 916:../../Drivers/STM32H7xx_HAL_Driver/Src/stm32h7xx_hal_rcc.c ****   *         currently used as system clock source.
 917:../../Drivers/STM32H7xx_HAL_Driver/Src/stm32h7xx_hal_rcc.c ****   * @note   Depending on the device voltage range, the software has to set correctly
 918:../../Drivers/STM32H7xx_HAL_Driver/Src/stm32h7xx_hal_rcc.c ****   *         D1CPRE[3:0] bits to ensure that  Domain1 core clock not exceed the maximum allowed freq
 919:../../Drivers/STM32H7xx_HAL_Driver/Src/stm32h7xx_hal_rcc.c ****   *         (for more details refer to section above "Initialization/de-initialization functions")
 920:../../Drivers/STM32H7xx_HAL_Driver/Src/stm32h7xx_hal_rcc.c ****   * @retval None
 921:../../Drivers/STM32H7xx_HAL_Driver/Src/stm32h7xx_hal_rcc.c ****   */
 922:../../Drivers/STM32H7xx_HAL_Driver/Src/stm32h7xx_hal_rcc.c **** HAL_StatusTypeDef HAL_RCC_ClockConfig(RCC_ClkInitTypeDef  *RCC_ClkInitStruct, uint32_t FLatency)
 923:../../Drivers/STM32H7xx_HAL_Driver/Src/stm32h7xx_hal_rcc.c **** {
 924:../../Drivers/STM32H7xx_HAL_Driver/Src/stm32h7xx_hal_rcc.c ****   HAL_StatusTypeDef halstatus;
ARM GAS  /tmp/ccooDZtA.s 			page 54


 925:../../Drivers/STM32H7xx_HAL_Driver/Src/stm32h7xx_hal_rcc.c ****   uint32_t tickstart;
 926:../../Drivers/STM32H7xx_HAL_Driver/Src/stm32h7xx_hal_rcc.c ****   uint32_t common_system_clock;
 927:../../Drivers/STM32H7xx_HAL_Driver/Src/stm32h7xx_hal_rcc.c **** 
 928:../../Drivers/STM32H7xx_HAL_Driver/Src/stm32h7xx_hal_rcc.c ****   /* Check Null pointer */
 929:../../Drivers/STM32H7xx_HAL_Driver/Src/stm32h7xx_hal_rcc.c ****   if (RCC_ClkInitStruct == NULL)
 930:../../Drivers/STM32H7xx_HAL_Driver/Src/stm32h7xx_hal_rcc.c ****   {
 931:../../Drivers/STM32H7xx_HAL_Driver/Src/stm32h7xx_hal_rcc.c ****     return HAL_ERROR;
 932:../../Drivers/STM32H7xx_HAL_Driver/Src/stm32h7xx_hal_rcc.c ****   }
 933:../../Drivers/STM32H7xx_HAL_Driver/Src/stm32h7xx_hal_rcc.c **** 
 934:../../Drivers/STM32H7xx_HAL_Driver/Src/stm32h7xx_hal_rcc.c ****   /* Check the parameters */
 935:../../Drivers/STM32H7xx_HAL_Driver/Src/stm32h7xx_hal_rcc.c ****   assert_param(IS_RCC_CLOCKTYPE(RCC_ClkInitStruct->ClockType));
 936:../../Drivers/STM32H7xx_HAL_Driver/Src/stm32h7xx_hal_rcc.c ****   assert_param(IS_FLASH_LATENCY(FLatency));
 937:../../Drivers/STM32H7xx_HAL_Driver/Src/stm32h7xx_hal_rcc.c **** 
 938:../../Drivers/STM32H7xx_HAL_Driver/Src/stm32h7xx_hal_rcc.c ****   /* To correctly read data from FLASH memory, the number of wait states (LATENCY)
 939:../../Drivers/STM32H7xx_HAL_Driver/Src/stm32h7xx_hal_rcc.c ****     must be correctly programmed according to the frequency of the CPU clock
 940:../../Drivers/STM32H7xx_HAL_Driver/Src/stm32h7xx_hal_rcc.c ****     (HCLK) and the supply voltage of the device. */
 941:../../Drivers/STM32H7xx_HAL_Driver/Src/stm32h7xx_hal_rcc.c **** 
 942:../../Drivers/STM32H7xx_HAL_Driver/Src/stm32h7xx_hal_rcc.c ****   /* Increasing the CPU frequency */
 943:../../Drivers/STM32H7xx_HAL_Driver/Src/stm32h7xx_hal_rcc.c ****   if (FLatency > __HAL_FLASH_GET_LATENCY())
 944:../../Drivers/STM32H7xx_HAL_Driver/Src/stm32h7xx_hal_rcc.c ****   {
 945:../../Drivers/STM32H7xx_HAL_Driver/Src/stm32h7xx_hal_rcc.c ****     /* Program the new number of wait states to the LATENCY bits in the FLASH_ACR register */
 946:../../Drivers/STM32H7xx_HAL_Driver/Src/stm32h7xx_hal_rcc.c ****     __HAL_FLASH_SET_LATENCY(FLatency);
 947:../../Drivers/STM32H7xx_HAL_Driver/Src/stm32h7xx_hal_rcc.c **** 
 948:../../Drivers/STM32H7xx_HAL_Driver/Src/stm32h7xx_hal_rcc.c ****     /* Check that the new number of wait states is taken into account to access the Flash
 949:../../Drivers/STM32H7xx_HAL_Driver/Src/stm32h7xx_hal_rcc.c ****     memory by reading the FLASH_ACR register */
 950:../../Drivers/STM32H7xx_HAL_Driver/Src/stm32h7xx_hal_rcc.c ****     if (__HAL_FLASH_GET_LATENCY() != FLatency)
 951:../../Drivers/STM32H7xx_HAL_Driver/Src/stm32h7xx_hal_rcc.c ****     {
 952:../../Drivers/STM32H7xx_HAL_Driver/Src/stm32h7xx_hal_rcc.c ****       return HAL_ERROR;
 953:../../Drivers/STM32H7xx_HAL_Driver/Src/stm32h7xx_hal_rcc.c ****     }
 954:../../Drivers/STM32H7xx_HAL_Driver/Src/stm32h7xx_hal_rcc.c **** 
 955:../../Drivers/STM32H7xx_HAL_Driver/Src/stm32h7xx_hal_rcc.c ****   }
 956:../../Drivers/STM32H7xx_HAL_Driver/Src/stm32h7xx_hal_rcc.c **** 
 957:../../Drivers/STM32H7xx_HAL_Driver/Src/stm32h7xx_hal_rcc.c ****   /* Increasing the BUS frequency divider */
 958:../../Drivers/STM32H7xx_HAL_Driver/Src/stm32h7xx_hal_rcc.c ****   /*-------------------------- D1PCLK1/CDPCLK1 Configuration ---------------------------*/
 959:../../Drivers/STM32H7xx_HAL_Driver/Src/stm32h7xx_hal_rcc.c ****   if (((RCC_ClkInitStruct->ClockType) & RCC_CLOCKTYPE_D1PCLK1) == RCC_CLOCKTYPE_D1PCLK1)
 960:../../Drivers/STM32H7xx_HAL_Driver/Src/stm32h7xx_hal_rcc.c ****   {
 961:../../Drivers/STM32H7xx_HAL_Driver/Src/stm32h7xx_hal_rcc.c **** #if defined (RCC_D1CFGR_D1PPRE)
 962:../../Drivers/STM32H7xx_HAL_Driver/Src/stm32h7xx_hal_rcc.c ****     if ((RCC_ClkInitStruct->APB3CLKDivider) > (RCC->D1CFGR & RCC_D1CFGR_D1PPRE))
 963:../../Drivers/STM32H7xx_HAL_Driver/Src/stm32h7xx_hal_rcc.c ****     {
 964:../../Drivers/STM32H7xx_HAL_Driver/Src/stm32h7xx_hal_rcc.c ****       assert_param(IS_RCC_D1PCLK1(RCC_ClkInitStruct->APB3CLKDivider));
 965:../../Drivers/STM32H7xx_HAL_Driver/Src/stm32h7xx_hal_rcc.c ****       MODIFY_REG(RCC->D1CFGR, RCC_D1CFGR_D1PPRE, RCC_ClkInitStruct->APB3CLKDivider);
 966:../../Drivers/STM32H7xx_HAL_Driver/Src/stm32h7xx_hal_rcc.c ****     }
 967:../../Drivers/STM32H7xx_HAL_Driver/Src/stm32h7xx_hal_rcc.c **** #else
 968:../../Drivers/STM32H7xx_HAL_Driver/Src/stm32h7xx_hal_rcc.c ****     if ((RCC_ClkInitStruct->APB3CLKDivider) > (RCC->CDCFGR1 & RCC_CDCFGR1_CDPPRE))
 969:../../Drivers/STM32H7xx_HAL_Driver/Src/stm32h7xx_hal_rcc.c ****     {
 970:../../Drivers/STM32H7xx_HAL_Driver/Src/stm32h7xx_hal_rcc.c ****       assert_param(IS_RCC_CDPCLK1(RCC_ClkInitStruct->APB3CLKDivider));
 971:../../Drivers/STM32H7xx_HAL_Driver/Src/stm32h7xx_hal_rcc.c ****       MODIFY_REG(RCC->CDCFGR1, RCC_CDCFGR1_CDPPRE, RCC_ClkInitStruct->APB3CLKDivider);
 972:../../Drivers/STM32H7xx_HAL_Driver/Src/stm32h7xx_hal_rcc.c ****     }
 973:../../Drivers/STM32H7xx_HAL_Driver/Src/stm32h7xx_hal_rcc.c **** #endif
 974:../../Drivers/STM32H7xx_HAL_Driver/Src/stm32h7xx_hal_rcc.c ****   }
 975:../../Drivers/STM32H7xx_HAL_Driver/Src/stm32h7xx_hal_rcc.c **** 
 976:../../Drivers/STM32H7xx_HAL_Driver/Src/stm32h7xx_hal_rcc.c ****   /*-------------------------- PCLK1 Configuration ---------------------------*/
 977:../../Drivers/STM32H7xx_HAL_Driver/Src/stm32h7xx_hal_rcc.c ****   if (((RCC_ClkInitStruct->ClockType) & RCC_CLOCKTYPE_PCLK1) == RCC_CLOCKTYPE_PCLK1)
 978:../../Drivers/STM32H7xx_HAL_Driver/Src/stm32h7xx_hal_rcc.c ****   {
 979:../../Drivers/STM32H7xx_HAL_Driver/Src/stm32h7xx_hal_rcc.c **** #if defined (RCC_D2CFGR_D2PPRE1)
 980:../../Drivers/STM32H7xx_HAL_Driver/Src/stm32h7xx_hal_rcc.c ****     if ((RCC_ClkInitStruct->APB1CLKDivider) > (RCC->D2CFGR & RCC_D2CFGR_D2PPRE1))
 981:../../Drivers/STM32H7xx_HAL_Driver/Src/stm32h7xx_hal_rcc.c ****     {
ARM GAS  /tmp/ccooDZtA.s 			page 55


 982:../../Drivers/STM32H7xx_HAL_Driver/Src/stm32h7xx_hal_rcc.c ****       assert_param(IS_RCC_PCLK1(RCC_ClkInitStruct->APB1CLKDivider));
 983:../../Drivers/STM32H7xx_HAL_Driver/Src/stm32h7xx_hal_rcc.c ****       MODIFY_REG(RCC->D2CFGR, RCC_D2CFGR_D2PPRE1, (RCC_ClkInitStruct->APB1CLKDivider));
 984:../../Drivers/STM32H7xx_HAL_Driver/Src/stm32h7xx_hal_rcc.c ****     }
 985:../../Drivers/STM32H7xx_HAL_Driver/Src/stm32h7xx_hal_rcc.c **** #else
 986:../../Drivers/STM32H7xx_HAL_Driver/Src/stm32h7xx_hal_rcc.c ****     if ((RCC_ClkInitStruct->APB1CLKDivider) > (RCC->CDCFGR2 & RCC_CDCFGR2_CDPPRE1))
 987:../../Drivers/STM32H7xx_HAL_Driver/Src/stm32h7xx_hal_rcc.c ****     {
 988:../../Drivers/STM32H7xx_HAL_Driver/Src/stm32h7xx_hal_rcc.c ****       assert_param(IS_RCC_PCLK1(RCC_ClkInitStruct->APB1CLKDivider));
 989:../../Drivers/STM32H7xx_HAL_Driver/Src/stm32h7xx_hal_rcc.c ****       MODIFY_REG(RCC->CDCFGR2, RCC_CDCFGR2_CDPPRE1, (RCC_ClkInitStruct->APB1CLKDivider));
 990:../../Drivers/STM32H7xx_HAL_Driver/Src/stm32h7xx_hal_rcc.c ****     }
 991:../../Drivers/STM32H7xx_HAL_Driver/Src/stm32h7xx_hal_rcc.c **** #endif
 992:../../Drivers/STM32H7xx_HAL_Driver/Src/stm32h7xx_hal_rcc.c ****   }
 993:../../Drivers/STM32H7xx_HAL_Driver/Src/stm32h7xx_hal_rcc.c ****   /*-------------------------- PCLK2 Configuration ---------------------------*/
 994:../../Drivers/STM32H7xx_HAL_Driver/Src/stm32h7xx_hal_rcc.c ****   if (((RCC_ClkInitStruct->ClockType) & RCC_CLOCKTYPE_PCLK2) == RCC_CLOCKTYPE_PCLK2)
 995:../../Drivers/STM32H7xx_HAL_Driver/Src/stm32h7xx_hal_rcc.c ****   {
 996:../../Drivers/STM32H7xx_HAL_Driver/Src/stm32h7xx_hal_rcc.c **** #if defined(RCC_D2CFGR_D2PPRE2)
 997:../../Drivers/STM32H7xx_HAL_Driver/Src/stm32h7xx_hal_rcc.c ****     if ((RCC_ClkInitStruct->APB2CLKDivider) > (RCC->D2CFGR & RCC_D2CFGR_D2PPRE2))
 998:../../Drivers/STM32H7xx_HAL_Driver/Src/stm32h7xx_hal_rcc.c ****     {
 999:../../Drivers/STM32H7xx_HAL_Driver/Src/stm32h7xx_hal_rcc.c ****       assert_param(IS_RCC_PCLK2(RCC_ClkInitStruct->APB2CLKDivider));
1000:../../Drivers/STM32H7xx_HAL_Driver/Src/stm32h7xx_hal_rcc.c ****       MODIFY_REG(RCC->D2CFGR, RCC_D2CFGR_D2PPRE2, (RCC_ClkInitStruct->APB2CLKDivider));
1001:../../Drivers/STM32H7xx_HAL_Driver/Src/stm32h7xx_hal_rcc.c ****     }
1002:../../Drivers/STM32H7xx_HAL_Driver/Src/stm32h7xx_hal_rcc.c **** #else
1003:../../Drivers/STM32H7xx_HAL_Driver/Src/stm32h7xx_hal_rcc.c ****     if ((RCC_ClkInitStruct->APB2CLKDivider) > (RCC->CDCFGR2 & RCC_CDCFGR2_CDPPRE2))
1004:../../Drivers/STM32H7xx_HAL_Driver/Src/stm32h7xx_hal_rcc.c ****     {
1005:../../Drivers/STM32H7xx_HAL_Driver/Src/stm32h7xx_hal_rcc.c ****       assert_param(IS_RCC_PCLK2(RCC_ClkInitStruct->APB2CLKDivider));
1006:../../Drivers/STM32H7xx_HAL_Driver/Src/stm32h7xx_hal_rcc.c ****       MODIFY_REG(RCC->CDCFGR2, RCC_CDCFGR2_CDPPRE2, (RCC_ClkInitStruct->APB2CLKDivider));
1007:../../Drivers/STM32H7xx_HAL_Driver/Src/stm32h7xx_hal_rcc.c ****     }
1008:../../Drivers/STM32H7xx_HAL_Driver/Src/stm32h7xx_hal_rcc.c **** #endif
1009:../../Drivers/STM32H7xx_HAL_Driver/Src/stm32h7xx_hal_rcc.c ****   }
1010:../../Drivers/STM32H7xx_HAL_Driver/Src/stm32h7xx_hal_rcc.c **** 
1011:../../Drivers/STM32H7xx_HAL_Driver/Src/stm32h7xx_hal_rcc.c ****   /*-------------------------- D3PCLK1 Configuration ---------------------------*/
1012:../../Drivers/STM32H7xx_HAL_Driver/Src/stm32h7xx_hal_rcc.c ****   if (((RCC_ClkInitStruct->ClockType) & RCC_CLOCKTYPE_D3PCLK1) == RCC_CLOCKTYPE_D3PCLK1)
1013:../../Drivers/STM32H7xx_HAL_Driver/Src/stm32h7xx_hal_rcc.c ****   {
1014:../../Drivers/STM32H7xx_HAL_Driver/Src/stm32h7xx_hal_rcc.c **** #if defined(RCC_D3CFGR_D3PPRE)
1015:../../Drivers/STM32H7xx_HAL_Driver/Src/stm32h7xx_hal_rcc.c ****     if ((RCC_ClkInitStruct->APB4CLKDivider) > (RCC->D3CFGR & RCC_D3CFGR_D3PPRE))
1016:../../Drivers/STM32H7xx_HAL_Driver/Src/stm32h7xx_hal_rcc.c ****     {
1017:../../Drivers/STM32H7xx_HAL_Driver/Src/stm32h7xx_hal_rcc.c ****       assert_param(IS_RCC_D3PCLK1(RCC_ClkInitStruct->APB4CLKDivider));
1018:../../Drivers/STM32H7xx_HAL_Driver/Src/stm32h7xx_hal_rcc.c ****       MODIFY_REG(RCC->D3CFGR, RCC_D3CFGR_D3PPRE, (RCC_ClkInitStruct->APB4CLKDivider));
1019:../../Drivers/STM32H7xx_HAL_Driver/Src/stm32h7xx_hal_rcc.c ****     }
1020:../../Drivers/STM32H7xx_HAL_Driver/Src/stm32h7xx_hal_rcc.c **** #else
1021:../../Drivers/STM32H7xx_HAL_Driver/Src/stm32h7xx_hal_rcc.c ****     if ((RCC_ClkInitStruct->APB4CLKDivider) > (RCC->SRDCFGR & RCC_SRDCFGR_SRDPPRE))
1022:../../Drivers/STM32H7xx_HAL_Driver/Src/stm32h7xx_hal_rcc.c ****     {
1023:../../Drivers/STM32H7xx_HAL_Driver/Src/stm32h7xx_hal_rcc.c ****       assert_param(IS_RCC_D3PCLK1(RCC_ClkInitStruct->APB4CLKDivider));
1024:../../Drivers/STM32H7xx_HAL_Driver/Src/stm32h7xx_hal_rcc.c ****       MODIFY_REG(RCC->SRDCFGR, RCC_SRDCFGR_SRDPPRE, (RCC_ClkInitStruct->APB4CLKDivider));
1025:../../Drivers/STM32H7xx_HAL_Driver/Src/stm32h7xx_hal_rcc.c ****     }
1026:../../Drivers/STM32H7xx_HAL_Driver/Src/stm32h7xx_hal_rcc.c **** #endif
1027:../../Drivers/STM32H7xx_HAL_Driver/Src/stm32h7xx_hal_rcc.c ****   }
1028:../../Drivers/STM32H7xx_HAL_Driver/Src/stm32h7xx_hal_rcc.c **** 
1029:../../Drivers/STM32H7xx_HAL_Driver/Src/stm32h7xx_hal_rcc.c ****   /*-------------------------- HCLK Configuration --------------------------*/
1030:../../Drivers/STM32H7xx_HAL_Driver/Src/stm32h7xx_hal_rcc.c ****   if (((RCC_ClkInitStruct->ClockType) & RCC_CLOCKTYPE_HCLK) == RCC_CLOCKTYPE_HCLK)
1031:../../Drivers/STM32H7xx_HAL_Driver/Src/stm32h7xx_hal_rcc.c ****   {
1032:../../Drivers/STM32H7xx_HAL_Driver/Src/stm32h7xx_hal_rcc.c **** #if defined (RCC_D1CFGR_HPRE)
1033:../../Drivers/STM32H7xx_HAL_Driver/Src/stm32h7xx_hal_rcc.c ****     if ((RCC_ClkInitStruct->AHBCLKDivider) > (RCC->D1CFGR & RCC_D1CFGR_HPRE))
1034:../../Drivers/STM32H7xx_HAL_Driver/Src/stm32h7xx_hal_rcc.c ****     {
1035:../../Drivers/STM32H7xx_HAL_Driver/Src/stm32h7xx_hal_rcc.c ****       /* Set the new HCLK clock divider */
1036:../../Drivers/STM32H7xx_HAL_Driver/Src/stm32h7xx_hal_rcc.c ****       assert_param(IS_RCC_HCLK(RCC_ClkInitStruct->AHBCLKDivider));
1037:../../Drivers/STM32H7xx_HAL_Driver/Src/stm32h7xx_hal_rcc.c ****       MODIFY_REG(RCC->D1CFGR, RCC_D1CFGR_HPRE, RCC_ClkInitStruct->AHBCLKDivider);
1038:../../Drivers/STM32H7xx_HAL_Driver/Src/stm32h7xx_hal_rcc.c ****     }
ARM GAS  /tmp/ccooDZtA.s 			page 56


1039:../../Drivers/STM32H7xx_HAL_Driver/Src/stm32h7xx_hal_rcc.c **** #else
1040:../../Drivers/STM32H7xx_HAL_Driver/Src/stm32h7xx_hal_rcc.c ****     if ((RCC_ClkInitStruct->AHBCLKDivider) > (RCC->CDCFGR1 & RCC_CDCFGR1_HPRE))
1041:../../Drivers/STM32H7xx_HAL_Driver/Src/stm32h7xx_hal_rcc.c ****     {
1042:../../Drivers/STM32H7xx_HAL_Driver/Src/stm32h7xx_hal_rcc.c ****       /* Set the new HCLK clock divider */
1043:../../Drivers/STM32H7xx_HAL_Driver/Src/stm32h7xx_hal_rcc.c ****       assert_param(IS_RCC_HCLK(RCC_ClkInitStruct->AHBCLKDivider));
1044:../../Drivers/STM32H7xx_HAL_Driver/Src/stm32h7xx_hal_rcc.c ****       MODIFY_REG(RCC->CDCFGR1, RCC_CDCFGR1_HPRE, RCC_ClkInitStruct->AHBCLKDivider);
1045:../../Drivers/STM32H7xx_HAL_Driver/Src/stm32h7xx_hal_rcc.c ****     }
1046:../../Drivers/STM32H7xx_HAL_Driver/Src/stm32h7xx_hal_rcc.c **** #endif
1047:../../Drivers/STM32H7xx_HAL_Driver/Src/stm32h7xx_hal_rcc.c ****   }
1048:../../Drivers/STM32H7xx_HAL_Driver/Src/stm32h7xx_hal_rcc.c **** 
1049:../../Drivers/STM32H7xx_HAL_Driver/Src/stm32h7xx_hal_rcc.c ****   /*------------------------- SYSCLK Configuration -------------------------*/
1050:../../Drivers/STM32H7xx_HAL_Driver/Src/stm32h7xx_hal_rcc.c ****   if (((RCC_ClkInitStruct->ClockType) & RCC_CLOCKTYPE_SYSCLK) == RCC_CLOCKTYPE_SYSCLK)
1051:../../Drivers/STM32H7xx_HAL_Driver/Src/stm32h7xx_hal_rcc.c ****   {
1052:../../Drivers/STM32H7xx_HAL_Driver/Src/stm32h7xx_hal_rcc.c ****     assert_param(IS_RCC_SYSCLK(RCC_ClkInitStruct->SYSCLKDivider));
1053:../../Drivers/STM32H7xx_HAL_Driver/Src/stm32h7xx_hal_rcc.c ****     assert_param(IS_RCC_SYSCLKSOURCE(RCC_ClkInitStruct->SYSCLKSource));
1054:../../Drivers/STM32H7xx_HAL_Driver/Src/stm32h7xx_hal_rcc.c **** #if defined(RCC_D1CFGR_D1CPRE)
1055:../../Drivers/STM32H7xx_HAL_Driver/Src/stm32h7xx_hal_rcc.c ****     MODIFY_REG(RCC->D1CFGR, RCC_D1CFGR_D1CPRE, RCC_ClkInitStruct->SYSCLKDivider);
1056:../../Drivers/STM32H7xx_HAL_Driver/Src/stm32h7xx_hal_rcc.c **** #else
1057:../../Drivers/STM32H7xx_HAL_Driver/Src/stm32h7xx_hal_rcc.c ****     MODIFY_REG(RCC->CDCFGR1, RCC_CDCFGR1_CDCPRE, RCC_ClkInitStruct->SYSCLKDivider);
1058:../../Drivers/STM32H7xx_HAL_Driver/Src/stm32h7xx_hal_rcc.c **** #endif
1059:../../Drivers/STM32H7xx_HAL_Driver/Src/stm32h7xx_hal_rcc.c ****     /* HSE is selected as System Clock Source */
1060:../../Drivers/STM32H7xx_HAL_Driver/Src/stm32h7xx_hal_rcc.c ****     if (RCC_ClkInitStruct->SYSCLKSource == RCC_SYSCLKSOURCE_HSE)
1061:../../Drivers/STM32H7xx_HAL_Driver/Src/stm32h7xx_hal_rcc.c ****     {
1062:../../Drivers/STM32H7xx_HAL_Driver/Src/stm32h7xx_hal_rcc.c ****       /* Check the HSE ready flag */
1063:../../Drivers/STM32H7xx_HAL_Driver/Src/stm32h7xx_hal_rcc.c ****       if (__HAL_RCC_GET_FLAG(RCC_FLAG_HSERDY) == 0U)
1064:../../Drivers/STM32H7xx_HAL_Driver/Src/stm32h7xx_hal_rcc.c ****       {
1065:../../Drivers/STM32H7xx_HAL_Driver/Src/stm32h7xx_hal_rcc.c ****         return HAL_ERROR;
1066:../../Drivers/STM32H7xx_HAL_Driver/Src/stm32h7xx_hal_rcc.c ****       }
1067:../../Drivers/STM32H7xx_HAL_Driver/Src/stm32h7xx_hal_rcc.c ****     }
1068:../../Drivers/STM32H7xx_HAL_Driver/Src/stm32h7xx_hal_rcc.c ****     /* PLL is selected as System Clock Source */
1069:../../Drivers/STM32H7xx_HAL_Driver/Src/stm32h7xx_hal_rcc.c ****     else if (RCC_ClkInitStruct->SYSCLKSource == RCC_SYSCLKSOURCE_PLLCLK)
1070:../../Drivers/STM32H7xx_HAL_Driver/Src/stm32h7xx_hal_rcc.c ****     {
1071:../../Drivers/STM32H7xx_HAL_Driver/Src/stm32h7xx_hal_rcc.c ****       /* Check the PLL ready flag */
1072:../../Drivers/STM32H7xx_HAL_Driver/Src/stm32h7xx_hal_rcc.c ****       if (__HAL_RCC_GET_FLAG(RCC_FLAG_PLLRDY) == 0U)
1073:../../Drivers/STM32H7xx_HAL_Driver/Src/stm32h7xx_hal_rcc.c ****       {
1074:../../Drivers/STM32H7xx_HAL_Driver/Src/stm32h7xx_hal_rcc.c ****         return HAL_ERROR;
1075:../../Drivers/STM32H7xx_HAL_Driver/Src/stm32h7xx_hal_rcc.c ****       }
1076:../../Drivers/STM32H7xx_HAL_Driver/Src/stm32h7xx_hal_rcc.c ****     }
1077:../../Drivers/STM32H7xx_HAL_Driver/Src/stm32h7xx_hal_rcc.c ****     /* CSI is selected as System Clock Source */
1078:../../Drivers/STM32H7xx_HAL_Driver/Src/stm32h7xx_hal_rcc.c ****     else if (RCC_ClkInitStruct->SYSCLKSource == RCC_SYSCLKSOURCE_CSI)
1079:../../Drivers/STM32H7xx_HAL_Driver/Src/stm32h7xx_hal_rcc.c ****     {
1080:../../Drivers/STM32H7xx_HAL_Driver/Src/stm32h7xx_hal_rcc.c ****       /* Check the PLL ready flag */
1081:../../Drivers/STM32H7xx_HAL_Driver/Src/stm32h7xx_hal_rcc.c ****       if (__HAL_RCC_GET_FLAG(RCC_FLAG_CSIRDY) == 0U)
1082:../../Drivers/STM32H7xx_HAL_Driver/Src/stm32h7xx_hal_rcc.c ****       {
1083:../../Drivers/STM32H7xx_HAL_Driver/Src/stm32h7xx_hal_rcc.c ****         return HAL_ERROR;
1084:../../Drivers/STM32H7xx_HAL_Driver/Src/stm32h7xx_hal_rcc.c ****       }
1085:../../Drivers/STM32H7xx_HAL_Driver/Src/stm32h7xx_hal_rcc.c ****     }
1086:../../Drivers/STM32H7xx_HAL_Driver/Src/stm32h7xx_hal_rcc.c ****     /* HSI is selected as System Clock Source */
1087:../../Drivers/STM32H7xx_HAL_Driver/Src/stm32h7xx_hal_rcc.c ****     else
1088:../../Drivers/STM32H7xx_HAL_Driver/Src/stm32h7xx_hal_rcc.c ****     {
1089:../../Drivers/STM32H7xx_HAL_Driver/Src/stm32h7xx_hal_rcc.c ****       /* Check the HSI ready flag */
1090:../../Drivers/STM32H7xx_HAL_Driver/Src/stm32h7xx_hal_rcc.c ****       if (__HAL_RCC_GET_FLAG(RCC_FLAG_HSIRDY) == 0U)
1091:../../Drivers/STM32H7xx_HAL_Driver/Src/stm32h7xx_hal_rcc.c ****       {
1092:../../Drivers/STM32H7xx_HAL_Driver/Src/stm32h7xx_hal_rcc.c ****         return HAL_ERROR;
1093:../../Drivers/STM32H7xx_HAL_Driver/Src/stm32h7xx_hal_rcc.c ****       }
1094:../../Drivers/STM32H7xx_HAL_Driver/Src/stm32h7xx_hal_rcc.c ****     }
1095:../../Drivers/STM32H7xx_HAL_Driver/Src/stm32h7xx_hal_rcc.c ****     MODIFY_REG(RCC->CFGR, RCC_CFGR_SW, RCC_ClkInitStruct->SYSCLKSource);
ARM GAS  /tmp/ccooDZtA.s 			page 57


1096:../../Drivers/STM32H7xx_HAL_Driver/Src/stm32h7xx_hal_rcc.c **** 
1097:../../Drivers/STM32H7xx_HAL_Driver/Src/stm32h7xx_hal_rcc.c ****     /* Get Start Tick*/
1098:../../Drivers/STM32H7xx_HAL_Driver/Src/stm32h7xx_hal_rcc.c ****     tickstart = HAL_GetTick();
1099:../../Drivers/STM32H7xx_HAL_Driver/Src/stm32h7xx_hal_rcc.c **** 
1100:../../Drivers/STM32H7xx_HAL_Driver/Src/stm32h7xx_hal_rcc.c ****     while (__HAL_RCC_GET_SYSCLK_SOURCE() != (RCC_ClkInitStruct->SYSCLKSource << RCC_CFGR_SWS_Pos))
1101:../../Drivers/STM32H7xx_HAL_Driver/Src/stm32h7xx_hal_rcc.c ****     {
1102:../../Drivers/STM32H7xx_HAL_Driver/Src/stm32h7xx_hal_rcc.c ****       if ((HAL_GetTick() - tickstart) > CLOCKSWITCH_TIMEOUT_VALUE)
1103:../../Drivers/STM32H7xx_HAL_Driver/Src/stm32h7xx_hal_rcc.c ****       {
1104:../../Drivers/STM32H7xx_HAL_Driver/Src/stm32h7xx_hal_rcc.c ****         return HAL_TIMEOUT;
1105:../../Drivers/STM32H7xx_HAL_Driver/Src/stm32h7xx_hal_rcc.c ****       }
1106:../../Drivers/STM32H7xx_HAL_Driver/Src/stm32h7xx_hal_rcc.c ****     }
1107:../../Drivers/STM32H7xx_HAL_Driver/Src/stm32h7xx_hal_rcc.c **** 
1108:../../Drivers/STM32H7xx_HAL_Driver/Src/stm32h7xx_hal_rcc.c ****   }
1109:../../Drivers/STM32H7xx_HAL_Driver/Src/stm32h7xx_hal_rcc.c **** 
1110:../../Drivers/STM32H7xx_HAL_Driver/Src/stm32h7xx_hal_rcc.c ****   /* Decreasing the BUS frequency divider */
1111:../../Drivers/STM32H7xx_HAL_Driver/Src/stm32h7xx_hal_rcc.c ****   /*-------------------------- HCLK Configuration --------------------------*/
1112:../../Drivers/STM32H7xx_HAL_Driver/Src/stm32h7xx_hal_rcc.c ****   if (((RCC_ClkInitStruct->ClockType) & RCC_CLOCKTYPE_HCLK) == RCC_CLOCKTYPE_HCLK)
1113:../../Drivers/STM32H7xx_HAL_Driver/Src/stm32h7xx_hal_rcc.c ****   {
1114:../../Drivers/STM32H7xx_HAL_Driver/Src/stm32h7xx_hal_rcc.c **** #if defined(RCC_D1CFGR_HPRE)
1115:../../Drivers/STM32H7xx_HAL_Driver/Src/stm32h7xx_hal_rcc.c ****     if ((RCC_ClkInitStruct->AHBCLKDivider) < (RCC->D1CFGR & RCC_D1CFGR_HPRE))
1116:../../Drivers/STM32H7xx_HAL_Driver/Src/stm32h7xx_hal_rcc.c ****     {
1117:../../Drivers/STM32H7xx_HAL_Driver/Src/stm32h7xx_hal_rcc.c ****       /* Set the new HCLK clock divider */
1118:../../Drivers/STM32H7xx_HAL_Driver/Src/stm32h7xx_hal_rcc.c ****       assert_param(IS_RCC_HCLK(RCC_ClkInitStruct->AHBCLKDivider));
1119:../../Drivers/STM32H7xx_HAL_Driver/Src/stm32h7xx_hal_rcc.c ****       MODIFY_REG(RCC->D1CFGR, RCC_D1CFGR_HPRE, RCC_ClkInitStruct->AHBCLKDivider);
1120:../../Drivers/STM32H7xx_HAL_Driver/Src/stm32h7xx_hal_rcc.c ****     }
1121:../../Drivers/STM32H7xx_HAL_Driver/Src/stm32h7xx_hal_rcc.c **** #else
1122:../../Drivers/STM32H7xx_HAL_Driver/Src/stm32h7xx_hal_rcc.c ****     if ((RCC_ClkInitStruct->AHBCLKDivider) < (RCC->CDCFGR1 & RCC_CDCFGR1_HPRE))
1123:../../Drivers/STM32H7xx_HAL_Driver/Src/stm32h7xx_hal_rcc.c ****     {
1124:../../Drivers/STM32H7xx_HAL_Driver/Src/stm32h7xx_hal_rcc.c ****       /* Set the new HCLK clock divider */
1125:../../Drivers/STM32H7xx_HAL_Driver/Src/stm32h7xx_hal_rcc.c ****       assert_param(IS_RCC_HCLK(RCC_ClkInitStruct->AHBCLKDivider));
1126:../../Drivers/STM32H7xx_HAL_Driver/Src/stm32h7xx_hal_rcc.c ****       MODIFY_REG(RCC->CDCFGR1, RCC_CDCFGR1_HPRE, RCC_ClkInitStruct->AHBCLKDivider);
1127:../../Drivers/STM32H7xx_HAL_Driver/Src/stm32h7xx_hal_rcc.c ****     }
1128:../../Drivers/STM32H7xx_HAL_Driver/Src/stm32h7xx_hal_rcc.c **** #endif
1129:../../Drivers/STM32H7xx_HAL_Driver/Src/stm32h7xx_hal_rcc.c ****   }
1130:../../Drivers/STM32H7xx_HAL_Driver/Src/stm32h7xx_hal_rcc.c **** 
1131:../../Drivers/STM32H7xx_HAL_Driver/Src/stm32h7xx_hal_rcc.c ****   /* Decreasing the number of wait states because of lower CPU frequency */
1132:../../Drivers/STM32H7xx_HAL_Driver/Src/stm32h7xx_hal_rcc.c ****   if (FLatency < __HAL_FLASH_GET_LATENCY())
1133:../../Drivers/STM32H7xx_HAL_Driver/Src/stm32h7xx_hal_rcc.c ****   {
1134:../../Drivers/STM32H7xx_HAL_Driver/Src/stm32h7xx_hal_rcc.c ****     /* Program the new number of wait states to the LATENCY bits in the FLASH_ACR register */
1135:../../Drivers/STM32H7xx_HAL_Driver/Src/stm32h7xx_hal_rcc.c ****     __HAL_FLASH_SET_LATENCY(FLatency);
1136:../../Drivers/STM32H7xx_HAL_Driver/Src/stm32h7xx_hal_rcc.c **** 
1137:../../Drivers/STM32H7xx_HAL_Driver/Src/stm32h7xx_hal_rcc.c ****     /* Check that the new number of wait states is taken into account to access the Flash
1138:../../Drivers/STM32H7xx_HAL_Driver/Src/stm32h7xx_hal_rcc.c ****     memory by reading the FLASH_ACR register */
1139:../../Drivers/STM32H7xx_HAL_Driver/Src/stm32h7xx_hal_rcc.c ****     if (__HAL_FLASH_GET_LATENCY() != FLatency)
1140:../../Drivers/STM32H7xx_HAL_Driver/Src/stm32h7xx_hal_rcc.c ****     {
1141:../../Drivers/STM32H7xx_HAL_Driver/Src/stm32h7xx_hal_rcc.c ****       return HAL_ERROR;
1142:../../Drivers/STM32H7xx_HAL_Driver/Src/stm32h7xx_hal_rcc.c ****     }
1143:../../Drivers/STM32H7xx_HAL_Driver/Src/stm32h7xx_hal_rcc.c ****   }
1144:../../Drivers/STM32H7xx_HAL_Driver/Src/stm32h7xx_hal_rcc.c **** 
1145:../../Drivers/STM32H7xx_HAL_Driver/Src/stm32h7xx_hal_rcc.c ****   /*-------------------------- D1PCLK1/CDPCLK Configuration ---------------------------*/
1146:../../Drivers/STM32H7xx_HAL_Driver/Src/stm32h7xx_hal_rcc.c ****   if (((RCC_ClkInitStruct->ClockType) & RCC_CLOCKTYPE_D1PCLK1) == RCC_CLOCKTYPE_D1PCLK1)
1147:../../Drivers/STM32H7xx_HAL_Driver/Src/stm32h7xx_hal_rcc.c ****   {
1148:../../Drivers/STM32H7xx_HAL_Driver/Src/stm32h7xx_hal_rcc.c **** #if defined(RCC_D1CFGR_D1PPRE)
1149:../../Drivers/STM32H7xx_HAL_Driver/Src/stm32h7xx_hal_rcc.c ****     if ((RCC_ClkInitStruct->APB3CLKDivider) < (RCC->D1CFGR & RCC_D1CFGR_D1PPRE))
1150:../../Drivers/STM32H7xx_HAL_Driver/Src/stm32h7xx_hal_rcc.c ****     {
1151:../../Drivers/STM32H7xx_HAL_Driver/Src/stm32h7xx_hal_rcc.c ****       assert_param(IS_RCC_D1PCLK1(RCC_ClkInitStruct->APB3CLKDivider));
1152:../../Drivers/STM32H7xx_HAL_Driver/Src/stm32h7xx_hal_rcc.c ****       MODIFY_REG(RCC->D1CFGR, RCC_D1CFGR_D1PPRE, RCC_ClkInitStruct->APB3CLKDivider);
ARM GAS  /tmp/ccooDZtA.s 			page 58


1153:../../Drivers/STM32H7xx_HAL_Driver/Src/stm32h7xx_hal_rcc.c ****     }
1154:../../Drivers/STM32H7xx_HAL_Driver/Src/stm32h7xx_hal_rcc.c **** #else
1155:../../Drivers/STM32H7xx_HAL_Driver/Src/stm32h7xx_hal_rcc.c ****     if ((RCC_ClkInitStruct->APB3CLKDivider) < (RCC->CDCFGR1 & RCC_CDCFGR1_CDPPRE))
1156:../../Drivers/STM32H7xx_HAL_Driver/Src/stm32h7xx_hal_rcc.c ****     {
1157:../../Drivers/STM32H7xx_HAL_Driver/Src/stm32h7xx_hal_rcc.c ****       assert_param(IS_RCC_CDPCLK1(RCC_ClkInitStruct->APB3CLKDivider));
1158:../../Drivers/STM32H7xx_HAL_Driver/Src/stm32h7xx_hal_rcc.c ****       MODIFY_REG(RCC->CDCFGR1, RCC_CDCFGR1_CDPPRE, RCC_ClkInitStruct->APB3CLKDivider);
1159:../../Drivers/STM32H7xx_HAL_Driver/Src/stm32h7xx_hal_rcc.c ****     }
1160:../../Drivers/STM32H7xx_HAL_Driver/Src/stm32h7xx_hal_rcc.c **** #endif
1161:../../Drivers/STM32H7xx_HAL_Driver/Src/stm32h7xx_hal_rcc.c ****   }
1162:../../Drivers/STM32H7xx_HAL_Driver/Src/stm32h7xx_hal_rcc.c **** 
1163:../../Drivers/STM32H7xx_HAL_Driver/Src/stm32h7xx_hal_rcc.c ****   /*-------------------------- PCLK1 Configuration ---------------------------*/
1164:../../Drivers/STM32H7xx_HAL_Driver/Src/stm32h7xx_hal_rcc.c ****   if (((RCC_ClkInitStruct->ClockType) & RCC_CLOCKTYPE_PCLK1) == RCC_CLOCKTYPE_PCLK1)
1165:../../Drivers/STM32H7xx_HAL_Driver/Src/stm32h7xx_hal_rcc.c ****   {
1166:../../Drivers/STM32H7xx_HAL_Driver/Src/stm32h7xx_hal_rcc.c **** #if defined(RCC_D2CFGR_D2PPRE1)
1167:../../Drivers/STM32H7xx_HAL_Driver/Src/stm32h7xx_hal_rcc.c ****     if ((RCC_ClkInitStruct->APB1CLKDivider) < (RCC->D2CFGR & RCC_D2CFGR_D2PPRE1))
1168:../../Drivers/STM32H7xx_HAL_Driver/Src/stm32h7xx_hal_rcc.c ****     {
1169:../../Drivers/STM32H7xx_HAL_Driver/Src/stm32h7xx_hal_rcc.c ****       assert_param(IS_RCC_PCLK1(RCC_ClkInitStruct->APB1CLKDivider));
1170:../../Drivers/STM32H7xx_HAL_Driver/Src/stm32h7xx_hal_rcc.c ****       MODIFY_REG(RCC->D2CFGR, RCC_D2CFGR_D2PPRE1, (RCC_ClkInitStruct->APB1CLKDivider));
1171:../../Drivers/STM32H7xx_HAL_Driver/Src/stm32h7xx_hal_rcc.c ****     }
1172:../../Drivers/STM32H7xx_HAL_Driver/Src/stm32h7xx_hal_rcc.c **** #else
1173:../../Drivers/STM32H7xx_HAL_Driver/Src/stm32h7xx_hal_rcc.c ****     if ((RCC_ClkInitStruct->APB1CLKDivider) < (RCC->CDCFGR2 & RCC_CDCFGR2_CDPPRE1))
1174:../../Drivers/STM32H7xx_HAL_Driver/Src/stm32h7xx_hal_rcc.c ****     {
1175:../../Drivers/STM32H7xx_HAL_Driver/Src/stm32h7xx_hal_rcc.c ****       assert_param(IS_RCC_PCLK1(RCC_ClkInitStruct->APB1CLKDivider));
1176:../../Drivers/STM32H7xx_HAL_Driver/Src/stm32h7xx_hal_rcc.c ****       MODIFY_REG(RCC->CDCFGR2, RCC_CDCFGR2_CDPPRE1, (RCC_ClkInitStruct->APB1CLKDivider));
1177:../../Drivers/STM32H7xx_HAL_Driver/Src/stm32h7xx_hal_rcc.c ****     }
1178:../../Drivers/STM32H7xx_HAL_Driver/Src/stm32h7xx_hal_rcc.c **** #endif
1179:../../Drivers/STM32H7xx_HAL_Driver/Src/stm32h7xx_hal_rcc.c ****   }
1180:../../Drivers/STM32H7xx_HAL_Driver/Src/stm32h7xx_hal_rcc.c **** 
1181:../../Drivers/STM32H7xx_HAL_Driver/Src/stm32h7xx_hal_rcc.c ****   /*-------------------------- PCLK2 Configuration ---------------------------*/
1182:../../Drivers/STM32H7xx_HAL_Driver/Src/stm32h7xx_hal_rcc.c ****   if (((RCC_ClkInitStruct->ClockType) & RCC_CLOCKTYPE_PCLK2) == RCC_CLOCKTYPE_PCLK2)
1183:../../Drivers/STM32H7xx_HAL_Driver/Src/stm32h7xx_hal_rcc.c ****   {
1184:../../Drivers/STM32H7xx_HAL_Driver/Src/stm32h7xx_hal_rcc.c **** #if defined (RCC_D2CFGR_D2PPRE2)
1185:../../Drivers/STM32H7xx_HAL_Driver/Src/stm32h7xx_hal_rcc.c ****     if ((RCC_ClkInitStruct->APB2CLKDivider) < (RCC->D2CFGR & RCC_D2CFGR_D2PPRE2))
1186:../../Drivers/STM32H7xx_HAL_Driver/Src/stm32h7xx_hal_rcc.c ****     {
1187:../../Drivers/STM32H7xx_HAL_Driver/Src/stm32h7xx_hal_rcc.c ****       assert_param(IS_RCC_PCLK2(RCC_ClkInitStruct->APB2CLKDivider));
1188:../../Drivers/STM32H7xx_HAL_Driver/Src/stm32h7xx_hal_rcc.c ****       MODIFY_REG(RCC->D2CFGR, RCC_D2CFGR_D2PPRE2, (RCC_ClkInitStruct->APB2CLKDivider));
1189:../../Drivers/STM32H7xx_HAL_Driver/Src/stm32h7xx_hal_rcc.c ****     }
1190:../../Drivers/STM32H7xx_HAL_Driver/Src/stm32h7xx_hal_rcc.c **** #else
1191:../../Drivers/STM32H7xx_HAL_Driver/Src/stm32h7xx_hal_rcc.c ****     if ((RCC_ClkInitStruct->APB2CLKDivider) < (RCC->CDCFGR2 & RCC_CDCFGR2_CDPPRE2))
1192:../../Drivers/STM32H7xx_HAL_Driver/Src/stm32h7xx_hal_rcc.c ****     {
1193:../../Drivers/STM32H7xx_HAL_Driver/Src/stm32h7xx_hal_rcc.c ****       assert_param(IS_RCC_PCLK2(RCC_ClkInitStruct->APB2CLKDivider));
1194:../../Drivers/STM32H7xx_HAL_Driver/Src/stm32h7xx_hal_rcc.c ****       MODIFY_REG(RCC->CDCFGR2, RCC_CDCFGR2_CDPPRE2, (RCC_ClkInitStruct->APB2CLKDivider));
1195:../../Drivers/STM32H7xx_HAL_Driver/Src/stm32h7xx_hal_rcc.c ****     }
1196:../../Drivers/STM32H7xx_HAL_Driver/Src/stm32h7xx_hal_rcc.c **** #endif
1197:../../Drivers/STM32H7xx_HAL_Driver/Src/stm32h7xx_hal_rcc.c ****   }
1198:../../Drivers/STM32H7xx_HAL_Driver/Src/stm32h7xx_hal_rcc.c **** 
1199:../../Drivers/STM32H7xx_HAL_Driver/Src/stm32h7xx_hal_rcc.c ****   /*-------------------------- D3PCLK1/SRDPCLK1 Configuration ---------------------------*/
1200:../../Drivers/STM32H7xx_HAL_Driver/Src/stm32h7xx_hal_rcc.c ****   if (((RCC_ClkInitStruct->ClockType) & RCC_CLOCKTYPE_D3PCLK1) == RCC_CLOCKTYPE_D3PCLK1)
1201:../../Drivers/STM32H7xx_HAL_Driver/Src/stm32h7xx_hal_rcc.c ****   {
1202:../../Drivers/STM32H7xx_HAL_Driver/Src/stm32h7xx_hal_rcc.c **** #if defined(RCC_D3CFGR_D3PPRE)
1203:../../Drivers/STM32H7xx_HAL_Driver/Src/stm32h7xx_hal_rcc.c ****     if ((RCC_ClkInitStruct->APB4CLKDivider) < (RCC->D3CFGR & RCC_D3CFGR_D3PPRE))
1204:../../Drivers/STM32H7xx_HAL_Driver/Src/stm32h7xx_hal_rcc.c ****     {
1205:../../Drivers/STM32H7xx_HAL_Driver/Src/stm32h7xx_hal_rcc.c ****       assert_param(IS_RCC_D3PCLK1(RCC_ClkInitStruct->APB4CLKDivider));
1206:../../Drivers/STM32H7xx_HAL_Driver/Src/stm32h7xx_hal_rcc.c ****       MODIFY_REG(RCC->D3CFGR, RCC_D3CFGR_D3PPRE, (RCC_ClkInitStruct->APB4CLKDivider));
1207:../../Drivers/STM32H7xx_HAL_Driver/Src/stm32h7xx_hal_rcc.c ****     }
1208:../../Drivers/STM32H7xx_HAL_Driver/Src/stm32h7xx_hal_rcc.c **** #else
1209:../../Drivers/STM32H7xx_HAL_Driver/Src/stm32h7xx_hal_rcc.c ****     if ((RCC_ClkInitStruct->APB4CLKDivider) < (RCC->SRDCFGR & RCC_SRDCFGR_SRDPPRE))
ARM GAS  /tmp/ccooDZtA.s 			page 59


1210:../../Drivers/STM32H7xx_HAL_Driver/Src/stm32h7xx_hal_rcc.c ****     {
1211:../../Drivers/STM32H7xx_HAL_Driver/Src/stm32h7xx_hal_rcc.c ****       assert_param(IS_RCC_SRDPCLK1(RCC_ClkInitStruct->APB4CLKDivider));
1212:../../Drivers/STM32H7xx_HAL_Driver/Src/stm32h7xx_hal_rcc.c ****       MODIFY_REG(RCC->SRDCFGR, RCC_SRDCFGR_SRDPPRE, (RCC_ClkInitStruct->APB4CLKDivider));
1213:../../Drivers/STM32H7xx_HAL_Driver/Src/stm32h7xx_hal_rcc.c ****     }
1214:../../Drivers/STM32H7xx_HAL_Driver/Src/stm32h7xx_hal_rcc.c **** #endif
1215:../../Drivers/STM32H7xx_HAL_Driver/Src/stm32h7xx_hal_rcc.c ****   }
1216:../../Drivers/STM32H7xx_HAL_Driver/Src/stm32h7xx_hal_rcc.c **** 
1217:../../Drivers/STM32H7xx_HAL_Driver/Src/stm32h7xx_hal_rcc.c ****   /* Update the SystemCoreClock global variable */
1218:../../Drivers/STM32H7xx_HAL_Driver/Src/stm32h7xx_hal_rcc.c **** #if defined(RCC_D1CFGR_D1CPRE)
1219:../../Drivers/STM32H7xx_HAL_Driver/Src/stm32h7xx_hal_rcc.c ****   common_system_clock = HAL_RCC_GetSysClockFreq() >> ((D1CorePrescTable[(RCC->D1CFGR & RCC_D1CFGR_D
1220:../../Drivers/STM32H7xx_HAL_Driver/Src/stm32h7xx_hal_rcc.c **** #else
1221:../../Drivers/STM32H7xx_HAL_Driver/Src/stm32h7xx_hal_rcc.c ****   common_system_clock = HAL_RCC_GetSysClockFreq() >> ((D1CorePrescTable[(RCC->CDCFGR1 & RCC_CDCFGR1
1222:../../Drivers/STM32H7xx_HAL_Driver/Src/stm32h7xx_hal_rcc.c **** #endif
1223:../../Drivers/STM32H7xx_HAL_Driver/Src/stm32h7xx_hal_rcc.c **** 
1224:../../Drivers/STM32H7xx_HAL_Driver/Src/stm32h7xx_hal_rcc.c **** #if defined(RCC_D1CFGR_HPRE)
1225:../../Drivers/STM32H7xx_HAL_Driver/Src/stm32h7xx_hal_rcc.c ****   SystemD2Clock = (common_system_clock >> ((D1CorePrescTable[(RCC->D1CFGR & RCC_D1CFGR_HPRE) >> RCC
1226:../../Drivers/STM32H7xx_HAL_Driver/Src/stm32h7xx_hal_rcc.c **** #else
1227:../../Drivers/STM32H7xx_HAL_Driver/Src/stm32h7xx_hal_rcc.c ****   SystemD2Clock = (common_system_clock >> ((D1CorePrescTable[(RCC->CDCFGR1 & RCC_CDCFGR1_HPRE) >> R
1228:../../Drivers/STM32H7xx_HAL_Driver/Src/stm32h7xx_hal_rcc.c **** #endif
1229:../../Drivers/STM32H7xx_HAL_Driver/Src/stm32h7xx_hal_rcc.c **** 
1230:../../Drivers/STM32H7xx_HAL_Driver/Src/stm32h7xx_hal_rcc.c **** #if defined(DUAL_CORE) && defined(CORE_CM4)
1231:../../Drivers/STM32H7xx_HAL_Driver/Src/stm32h7xx_hal_rcc.c ****   SystemCoreClock = SystemD2Clock;
1232:../../Drivers/STM32H7xx_HAL_Driver/Src/stm32h7xx_hal_rcc.c **** #else
1233:../../Drivers/STM32H7xx_HAL_Driver/Src/stm32h7xx_hal_rcc.c ****   SystemCoreClock = common_system_clock;
1234:../../Drivers/STM32H7xx_HAL_Driver/Src/stm32h7xx_hal_rcc.c **** #endif /* DUAL_CORE && CORE_CM4 */
1235:../../Drivers/STM32H7xx_HAL_Driver/Src/stm32h7xx_hal_rcc.c **** 
1236:../../Drivers/STM32H7xx_HAL_Driver/Src/stm32h7xx_hal_rcc.c ****   /* Configure the source of time base considering new system clocks settings*/
1237:../../Drivers/STM32H7xx_HAL_Driver/Src/stm32h7xx_hal_rcc.c ****   halstatus = HAL_InitTick(uwTickPrio);
1238:../../Drivers/STM32H7xx_HAL_Driver/Src/stm32h7xx_hal_rcc.c **** 
1239:../../Drivers/STM32H7xx_HAL_Driver/Src/stm32h7xx_hal_rcc.c ****   return halstatus;
1240:../../Drivers/STM32H7xx_HAL_Driver/Src/stm32h7xx_hal_rcc.c **** }
1241:../../Drivers/STM32H7xx_HAL_Driver/Src/stm32h7xx_hal_rcc.c **** 
1242:../../Drivers/STM32H7xx_HAL_Driver/Src/stm32h7xx_hal_rcc.c **** /**
1243:../../Drivers/STM32H7xx_HAL_Driver/Src/stm32h7xx_hal_rcc.c ****   * @}
1244:../../Drivers/STM32H7xx_HAL_Driver/Src/stm32h7xx_hal_rcc.c ****   */
1245:../../Drivers/STM32H7xx_HAL_Driver/Src/stm32h7xx_hal_rcc.c **** 
1246:../../Drivers/STM32H7xx_HAL_Driver/Src/stm32h7xx_hal_rcc.c **** /** @defgroup RCC_Exported_Functions_Group2 Peripheral Control functions
1247:../../Drivers/STM32H7xx_HAL_Driver/Src/stm32h7xx_hal_rcc.c ****  *  @brief   RCC clocks control functions
1248:../../Drivers/STM32H7xx_HAL_Driver/Src/stm32h7xx_hal_rcc.c ****  *
1249:../../Drivers/STM32H7xx_HAL_Driver/Src/stm32h7xx_hal_rcc.c **** @verbatim
1250:../../Drivers/STM32H7xx_HAL_Driver/Src/stm32h7xx_hal_rcc.c ****  ===============================================================================
1251:../../Drivers/STM32H7xx_HAL_Driver/Src/stm32h7xx_hal_rcc.c ****                       ##### Peripheral Control functions #####
1252:../../Drivers/STM32H7xx_HAL_Driver/Src/stm32h7xx_hal_rcc.c ****  ===============================================================================
1253:../../Drivers/STM32H7xx_HAL_Driver/Src/stm32h7xx_hal_rcc.c ****     [..]
1254:../../Drivers/STM32H7xx_HAL_Driver/Src/stm32h7xx_hal_rcc.c ****     This subsection provides a set of functions allowing to control the RCC Clocks
1255:../../Drivers/STM32H7xx_HAL_Driver/Src/stm32h7xx_hal_rcc.c ****     frequencies.
1256:../../Drivers/STM32H7xx_HAL_Driver/Src/stm32h7xx_hal_rcc.c **** 
1257:../../Drivers/STM32H7xx_HAL_Driver/Src/stm32h7xx_hal_rcc.c **** @endverbatim
1258:../../Drivers/STM32H7xx_HAL_Driver/Src/stm32h7xx_hal_rcc.c ****   * @{
1259:../../Drivers/STM32H7xx_HAL_Driver/Src/stm32h7xx_hal_rcc.c ****   */
1260:../../Drivers/STM32H7xx_HAL_Driver/Src/stm32h7xx_hal_rcc.c **** 
1261:../../Drivers/STM32H7xx_HAL_Driver/Src/stm32h7xx_hal_rcc.c **** /**
1262:../../Drivers/STM32H7xx_HAL_Driver/Src/stm32h7xx_hal_rcc.c ****   * @brief  Selects the clock source to output on MCO1 pin(PA8) or on MCO2 pin(PC9).
1263:../../Drivers/STM32H7xx_HAL_Driver/Src/stm32h7xx_hal_rcc.c ****   * @note   PA8/PC9 should be configured in alternate function mode.
1264:../../Drivers/STM32H7xx_HAL_Driver/Src/stm32h7xx_hal_rcc.c ****   * @param  RCC_MCOx: specifies the output direction for the clock source.
1265:../../Drivers/STM32H7xx_HAL_Driver/Src/stm32h7xx_hal_rcc.c ****   *          This parameter can be one of the following values:
1266:../../Drivers/STM32H7xx_HAL_Driver/Src/stm32h7xx_hal_rcc.c ****   *            @arg RCC_MCO1: Clock source to output on MCO1 pin(PA8).
ARM GAS  /tmp/ccooDZtA.s 			page 60


1267:../../Drivers/STM32H7xx_HAL_Driver/Src/stm32h7xx_hal_rcc.c ****   *            @arg RCC_MCO2: Clock source to output on MCO2 pin(PC9).
1268:../../Drivers/STM32H7xx_HAL_Driver/Src/stm32h7xx_hal_rcc.c ****   * @param  RCC_MCOSource: specifies the clock source to output.
1269:../../Drivers/STM32H7xx_HAL_Driver/Src/stm32h7xx_hal_rcc.c ****   *          This parameter can be one of the following values:
1270:../../Drivers/STM32H7xx_HAL_Driver/Src/stm32h7xx_hal_rcc.c ****   *            @arg RCC_MCO1SOURCE_HSI: HSI clock selected as MCO1 source
1271:../../Drivers/STM32H7xx_HAL_Driver/Src/stm32h7xx_hal_rcc.c ****   *            @arg RCC_MCO1SOURCE_LSE: LSE clock selected as MCO1 source
1272:../../Drivers/STM32H7xx_HAL_Driver/Src/stm32h7xx_hal_rcc.c ****   *            @arg RCC_MCO1SOURCE_HSE: HSE clock selected as MCO1 source
1273:../../Drivers/STM32H7xx_HAL_Driver/Src/stm32h7xx_hal_rcc.c ****   *            @arg RCC_MCO1SOURCE_PLL1QCLK:  PLL1Q clock selected as MCO1 source
1274:../../Drivers/STM32H7xx_HAL_Driver/Src/stm32h7xx_hal_rcc.c ****   *            @arg RCC_MCO1SOURCE_HSI48: HSI48 (48MHZ) selected as MCO1 source
1275:../../Drivers/STM32H7xx_HAL_Driver/Src/stm32h7xx_hal_rcc.c ****   *            @arg RCC_MCO2SOURCE_SYSCLK: System clock (SYSCLK) selected as MCO2 source
1276:../../Drivers/STM32H7xx_HAL_Driver/Src/stm32h7xx_hal_rcc.c ****   *            @arg RCC_MCO2SOURCE_PLL2PCLK: PLL2P clock selected as MCO2 source
1277:../../Drivers/STM32H7xx_HAL_Driver/Src/stm32h7xx_hal_rcc.c ****   *            @arg RCC_MCO2SOURCE_HSE: HSE clock selected as MCO2 source
1278:../../Drivers/STM32H7xx_HAL_Driver/Src/stm32h7xx_hal_rcc.c ****   *            @arg RCC_MCO2SOURCE_PLLCLK:  PLL1P clock selected as MCO2 source
1279:../../Drivers/STM32H7xx_HAL_Driver/Src/stm32h7xx_hal_rcc.c ****   *            @arg RCC_MCO2SOURCE_CSICLK:  CSI clock selected as MCO2 source
1280:../../Drivers/STM32H7xx_HAL_Driver/Src/stm32h7xx_hal_rcc.c ****   *            @arg RCC_MCO2SOURCE_LSICLK:  LSI clock selected as MCO2 source
1281:../../Drivers/STM32H7xx_HAL_Driver/Src/stm32h7xx_hal_rcc.c ****   * @param  RCC_MCODiv: specifies the MCOx pre-scaler.
1282:../../Drivers/STM32H7xx_HAL_Driver/Src/stm32h7xx_hal_rcc.c ****   *          This parameter can be one of the following values:
1283:../../Drivers/STM32H7xx_HAL_Driver/Src/stm32h7xx_hal_rcc.c ****   *            @arg RCC_MCODIV_1 up to RCC_MCODIV_15  : divider applied to MCOx clock
1284:../../Drivers/STM32H7xx_HAL_Driver/Src/stm32h7xx_hal_rcc.c ****   * @retval None
1285:../../Drivers/STM32H7xx_HAL_Driver/Src/stm32h7xx_hal_rcc.c ****   */
1286:../../Drivers/STM32H7xx_HAL_Driver/Src/stm32h7xx_hal_rcc.c **** void HAL_RCC_MCOConfig(uint32_t RCC_MCOx, uint32_t RCC_MCOSource, uint32_t RCC_MCODiv)
1287:../../Drivers/STM32H7xx_HAL_Driver/Src/stm32h7xx_hal_rcc.c **** {
 1813              		.loc 1 1287 1 is_stmt 1 view -0
 1814              		.cfi_startproc
 1815              		@ args = 0, pretend = 0, frame = 32
 1816              		@ frame_needed = 0, uses_anonymous_args = 0
 1817              		.loc 1 1287 1 is_stmt 0 view .LVU585
 1818 0000 70B5     		push	{r4, r5, r6, lr}
 1819              	.LCFI4:
 1820              		.cfi_def_cfa_offset 16
 1821              		.cfi_offset 4, -16
 1822              		.cfi_offset 5, -12
 1823              		.cfi_offset 6, -8
 1824              		.cfi_offset 14, -4
 1825 0002 88B0     		sub	sp, sp, #32
 1826              	.LCFI5:
 1827              		.cfi_def_cfa_offset 48
 1828 0004 0C46     		mov	r4, r1
 1829 0006 1546     		mov	r5, r2
1288:../../Drivers/STM32H7xx_HAL_Driver/Src/stm32h7xx_hal_rcc.c ****   GPIO_InitTypeDef GPIO_InitStruct;
 1830              		.loc 1 1288 3 is_stmt 1 view .LVU586
1289:../../Drivers/STM32H7xx_HAL_Driver/Src/stm32h7xx_hal_rcc.c ****   /* Check the parameters */
1290:../../Drivers/STM32H7xx_HAL_Driver/Src/stm32h7xx_hal_rcc.c ****   assert_param(IS_RCC_MCO(RCC_MCOx));
 1831              		.loc 1 1290 3 view .LVU587
1291:../../Drivers/STM32H7xx_HAL_Driver/Src/stm32h7xx_hal_rcc.c ****   assert_param(IS_RCC_MCODIV(RCC_MCODiv));
 1832              		.loc 1 1291 3 view .LVU588
1292:../../Drivers/STM32H7xx_HAL_Driver/Src/stm32h7xx_hal_rcc.c ****   /* RCC_MCO1 */
1293:../../Drivers/STM32H7xx_HAL_Driver/Src/stm32h7xx_hal_rcc.c ****   if (RCC_MCOx == RCC_MCO1)
 1833              		.loc 1 1293 3 view .LVU589
 1834              		.loc 1 1293 6 is_stmt 0 view .LVU590
 1835 0008 10BB     		cbnz	r0, .L173
1294:../../Drivers/STM32H7xx_HAL_Driver/Src/stm32h7xx_hal_rcc.c ****   {
1295:../../Drivers/STM32H7xx_HAL_Driver/Src/stm32h7xx_hal_rcc.c ****     assert_param(IS_RCC_MCO1SOURCE(RCC_MCOSource));
 1836              		.loc 1 1295 5 is_stmt 1 view .LVU591
1296:../../Drivers/STM32H7xx_HAL_Driver/Src/stm32h7xx_hal_rcc.c **** 
1297:../../Drivers/STM32H7xx_HAL_Driver/Src/stm32h7xx_hal_rcc.c ****     /* MCO1 Clock Enable */
1298:../../Drivers/STM32H7xx_HAL_Driver/Src/stm32h7xx_hal_rcc.c ****     MCO1_CLK_ENABLE();
 1837              		.loc 1 1298 5 view .LVU592
ARM GAS  /tmp/ccooDZtA.s 			page 61


 1838              	.LBB13:
 1839              		.loc 1 1298 5 view .LVU593
 1840              		.loc 1 1298 5 view .LVU594
 1841 000a 234E     		ldr	r6, .L176
 1842 000c D6F8E030 		ldr	r3, [r6, #224]
 1843 0010 43F00103 		orr	r3, r3, #1
 1844 0014 C6F8E030 		str	r3, [r6, #224]
 1845              		.loc 1 1298 5 view .LVU595
 1846 0018 D6F8E030 		ldr	r3, [r6, #224]
 1847 001c 03F00103 		and	r3, r3, #1
 1848 0020 0193     		str	r3, [sp, #4]
 1849              		.loc 1 1298 5 view .LVU596
 1850 0022 019B     		ldr	r3, [sp, #4]
 1851              	.LBE13:
 1852              		.loc 1 1298 5 view .LVU597
1299:../../Drivers/STM32H7xx_HAL_Driver/Src/stm32h7xx_hal_rcc.c **** 
1300:../../Drivers/STM32H7xx_HAL_Driver/Src/stm32h7xx_hal_rcc.c ****     /* Configure the MCO1 pin in alternate function mode */
1301:../../Drivers/STM32H7xx_HAL_Driver/Src/stm32h7xx_hal_rcc.c ****     GPIO_InitStruct.Pin = MCO1_PIN;
 1853              		.loc 1 1301 5 view .LVU598
 1854              		.loc 1 1301 25 is_stmt 0 view .LVU599
 1855 0024 4FF48073 		mov	r3, #256
 1856 0028 0393     		str	r3, [sp, #12]
1302:../../Drivers/STM32H7xx_HAL_Driver/Src/stm32h7xx_hal_rcc.c ****     GPIO_InitStruct.Mode = GPIO_MODE_AF_PP;
 1857              		.loc 1 1302 5 is_stmt 1 view .LVU600
 1858              		.loc 1 1302 26 is_stmt 0 view .LVU601
 1859 002a 0223     		movs	r3, #2
 1860 002c 0493     		str	r3, [sp, #16]
1303:../../Drivers/STM32H7xx_HAL_Driver/Src/stm32h7xx_hal_rcc.c ****     GPIO_InitStruct.Speed = GPIO_SPEED_FREQ_VERY_HIGH;
 1861              		.loc 1 1303 5 is_stmt 1 view .LVU602
 1862              		.loc 1 1303 27 is_stmt 0 view .LVU603
 1863 002e 0323     		movs	r3, #3
 1864 0030 0693     		str	r3, [sp, #24]
1304:../../Drivers/STM32H7xx_HAL_Driver/Src/stm32h7xx_hal_rcc.c ****     GPIO_InitStruct.Pull = GPIO_NOPULL;
 1865              		.loc 1 1304 5 is_stmt 1 view .LVU604
 1866              		.loc 1 1304 26 is_stmt 0 view .LVU605
 1867 0032 0023     		movs	r3, #0
 1868 0034 0593     		str	r3, [sp, #20]
1305:../../Drivers/STM32H7xx_HAL_Driver/Src/stm32h7xx_hal_rcc.c ****     GPIO_InitStruct.Alternate = GPIO_AF0_MCO;
 1869              		.loc 1 1305 5 is_stmt 1 view .LVU606
 1870              		.loc 1 1305 31 is_stmt 0 view .LVU607
 1871 0036 0793     		str	r3, [sp, #28]
1306:../../Drivers/STM32H7xx_HAL_Driver/Src/stm32h7xx_hal_rcc.c ****     HAL_GPIO_Init(MCO1_GPIO_PORT, &GPIO_InitStruct);
 1872              		.loc 1 1306 5 is_stmt 1 view .LVU608
 1873 0038 03A9     		add	r1, sp, #12
 1874              	.LVL149:
 1875              		.loc 1 1306 5 is_stmt 0 view .LVU609
 1876 003a 1848     		ldr	r0, .L176+4
 1877              	.LVL150:
 1878              		.loc 1 1306 5 view .LVU610
 1879 003c FFF7FEFF 		bl	HAL_GPIO_Init
 1880              	.LVL151:
1307:../../Drivers/STM32H7xx_HAL_Driver/Src/stm32h7xx_hal_rcc.c **** 
1308:../../Drivers/STM32H7xx_HAL_Driver/Src/stm32h7xx_hal_rcc.c ****     /* Mask MCO1 and MCO1PRE[3:0] bits then Select MCO1 clock source and pre-scaler */
1309:../../Drivers/STM32H7xx_HAL_Driver/Src/stm32h7xx_hal_rcc.c ****     MODIFY_REG(RCC->CFGR, (RCC_CFGR_MCO1 | RCC_CFGR_MCO1PRE), (RCC_MCOSource | RCC_MCODiv));
 1881              		.loc 1 1309 5 is_stmt 1 view .LVU611
 1882 0040 3369     		ldr	r3, [r6, #16]
 1883 0042 23F0FE73 		bic	r3, r3, #33292288
ARM GAS  /tmp/ccooDZtA.s 			page 62


 1884 0046 2543     		orrs	r5, r5, r4
 1885              	.LVL152:
 1886              		.loc 1 1309 5 is_stmt 0 view .LVU612
 1887 0048 1D43     		orrs	r5, r5, r3
 1888 004a 3561     		str	r5, [r6, #16]
 1889              	.LVL153:
 1890              	.L172:
1310:../../Drivers/STM32H7xx_HAL_Driver/Src/stm32h7xx_hal_rcc.c ****   }
1311:../../Drivers/STM32H7xx_HAL_Driver/Src/stm32h7xx_hal_rcc.c ****   else
1312:../../Drivers/STM32H7xx_HAL_Driver/Src/stm32h7xx_hal_rcc.c ****   {
1313:../../Drivers/STM32H7xx_HAL_Driver/Src/stm32h7xx_hal_rcc.c ****     assert_param(IS_RCC_MCO2SOURCE(RCC_MCOSource));
1314:../../Drivers/STM32H7xx_HAL_Driver/Src/stm32h7xx_hal_rcc.c **** 
1315:../../Drivers/STM32H7xx_HAL_Driver/Src/stm32h7xx_hal_rcc.c ****     /* MCO2 Clock Enable */
1316:../../Drivers/STM32H7xx_HAL_Driver/Src/stm32h7xx_hal_rcc.c ****     MCO2_CLK_ENABLE();
1317:../../Drivers/STM32H7xx_HAL_Driver/Src/stm32h7xx_hal_rcc.c **** 
1318:../../Drivers/STM32H7xx_HAL_Driver/Src/stm32h7xx_hal_rcc.c ****     /* Configure the MCO2 pin in alternate function mode */
1319:../../Drivers/STM32H7xx_HAL_Driver/Src/stm32h7xx_hal_rcc.c ****     GPIO_InitStruct.Pin = MCO2_PIN;
1320:../../Drivers/STM32H7xx_HAL_Driver/Src/stm32h7xx_hal_rcc.c ****     GPIO_InitStruct.Mode = GPIO_MODE_AF_PP;
1321:../../Drivers/STM32H7xx_HAL_Driver/Src/stm32h7xx_hal_rcc.c ****     GPIO_InitStruct.Speed = GPIO_SPEED_FREQ_VERY_HIGH;
1322:../../Drivers/STM32H7xx_HAL_Driver/Src/stm32h7xx_hal_rcc.c ****     GPIO_InitStruct.Pull = GPIO_NOPULL;
1323:../../Drivers/STM32H7xx_HAL_Driver/Src/stm32h7xx_hal_rcc.c ****     GPIO_InitStruct.Alternate = GPIO_AF0_MCO;
1324:../../Drivers/STM32H7xx_HAL_Driver/Src/stm32h7xx_hal_rcc.c ****     HAL_GPIO_Init(MCO2_GPIO_PORT, &GPIO_InitStruct);
1325:../../Drivers/STM32H7xx_HAL_Driver/Src/stm32h7xx_hal_rcc.c **** 
1326:../../Drivers/STM32H7xx_HAL_Driver/Src/stm32h7xx_hal_rcc.c ****     /* Mask MCO2 and MCO2PRE[3:0] bits then Select MCO2 clock source and pre-scaler */
1327:../../Drivers/STM32H7xx_HAL_Driver/Src/stm32h7xx_hal_rcc.c ****     MODIFY_REG(RCC->CFGR, (RCC_CFGR_MCO2 | RCC_CFGR_MCO2PRE), (RCC_MCOSource | (RCC_MCODiv << 7U)))
1328:../../Drivers/STM32H7xx_HAL_Driver/Src/stm32h7xx_hal_rcc.c ****   }
1329:../../Drivers/STM32H7xx_HAL_Driver/Src/stm32h7xx_hal_rcc.c **** }
 1891              		.loc 1 1329 1 view .LVU613
 1892 004c 08B0     		add	sp, sp, #32
 1893              	.LCFI6:
 1894              		.cfi_remember_state
 1895              		.cfi_def_cfa_offset 16
 1896              		@ sp needed
 1897 004e 70BD     		pop	{r4, r5, r6, pc}
 1898              	.LVL154:
 1899              	.L173:
 1900              	.LCFI7:
 1901              		.cfi_restore_state
1313:../../Drivers/STM32H7xx_HAL_Driver/Src/stm32h7xx_hal_rcc.c **** 
 1902              		.loc 1 1313 5 is_stmt 1 view .LVU614
1316:../../Drivers/STM32H7xx_HAL_Driver/Src/stm32h7xx_hal_rcc.c **** 
 1903              		.loc 1 1316 5 view .LVU615
 1904              	.LBB14:
1316:../../Drivers/STM32H7xx_HAL_Driver/Src/stm32h7xx_hal_rcc.c **** 
 1905              		.loc 1 1316 5 view .LVU616
1316:../../Drivers/STM32H7xx_HAL_Driver/Src/stm32h7xx_hal_rcc.c **** 
 1906              		.loc 1 1316 5 view .LVU617
 1907 0050 114E     		ldr	r6, .L176
 1908 0052 D6F8E030 		ldr	r3, [r6, #224]
 1909 0056 43F00403 		orr	r3, r3, #4
 1910 005a C6F8E030 		str	r3, [r6, #224]
1316:../../Drivers/STM32H7xx_HAL_Driver/Src/stm32h7xx_hal_rcc.c **** 
 1911              		.loc 1 1316 5 view .LVU618
 1912 005e D6F8E030 		ldr	r3, [r6, #224]
 1913 0062 03F00403 		and	r3, r3, #4
 1914 0066 0293     		str	r3, [sp, #8]
1316:../../Drivers/STM32H7xx_HAL_Driver/Src/stm32h7xx_hal_rcc.c **** 
ARM GAS  /tmp/ccooDZtA.s 			page 63


 1915              		.loc 1 1316 5 view .LVU619
 1916 0068 029B     		ldr	r3, [sp, #8]
 1917              	.LBE14:
1316:../../Drivers/STM32H7xx_HAL_Driver/Src/stm32h7xx_hal_rcc.c **** 
 1918              		.loc 1 1316 5 view .LVU620
1319:../../Drivers/STM32H7xx_HAL_Driver/Src/stm32h7xx_hal_rcc.c ****     GPIO_InitStruct.Mode = GPIO_MODE_AF_PP;
 1919              		.loc 1 1319 5 view .LVU621
1319:../../Drivers/STM32H7xx_HAL_Driver/Src/stm32h7xx_hal_rcc.c ****     GPIO_InitStruct.Mode = GPIO_MODE_AF_PP;
 1920              		.loc 1 1319 25 is_stmt 0 view .LVU622
 1921 006a 4FF40073 		mov	r3, #512
 1922 006e 0393     		str	r3, [sp, #12]
1320:../../Drivers/STM32H7xx_HAL_Driver/Src/stm32h7xx_hal_rcc.c ****     GPIO_InitStruct.Speed = GPIO_SPEED_FREQ_VERY_HIGH;
 1923              		.loc 1 1320 5 is_stmt 1 view .LVU623
1320:../../Drivers/STM32H7xx_HAL_Driver/Src/stm32h7xx_hal_rcc.c ****     GPIO_InitStruct.Speed = GPIO_SPEED_FREQ_VERY_HIGH;
 1924              		.loc 1 1320 26 is_stmt 0 view .LVU624
 1925 0070 0223     		movs	r3, #2
 1926 0072 0493     		str	r3, [sp, #16]
1321:../../Drivers/STM32H7xx_HAL_Driver/Src/stm32h7xx_hal_rcc.c ****     GPIO_InitStruct.Pull = GPIO_NOPULL;
 1927              		.loc 1 1321 5 is_stmt 1 view .LVU625
1321:../../Drivers/STM32H7xx_HAL_Driver/Src/stm32h7xx_hal_rcc.c ****     GPIO_InitStruct.Pull = GPIO_NOPULL;
 1928              		.loc 1 1321 27 is_stmt 0 view .LVU626
 1929 0074 0323     		movs	r3, #3
 1930 0076 0693     		str	r3, [sp, #24]
1322:../../Drivers/STM32H7xx_HAL_Driver/Src/stm32h7xx_hal_rcc.c ****     GPIO_InitStruct.Alternate = GPIO_AF0_MCO;
 1931              		.loc 1 1322 5 is_stmt 1 view .LVU627
1322:../../Drivers/STM32H7xx_HAL_Driver/Src/stm32h7xx_hal_rcc.c ****     GPIO_InitStruct.Alternate = GPIO_AF0_MCO;
 1932              		.loc 1 1322 26 is_stmt 0 view .LVU628
 1933 0078 0023     		movs	r3, #0
 1934 007a 0593     		str	r3, [sp, #20]
1323:../../Drivers/STM32H7xx_HAL_Driver/Src/stm32h7xx_hal_rcc.c ****     HAL_GPIO_Init(MCO2_GPIO_PORT, &GPIO_InitStruct);
 1935              		.loc 1 1323 5 is_stmt 1 view .LVU629
1323:../../Drivers/STM32H7xx_HAL_Driver/Src/stm32h7xx_hal_rcc.c ****     HAL_GPIO_Init(MCO2_GPIO_PORT, &GPIO_InitStruct);
 1936              		.loc 1 1323 31 is_stmt 0 view .LVU630
 1937 007c 0793     		str	r3, [sp, #28]
1324:../../Drivers/STM32H7xx_HAL_Driver/Src/stm32h7xx_hal_rcc.c **** 
 1938              		.loc 1 1324 5 is_stmt 1 view .LVU631
 1939 007e 03A9     		add	r1, sp, #12
 1940              	.LVL155:
1324:../../Drivers/STM32H7xx_HAL_Driver/Src/stm32h7xx_hal_rcc.c **** 
 1941              		.loc 1 1324 5 is_stmt 0 view .LVU632
 1942 0080 0748     		ldr	r0, .L176+8
 1943              	.LVL156:
1324:../../Drivers/STM32H7xx_HAL_Driver/Src/stm32h7xx_hal_rcc.c **** 
 1944              		.loc 1 1324 5 view .LVU633
 1945 0082 FFF7FEFF 		bl	HAL_GPIO_Init
 1946              	.LVL157:
1327:../../Drivers/STM32H7xx_HAL_Driver/Src/stm32h7xx_hal_rcc.c ****   }
 1947              		.loc 1 1327 5 is_stmt 1 view .LVU634
 1948 0086 3369     		ldr	r3, [r6, #16]
 1949 0088 23F07E43 		bic	r3, r3, #-33554432
 1950 008c 44EAC514 		orr	r4, r4, r5, lsl #7
 1951              	.LVL158:
1327:../../Drivers/STM32H7xx_HAL_Driver/Src/stm32h7xx_hal_rcc.c ****   }
 1952              		.loc 1 1327 5 is_stmt 0 view .LVU635
 1953 0090 1C43     		orrs	r4, r4, r3
 1954 0092 3461     		str	r4, [r6, #16]
 1955              		.loc 1 1329 1 view .LVU636
ARM GAS  /tmp/ccooDZtA.s 			page 64


 1956 0094 DAE7     		b	.L172
 1957              	.L177:
 1958 0096 00BF     		.align	2
 1959              	.L176:
 1960 0098 00440258 		.word	1476543488
 1961 009c 00000258 		.word	1476526080
 1962 00a0 00080258 		.word	1476528128
 1963              		.cfi_endproc
 1964              	.LFE147:
 1966              		.section	.text.HAL_RCC_EnableCSS,"ax",%progbits
 1967              		.align	1
 1968              		.global	HAL_RCC_EnableCSS
 1969              		.syntax unified
 1970              		.thumb
 1971              		.thumb_func
 1972              		.fpu fpv5-d16
 1974              	HAL_RCC_EnableCSS:
 1975              	.LFB148:
1330:../../Drivers/STM32H7xx_HAL_Driver/Src/stm32h7xx_hal_rcc.c **** 
1331:../../Drivers/STM32H7xx_HAL_Driver/Src/stm32h7xx_hal_rcc.c **** /**
1332:../../Drivers/STM32H7xx_HAL_Driver/Src/stm32h7xx_hal_rcc.c ****   * @brief  Enables the Clock Security System.
1333:../../Drivers/STM32H7xx_HAL_Driver/Src/stm32h7xx_hal_rcc.c ****   * @note   If a failure is detected on the HSE oscillator clock, this oscillator
1334:../../Drivers/STM32H7xx_HAL_Driver/Src/stm32h7xx_hal_rcc.c ****   *         is automatically disabled and an interrupt is generated to inform the
1335:../../Drivers/STM32H7xx_HAL_Driver/Src/stm32h7xx_hal_rcc.c ****   *         software about the failure (Clock Security System Interrupt, CSSI),
1336:../../Drivers/STM32H7xx_HAL_Driver/Src/stm32h7xx_hal_rcc.c ****   *         allowing the MCU to perform rescue operations. The CSSI is linked to
1337:../../Drivers/STM32H7xx_HAL_Driver/Src/stm32h7xx_hal_rcc.c ****   *         the Cortex-M NMI (Non-Mask-able Interrupt) exception vector.
1338:../../Drivers/STM32H7xx_HAL_Driver/Src/stm32h7xx_hal_rcc.c ****   * @retval None
1339:../../Drivers/STM32H7xx_HAL_Driver/Src/stm32h7xx_hal_rcc.c ****   */
1340:../../Drivers/STM32H7xx_HAL_Driver/Src/stm32h7xx_hal_rcc.c **** void HAL_RCC_EnableCSS(void)
1341:../../Drivers/STM32H7xx_HAL_Driver/Src/stm32h7xx_hal_rcc.c **** {
 1976              		.loc 1 1341 1 is_stmt 1 view -0
 1977              		.cfi_startproc
 1978              		@ args = 0, pretend = 0, frame = 0
 1979              		@ frame_needed = 0, uses_anonymous_args = 0
 1980              		@ link register save eliminated.
1342:../../Drivers/STM32H7xx_HAL_Driver/Src/stm32h7xx_hal_rcc.c ****   SET_BIT(RCC->CR, RCC_CR_CSSHSEON) ;
 1981              		.loc 1 1342 3 view .LVU638
 1982 0000 024A     		ldr	r2, .L179
 1983 0002 1368     		ldr	r3, [r2]
 1984 0004 43F40023 		orr	r3, r3, #524288
 1985 0008 1360     		str	r3, [r2]
1343:../../Drivers/STM32H7xx_HAL_Driver/Src/stm32h7xx_hal_rcc.c **** }
 1986              		.loc 1 1343 1 is_stmt 0 view .LVU639
 1987 000a 7047     		bx	lr
 1988              	.L180:
 1989              		.align	2
 1990              	.L179:
 1991 000c 00440258 		.word	1476543488
 1992              		.cfi_endproc
 1993              	.LFE148:
 1995              		.section	.text.HAL_RCC_DisableCSS,"ax",%progbits
 1996              		.align	1
 1997              		.global	HAL_RCC_DisableCSS
 1998              		.syntax unified
 1999              		.thumb
 2000              		.thumb_func
 2001              		.fpu fpv5-d16
ARM GAS  /tmp/ccooDZtA.s 			page 65


 2003              	HAL_RCC_DisableCSS:
 2004              	.LFB149:
1344:../../Drivers/STM32H7xx_HAL_Driver/Src/stm32h7xx_hal_rcc.c **** 
1345:../../Drivers/STM32H7xx_HAL_Driver/Src/stm32h7xx_hal_rcc.c **** /**
1346:../../Drivers/STM32H7xx_HAL_Driver/Src/stm32h7xx_hal_rcc.c ****   * @brief  Disables the Clock Security System.
1347:../../Drivers/STM32H7xx_HAL_Driver/Src/stm32h7xx_hal_rcc.c ****   * @retval None
1348:../../Drivers/STM32H7xx_HAL_Driver/Src/stm32h7xx_hal_rcc.c ****   */
1349:../../Drivers/STM32H7xx_HAL_Driver/Src/stm32h7xx_hal_rcc.c **** void HAL_RCC_DisableCSS(void)
1350:../../Drivers/STM32H7xx_HAL_Driver/Src/stm32h7xx_hal_rcc.c **** {
 2005              		.loc 1 1350 1 is_stmt 1 view -0
 2006              		.cfi_startproc
 2007              		@ args = 0, pretend = 0, frame = 0
 2008              		@ frame_needed = 0, uses_anonymous_args = 0
 2009              		@ link register save eliminated.
1351:../../Drivers/STM32H7xx_HAL_Driver/Src/stm32h7xx_hal_rcc.c ****   CLEAR_BIT(RCC->CR, RCC_CR_CSSHSEON);
 2010              		.loc 1 1351 3 view .LVU641
 2011 0000 024A     		ldr	r2, .L182
 2012 0002 1368     		ldr	r3, [r2]
 2013 0004 23F40023 		bic	r3, r3, #524288
 2014 0008 1360     		str	r3, [r2]
1352:../../Drivers/STM32H7xx_HAL_Driver/Src/stm32h7xx_hal_rcc.c **** }
 2015              		.loc 1 1352 1 is_stmt 0 view .LVU642
 2016 000a 7047     		bx	lr
 2017              	.L183:
 2018              		.align	2
 2019              	.L182:
 2020 000c 00440258 		.word	1476543488
 2021              		.cfi_endproc
 2022              	.LFE149:
 2024              		.section	.text.HAL_RCC_GetSysClockFreq,"ax",%progbits
 2025              		.align	1
 2026              		.global	HAL_RCC_GetSysClockFreq
 2027              		.syntax unified
 2028              		.thumb
 2029              		.thumb_func
 2030              		.fpu fpv5-d16
 2032              	HAL_RCC_GetSysClockFreq:
 2033              	.LFB150:
1353:../../Drivers/STM32H7xx_HAL_Driver/Src/stm32h7xx_hal_rcc.c **** 
1354:../../Drivers/STM32H7xx_HAL_Driver/Src/stm32h7xx_hal_rcc.c **** /**
1355:../../Drivers/STM32H7xx_HAL_Driver/Src/stm32h7xx_hal_rcc.c ****   * @brief  Returns the SYSCLK frequency
1356:../../Drivers/STM32H7xx_HAL_Driver/Src/stm32h7xx_hal_rcc.c ****   *
1357:../../Drivers/STM32H7xx_HAL_Driver/Src/stm32h7xx_hal_rcc.c ****   * @note   The system frequency computed by this function is not the real
1358:../../Drivers/STM32H7xx_HAL_Driver/Src/stm32h7xx_hal_rcc.c ****   *         frequency in the chip. It is calculated based on the predefined
1359:../../Drivers/STM32H7xx_HAL_Driver/Src/stm32h7xx_hal_rcc.c ****   *         constant and the selected clock source:
1360:../../Drivers/STM32H7xx_HAL_Driver/Src/stm32h7xx_hal_rcc.c ****   * @note     If SYSCLK source is CSI, function returns values based on CSI_VALUE(*)
1361:../../Drivers/STM32H7xx_HAL_Driver/Src/stm32h7xx_hal_rcc.c ****   * @note     If SYSCLK source is HSI, function returns values based on HSI_VALUE(**)
1362:../../Drivers/STM32H7xx_HAL_Driver/Src/stm32h7xx_hal_rcc.c ****   * @note     If SYSCLK source is HSE, function returns values based on HSE_VALUE(***)
1363:../../Drivers/STM32H7xx_HAL_Driver/Src/stm32h7xx_hal_rcc.c ****   * @note     If SYSCLK source is PLL, function returns values based on CSI_VALUE(*),
1364:../../Drivers/STM32H7xx_HAL_Driver/Src/stm32h7xx_hal_rcc.c ****   *           HSI_VALUE(**) or HSE_VALUE(***) multiplied/divided by the PLL factors.
1365:../../Drivers/STM32H7xx_HAL_Driver/Src/stm32h7xx_hal_rcc.c ****   * @note     (*) CSI_VALUE is a constant defined in stm32h7xx_hal_conf.h file (default value
1366:../../Drivers/STM32H7xx_HAL_Driver/Src/stm32h7xx_hal_rcc.c ****   *               4 MHz) but the real value may vary depending on the variations
1367:../../Drivers/STM32H7xx_HAL_Driver/Src/stm32h7xx_hal_rcc.c ****   *               in voltage and temperature.
1368:../../Drivers/STM32H7xx_HAL_Driver/Src/stm32h7xx_hal_rcc.c ****   * @note     (**) HSI_VALUE is a constant defined in stm32h7xx_hal_conf.h file (default value
1369:../../Drivers/STM32H7xx_HAL_Driver/Src/stm32h7xx_hal_rcc.c ****   *               64 MHz) but the real value may vary depending on the variations
1370:../../Drivers/STM32H7xx_HAL_Driver/Src/stm32h7xx_hal_rcc.c ****   *               in voltage and temperature.
1371:../../Drivers/STM32H7xx_HAL_Driver/Src/stm32h7xx_hal_rcc.c ****   * @note     (***) HSE_VALUE is a constant defined in stm32h7xx_hal_conf.h file (default value
ARM GAS  /tmp/ccooDZtA.s 			page 66


1372:../../Drivers/STM32H7xx_HAL_Driver/Src/stm32h7xx_hal_rcc.c ****   *                25 MHz), user has to ensure that HSE_VALUE is same as the real
1373:../../Drivers/STM32H7xx_HAL_Driver/Src/stm32h7xx_hal_rcc.c ****   *                frequency of the crystal used. Otherwise, this function may
1374:../../Drivers/STM32H7xx_HAL_Driver/Src/stm32h7xx_hal_rcc.c ****   *                have wrong result.
1375:../../Drivers/STM32H7xx_HAL_Driver/Src/stm32h7xx_hal_rcc.c ****   *
1376:../../Drivers/STM32H7xx_HAL_Driver/Src/stm32h7xx_hal_rcc.c ****   * @note   The result of this function could be not correct when using fractional
1377:../../Drivers/STM32H7xx_HAL_Driver/Src/stm32h7xx_hal_rcc.c ****   *         value for HSE crystal.
1378:../../Drivers/STM32H7xx_HAL_Driver/Src/stm32h7xx_hal_rcc.c ****   *
1379:../../Drivers/STM32H7xx_HAL_Driver/Src/stm32h7xx_hal_rcc.c ****   * @note   This function can be used by the user application to compute the
1380:../../Drivers/STM32H7xx_HAL_Driver/Src/stm32h7xx_hal_rcc.c ****   *         baud rate for the communication peripherals or configure other parameters.
1381:../../Drivers/STM32H7xx_HAL_Driver/Src/stm32h7xx_hal_rcc.c ****   *
1382:../../Drivers/STM32H7xx_HAL_Driver/Src/stm32h7xx_hal_rcc.c ****   * @note   Each time SYSCLK changes, this function must be called to update the
1383:../../Drivers/STM32H7xx_HAL_Driver/Src/stm32h7xx_hal_rcc.c ****   *         right SYSCLK value. Otherwise, any configuration based on this function will be incorre
1384:../../Drivers/STM32H7xx_HAL_Driver/Src/stm32h7xx_hal_rcc.c ****   *
1385:../../Drivers/STM32H7xx_HAL_Driver/Src/stm32h7xx_hal_rcc.c ****   *
1386:../../Drivers/STM32H7xx_HAL_Driver/Src/stm32h7xx_hal_rcc.c ****   * @retval SYSCLK frequency
1387:../../Drivers/STM32H7xx_HAL_Driver/Src/stm32h7xx_hal_rcc.c ****   */
1388:../../Drivers/STM32H7xx_HAL_Driver/Src/stm32h7xx_hal_rcc.c **** uint32_t HAL_RCC_GetSysClockFreq(void)
1389:../../Drivers/STM32H7xx_HAL_Driver/Src/stm32h7xx_hal_rcc.c **** {
 2034              		.loc 1 1389 1 is_stmt 1 view -0
 2035              		.cfi_startproc
 2036              		@ args = 0, pretend = 0, frame = 0
 2037              		@ frame_needed = 0, uses_anonymous_args = 0
 2038              		@ link register save eliminated.
1390:../../Drivers/STM32H7xx_HAL_Driver/Src/stm32h7xx_hal_rcc.c ****   uint32_t pllp, pllsource, pllm, pllfracen, hsivalue;
 2039              		.loc 1 1390 3 view .LVU644
1391:../../Drivers/STM32H7xx_HAL_Driver/Src/stm32h7xx_hal_rcc.c ****   float_t fracn1, pllvco;
 2040              		.loc 1 1391 3 view .LVU645
1392:../../Drivers/STM32H7xx_HAL_Driver/Src/stm32h7xx_hal_rcc.c ****   uint32_t sysclockfreq;
 2041              		.loc 1 1392 3 view .LVU646
1393:../../Drivers/STM32H7xx_HAL_Driver/Src/stm32h7xx_hal_rcc.c **** 
1394:../../Drivers/STM32H7xx_HAL_Driver/Src/stm32h7xx_hal_rcc.c ****   /* Get SYSCLK source -------------------------------------------------------*/
1395:../../Drivers/STM32H7xx_HAL_Driver/Src/stm32h7xx_hal_rcc.c **** 
1396:../../Drivers/STM32H7xx_HAL_Driver/Src/stm32h7xx_hal_rcc.c ****   switch (RCC->CFGR & RCC_CFGR_SWS)
 2042              		.loc 1 1396 3 view .LVU647
 2043              		.loc 1 1396 14 is_stmt 0 view .LVU648
 2044 0000 744B     		ldr	r3, .L200
 2045 0002 1B69     		ldr	r3, [r3, #16]
 2046              		.loc 1 1396 21 view .LVU649
 2047 0004 03F03803 		and	r3, r3, #56
 2048              		.loc 1 1396 3 view .LVU650
 2049 0008 102B     		cmp	r3, #16
 2050 000a 00F0DE80 		beq	.L192
 2051 000e 182B     		cmp	r3, #24
 2052 0010 10D0     		beq	.L186
 2053 0012 0BB1     		cbz	r3, .L198
 2054 0014 7048     		ldr	r0, .L200+4
 2055 0016 7047     		bx	lr
 2056              	.L198:
1397:../../Drivers/STM32H7xx_HAL_Driver/Src/stm32h7xx_hal_rcc.c ****   {
1398:../../Drivers/STM32H7xx_HAL_Driver/Src/stm32h7xx_hal_rcc.c ****     case RCC_CFGR_SWS_HSI:  /* HSI used as system clock source */
1399:../../Drivers/STM32H7xx_HAL_Driver/Src/stm32h7xx_hal_rcc.c **** 
1400:../../Drivers/STM32H7xx_HAL_Driver/Src/stm32h7xx_hal_rcc.c ****       if (__HAL_RCC_GET_FLAG(RCC_FLAG_HSIDIV) != 0U)
 2057              		.loc 1 1400 7 is_stmt 1 view .LVU651
 2058              		.loc 1 1400 11 is_stmt 0 view .LVU652
 2059 0018 6E4B     		ldr	r3, .L200
 2060 001a 1B68     		ldr	r3, [r3]
 2061              		.loc 1 1400 10 view .LVU653
ARM GAS  /tmp/ccooDZtA.s 			page 67


 2062 001c 13F0200F 		tst	r3, #32
 2063 0020 00F0D580 		beq	.L194
1401:../../Drivers/STM32H7xx_HAL_Driver/Src/stm32h7xx_hal_rcc.c ****       {
1402:../../Drivers/STM32H7xx_HAL_Driver/Src/stm32h7xx_hal_rcc.c ****         sysclockfreq = (uint32_t)(HSI_VALUE >> (__HAL_RCC_GET_HSI_DIVIDER() >> 3));
 2064              		.loc 1 1402 9 is_stmt 1 view .LVU654
 2065              		.loc 1 1402 49 is_stmt 0 view .LVU655
 2066 0024 6B4B     		ldr	r3, .L200
 2067 0026 1868     		ldr	r0, [r3]
 2068              		.loc 1 1402 77 view .LVU656
 2069 0028 C0F3C100 		ubfx	r0, r0, #3, #2
 2070              		.loc 1 1402 22 view .LVU657
 2071 002c 6B4B     		ldr	r3, .L200+8
 2072 002e 23FA00F0 		lsr	r0, r3, r0
 2073              	.LVL159:
 2074              		.loc 1 1402 22 view .LVU658
 2075 0032 7047     		bx	lr
 2076              	.LVL160:
 2077              	.L186:
1389:../../Drivers/STM32H7xx_HAL_Driver/Src/stm32h7xx_hal_rcc.c ****   uint32_t pllp, pllsource, pllm, pllfracen, hsivalue;
 2078              		.loc 1 1389 1 view .LVU659
 2079 0034 10B4     		push	{r4}
 2080              	.LCFI8:
 2081              		.cfi_def_cfa_offset 4
 2082              		.cfi_offset 4, -4
1403:../../Drivers/STM32H7xx_HAL_Driver/Src/stm32h7xx_hal_rcc.c ****       }
1404:../../Drivers/STM32H7xx_HAL_Driver/Src/stm32h7xx_hal_rcc.c ****       else
1405:../../Drivers/STM32H7xx_HAL_Driver/Src/stm32h7xx_hal_rcc.c ****       {
1406:../../Drivers/STM32H7xx_HAL_Driver/Src/stm32h7xx_hal_rcc.c ****         sysclockfreq = (uint32_t) HSI_VALUE;
1407:../../Drivers/STM32H7xx_HAL_Driver/Src/stm32h7xx_hal_rcc.c ****       }
1408:../../Drivers/STM32H7xx_HAL_Driver/Src/stm32h7xx_hal_rcc.c **** 
1409:../../Drivers/STM32H7xx_HAL_Driver/Src/stm32h7xx_hal_rcc.c ****       break;
1410:../../Drivers/STM32H7xx_HAL_Driver/Src/stm32h7xx_hal_rcc.c **** 
1411:../../Drivers/STM32H7xx_HAL_Driver/Src/stm32h7xx_hal_rcc.c ****     case RCC_CFGR_SWS_CSI:  /* CSI used as system clock  source */
1412:../../Drivers/STM32H7xx_HAL_Driver/Src/stm32h7xx_hal_rcc.c ****       sysclockfreq = CSI_VALUE;
1413:../../Drivers/STM32H7xx_HAL_Driver/Src/stm32h7xx_hal_rcc.c ****       break;
1414:../../Drivers/STM32H7xx_HAL_Driver/Src/stm32h7xx_hal_rcc.c **** 
1415:../../Drivers/STM32H7xx_HAL_Driver/Src/stm32h7xx_hal_rcc.c ****     case RCC_CFGR_SWS_HSE:  /* HSE used as system clock  source */
1416:../../Drivers/STM32H7xx_HAL_Driver/Src/stm32h7xx_hal_rcc.c ****       sysclockfreq = HSE_VALUE;
1417:../../Drivers/STM32H7xx_HAL_Driver/Src/stm32h7xx_hal_rcc.c ****       break;
1418:../../Drivers/STM32H7xx_HAL_Driver/Src/stm32h7xx_hal_rcc.c **** 
1419:../../Drivers/STM32H7xx_HAL_Driver/Src/stm32h7xx_hal_rcc.c ****     case RCC_CFGR_SWS_PLL1:  /* PLL1 used as system clock  source */
1420:../../Drivers/STM32H7xx_HAL_Driver/Src/stm32h7xx_hal_rcc.c **** 
1421:../../Drivers/STM32H7xx_HAL_Driver/Src/stm32h7xx_hal_rcc.c ****       /* PLL_VCO = (HSE_VALUE or HSI_VALUE or CSI_VALUE/ PLLM) * PLLN
1422:../../Drivers/STM32H7xx_HAL_Driver/Src/stm32h7xx_hal_rcc.c ****       SYSCLK = PLL_VCO / PLLR
1423:../../Drivers/STM32H7xx_HAL_Driver/Src/stm32h7xx_hal_rcc.c ****       */
1424:../../Drivers/STM32H7xx_HAL_Driver/Src/stm32h7xx_hal_rcc.c ****       pllsource = (RCC->PLLCKSELR & RCC_PLLCKSELR_PLLSRC);
 2083              		.loc 1 1424 7 is_stmt 1 view .LVU660
 2084              		.loc 1 1424 23 is_stmt 0 view .LVU661
 2085 0036 674A     		ldr	r2, .L200
 2086 0038 916A     		ldr	r1, [r2, #40]
 2087              		.loc 1 1424 17 view .LVU662
 2088 003a 01F00301 		and	r1, r1, #3
 2089              	.LVL161:
1425:../../Drivers/STM32H7xx_HAL_Driver/Src/stm32h7xx_hal_rcc.c ****       pllm = ((RCC->PLLCKSELR & RCC_PLLCKSELR_DIVM1) >> 4)  ;
 2090              		.loc 1 1425 7 is_stmt 1 view .LVU663
 2091              		.loc 1 1425 19 is_stmt 0 view .LVU664
 2092 003e 946A     		ldr	r4, [r2, #40]
ARM GAS  /tmp/ccooDZtA.s 			page 68


 2093              		.loc 1 1425 12 view .LVU665
 2094 0040 C4F30510 		ubfx	r0, r4, #4, #6
 2095              	.LVL162:
1426:../../Drivers/STM32H7xx_HAL_Driver/Src/stm32h7xx_hal_rcc.c ****       pllfracen = ((RCC-> PLLCFGR & RCC_PLLCFGR_PLL1FRACEN) >> RCC_PLLCFGR_PLL1FRACEN_Pos);
 2096              		.loc 1 1426 7 is_stmt 1 view .LVU666
 2097              		.loc 1 1426 24 is_stmt 0 view .LVU667
 2098 0044 D36A     		ldr	r3, [r2, #44]
 2099              		.loc 1 1426 17 view .LVU668
 2100 0046 03F0010C 		and	ip, r3, #1
 2101              	.LVL163:
1427:../../Drivers/STM32H7xx_HAL_Driver/Src/stm32h7xx_hal_rcc.c ****       fracn1 = (float_t)(uint32_t)(pllfracen * ((RCC->PLL1FRACR & RCC_PLL1FRACR_FRACN1) >> 3));
 2102              		.loc 1 1427 7 is_stmt 1 view .LVU669
 2103              		.loc 1 1427 53 is_stmt 0 view .LVU670
 2104 004a 536B     		ldr	r3, [r2, #52]
 2105              		.loc 1 1427 89 view .LVU671
 2106 004c C3F3CC03 		ubfx	r3, r3, #3, #13
 2107              		.loc 1 1427 25 view .LVU672
 2108 0050 0CFB03F3 		mul	r3, ip, r3
 2109              		.loc 1 1427 14 view .LVU673
 2110 0054 07EE903A 		vmov	s15, r3	@ int
 2111 0058 F8EE677A 		vcvt.f32.u32	s15, s15
 2112              	.LVL164:
1428:../../Drivers/STM32H7xx_HAL_Driver/Src/stm32h7xx_hal_rcc.c **** 
1429:../../Drivers/STM32H7xx_HAL_Driver/Src/stm32h7xx_hal_rcc.c ****       if (pllm != 0U)
 2113              		.loc 1 1429 7 is_stmt 1 view .LVU674
 2114              		.loc 1 1429 10 is_stmt 0 view .LVU675
 2115 005c 14F47C7F 		tst	r4, #1008
 2116 0060 00F09380 		beq	.L184
1430:../../Drivers/STM32H7xx_HAL_Driver/Src/stm32h7xx_hal_rcc.c ****       {
1431:../../Drivers/STM32H7xx_HAL_Driver/Src/stm32h7xx_hal_rcc.c ****         switch (pllsource)
 2117              		.loc 1 1431 9 is_stmt 1 view .LVU676
 2118 0064 0129     		cmp	r1, #1
 2119 0066 65D0     		beq	.L187
 2120 0068 0229     		cmp	r1, #2
 2121 006a 00F09180 		beq	.L188
 2122 006e E1B1     		cbz	r1, .L199
1432:../../Drivers/STM32H7xx_HAL_Driver/Src/stm32h7xx_hal_rcc.c ****         {
1433:../../Drivers/STM32H7xx_HAL_Driver/Src/stm32h7xx_hal_rcc.c ****           case RCC_PLLSOURCE_HSI:  /* HSI used as PLL clock source */
1434:../../Drivers/STM32H7xx_HAL_Driver/Src/stm32h7xx_hal_rcc.c **** 
1435:../../Drivers/STM32H7xx_HAL_Driver/Src/stm32h7xx_hal_rcc.c ****             if (__HAL_RCC_GET_FLAG(RCC_FLAG_HSIDIV) != 0U)
1436:../../Drivers/STM32H7xx_HAL_Driver/Src/stm32h7xx_hal_rcc.c ****             {
1437:../../Drivers/STM32H7xx_HAL_Driver/Src/stm32h7xx_hal_rcc.c ****               hsivalue = (HSI_VALUE >> (__HAL_RCC_GET_HSI_DIVIDER() >> 3));
1438:../../Drivers/STM32H7xx_HAL_Driver/Src/stm32h7xx_hal_rcc.c ****               pllvco = ((float_t)hsivalue / (float_t)pllm) * ((float_t)(uint32_t)(RCC->PLL1DIVR & R
1439:../../Drivers/STM32H7xx_HAL_Driver/Src/stm32h7xx_hal_rcc.c ****             }
1440:../../Drivers/STM32H7xx_HAL_Driver/Src/stm32h7xx_hal_rcc.c ****             else
1441:../../Drivers/STM32H7xx_HAL_Driver/Src/stm32h7xx_hal_rcc.c ****             {
1442:../../Drivers/STM32H7xx_HAL_Driver/Src/stm32h7xx_hal_rcc.c ****               pllvco = ((float_t)HSI_VALUE / (float_t)pllm) * ((float_t)(uint32_t)(RCC->PLL1DIVR & 
1443:../../Drivers/STM32H7xx_HAL_Driver/Src/stm32h7xx_hal_rcc.c ****             }
1444:../../Drivers/STM32H7xx_HAL_Driver/Src/stm32h7xx_hal_rcc.c ****             break;
1445:../../Drivers/STM32H7xx_HAL_Driver/Src/stm32h7xx_hal_rcc.c **** 
1446:../../Drivers/STM32H7xx_HAL_Driver/Src/stm32h7xx_hal_rcc.c ****           case RCC_PLLSOURCE_CSI:  /* CSI used as PLL clock source */
1447:../../Drivers/STM32H7xx_HAL_Driver/Src/stm32h7xx_hal_rcc.c ****             pllvco = ((float_t)CSI_VALUE / (float_t)pllm) * ((float_t)(uint32_t)(RCC->PLL1DIVR & RC
1448:../../Drivers/STM32H7xx_HAL_Driver/Src/stm32h7xx_hal_rcc.c ****             break;
1449:../../Drivers/STM32H7xx_HAL_Driver/Src/stm32h7xx_hal_rcc.c **** 
1450:../../Drivers/STM32H7xx_HAL_Driver/Src/stm32h7xx_hal_rcc.c ****           case RCC_PLLSOURCE_HSE:  /* HSE used as PLL clock source */
1451:../../Drivers/STM32H7xx_HAL_Driver/Src/stm32h7xx_hal_rcc.c ****             pllvco = ((float_t)HSE_VALUE / (float_t)pllm) * ((float_t)(uint32_t)(RCC->PLL1DIVR & RC
1452:../../Drivers/STM32H7xx_HAL_Driver/Src/stm32h7xx_hal_rcc.c ****             break;
ARM GAS  /tmp/ccooDZtA.s 			page 69


1453:../../Drivers/STM32H7xx_HAL_Driver/Src/stm32h7xx_hal_rcc.c **** 
1454:../../Drivers/STM32H7xx_HAL_Driver/Src/stm32h7xx_hal_rcc.c ****           default:
1455:../../Drivers/STM32H7xx_HAL_Driver/Src/stm32h7xx_hal_rcc.c ****             pllvco = ((float_t)CSI_VALUE / (float_t)pllm) * ((float_t)(uint32_t)(RCC->PLL1DIVR & RC
 2123              		.loc 1 1455 13 view .LVU677
 2124              		.loc 1 1455 44 is_stmt 0 view .LVU678
 2125 0070 07EE100A 		vmov	s14, r0	@ int
 2126 0074 F8EE476A 		vcvt.f32.u32	s13, s14
 2127              		.loc 1 1455 42 view .LVU679
 2128 0078 9FED596A 		vldr.32	s12, .L200+12
 2129 007c 86EE267A 		vdiv.f32	s14, s12, s13
 2130              		.loc 1 1455 85 view .LVU680
 2131 0080 544B     		ldr	r3, .L200
 2132 0082 1B6B     		ldr	r3, [r3, #48]
 2133              		.loc 1 1455 71 view .LVU681
 2134 0084 C3F30803 		ubfx	r3, r3, #0, #9
 2135              		.loc 1 1455 62 view .LVU682
 2136 0088 06EE903A 		vmov	s13, r3	@ int
 2137 008c F8EE666A 		vcvt.f32.u32	s13, s13
 2138              		.loc 1 1455 125 view .LVU683
 2139 0090 9FED546A 		vldr.32	s12, .L200+16
 2140 0094 67EE867A 		vmul.f32	s15, s15, s12
 2141              	.LVL165:
 2142              		.loc 1 1455 115 view .LVU684
 2143 0098 76EEA77A 		vadd.f32	s15, s13, s15
 2144              		.loc 1 1455 144 view .LVU685
 2145 009c F7EE006A 		vmov.f32	s13, #1.0e+0
 2146 00a0 77EEA67A 		vadd.f32	s15, s15, s13
 2147              		.loc 1 1455 20 view .LVU686
 2148 00a4 27EE277A 		vmul.f32	s14, s14, s15
 2149              	.LVL166:
1456:../../Drivers/STM32H7xx_HAL_Driver/Src/stm32h7xx_hal_rcc.c ****             break;
 2150              		.loc 1 1456 13 is_stmt 1 view .LVU687
 2151 00a8 60E0     		b	.L191
 2152              	.LVL167:
 2153              	.L199:
1435:../../Drivers/STM32H7xx_HAL_Driver/Src/stm32h7xx_hal_rcc.c ****             {
 2154              		.loc 1 1435 13 view .LVU688
1435:../../Drivers/STM32H7xx_HAL_Driver/Src/stm32h7xx_hal_rcc.c ****             {
 2155              		.loc 1 1435 17 is_stmt 0 view .LVU689
 2156 00aa 1368     		ldr	r3, [r2]
1435:../../Drivers/STM32H7xx_HAL_Driver/Src/stm32h7xx_hal_rcc.c ****             {
 2157              		.loc 1 1435 16 view .LVU690
 2158 00ac 13F0200F 		tst	r3, #32
 2159 00b0 23D0     		beq	.L190
1437:../../Drivers/STM32H7xx_HAL_Driver/Src/stm32h7xx_hal_rcc.c ****               pllvco = ((float_t)hsivalue / (float_t)pllm) * ((float_t)(uint32_t)(RCC->PLL1DIVR & R
 2160              		.loc 1 1437 15 is_stmt 1 view .LVU691
1437:../../Drivers/STM32H7xx_HAL_Driver/Src/stm32h7xx_hal_rcc.c ****               pllvco = ((float_t)hsivalue / (float_t)pllm) * ((float_t)(uint32_t)(RCC->PLL1DIVR & R
 2161              		.loc 1 1437 41 is_stmt 0 view .LVU692
 2162 00b2 1146     		mov	r1, r2
 2163              	.LVL168:
1437:../../Drivers/STM32H7xx_HAL_Driver/Src/stm32h7xx_hal_rcc.c ****               pllvco = ((float_t)hsivalue / (float_t)pllm) * ((float_t)(uint32_t)(RCC->PLL1DIVR & R
 2164              		.loc 1 1437 41 view .LVU693
 2165 00b4 1268     		ldr	r2, [r2]
1437:../../Drivers/STM32H7xx_HAL_Driver/Src/stm32h7xx_hal_rcc.c ****               pllvco = ((float_t)hsivalue / (float_t)pllm) * ((float_t)(uint32_t)(RCC->PLL1DIVR & R
 2166              		.loc 1 1437 69 view .LVU694
 2167 00b6 C2F3C102 		ubfx	r2, r2, #3, #2
1437:../../Drivers/STM32H7xx_HAL_Driver/Src/stm32h7xx_hal_rcc.c ****               pllvco = ((float_t)hsivalue / (float_t)pllm) * ((float_t)(uint32_t)(RCC->PLL1DIVR & R
ARM GAS  /tmp/ccooDZtA.s 			page 70


 2168              		.loc 1 1437 24 view .LVU695
 2169 00ba 484B     		ldr	r3, .L200+8
 2170 00bc D340     		lsrs	r3, r3, r2
 2171              	.LVL169:
1438:../../Drivers/STM32H7xx_HAL_Driver/Src/stm32h7xx_hal_rcc.c ****             }
 2172              		.loc 1 1438 15 is_stmt 1 view .LVU696
1438:../../Drivers/STM32H7xx_HAL_Driver/Src/stm32h7xx_hal_rcc.c ****             }
 2173              		.loc 1 1438 25 is_stmt 0 view .LVU697
 2174 00be 07EE103A 		vmov	s14, r3	@ int
 2175 00c2 F8EE476A 		vcvt.f32.u32	s13, s14
1438:../../Drivers/STM32H7xx_HAL_Driver/Src/stm32h7xx_hal_rcc.c ****             }
 2176              		.loc 1 1438 45 view .LVU698
 2177 00c6 07EE100A 		vmov	s14, r0	@ int
 2178 00ca B8EE476A 		vcvt.f32.u32	s12, s14
1438:../../Drivers/STM32H7xx_HAL_Driver/Src/stm32h7xx_hal_rcc.c ****             }
 2179              		.loc 1 1438 43 view .LVU699
 2180 00ce 86EE867A 		vdiv.f32	s14, s13, s12
1438:../../Drivers/STM32H7xx_HAL_Driver/Src/stm32h7xx_hal_rcc.c ****             }
 2181              		.loc 1 1438 86 view .LVU700
 2182 00d2 0B6B     		ldr	r3, [r1, #48]
 2183              	.LVL170:
1438:../../Drivers/STM32H7xx_HAL_Driver/Src/stm32h7xx_hal_rcc.c ****             }
 2184              		.loc 1 1438 72 view .LVU701
 2185 00d4 C3F30803 		ubfx	r3, r3, #0, #9
1438:../../Drivers/STM32H7xx_HAL_Driver/Src/stm32h7xx_hal_rcc.c ****             }
 2186              		.loc 1 1438 63 view .LVU702
 2187 00d8 06EE903A 		vmov	s13, r3	@ int
 2188 00dc F8EE666A 		vcvt.f32.u32	s13, s13
1438:../../Drivers/STM32H7xx_HAL_Driver/Src/stm32h7xx_hal_rcc.c ****             }
 2189              		.loc 1 1438 126 view .LVU703
 2190 00e0 9FED406A 		vldr.32	s12, .L200+16
 2191 00e4 67EE867A 		vmul.f32	s15, s15, s12
 2192              	.LVL171:
1438:../../Drivers/STM32H7xx_HAL_Driver/Src/stm32h7xx_hal_rcc.c ****             }
 2193              		.loc 1 1438 116 view .LVU704
 2194 00e8 76EEA77A 		vadd.f32	s15, s13, s15
1438:../../Drivers/STM32H7xx_HAL_Driver/Src/stm32h7xx_hal_rcc.c ****             }
 2195              		.loc 1 1438 145 view .LVU705
 2196 00ec F7EE006A 		vmov.f32	s13, #1.0e+0
 2197 00f0 77EEA67A 		vadd.f32	s15, s15, s13
1438:../../Drivers/STM32H7xx_HAL_Driver/Src/stm32h7xx_hal_rcc.c ****             }
 2198              		.loc 1 1438 22 view .LVU706
 2199 00f4 27EE277A 		vmul.f32	s14, s14, s15
 2200              	.LVL172:
1438:../../Drivers/STM32H7xx_HAL_Driver/Src/stm32h7xx_hal_rcc.c ****             }
 2201              		.loc 1 1438 22 view .LVU707
 2202 00f8 38E0     		b	.L191
 2203              	.LVL173:
 2204              	.L190:
1442:../../Drivers/STM32H7xx_HAL_Driver/Src/stm32h7xx_hal_rcc.c ****             }
 2205              		.loc 1 1442 15 is_stmt 1 view .LVU708
1442:../../Drivers/STM32H7xx_HAL_Driver/Src/stm32h7xx_hal_rcc.c ****             }
 2206              		.loc 1 1442 46 is_stmt 0 view .LVU709
 2207 00fa 07EE100A 		vmov	s14, r0	@ int
 2208 00fe F8EE476A 		vcvt.f32.u32	s13, s14
1442:../../Drivers/STM32H7xx_HAL_Driver/Src/stm32h7xx_hal_rcc.c ****             }
 2209              		.loc 1 1442 44 view .LVU710
ARM GAS  /tmp/ccooDZtA.s 			page 71


 2210 0102 9FED396A 		vldr.32	s12, .L200+20
 2211 0106 86EE267A 		vdiv.f32	s14, s12, s13
1442:../../Drivers/STM32H7xx_HAL_Driver/Src/stm32h7xx_hal_rcc.c ****             }
 2212              		.loc 1 1442 87 view .LVU711
 2213 010a 324B     		ldr	r3, .L200
 2214 010c 1B6B     		ldr	r3, [r3, #48]
1442:../../Drivers/STM32H7xx_HAL_Driver/Src/stm32h7xx_hal_rcc.c ****             }
 2215              		.loc 1 1442 73 view .LVU712
 2216 010e C3F30803 		ubfx	r3, r3, #0, #9
1442:../../Drivers/STM32H7xx_HAL_Driver/Src/stm32h7xx_hal_rcc.c ****             }
 2217              		.loc 1 1442 64 view .LVU713
 2218 0112 06EE903A 		vmov	s13, r3	@ int
 2219 0116 F8EE666A 		vcvt.f32.u32	s13, s13
1442:../../Drivers/STM32H7xx_HAL_Driver/Src/stm32h7xx_hal_rcc.c ****             }
 2220              		.loc 1 1442 127 view .LVU714
 2221 011a 9FED326A 		vldr.32	s12, .L200+16
 2222 011e 67EE867A 		vmul.f32	s15, s15, s12
 2223              	.LVL174:
1442:../../Drivers/STM32H7xx_HAL_Driver/Src/stm32h7xx_hal_rcc.c ****             }
 2224              		.loc 1 1442 117 view .LVU715
 2225 0122 76EEA77A 		vadd.f32	s15, s13, s15
1442:../../Drivers/STM32H7xx_HAL_Driver/Src/stm32h7xx_hal_rcc.c ****             }
 2226              		.loc 1 1442 146 view .LVU716
 2227 0126 F7EE006A 		vmov.f32	s13, #1.0e+0
 2228 012a 77EEA67A 		vadd.f32	s15, s15, s13
1442:../../Drivers/STM32H7xx_HAL_Driver/Src/stm32h7xx_hal_rcc.c ****             }
 2229              		.loc 1 1442 22 view .LVU717
 2230 012e 27EE277A 		vmul.f32	s14, s14, s15
 2231              	.LVL175:
1442:../../Drivers/STM32H7xx_HAL_Driver/Src/stm32h7xx_hal_rcc.c ****             }
 2232              		.loc 1 1442 22 view .LVU718
 2233 0132 1BE0     		b	.L191
 2234              	.LVL176:
 2235              	.L187:
1447:../../Drivers/STM32H7xx_HAL_Driver/Src/stm32h7xx_hal_rcc.c ****             break;
 2236              		.loc 1 1447 13 is_stmt 1 view .LVU719
1447:../../Drivers/STM32H7xx_HAL_Driver/Src/stm32h7xx_hal_rcc.c ****             break;
 2237              		.loc 1 1447 44 is_stmt 0 view .LVU720
 2238 0134 07EE100A 		vmov	s14, r0	@ int
 2239 0138 F8EE476A 		vcvt.f32.u32	s13, s14
1447:../../Drivers/STM32H7xx_HAL_Driver/Src/stm32h7xx_hal_rcc.c ****             break;
 2240              		.loc 1 1447 42 view .LVU721
 2241 013c 9FED286A 		vldr.32	s12, .L200+12
 2242 0140 86EE267A 		vdiv.f32	s14, s12, s13
1447:../../Drivers/STM32H7xx_HAL_Driver/Src/stm32h7xx_hal_rcc.c ****             break;
 2243              		.loc 1 1447 85 view .LVU722
 2244 0144 234B     		ldr	r3, .L200
 2245 0146 1B6B     		ldr	r3, [r3, #48]
1447:../../Drivers/STM32H7xx_HAL_Driver/Src/stm32h7xx_hal_rcc.c ****             break;
 2246              		.loc 1 1447 71 view .LVU723
 2247 0148 C3F30803 		ubfx	r3, r3, #0, #9
1447:../../Drivers/STM32H7xx_HAL_Driver/Src/stm32h7xx_hal_rcc.c ****             break;
 2248              		.loc 1 1447 62 view .LVU724
 2249 014c 06EE903A 		vmov	s13, r3	@ int
 2250 0150 F8EE666A 		vcvt.f32.u32	s13, s13
1447:../../Drivers/STM32H7xx_HAL_Driver/Src/stm32h7xx_hal_rcc.c ****             break;
 2251              		.loc 1 1447 125 view .LVU725
ARM GAS  /tmp/ccooDZtA.s 			page 72


 2252 0154 9FED236A 		vldr.32	s12, .L200+16
 2253 0158 67EE867A 		vmul.f32	s15, s15, s12
 2254              	.LVL177:
1447:../../Drivers/STM32H7xx_HAL_Driver/Src/stm32h7xx_hal_rcc.c ****             break;
 2255              		.loc 1 1447 115 view .LVU726
 2256 015c 76EEA77A 		vadd.f32	s15, s13, s15
1447:../../Drivers/STM32H7xx_HAL_Driver/Src/stm32h7xx_hal_rcc.c ****             break;
 2257              		.loc 1 1447 144 view .LVU727
 2258 0160 F7EE006A 		vmov.f32	s13, #1.0e+0
 2259 0164 77EEA67A 		vadd.f32	s15, s15, s13
1447:../../Drivers/STM32H7xx_HAL_Driver/Src/stm32h7xx_hal_rcc.c ****             break;
 2260              		.loc 1 1447 20 view .LVU728
 2261 0168 27EE277A 		vmul.f32	s14, s14, s15
 2262              	.LVL178:
1448:../../Drivers/STM32H7xx_HAL_Driver/Src/stm32h7xx_hal_rcc.c **** 
 2263              		.loc 1 1448 13 is_stmt 1 view .LVU729
 2264              	.L191:
1457:../../Drivers/STM32H7xx_HAL_Driver/Src/stm32h7xx_hal_rcc.c ****         }
1458:../../Drivers/STM32H7xx_HAL_Driver/Src/stm32h7xx_hal_rcc.c ****         pllp = (((RCC->PLL1DIVR & RCC_PLL1DIVR_P1) >> 9) + 1U) ;
 2265              		.loc 1 1458 9 view .LVU730
 2266              		.loc 1 1458 22 is_stmt 0 view .LVU731
 2267 016c 194B     		ldr	r3, .L200
 2268 016e 1B6B     		ldr	r3, [r3, #48]
 2269              		.loc 1 1458 52 view .LVU732
 2270 0170 C3F34623 		ubfx	r3, r3, #9, #7
 2271              		.loc 1 1458 14 view .LVU733
 2272 0174 0133     		adds	r3, r3, #1
 2273              	.LVL179:
1459:../../Drivers/STM32H7xx_HAL_Driver/Src/stm32h7xx_hal_rcc.c ****         sysclockfreq = (uint32_t)(float_t)(pllvco / (float_t)pllp);
 2274              		.loc 1 1459 9 is_stmt 1 view .LVU734
 2275              		.loc 1 1459 53 is_stmt 0 view .LVU735
 2276 0176 07EE903A 		vmov	s15, r3	@ int
 2277 017a F8EE677A 		vcvt.f32.u32	s15, s15
 2278              		.loc 1 1459 34 view .LVU736
 2279 017e C7EE276A 		vdiv.f32	s13, s14, s15
 2280              		.loc 1 1459 22 view .LVU737
 2281 0182 FCEEE67A 		vcvt.u32.f32	s15, s13
 2282 0186 17EE900A 		vmov	r0, s15	@ int
 2283              	.LVL180:
 2284              	.L184:
1460:../../Drivers/STM32H7xx_HAL_Driver/Src/stm32h7xx_hal_rcc.c ****       }
1461:../../Drivers/STM32H7xx_HAL_Driver/Src/stm32h7xx_hal_rcc.c ****       else
1462:../../Drivers/STM32H7xx_HAL_Driver/Src/stm32h7xx_hal_rcc.c ****       {
1463:../../Drivers/STM32H7xx_HAL_Driver/Src/stm32h7xx_hal_rcc.c ****         sysclockfreq = 0U;
1464:../../Drivers/STM32H7xx_HAL_Driver/Src/stm32h7xx_hal_rcc.c ****       }
1465:../../Drivers/STM32H7xx_HAL_Driver/Src/stm32h7xx_hal_rcc.c ****       break;
1466:../../Drivers/STM32H7xx_HAL_Driver/Src/stm32h7xx_hal_rcc.c **** 
1467:../../Drivers/STM32H7xx_HAL_Driver/Src/stm32h7xx_hal_rcc.c ****     default:
1468:../../Drivers/STM32H7xx_HAL_Driver/Src/stm32h7xx_hal_rcc.c ****       sysclockfreq = CSI_VALUE;
1469:../../Drivers/STM32H7xx_HAL_Driver/Src/stm32h7xx_hal_rcc.c ****       break;
1470:../../Drivers/STM32H7xx_HAL_Driver/Src/stm32h7xx_hal_rcc.c ****   }
1471:../../Drivers/STM32H7xx_HAL_Driver/Src/stm32h7xx_hal_rcc.c **** 
1472:../../Drivers/STM32H7xx_HAL_Driver/Src/stm32h7xx_hal_rcc.c ****   return sysclockfreq;
1473:../../Drivers/STM32H7xx_HAL_Driver/Src/stm32h7xx_hal_rcc.c **** }
 2285              		.loc 1 1473 1 view .LVU738
 2286 018a 5DF8044B 		ldr	r4, [sp], #4
 2287              	.LCFI9:
ARM GAS  /tmp/ccooDZtA.s 			page 73


 2288              		.cfi_remember_state
 2289              		.cfi_restore 4
 2290              		.cfi_def_cfa_offset 0
 2291              	.LVL181:
 2292              		.loc 1 1473 1 view .LVU739
 2293 018e 7047     		bx	lr
 2294              	.LVL182:
 2295              	.L188:
 2296              	.LCFI10:
 2297              		.cfi_restore_state
1451:../../Drivers/STM32H7xx_HAL_Driver/Src/stm32h7xx_hal_rcc.c ****             break;
 2298              		.loc 1 1451 13 is_stmt 1 view .LVU740
1451:../../Drivers/STM32H7xx_HAL_Driver/Src/stm32h7xx_hal_rcc.c ****             break;
 2299              		.loc 1 1451 44 is_stmt 0 view .LVU741
 2300 0190 07EE100A 		vmov	s14, r0	@ int
 2301 0194 F8EE476A 		vcvt.f32.u32	s13, s14
1451:../../Drivers/STM32H7xx_HAL_Driver/Src/stm32h7xx_hal_rcc.c ****             break;
 2302              		.loc 1 1451 42 view .LVU742
 2303 0198 9FED146A 		vldr.32	s12, .L200+24
 2304 019c 86EE267A 		vdiv.f32	s14, s12, s13
1451:../../Drivers/STM32H7xx_HAL_Driver/Src/stm32h7xx_hal_rcc.c ****             break;
 2305              		.loc 1 1451 85 view .LVU743
 2306 01a0 0C4B     		ldr	r3, .L200
 2307 01a2 1B6B     		ldr	r3, [r3, #48]
1451:../../Drivers/STM32H7xx_HAL_Driver/Src/stm32h7xx_hal_rcc.c ****             break;
 2308              		.loc 1 1451 71 view .LVU744
 2309 01a4 C3F30803 		ubfx	r3, r3, #0, #9
1451:../../Drivers/STM32H7xx_HAL_Driver/Src/stm32h7xx_hal_rcc.c ****             break;
 2310              		.loc 1 1451 62 view .LVU745
 2311 01a8 06EE903A 		vmov	s13, r3	@ int
 2312 01ac F8EE666A 		vcvt.f32.u32	s13, s13
1451:../../Drivers/STM32H7xx_HAL_Driver/Src/stm32h7xx_hal_rcc.c ****             break;
 2313              		.loc 1 1451 125 view .LVU746
 2314 01b0 9FED0C6A 		vldr.32	s12, .L200+16
 2315 01b4 67EE867A 		vmul.f32	s15, s15, s12
 2316              	.LVL183:
1451:../../Drivers/STM32H7xx_HAL_Driver/Src/stm32h7xx_hal_rcc.c ****             break;
 2317              		.loc 1 1451 115 view .LVU747
 2318 01b8 76EEA77A 		vadd.f32	s15, s13, s15
1451:../../Drivers/STM32H7xx_HAL_Driver/Src/stm32h7xx_hal_rcc.c ****             break;
 2319              		.loc 1 1451 144 view .LVU748
 2320 01bc F7EE006A 		vmov.f32	s13, #1.0e+0
 2321 01c0 77EEA67A 		vadd.f32	s15, s15, s13
1451:../../Drivers/STM32H7xx_HAL_Driver/Src/stm32h7xx_hal_rcc.c ****             break;
 2322              		.loc 1 1451 20 view .LVU749
 2323 01c4 27EE277A 		vmul.f32	s14, s14, s15
 2324              	.LVL184:
1452:../../Drivers/STM32H7xx_HAL_Driver/Src/stm32h7xx_hal_rcc.c **** 
 2325              		.loc 1 1452 13 is_stmt 1 view .LVU750
 2326 01c8 D0E7     		b	.L191
 2327              	.LVL185:
 2328              	.L192:
 2329              	.LCFI11:
 2330              		.cfi_def_cfa_offset 0
 2331              		.cfi_restore 4
1416:../../Drivers/STM32H7xx_HAL_Driver/Src/stm32h7xx_hal_rcc.c ****       break;
 2332              		.loc 1 1416 20 is_stmt 0 view .LVU751
ARM GAS  /tmp/ccooDZtA.s 			page 74


 2333 01ca 0948     		ldr	r0, .L200+28
 2334 01cc 7047     		bx	lr
 2335              	.L194:
1406:../../Drivers/STM32H7xx_HAL_Driver/Src/stm32h7xx_hal_rcc.c ****       }
 2336              		.loc 1 1406 22 view .LVU752
 2337 01ce 0348     		ldr	r0, .L200+8
 2338              	.LVL186:
1472:../../Drivers/STM32H7xx_HAL_Driver/Src/stm32h7xx_hal_rcc.c **** }
 2339              		.loc 1 1472 3 is_stmt 1 view .LVU753
 2340              		.loc 1 1473 1 is_stmt 0 view .LVU754
 2341 01d0 7047     		bx	lr
 2342              	.L201:
 2343 01d2 00BF     		.align	2
 2344              	.L200:
 2345 01d4 00440258 		.word	1476543488
 2346 01d8 00093D00 		.word	4000000
 2347 01dc 0090D003 		.word	64000000
 2348 01e0 0024744A 		.word	1249125376
 2349 01e4 00000039 		.word	956301312
 2350 01e8 0024744C 		.word	1282679808
 2351 01ec 20BCBE4B 		.word	1270791200
 2352 01f0 40787D01 		.word	25000000
 2353              		.cfi_endproc
 2354              	.LFE150:
 2356              		.section	.text.HAL_RCC_ClockConfig,"ax",%progbits
 2357              		.align	1
 2358              		.global	HAL_RCC_ClockConfig
 2359              		.syntax unified
 2360              		.thumb
 2361              		.thumb_func
 2362              		.fpu fpv5-d16
 2364              	HAL_RCC_ClockConfig:
 2365              	.LVL187:
 2366              	.LFB146:
 923:../../Drivers/STM32H7xx_HAL_Driver/Src/stm32h7xx_hal_rcc.c ****   HAL_StatusTypeDef halstatus;
 2367              		.loc 1 923 1 is_stmt 1 view -0
 2368              		.cfi_startproc
 2369              		@ args = 0, pretend = 0, frame = 0
 2370              		@ frame_needed = 0, uses_anonymous_args = 0
 924:../../Drivers/STM32H7xx_HAL_Driver/Src/stm32h7xx_hal_rcc.c ****   uint32_t tickstart;
 2371              		.loc 1 924 3 view .LVU756
 925:../../Drivers/STM32H7xx_HAL_Driver/Src/stm32h7xx_hal_rcc.c ****   uint32_t common_system_clock;
 2372              		.loc 1 925 3 view .LVU757
 926:../../Drivers/STM32H7xx_HAL_Driver/Src/stm32h7xx_hal_rcc.c **** 
 2373              		.loc 1 926 3 view .LVU758
 929:../../Drivers/STM32H7xx_HAL_Driver/Src/stm32h7xx_hal_rcc.c ****   {
 2374              		.loc 1 929 3 view .LVU759
 929:../../Drivers/STM32H7xx_HAL_Driver/Src/stm32h7xx_hal_rcc.c ****   {
 2375              		.loc 1 929 6 is_stmt 0 view .LVU760
 2376 0000 0028     		cmp	r0, #0
 2377 0002 00F03281 		beq	.L223
 923:../../Drivers/STM32H7xx_HAL_Driver/Src/stm32h7xx_hal_rcc.c ****   HAL_StatusTypeDef halstatus;
 2378              		.loc 1 923 1 view .LVU761
 2379 0006 70B5     		push	{r4, r5, r6, lr}
 2380              	.LCFI12:
 2381              		.cfi_def_cfa_offset 16
 2382              		.cfi_offset 4, -16
ARM GAS  /tmp/ccooDZtA.s 			page 75


 2383              		.cfi_offset 5, -12
 2384              		.cfi_offset 6, -8
 2385              		.cfi_offset 14, -4
 2386 0008 0D46     		mov	r5, r1
 2387 000a 0446     		mov	r4, r0
 935:../../Drivers/STM32H7xx_HAL_Driver/Src/stm32h7xx_hal_rcc.c ****   assert_param(IS_FLASH_LATENCY(FLatency));
 2388              		.loc 1 935 3 is_stmt 1 view .LVU762
 936:../../Drivers/STM32H7xx_HAL_Driver/Src/stm32h7xx_hal_rcc.c **** 
 2389              		.loc 1 936 3 view .LVU763
 943:../../Drivers/STM32H7xx_HAL_Driver/Src/stm32h7xx_hal_rcc.c ****   {
 2390              		.loc 1 943 3 view .LVU764
 943:../../Drivers/STM32H7xx_HAL_Driver/Src/stm32h7xx_hal_rcc.c ****   {
 2391              		.loc 1 943 18 is_stmt 0 view .LVU765
 2392 000c 9B4B     		ldr	r3, .L239
 2393 000e 1B68     		ldr	r3, [r3]
 2394 0010 03F00F03 		and	r3, r3, #15
 943:../../Drivers/STM32H7xx_HAL_Driver/Src/stm32h7xx_hal_rcc.c ****   {
 2395              		.loc 1 943 6 view .LVU766
 2396 0014 8B42     		cmp	r3, r1
 2397 0016 0BD2     		bcs	.L204
 946:../../Drivers/STM32H7xx_HAL_Driver/Src/stm32h7xx_hal_rcc.c **** 
 2398              		.loc 1 946 5 is_stmt 1 view .LVU767
 2399 0018 984A     		ldr	r2, .L239
 2400 001a 1368     		ldr	r3, [r2]
 2401 001c 23F00F03 		bic	r3, r3, #15
 2402 0020 0B43     		orrs	r3, r3, r1
 2403 0022 1360     		str	r3, [r2]
 950:../../Drivers/STM32H7xx_HAL_Driver/Src/stm32h7xx_hal_rcc.c ****     {
 2404              		.loc 1 950 5 view .LVU768
 950:../../Drivers/STM32H7xx_HAL_Driver/Src/stm32h7xx_hal_rcc.c ****     {
 2405              		.loc 1 950 9 is_stmt 0 view .LVU769
 2406 0024 1368     		ldr	r3, [r2]
 2407 0026 03F00F03 		and	r3, r3, #15
 950:../../Drivers/STM32H7xx_HAL_Driver/Src/stm32h7xx_hal_rcc.c ****     {
 2408              		.loc 1 950 8 view .LVU770
 2409 002a 8B42     		cmp	r3, r1
 2410 002c 40F01F81 		bne	.L224
 2411              	.L204:
 959:../../Drivers/STM32H7xx_HAL_Driver/Src/stm32h7xx_hal_rcc.c ****   {
 2412              		.loc 1 959 3 is_stmt 1 view .LVU771
 959:../../Drivers/STM32H7xx_HAL_Driver/Src/stm32h7xx_hal_rcc.c ****   {
 2413              		.loc 1 959 26 is_stmt 0 view .LVU772
 2414 0030 2368     		ldr	r3, [r4]
 959:../../Drivers/STM32H7xx_HAL_Driver/Src/stm32h7xx_hal_rcc.c ****   {
 2415              		.loc 1 959 6 view .LVU773
 2416 0032 13F0040F 		tst	r3, #4
 2417 0036 0CD0     		beq	.L205
 962:../../Drivers/STM32H7xx_HAL_Driver/Src/stm32h7xx_hal_rcc.c ****     {
 2418              		.loc 1 962 5 is_stmt 1 view .LVU774
 962:../../Drivers/STM32H7xx_HAL_Driver/Src/stm32h7xx_hal_rcc.c ****     {
 2419              		.loc 1 962 27 is_stmt 0 view .LVU775
 2420 0038 2269     		ldr	r2, [r4, #16]
 962:../../Drivers/STM32H7xx_HAL_Driver/Src/stm32h7xx_hal_rcc.c ****     {
 2421              		.loc 1 962 51 view .LVU776
 2422 003a 914B     		ldr	r3, .L239+4
 2423 003c 9B69     		ldr	r3, [r3, #24]
 962:../../Drivers/STM32H7xx_HAL_Driver/Src/stm32h7xx_hal_rcc.c ****     {
ARM GAS  /tmp/ccooDZtA.s 			page 76


 2424              		.loc 1 962 60 view .LVU777
 2425 003e 03F07003 		and	r3, r3, #112
 962:../../Drivers/STM32H7xx_HAL_Driver/Src/stm32h7xx_hal_rcc.c ****     {
 2426              		.loc 1 962 8 view .LVU778
 2427 0042 9A42     		cmp	r2, r3
 2428 0044 05D9     		bls	.L205
 964:../../Drivers/STM32H7xx_HAL_Driver/Src/stm32h7xx_hal_rcc.c ****       MODIFY_REG(RCC->D1CFGR, RCC_D1CFGR_D1PPRE, RCC_ClkInitStruct->APB3CLKDivider);
 2429              		.loc 1 964 7 is_stmt 1 view .LVU779
 965:../../Drivers/STM32H7xx_HAL_Driver/Src/stm32h7xx_hal_rcc.c ****     }
 2430              		.loc 1 965 7 view .LVU780
 2431 0046 8E49     		ldr	r1, .L239+4
 2432              	.LVL188:
 965:../../Drivers/STM32H7xx_HAL_Driver/Src/stm32h7xx_hal_rcc.c ****     }
 2433              		.loc 1 965 7 is_stmt 0 view .LVU781
 2434 0048 8B69     		ldr	r3, [r1, #24]
 2435 004a 23F07003 		bic	r3, r3, #112
 2436 004e 1A43     		orrs	r2, r2, r3
 2437 0050 8A61     		str	r2, [r1, #24]
 2438              	.L205:
 977:../../Drivers/STM32H7xx_HAL_Driver/Src/stm32h7xx_hal_rcc.c ****   {
 2439              		.loc 1 977 3 is_stmt 1 view .LVU782
 977:../../Drivers/STM32H7xx_HAL_Driver/Src/stm32h7xx_hal_rcc.c ****   {
 2440              		.loc 1 977 26 is_stmt 0 view .LVU783
 2441 0052 2368     		ldr	r3, [r4]
 977:../../Drivers/STM32H7xx_HAL_Driver/Src/stm32h7xx_hal_rcc.c ****   {
 2442              		.loc 1 977 6 view .LVU784
 2443 0054 13F0080F 		tst	r3, #8
 2444 0058 0CD0     		beq	.L206
 980:../../Drivers/STM32H7xx_HAL_Driver/Src/stm32h7xx_hal_rcc.c ****     {
 2445              		.loc 1 980 5 is_stmt 1 view .LVU785
 980:../../Drivers/STM32H7xx_HAL_Driver/Src/stm32h7xx_hal_rcc.c ****     {
 2446              		.loc 1 980 27 is_stmt 0 view .LVU786
 2447 005a 6269     		ldr	r2, [r4, #20]
 980:../../Drivers/STM32H7xx_HAL_Driver/Src/stm32h7xx_hal_rcc.c ****     {
 2448              		.loc 1 980 51 view .LVU787
 2449 005c 884B     		ldr	r3, .L239+4
 2450 005e DB69     		ldr	r3, [r3, #28]
 980:../../Drivers/STM32H7xx_HAL_Driver/Src/stm32h7xx_hal_rcc.c ****     {
 2451              		.loc 1 980 60 view .LVU788
 2452 0060 03F07003 		and	r3, r3, #112
 980:../../Drivers/STM32H7xx_HAL_Driver/Src/stm32h7xx_hal_rcc.c ****     {
 2453              		.loc 1 980 8 view .LVU789
 2454 0064 9A42     		cmp	r2, r3
 2455 0066 05D9     		bls	.L206
 982:../../Drivers/STM32H7xx_HAL_Driver/Src/stm32h7xx_hal_rcc.c ****       MODIFY_REG(RCC->D2CFGR, RCC_D2CFGR_D2PPRE1, (RCC_ClkInitStruct->APB1CLKDivider));
 2456              		.loc 1 982 7 is_stmt 1 view .LVU790
 983:../../Drivers/STM32H7xx_HAL_Driver/Src/stm32h7xx_hal_rcc.c ****     }
 2457              		.loc 1 983 7 view .LVU791
 2458 0068 8549     		ldr	r1, .L239+4
 2459 006a CB69     		ldr	r3, [r1, #28]
 2460 006c 23F07003 		bic	r3, r3, #112
 2461 0070 1A43     		orrs	r2, r2, r3
 2462 0072 CA61     		str	r2, [r1, #28]
 2463              	.L206:
 994:../../Drivers/STM32H7xx_HAL_Driver/Src/stm32h7xx_hal_rcc.c ****   {
 2464              		.loc 1 994 3 view .LVU792
 994:../../Drivers/STM32H7xx_HAL_Driver/Src/stm32h7xx_hal_rcc.c ****   {
ARM GAS  /tmp/ccooDZtA.s 			page 77


 2465              		.loc 1 994 26 is_stmt 0 view .LVU793
 2466 0074 2368     		ldr	r3, [r4]
 994:../../Drivers/STM32H7xx_HAL_Driver/Src/stm32h7xx_hal_rcc.c ****   {
 2467              		.loc 1 994 6 view .LVU794
 2468 0076 13F0100F 		tst	r3, #16
 2469 007a 0CD0     		beq	.L207
 997:../../Drivers/STM32H7xx_HAL_Driver/Src/stm32h7xx_hal_rcc.c ****     {
 2470              		.loc 1 997 5 is_stmt 1 view .LVU795
 997:../../Drivers/STM32H7xx_HAL_Driver/Src/stm32h7xx_hal_rcc.c ****     {
 2471              		.loc 1 997 27 is_stmt 0 view .LVU796
 2472 007c A269     		ldr	r2, [r4, #24]
 997:../../Drivers/STM32H7xx_HAL_Driver/Src/stm32h7xx_hal_rcc.c ****     {
 2473              		.loc 1 997 51 view .LVU797
 2474 007e 804B     		ldr	r3, .L239+4
 2475 0080 DB69     		ldr	r3, [r3, #28]
 997:../../Drivers/STM32H7xx_HAL_Driver/Src/stm32h7xx_hal_rcc.c ****     {
 2476              		.loc 1 997 60 view .LVU798
 2477 0082 03F4E063 		and	r3, r3, #1792
 997:../../Drivers/STM32H7xx_HAL_Driver/Src/stm32h7xx_hal_rcc.c ****     {
 2478              		.loc 1 997 8 view .LVU799
 2479 0086 9A42     		cmp	r2, r3
 2480 0088 05D9     		bls	.L207
 999:../../Drivers/STM32H7xx_HAL_Driver/Src/stm32h7xx_hal_rcc.c ****       MODIFY_REG(RCC->D2CFGR, RCC_D2CFGR_D2PPRE2, (RCC_ClkInitStruct->APB2CLKDivider));
 2481              		.loc 1 999 7 is_stmt 1 view .LVU800
1000:../../Drivers/STM32H7xx_HAL_Driver/Src/stm32h7xx_hal_rcc.c ****     }
 2482              		.loc 1 1000 7 view .LVU801
 2483 008a 7D49     		ldr	r1, .L239+4
 2484 008c CB69     		ldr	r3, [r1, #28]
 2485 008e 23F4E063 		bic	r3, r3, #1792
 2486 0092 1A43     		orrs	r2, r2, r3
 2487 0094 CA61     		str	r2, [r1, #28]
 2488              	.L207:
1012:../../Drivers/STM32H7xx_HAL_Driver/Src/stm32h7xx_hal_rcc.c ****   {
 2489              		.loc 1 1012 3 view .LVU802
1012:../../Drivers/STM32H7xx_HAL_Driver/Src/stm32h7xx_hal_rcc.c ****   {
 2490              		.loc 1 1012 26 is_stmt 0 view .LVU803
 2491 0096 2368     		ldr	r3, [r4]
1012:../../Drivers/STM32H7xx_HAL_Driver/Src/stm32h7xx_hal_rcc.c ****   {
 2492              		.loc 1 1012 6 view .LVU804
 2493 0098 13F0200F 		tst	r3, #32
 2494 009c 0CD0     		beq	.L208
1015:../../Drivers/STM32H7xx_HAL_Driver/Src/stm32h7xx_hal_rcc.c ****     {
 2495              		.loc 1 1015 5 is_stmt 1 view .LVU805
1015:../../Drivers/STM32H7xx_HAL_Driver/Src/stm32h7xx_hal_rcc.c ****     {
 2496              		.loc 1 1015 27 is_stmt 0 view .LVU806
 2497 009e E269     		ldr	r2, [r4, #28]
1015:../../Drivers/STM32H7xx_HAL_Driver/Src/stm32h7xx_hal_rcc.c ****     {
 2498              		.loc 1 1015 51 view .LVU807
 2499 00a0 774B     		ldr	r3, .L239+4
 2500 00a2 1B6A     		ldr	r3, [r3, #32]
1015:../../Drivers/STM32H7xx_HAL_Driver/Src/stm32h7xx_hal_rcc.c ****     {
 2501              		.loc 1 1015 60 view .LVU808
 2502 00a4 03F07003 		and	r3, r3, #112
1015:../../Drivers/STM32H7xx_HAL_Driver/Src/stm32h7xx_hal_rcc.c ****     {
 2503              		.loc 1 1015 8 view .LVU809
 2504 00a8 9A42     		cmp	r2, r3
 2505 00aa 05D9     		bls	.L208
ARM GAS  /tmp/ccooDZtA.s 			page 78


1017:../../Drivers/STM32H7xx_HAL_Driver/Src/stm32h7xx_hal_rcc.c ****       MODIFY_REG(RCC->D3CFGR, RCC_D3CFGR_D3PPRE, (RCC_ClkInitStruct->APB4CLKDivider));
 2506              		.loc 1 1017 7 is_stmt 1 view .LVU810
1018:../../Drivers/STM32H7xx_HAL_Driver/Src/stm32h7xx_hal_rcc.c ****     }
 2507              		.loc 1 1018 7 view .LVU811
 2508 00ac 7449     		ldr	r1, .L239+4
 2509 00ae 0B6A     		ldr	r3, [r1, #32]
 2510 00b0 23F07003 		bic	r3, r3, #112
 2511 00b4 1A43     		orrs	r2, r2, r3
 2512 00b6 0A62     		str	r2, [r1, #32]
 2513              	.L208:
1030:../../Drivers/STM32H7xx_HAL_Driver/Src/stm32h7xx_hal_rcc.c ****   {
 2514              		.loc 1 1030 3 view .LVU812
1030:../../Drivers/STM32H7xx_HAL_Driver/Src/stm32h7xx_hal_rcc.c ****   {
 2515              		.loc 1 1030 26 is_stmt 0 view .LVU813
 2516 00b8 2368     		ldr	r3, [r4]
1030:../../Drivers/STM32H7xx_HAL_Driver/Src/stm32h7xx_hal_rcc.c ****   {
 2517              		.loc 1 1030 6 view .LVU814
 2518 00ba 13F0020F 		tst	r3, #2
 2519 00be 0CD0     		beq	.L209
1033:../../Drivers/STM32H7xx_HAL_Driver/Src/stm32h7xx_hal_rcc.c ****     {
 2520              		.loc 1 1033 5 is_stmt 1 view .LVU815
1033:../../Drivers/STM32H7xx_HAL_Driver/Src/stm32h7xx_hal_rcc.c ****     {
 2521              		.loc 1 1033 27 is_stmt 0 view .LVU816
 2522 00c0 E268     		ldr	r2, [r4, #12]
1033:../../Drivers/STM32H7xx_HAL_Driver/Src/stm32h7xx_hal_rcc.c ****     {
 2523              		.loc 1 1033 50 view .LVU817
 2524 00c2 6F4B     		ldr	r3, .L239+4
 2525 00c4 9B69     		ldr	r3, [r3, #24]
1033:../../Drivers/STM32H7xx_HAL_Driver/Src/stm32h7xx_hal_rcc.c ****     {
 2526              		.loc 1 1033 59 view .LVU818
 2527 00c6 03F00F03 		and	r3, r3, #15
1033:../../Drivers/STM32H7xx_HAL_Driver/Src/stm32h7xx_hal_rcc.c ****     {
 2528              		.loc 1 1033 8 view .LVU819
 2529 00ca 9A42     		cmp	r2, r3
 2530 00cc 05D9     		bls	.L209
1036:../../Drivers/STM32H7xx_HAL_Driver/Src/stm32h7xx_hal_rcc.c ****       MODIFY_REG(RCC->D1CFGR, RCC_D1CFGR_HPRE, RCC_ClkInitStruct->AHBCLKDivider);
 2531              		.loc 1 1036 7 is_stmt 1 view .LVU820
1037:../../Drivers/STM32H7xx_HAL_Driver/Src/stm32h7xx_hal_rcc.c ****     }
 2532              		.loc 1 1037 7 view .LVU821
 2533 00ce 6C49     		ldr	r1, .L239+4
 2534 00d0 8B69     		ldr	r3, [r1, #24]
 2535 00d2 23F00F03 		bic	r3, r3, #15
 2536 00d6 1A43     		orrs	r2, r2, r3
 2537 00d8 8A61     		str	r2, [r1, #24]
 2538              	.L209:
1050:../../Drivers/STM32H7xx_HAL_Driver/Src/stm32h7xx_hal_rcc.c ****   {
 2539              		.loc 1 1050 3 view .LVU822
1050:../../Drivers/STM32H7xx_HAL_Driver/Src/stm32h7xx_hal_rcc.c ****   {
 2540              		.loc 1 1050 26 is_stmt 0 view .LVU823
 2541 00da 2368     		ldr	r3, [r4]
1050:../../Drivers/STM32H7xx_HAL_Driver/Src/stm32h7xx_hal_rcc.c ****   {
 2542              		.loc 1 1050 6 view .LVU824
 2543 00dc 13F0010F 		tst	r3, #1
 2544 00e0 41D0     		beq	.L210
1052:../../Drivers/STM32H7xx_HAL_Driver/Src/stm32h7xx_hal_rcc.c ****     assert_param(IS_RCC_SYSCLKSOURCE(RCC_ClkInitStruct->SYSCLKSource));
 2545              		.loc 1 1052 5 is_stmt 1 view .LVU825
1053:../../Drivers/STM32H7xx_HAL_Driver/Src/stm32h7xx_hal_rcc.c **** #if defined(RCC_D1CFGR_D1CPRE)
ARM GAS  /tmp/ccooDZtA.s 			page 79


 2546              		.loc 1 1053 5 view .LVU826
1055:../../Drivers/STM32H7xx_HAL_Driver/Src/stm32h7xx_hal_rcc.c **** #else
 2547              		.loc 1 1055 5 view .LVU827
 2548 00e2 674A     		ldr	r2, .L239+4
 2549 00e4 9369     		ldr	r3, [r2, #24]
 2550 00e6 23F47063 		bic	r3, r3, #3840
 2551 00ea A168     		ldr	r1, [r4, #8]
 2552 00ec 0B43     		orrs	r3, r3, r1
 2553 00ee 9361     		str	r3, [r2, #24]
1060:../../Drivers/STM32H7xx_HAL_Driver/Src/stm32h7xx_hal_rcc.c ****     {
 2554              		.loc 1 1060 5 view .LVU828
1060:../../Drivers/STM32H7xx_HAL_Driver/Src/stm32h7xx_hal_rcc.c ****     {
 2555              		.loc 1 1060 26 is_stmt 0 view .LVU829
 2556 00f0 6368     		ldr	r3, [r4, #4]
1060:../../Drivers/STM32H7xx_HAL_Driver/Src/stm32h7xx_hal_rcc.c ****     {
 2557              		.loc 1 1060 8 view .LVU830
 2558 00f2 022B     		cmp	r3, #2
 2559 00f4 0AD0     		beq	.L235
1069:../../Drivers/STM32H7xx_HAL_Driver/Src/stm32h7xx_hal_rcc.c ****     {
 2560              		.loc 1 1069 10 is_stmt 1 view .LVU831
1069:../../Drivers/STM32H7xx_HAL_Driver/Src/stm32h7xx_hal_rcc.c ****     {
 2561              		.loc 1 1069 13 is_stmt 0 view .LVU832
 2562 00f6 032B     		cmp	r3, #3
 2563 00f8 27D0     		beq	.L236
1078:../../Drivers/STM32H7xx_HAL_Driver/Src/stm32h7xx_hal_rcc.c ****     {
 2564              		.loc 1 1078 10 is_stmt 1 view .LVU833
1078:../../Drivers/STM32H7xx_HAL_Driver/Src/stm32h7xx_hal_rcc.c ****     {
 2565              		.loc 1 1078 13 is_stmt 0 view .LVU834
 2566 00fa 012B     		cmp	r3, #1
 2567 00fc 2CD0     		beq	.L237
1090:../../Drivers/STM32H7xx_HAL_Driver/Src/stm32h7xx_hal_rcc.c ****       {
 2568              		.loc 1 1090 7 is_stmt 1 view .LVU835
1090:../../Drivers/STM32H7xx_HAL_Driver/Src/stm32h7xx_hal_rcc.c ****       {
 2569              		.loc 1 1090 11 is_stmt 0 view .LVU836
 2570 00fe 604A     		ldr	r2, .L239+4
 2571 0100 1268     		ldr	r2, [r2]
1090:../../Drivers/STM32H7xx_HAL_Driver/Src/stm32h7xx_hal_rcc.c ****       {
 2572              		.loc 1 1090 10 view .LVU837
 2573 0102 12F0040F 		tst	r2, #4
 2574 0106 06D1     		bne	.L212
1092:../../Drivers/STM32H7xx_HAL_Driver/Src/stm32h7xx_hal_rcc.c ****       }
 2575              		.loc 1 1092 16 view .LVU838
 2576 0108 0120     		movs	r0, #1
 2577              	.LVL189:
1092:../../Drivers/STM32H7xx_HAL_Driver/Src/stm32h7xx_hal_rcc.c ****       }
 2578              		.loc 1 1092 16 view .LVU839
 2579 010a ADE0     		b	.L203
 2580              	.LVL190:
 2581              	.L235:
1063:../../Drivers/STM32H7xx_HAL_Driver/Src/stm32h7xx_hal_rcc.c ****       {
 2582              		.loc 1 1063 7 is_stmt 1 view .LVU840
1063:../../Drivers/STM32H7xx_HAL_Driver/Src/stm32h7xx_hal_rcc.c ****       {
 2583              		.loc 1 1063 11 is_stmt 0 view .LVU841
 2584 010c 1268     		ldr	r2, [r2]
1063:../../Drivers/STM32H7xx_HAL_Driver/Src/stm32h7xx_hal_rcc.c ****       {
 2585              		.loc 1 1063 10 view .LVU842
 2586 010e 12F4003F 		tst	r2, #131072
ARM GAS  /tmp/ccooDZtA.s 			page 80


 2587 0112 00F0AE80 		beq	.L238
 2588              	.L212:
1095:../../Drivers/STM32H7xx_HAL_Driver/Src/stm32h7xx_hal_rcc.c **** 
 2589              		.loc 1 1095 5 is_stmt 1 view .LVU843
 2590 0116 5A49     		ldr	r1, .L239+4
 2591 0118 0A69     		ldr	r2, [r1, #16]
 2592 011a 22F00702 		bic	r2, r2, #7
 2593 011e 1343     		orrs	r3, r3, r2
 2594 0120 0B61     		str	r3, [r1, #16]
1098:../../Drivers/STM32H7xx_HAL_Driver/Src/stm32h7xx_hal_rcc.c **** 
 2595              		.loc 1 1098 5 view .LVU844
1098:../../Drivers/STM32H7xx_HAL_Driver/Src/stm32h7xx_hal_rcc.c **** 
 2596              		.loc 1 1098 17 is_stmt 0 view .LVU845
 2597 0122 FFF7FEFF 		bl	HAL_GetTick
 2598              	.LVL191:
1098:../../Drivers/STM32H7xx_HAL_Driver/Src/stm32h7xx_hal_rcc.c **** 
 2599              		.loc 1 1098 17 view .LVU846
 2600 0126 0646     		mov	r6, r0
 2601              	.LVL192:
1100:../../Drivers/STM32H7xx_HAL_Driver/Src/stm32h7xx_hal_rcc.c ****     {
 2602              		.loc 1 1100 5 is_stmt 1 view .LVU847
 2603              	.L215:
1100:../../Drivers/STM32H7xx_HAL_Driver/Src/stm32h7xx_hal_rcc.c ****     {
 2604              		.loc 1 1100 11 view .LVU848
1100:../../Drivers/STM32H7xx_HAL_Driver/Src/stm32h7xx_hal_rcc.c ****     {
 2605              		.loc 1 1100 12 is_stmt 0 view .LVU849
 2606 0128 554B     		ldr	r3, .L239+4
 2607 012a 1B69     		ldr	r3, [r3, #16]
 2608 012c 03F03803 		and	r3, r3, #56
1100:../../Drivers/STM32H7xx_HAL_Driver/Src/stm32h7xx_hal_rcc.c ****     {
 2609              		.loc 1 1100 63 view .LVU850
 2610 0130 6268     		ldr	r2, [r4, #4]
1100:../../Drivers/STM32H7xx_HAL_Driver/Src/stm32h7xx_hal_rcc.c ****     {
 2611              		.loc 1 1100 11 view .LVU851
 2612 0132 B3EBC20F 		cmp	r3, r2, lsl #3
 2613 0136 16D0     		beq	.L210
1102:../../Drivers/STM32H7xx_HAL_Driver/Src/stm32h7xx_hal_rcc.c ****       {
 2614              		.loc 1 1102 7 is_stmt 1 view .LVU852
1102:../../Drivers/STM32H7xx_HAL_Driver/Src/stm32h7xx_hal_rcc.c ****       {
 2615              		.loc 1 1102 12 is_stmt 0 view .LVU853
 2616 0138 FFF7FEFF 		bl	HAL_GetTick
 2617              	.LVL193:
1102:../../Drivers/STM32H7xx_HAL_Driver/Src/stm32h7xx_hal_rcc.c ****       {
 2618              		.loc 1 1102 26 view .LVU854
 2619 013c 801B     		subs	r0, r0, r6
1102:../../Drivers/STM32H7xx_HAL_Driver/Src/stm32h7xx_hal_rcc.c ****       {
 2620              		.loc 1 1102 10 view .LVU855
 2621 013e 41F28833 		movw	r3, #5000
 2622 0142 9842     		cmp	r0, r3
 2623 0144 F0D9     		bls	.L215
1104:../../Drivers/STM32H7xx_HAL_Driver/Src/stm32h7xx_hal_rcc.c ****       }
 2624              		.loc 1 1104 16 view .LVU856
 2625 0146 0320     		movs	r0, #3
 2626 0148 8EE0     		b	.L203
 2627              	.LVL194:
 2628              	.L236:
1072:../../Drivers/STM32H7xx_HAL_Driver/Src/stm32h7xx_hal_rcc.c ****       {
ARM GAS  /tmp/ccooDZtA.s 			page 81


 2629              		.loc 1 1072 7 is_stmt 1 view .LVU857
1072:../../Drivers/STM32H7xx_HAL_Driver/Src/stm32h7xx_hal_rcc.c ****       {
 2630              		.loc 1 1072 11 is_stmt 0 view .LVU858
 2631 014a 4D4A     		ldr	r2, .L239+4
 2632 014c 1268     		ldr	r2, [r2]
1072:../../Drivers/STM32H7xx_HAL_Driver/Src/stm32h7xx_hal_rcc.c ****       {
 2633              		.loc 1 1072 10 view .LVU859
 2634 014e 12F0007F 		tst	r2, #33554432
 2635 0152 E0D1     		bne	.L212
1074:../../Drivers/STM32H7xx_HAL_Driver/Src/stm32h7xx_hal_rcc.c ****       }
 2636              		.loc 1 1074 16 view .LVU860
 2637 0154 0120     		movs	r0, #1
 2638              	.LVL195:
1074:../../Drivers/STM32H7xx_HAL_Driver/Src/stm32h7xx_hal_rcc.c ****       }
 2639              		.loc 1 1074 16 view .LVU861
 2640 0156 87E0     		b	.L203
 2641              	.LVL196:
 2642              	.L237:
1081:../../Drivers/STM32H7xx_HAL_Driver/Src/stm32h7xx_hal_rcc.c ****       {
 2643              		.loc 1 1081 7 is_stmt 1 view .LVU862
1081:../../Drivers/STM32H7xx_HAL_Driver/Src/stm32h7xx_hal_rcc.c ****       {
 2644              		.loc 1 1081 11 is_stmt 0 view .LVU863
 2645 0158 494A     		ldr	r2, .L239+4
 2646 015a 1268     		ldr	r2, [r2]
1081:../../Drivers/STM32H7xx_HAL_Driver/Src/stm32h7xx_hal_rcc.c ****       {
 2647              		.loc 1 1081 10 view .LVU864
 2648 015c 12F4807F 		tst	r2, #256
 2649 0160 D9D1     		bne	.L212
1083:../../Drivers/STM32H7xx_HAL_Driver/Src/stm32h7xx_hal_rcc.c ****       }
 2650              		.loc 1 1083 16 view .LVU865
 2651 0162 0120     		movs	r0, #1
 2652              	.LVL197:
1083:../../Drivers/STM32H7xx_HAL_Driver/Src/stm32h7xx_hal_rcc.c ****       }
 2653              		.loc 1 1083 16 view .LVU866
 2654 0164 80E0     		b	.L203
 2655              	.L210:
1112:../../Drivers/STM32H7xx_HAL_Driver/Src/stm32h7xx_hal_rcc.c ****   {
 2656              		.loc 1 1112 3 is_stmt 1 view .LVU867
1112:../../Drivers/STM32H7xx_HAL_Driver/Src/stm32h7xx_hal_rcc.c ****   {
 2657              		.loc 1 1112 26 is_stmt 0 view .LVU868
 2658 0166 2368     		ldr	r3, [r4]
1112:../../Drivers/STM32H7xx_HAL_Driver/Src/stm32h7xx_hal_rcc.c ****   {
 2659              		.loc 1 1112 6 view .LVU869
 2660 0168 13F0020F 		tst	r3, #2
 2661 016c 0CD0     		beq	.L217
1115:../../Drivers/STM32H7xx_HAL_Driver/Src/stm32h7xx_hal_rcc.c ****     {
 2662              		.loc 1 1115 5 is_stmt 1 view .LVU870
1115:../../Drivers/STM32H7xx_HAL_Driver/Src/stm32h7xx_hal_rcc.c ****     {
 2663              		.loc 1 1115 27 is_stmt 0 view .LVU871
 2664 016e E268     		ldr	r2, [r4, #12]
1115:../../Drivers/STM32H7xx_HAL_Driver/Src/stm32h7xx_hal_rcc.c ****     {
 2665              		.loc 1 1115 50 view .LVU872
 2666 0170 434B     		ldr	r3, .L239+4
 2667 0172 9B69     		ldr	r3, [r3, #24]
1115:../../Drivers/STM32H7xx_HAL_Driver/Src/stm32h7xx_hal_rcc.c ****     {
 2668              		.loc 1 1115 59 view .LVU873
 2669 0174 03F00F03 		and	r3, r3, #15
ARM GAS  /tmp/ccooDZtA.s 			page 82


1115:../../Drivers/STM32H7xx_HAL_Driver/Src/stm32h7xx_hal_rcc.c ****     {
 2670              		.loc 1 1115 8 view .LVU874
 2671 0178 9A42     		cmp	r2, r3
 2672 017a 05D2     		bcs	.L217
1118:../../Drivers/STM32H7xx_HAL_Driver/Src/stm32h7xx_hal_rcc.c ****       MODIFY_REG(RCC->D1CFGR, RCC_D1CFGR_HPRE, RCC_ClkInitStruct->AHBCLKDivider);
 2673              		.loc 1 1118 7 is_stmt 1 view .LVU875
1119:../../Drivers/STM32H7xx_HAL_Driver/Src/stm32h7xx_hal_rcc.c ****     }
 2674              		.loc 1 1119 7 view .LVU876
 2675 017c 4049     		ldr	r1, .L239+4
 2676 017e 8B69     		ldr	r3, [r1, #24]
 2677 0180 23F00F03 		bic	r3, r3, #15
 2678 0184 1A43     		orrs	r2, r2, r3
 2679 0186 8A61     		str	r2, [r1, #24]
 2680              	.L217:
1132:../../Drivers/STM32H7xx_HAL_Driver/Src/stm32h7xx_hal_rcc.c ****   {
 2681              		.loc 1 1132 3 view .LVU877
1132:../../Drivers/STM32H7xx_HAL_Driver/Src/stm32h7xx_hal_rcc.c ****   {
 2682              		.loc 1 1132 18 is_stmt 0 view .LVU878
 2683 0188 3C4B     		ldr	r3, .L239
 2684 018a 1B68     		ldr	r3, [r3]
 2685 018c 03F00F03 		and	r3, r3, #15
1132:../../Drivers/STM32H7xx_HAL_Driver/Src/stm32h7xx_hal_rcc.c ****   {
 2686              		.loc 1 1132 6 view .LVU879
 2687 0190 AB42     		cmp	r3, r5
 2688 0192 0AD9     		bls	.L218
1135:../../Drivers/STM32H7xx_HAL_Driver/Src/stm32h7xx_hal_rcc.c **** 
 2689              		.loc 1 1135 5 is_stmt 1 view .LVU880
 2690 0194 394A     		ldr	r2, .L239
 2691 0196 1368     		ldr	r3, [r2]
 2692 0198 23F00F03 		bic	r3, r3, #15
 2693 019c 2B43     		orrs	r3, r3, r5
 2694 019e 1360     		str	r3, [r2]
1139:../../Drivers/STM32H7xx_HAL_Driver/Src/stm32h7xx_hal_rcc.c ****     {
 2695              		.loc 1 1139 5 view .LVU881
1139:../../Drivers/STM32H7xx_HAL_Driver/Src/stm32h7xx_hal_rcc.c ****     {
 2696              		.loc 1 1139 9 is_stmt 0 view .LVU882
 2697 01a0 1368     		ldr	r3, [r2]
 2698 01a2 03F00F03 		and	r3, r3, #15
1139:../../Drivers/STM32H7xx_HAL_Driver/Src/stm32h7xx_hal_rcc.c ****     {
 2699              		.loc 1 1139 8 view .LVU883
 2700 01a6 AB42     		cmp	r3, r5
 2701 01a8 65D1     		bne	.L230
 2702              	.L218:
1146:../../Drivers/STM32H7xx_HAL_Driver/Src/stm32h7xx_hal_rcc.c ****   {
 2703              		.loc 1 1146 3 is_stmt 1 view .LVU884
1146:../../Drivers/STM32H7xx_HAL_Driver/Src/stm32h7xx_hal_rcc.c ****   {
 2704              		.loc 1 1146 26 is_stmt 0 view .LVU885
 2705 01aa 2368     		ldr	r3, [r4]
1146:../../Drivers/STM32H7xx_HAL_Driver/Src/stm32h7xx_hal_rcc.c ****   {
 2706              		.loc 1 1146 6 view .LVU886
 2707 01ac 13F0040F 		tst	r3, #4
 2708 01b0 0CD0     		beq	.L219
1149:../../Drivers/STM32H7xx_HAL_Driver/Src/stm32h7xx_hal_rcc.c ****     {
 2709              		.loc 1 1149 5 is_stmt 1 view .LVU887
1149:../../Drivers/STM32H7xx_HAL_Driver/Src/stm32h7xx_hal_rcc.c ****     {
 2710              		.loc 1 1149 27 is_stmt 0 view .LVU888
 2711 01b2 2269     		ldr	r2, [r4, #16]
ARM GAS  /tmp/ccooDZtA.s 			page 83


1149:../../Drivers/STM32H7xx_HAL_Driver/Src/stm32h7xx_hal_rcc.c ****     {
 2712              		.loc 1 1149 51 view .LVU889
 2713 01b4 324B     		ldr	r3, .L239+4
 2714 01b6 9B69     		ldr	r3, [r3, #24]
1149:../../Drivers/STM32H7xx_HAL_Driver/Src/stm32h7xx_hal_rcc.c ****     {
 2715              		.loc 1 1149 60 view .LVU890
 2716 01b8 03F07003 		and	r3, r3, #112
1149:../../Drivers/STM32H7xx_HAL_Driver/Src/stm32h7xx_hal_rcc.c ****     {
 2717              		.loc 1 1149 8 view .LVU891
 2718 01bc 9A42     		cmp	r2, r3
 2719 01be 05D2     		bcs	.L219
1151:../../Drivers/STM32H7xx_HAL_Driver/Src/stm32h7xx_hal_rcc.c ****       MODIFY_REG(RCC->D1CFGR, RCC_D1CFGR_D1PPRE, RCC_ClkInitStruct->APB3CLKDivider);
 2720              		.loc 1 1151 7 is_stmt 1 view .LVU892
1152:../../Drivers/STM32H7xx_HAL_Driver/Src/stm32h7xx_hal_rcc.c ****     }
 2721              		.loc 1 1152 7 view .LVU893
 2722 01c0 2F49     		ldr	r1, .L239+4
 2723 01c2 8B69     		ldr	r3, [r1, #24]
 2724 01c4 23F07003 		bic	r3, r3, #112
 2725 01c8 1A43     		orrs	r2, r2, r3
 2726 01ca 8A61     		str	r2, [r1, #24]
 2727              	.L219:
1164:../../Drivers/STM32H7xx_HAL_Driver/Src/stm32h7xx_hal_rcc.c ****   {
 2728              		.loc 1 1164 3 view .LVU894
1164:../../Drivers/STM32H7xx_HAL_Driver/Src/stm32h7xx_hal_rcc.c ****   {
 2729              		.loc 1 1164 26 is_stmt 0 view .LVU895
 2730 01cc 2368     		ldr	r3, [r4]
1164:../../Drivers/STM32H7xx_HAL_Driver/Src/stm32h7xx_hal_rcc.c ****   {
 2731              		.loc 1 1164 6 view .LVU896
 2732 01ce 13F0080F 		tst	r3, #8
 2733 01d2 0CD0     		beq	.L220
1167:../../Drivers/STM32H7xx_HAL_Driver/Src/stm32h7xx_hal_rcc.c ****     {
 2734              		.loc 1 1167 5 is_stmt 1 view .LVU897
1167:../../Drivers/STM32H7xx_HAL_Driver/Src/stm32h7xx_hal_rcc.c ****     {
 2735              		.loc 1 1167 27 is_stmt 0 view .LVU898
 2736 01d4 6269     		ldr	r2, [r4, #20]
1167:../../Drivers/STM32H7xx_HAL_Driver/Src/stm32h7xx_hal_rcc.c ****     {
 2737              		.loc 1 1167 51 view .LVU899
 2738 01d6 2A4B     		ldr	r3, .L239+4
 2739 01d8 DB69     		ldr	r3, [r3, #28]
1167:../../Drivers/STM32H7xx_HAL_Driver/Src/stm32h7xx_hal_rcc.c ****     {
 2740              		.loc 1 1167 60 view .LVU900
 2741 01da 03F07003 		and	r3, r3, #112
1167:../../Drivers/STM32H7xx_HAL_Driver/Src/stm32h7xx_hal_rcc.c ****     {
 2742              		.loc 1 1167 8 view .LVU901
 2743 01de 9A42     		cmp	r2, r3
 2744 01e0 05D2     		bcs	.L220
1169:../../Drivers/STM32H7xx_HAL_Driver/Src/stm32h7xx_hal_rcc.c ****       MODIFY_REG(RCC->D2CFGR, RCC_D2CFGR_D2PPRE1, (RCC_ClkInitStruct->APB1CLKDivider));
 2745              		.loc 1 1169 7 is_stmt 1 view .LVU902
1170:../../Drivers/STM32H7xx_HAL_Driver/Src/stm32h7xx_hal_rcc.c ****     }
 2746              		.loc 1 1170 7 view .LVU903
 2747 01e2 2749     		ldr	r1, .L239+4
 2748 01e4 CB69     		ldr	r3, [r1, #28]
 2749 01e6 23F07003 		bic	r3, r3, #112
 2750 01ea 1A43     		orrs	r2, r2, r3
 2751 01ec CA61     		str	r2, [r1, #28]
 2752              	.L220:
1182:../../Drivers/STM32H7xx_HAL_Driver/Src/stm32h7xx_hal_rcc.c ****   {
ARM GAS  /tmp/ccooDZtA.s 			page 84


 2753              		.loc 1 1182 3 view .LVU904
1182:../../Drivers/STM32H7xx_HAL_Driver/Src/stm32h7xx_hal_rcc.c ****   {
 2754              		.loc 1 1182 26 is_stmt 0 view .LVU905
 2755 01ee 2368     		ldr	r3, [r4]
1182:../../Drivers/STM32H7xx_HAL_Driver/Src/stm32h7xx_hal_rcc.c ****   {
 2756              		.loc 1 1182 6 view .LVU906
 2757 01f0 13F0100F 		tst	r3, #16
 2758 01f4 0CD0     		beq	.L221
1185:../../Drivers/STM32H7xx_HAL_Driver/Src/stm32h7xx_hal_rcc.c ****     {
 2759              		.loc 1 1185 5 is_stmt 1 view .LVU907
1185:../../Drivers/STM32H7xx_HAL_Driver/Src/stm32h7xx_hal_rcc.c ****     {
 2760              		.loc 1 1185 27 is_stmt 0 view .LVU908
 2761 01f6 A269     		ldr	r2, [r4, #24]
1185:../../Drivers/STM32H7xx_HAL_Driver/Src/stm32h7xx_hal_rcc.c ****     {
 2762              		.loc 1 1185 51 view .LVU909
 2763 01f8 214B     		ldr	r3, .L239+4
 2764 01fa DB69     		ldr	r3, [r3, #28]
1185:../../Drivers/STM32H7xx_HAL_Driver/Src/stm32h7xx_hal_rcc.c ****     {
 2765              		.loc 1 1185 60 view .LVU910
 2766 01fc 03F4E063 		and	r3, r3, #1792
1185:../../Drivers/STM32H7xx_HAL_Driver/Src/stm32h7xx_hal_rcc.c ****     {
 2767              		.loc 1 1185 8 view .LVU911
 2768 0200 9A42     		cmp	r2, r3
 2769 0202 05D2     		bcs	.L221
1187:../../Drivers/STM32H7xx_HAL_Driver/Src/stm32h7xx_hal_rcc.c ****       MODIFY_REG(RCC->D2CFGR, RCC_D2CFGR_D2PPRE2, (RCC_ClkInitStruct->APB2CLKDivider));
 2770              		.loc 1 1187 7 is_stmt 1 view .LVU912
1188:../../Drivers/STM32H7xx_HAL_Driver/Src/stm32h7xx_hal_rcc.c ****     }
 2771              		.loc 1 1188 7 view .LVU913
 2772 0204 1E49     		ldr	r1, .L239+4
 2773 0206 CB69     		ldr	r3, [r1, #28]
 2774 0208 23F4E063 		bic	r3, r3, #1792
 2775 020c 1A43     		orrs	r2, r2, r3
 2776 020e CA61     		str	r2, [r1, #28]
 2777              	.L221:
1200:../../Drivers/STM32H7xx_HAL_Driver/Src/stm32h7xx_hal_rcc.c ****   {
 2778              		.loc 1 1200 3 view .LVU914
1200:../../Drivers/STM32H7xx_HAL_Driver/Src/stm32h7xx_hal_rcc.c ****   {
 2779              		.loc 1 1200 26 is_stmt 0 view .LVU915
 2780 0210 2368     		ldr	r3, [r4]
1200:../../Drivers/STM32H7xx_HAL_Driver/Src/stm32h7xx_hal_rcc.c ****   {
 2781              		.loc 1 1200 6 view .LVU916
 2782 0212 13F0200F 		tst	r3, #32
 2783 0216 0CD0     		beq	.L222
1203:../../Drivers/STM32H7xx_HAL_Driver/Src/stm32h7xx_hal_rcc.c ****     {
 2784              		.loc 1 1203 5 is_stmt 1 view .LVU917
1203:../../Drivers/STM32H7xx_HAL_Driver/Src/stm32h7xx_hal_rcc.c ****     {
 2785              		.loc 1 1203 27 is_stmt 0 view .LVU918
 2786 0218 E269     		ldr	r2, [r4, #28]
1203:../../Drivers/STM32H7xx_HAL_Driver/Src/stm32h7xx_hal_rcc.c ****     {
 2787              		.loc 1 1203 51 view .LVU919
 2788 021a 194B     		ldr	r3, .L239+4
 2789 021c 1B6A     		ldr	r3, [r3, #32]
1203:../../Drivers/STM32H7xx_HAL_Driver/Src/stm32h7xx_hal_rcc.c ****     {
 2790              		.loc 1 1203 60 view .LVU920
 2791 021e 03F07003 		and	r3, r3, #112
1203:../../Drivers/STM32H7xx_HAL_Driver/Src/stm32h7xx_hal_rcc.c ****     {
 2792              		.loc 1 1203 8 view .LVU921
ARM GAS  /tmp/ccooDZtA.s 			page 85


 2793 0222 9A42     		cmp	r2, r3
 2794 0224 05D2     		bcs	.L222
1205:../../Drivers/STM32H7xx_HAL_Driver/Src/stm32h7xx_hal_rcc.c ****       MODIFY_REG(RCC->D3CFGR, RCC_D3CFGR_D3PPRE, (RCC_ClkInitStruct->APB4CLKDivider));
 2795              		.loc 1 1205 7 is_stmt 1 view .LVU922
1206:../../Drivers/STM32H7xx_HAL_Driver/Src/stm32h7xx_hal_rcc.c ****     }
 2796              		.loc 1 1206 7 view .LVU923
 2797 0226 1649     		ldr	r1, .L239+4
 2798 0228 0B6A     		ldr	r3, [r1, #32]
 2799 022a 23F07003 		bic	r3, r3, #112
 2800 022e 1A43     		orrs	r2, r2, r3
 2801 0230 0A62     		str	r2, [r1, #32]
 2802              	.L222:
1219:../../Drivers/STM32H7xx_HAL_Driver/Src/stm32h7xx_hal_rcc.c **** #else
 2803              		.loc 1 1219 3 view .LVU924
1219:../../Drivers/STM32H7xx_HAL_Driver/Src/stm32h7xx_hal_rcc.c **** #else
 2804              		.loc 1 1219 25 is_stmt 0 view .LVU925
 2805 0232 FFF7FEFF 		bl	HAL_RCC_GetSysClockFreq
 2806              	.LVL198:
1219:../../Drivers/STM32H7xx_HAL_Driver/Src/stm32h7xx_hal_rcc.c **** #else
 2807              		.loc 1 1219 77 view .LVU926
 2808 0236 1249     		ldr	r1, .L239+4
 2809 0238 8B69     		ldr	r3, [r1, #24]
1219:../../Drivers/STM32H7xx_HAL_Driver/Src/stm32h7xx_hal_rcc.c **** #else
 2810              		.loc 1 1219 107 view .LVU927
 2811 023a C3F30323 		ubfx	r3, r3, #8, #4
1219:../../Drivers/STM32H7xx_HAL_Driver/Src/stm32h7xx_hal_rcc.c **** #else
 2812              		.loc 1 1219 72 view .LVU928
 2813 023e 114A     		ldr	r2, .L239+8
 2814 0240 D35C     		ldrb	r3, [r2, r3]	@ zero_extendqisi2
1219:../../Drivers/STM32H7xx_HAL_Driver/Src/stm32h7xx_hal_rcc.c **** #else
 2815              		.loc 1 1219 134 view .LVU929
 2816 0242 03F01F03 		and	r3, r3, #31
1219:../../Drivers/STM32H7xx_HAL_Driver/Src/stm32h7xx_hal_rcc.c **** #else
 2817              		.loc 1 1219 23 view .LVU930
 2818 0246 D840     		lsrs	r0, r0, r3
 2819              	.LVL199:
1225:../../Drivers/STM32H7xx_HAL_Driver/Src/stm32h7xx_hal_rcc.c **** #else
 2820              		.loc 1 1225 3 is_stmt 1 view .LVU931
1225:../../Drivers/STM32H7xx_HAL_Driver/Src/stm32h7xx_hal_rcc.c **** #else
 2821              		.loc 1 1225 66 is_stmt 0 view .LVU932
 2822 0248 8B69     		ldr	r3, [r1, #24]
1225:../../Drivers/STM32H7xx_HAL_Driver/Src/stm32h7xx_hal_rcc.c **** #else
 2823              		.loc 1 1225 94 view .LVU933
 2824 024a 03F00F03 		and	r3, r3, #15
1225:../../Drivers/STM32H7xx_HAL_Driver/Src/stm32h7xx_hal_rcc.c **** #else
 2825              		.loc 1 1225 61 view .LVU934
 2826 024e D35C     		ldrb	r3, [r2, r3]	@ zero_extendqisi2
1225:../../Drivers/STM32H7xx_HAL_Driver/Src/stm32h7xx_hal_rcc.c **** #else
 2827              		.loc 1 1225 119 view .LVU935
 2828 0250 03F01F03 		and	r3, r3, #31
1225:../../Drivers/STM32H7xx_HAL_Driver/Src/stm32h7xx_hal_rcc.c **** #else
 2829              		.loc 1 1225 40 view .LVU936
 2830 0254 20FA03F3 		lsr	r3, r0, r3
1225:../../Drivers/STM32H7xx_HAL_Driver/Src/stm32h7xx_hal_rcc.c **** #else
 2831              		.loc 1 1225 17 view .LVU937
 2832 0258 0B4A     		ldr	r2, .L239+12
 2833 025a 1360     		str	r3, [r2]
ARM GAS  /tmp/ccooDZtA.s 			page 86


1233:../../Drivers/STM32H7xx_HAL_Driver/Src/stm32h7xx_hal_rcc.c **** #endif /* DUAL_CORE && CORE_CM4 */
 2834              		.loc 1 1233 3 is_stmt 1 view .LVU938
1233:../../Drivers/STM32H7xx_HAL_Driver/Src/stm32h7xx_hal_rcc.c **** #endif /* DUAL_CORE && CORE_CM4 */
 2835              		.loc 1 1233 19 is_stmt 0 view .LVU939
 2836 025c 0B4B     		ldr	r3, .L239+16
 2837 025e 1860     		str	r0, [r3]
1237:../../Drivers/STM32H7xx_HAL_Driver/Src/stm32h7xx_hal_rcc.c **** 
 2838              		.loc 1 1237 3 is_stmt 1 view .LVU940
1237:../../Drivers/STM32H7xx_HAL_Driver/Src/stm32h7xx_hal_rcc.c **** 
 2839              		.loc 1 1237 15 is_stmt 0 view .LVU941
 2840 0260 0B4B     		ldr	r3, .L239+20
 2841 0262 1868     		ldr	r0, [r3]
 2842              	.LVL200:
1237:../../Drivers/STM32H7xx_HAL_Driver/Src/stm32h7xx_hal_rcc.c **** 
 2843              		.loc 1 1237 15 view .LVU942
 2844 0264 FFF7FEFF 		bl	HAL_InitTick
 2845              	.LVL201:
1239:../../Drivers/STM32H7xx_HAL_Driver/Src/stm32h7xx_hal_rcc.c **** }
 2846              		.loc 1 1239 3 is_stmt 1 view .LVU943
 2847              	.L203:
1240:../../Drivers/STM32H7xx_HAL_Driver/Src/stm32h7xx_hal_rcc.c **** 
 2848              		.loc 1 1240 1 is_stmt 0 view .LVU944
 2849 0268 70BD     		pop	{r4, r5, r6, pc}
 2850              	.LVL202:
 2851              	.L223:
 2852              	.LCFI13:
 2853              		.cfi_def_cfa_offset 0
 2854              		.cfi_restore 4
 2855              		.cfi_restore 5
 2856              		.cfi_restore 6
 2857              		.cfi_restore 14
 931:../../Drivers/STM32H7xx_HAL_Driver/Src/stm32h7xx_hal_rcc.c ****   }
 2858              		.loc 1 931 12 view .LVU945
 2859 026a 0120     		movs	r0, #1
 2860              	.LVL203:
1240:../../Drivers/STM32H7xx_HAL_Driver/Src/stm32h7xx_hal_rcc.c **** 
 2861              		.loc 1 1240 1 view .LVU946
 2862 026c 7047     		bx	lr
 2863              	.LVL204:
 2864              	.L224:
 2865              	.LCFI14:
 2866              		.cfi_def_cfa_offset 16
 2867              		.cfi_offset 4, -16
 2868              		.cfi_offset 5, -12
 2869              		.cfi_offset 6, -8
 2870              		.cfi_offset 14, -4
 952:../../Drivers/STM32H7xx_HAL_Driver/Src/stm32h7xx_hal_rcc.c ****     }
 2871              		.loc 1 952 14 view .LVU947
 2872 026e 0120     		movs	r0, #1
 2873              	.LVL205:
 952:../../Drivers/STM32H7xx_HAL_Driver/Src/stm32h7xx_hal_rcc.c ****     }
 2874              		.loc 1 952 14 view .LVU948
 2875 0270 FAE7     		b	.L203
 2876              	.LVL206:
 2877              	.L238:
1065:../../Drivers/STM32H7xx_HAL_Driver/Src/stm32h7xx_hal_rcc.c ****       }
 2878              		.loc 1 1065 16 view .LVU949
ARM GAS  /tmp/ccooDZtA.s 			page 87


 2879 0272 0120     		movs	r0, #1
 2880              	.LVL207:
1065:../../Drivers/STM32H7xx_HAL_Driver/Src/stm32h7xx_hal_rcc.c ****       }
 2881              		.loc 1 1065 16 view .LVU950
 2882 0274 F8E7     		b	.L203
 2883              	.L230:
1141:../../Drivers/STM32H7xx_HAL_Driver/Src/stm32h7xx_hal_rcc.c ****     }
 2884              		.loc 1 1141 14 view .LVU951
 2885 0276 0120     		movs	r0, #1
 2886 0278 F6E7     		b	.L203
 2887              	.L240:
 2888 027a 00BF     		.align	2
 2889              	.L239:
 2890 027c 00200052 		.word	1375739904
 2891 0280 00440258 		.word	1476543488
 2892 0284 00000000 		.word	D1CorePrescTable
 2893 0288 00000000 		.word	SystemD2Clock
 2894 028c 00000000 		.word	SystemCoreClock
 2895 0290 00000000 		.word	uwTickPrio
 2896              		.cfi_endproc
 2897              	.LFE146:
 2899              		.section	.text.HAL_RCC_GetHCLKFreq,"ax",%progbits
 2900              		.align	1
 2901              		.global	HAL_RCC_GetHCLKFreq
 2902              		.syntax unified
 2903              		.thumb
 2904              		.thumb_func
 2905              		.fpu fpv5-d16
 2907              	HAL_RCC_GetHCLKFreq:
 2908              	.LFB151:
1474:../../Drivers/STM32H7xx_HAL_Driver/Src/stm32h7xx_hal_rcc.c **** 
1475:../../Drivers/STM32H7xx_HAL_Driver/Src/stm32h7xx_hal_rcc.c **** 
1476:../../Drivers/STM32H7xx_HAL_Driver/Src/stm32h7xx_hal_rcc.c **** /**
1477:../../Drivers/STM32H7xx_HAL_Driver/Src/stm32h7xx_hal_rcc.c ****   * @brief  Returns the HCLK frequency
1478:../../Drivers/STM32H7xx_HAL_Driver/Src/stm32h7xx_hal_rcc.c ****   * @note   Each time HCLK changes, this function must be called to update the
1479:../../Drivers/STM32H7xx_HAL_Driver/Src/stm32h7xx_hal_rcc.c ****   *         right HCLK value. Otherwise, any configuration based on this function will be incorrect
1480:../../Drivers/STM32H7xx_HAL_Driver/Src/stm32h7xx_hal_rcc.c ****   *
1481:../../Drivers/STM32H7xx_HAL_Driver/Src/stm32h7xx_hal_rcc.c ****   * @note   The SystemD2Clock CMSIS variable is used to store System domain2 Clock Frequency
1482:../../Drivers/STM32H7xx_HAL_Driver/Src/stm32h7xx_hal_rcc.c ****   *         and updated within this function
1483:../../Drivers/STM32H7xx_HAL_Driver/Src/stm32h7xx_hal_rcc.c ****   * @retval HCLK frequency
1484:../../Drivers/STM32H7xx_HAL_Driver/Src/stm32h7xx_hal_rcc.c ****   */
1485:../../Drivers/STM32H7xx_HAL_Driver/Src/stm32h7xx_hal_rcc.c **** uint32_t HAL_RCC_GetHCLKFreq(void)
1486:../../Drivers/STM32H7xx_HAL_Driver/Src/stm32h7xx_hal_rcc.c **** {
 2909              		.loc 1 1486 1 is_stmt 1 view -0
 2910              		.cfi_startproc
 2911              		@ args = 0, pretend = 0, frame = 0
 2912              		@ frame_needed = 0, uses_anonymous_args = 0
 2913 0000 08B5     		push	{r3, lr}
 2914              	.LCFI15:
 2915              		.cfi_def_cfa_offset 8
 2916              		.cfi_offset 3, -8
 2917              		.cfi_offset 14, -4
1487:../../Drivers/STM32H7xx_HAL_Driver/Src/stm32h7xx_hal_rcc.c ****   uint32_t common_system_clock;
 2918              		.loc 1 1487 3 view .LVU953
1488:../../Drivers/STM32H7xx_HAL_Driver/Src/stm32h7xx_hal_rcc.c **** 
1489:../../Drivers/STM32H7xx_HAL_Driver/Src/stm32h7xx_hal_rcc.c **** #if defined(RCC_D1CFGR_D1CPRE)
1490:../../Drivers/STM32H7xx_HAL_Driver/Src/stm32h7xx_hal_rcc.c ****   common_system_clock = HAL_RCC_GetSysClockFreq() >> (D1CorePrescTable[(RCC->D1CFGR & RCC_D1CFGR_D1
ARM GAS  /tmp/ccooDZtA.s 			page 88


 2919              		.loc 1 1490 3 view .LVU954
 2920              		.loc 1 1490 25 is_stmt 0 view .LVU955
 2921 0002 FFF7FEFF 		bl	HAL_RCC_GetSysClockFreq
 2922              	.LVL208:
 2923              		.loc 1 1490 76 view .LVU956
 2924 0006 0B4A     		ldr	r2, .L243
 2925 0008 9369     		ldr	r3, [r2, #24]
 2926              		.loc 1 1490 106 view .LVU957
 2927 000a C3F30323 		ubfx	r3, r3, #8, #4
 2928              		.loc 1 1490 71 view .LVU958
 2929 000e 0A49     		ldr	r1, .L243+4
 2930 0010 CB5C     		ldrb	r3, [r1, r3]	@ zero_extendqisi2
 2931              		.loc 1 1490 132 view .LVU959
 2932 0012 03F01F03 		and	r3, r3, #31
 2933              		.loc 1 1490 23 view .LVU960
 2934 0016 20FA03F3 		lsr	r3, r0, r3
 2935              	.LVL209:
1491:../../Drivers/STM32H7xx_HAL_Driver/Src/stm32h7xx_hal_rcc.c **** #else
1492:../../Drivers/STM32H7xx_HAL_Driver/Src/stm32h7xx_hal_rcc.c ****   common_system_clock = HAL_RCC_GetSysClockFreq() >> (D1CorePrescTable[(RCC->CDCFGR1 & RCC_CDCFGR1_
1493:../../Drivers/STM32H7xx_HAL_Driver/Src/stm32h7xx_hal_rcc.c **** #endif
1494:../../Drivers/STM32H7xx_HAL_Driver/Src/stm32h7xx_hal_rcc.c **** 
1495:../../Drivers/STM32H7xx_HAL_Driver/Src/stm32h7xx_hal_rcc.c **** #if defined(RCC_D1CFGR_HPRE)
1496:../../Drivers/STM32H7xx_HAL_Driver/Src/stm32h7xx_hal_rcc.c ****   SystemD2Clock = (common_system_clock >> ((D1CorePrescTable[(RCC->D1CFGR & RCC_D1CFGR_HPRE) >> RCC
 2936              		.loc 1 1496 3 is_stmt 1 view .LVU961
 2937              		.loc 1 1496 66 is_stmt 0 view .LVU962
 2938 001a 9269     		ldr	r2, [r2, #24]
 2939              		.loc 1 1496 94 view .LVU963
 2940 001c 02F00F02 		and	r2, r2, #15
 2941              		.loc 1 1496 61 view .LVU964
 2942 0020 885C     		ldrb	r0, [r1, r2]	@ zero_extendqisi2
 2943              		.loc 1 1496 119 view .LVU965
 2944 0022 00F01F00 		and	r0, r0, #31
 2945              		.loc 1 1496 40 view .LVU966
 2946 0026 23FA00F0 		lsr	r0, r3, r0
 2947              		.loc 1 1496 17 view .LVU967
 2948 002a 044A     		ldr	r2, .L243+8
 2949 002c 1060     		str	r0, [r2]
1497:../../Drivers/STM32H7xx_HAL_Driver/Src/stm32h7xx_hal_rcc.c **** #else
1498:../../Drivers/STM32H7xx_HAL_Driver/Src/stm32h7xx_hal_rcc.c ****   SystemD2Clock = (common_system_clock >> ((D1CorePrescTable[(RCC->CDCFGR1 & RCC_CDCFGR1_HPRE) >> R
1499:../../Drivers/STM32H7xx_HAL_Driver/Src/stm32h7xx_hal_rcc.c **** #endif
1500:../../Drivers/STM32H7xx_HAL_Driver/Src/stm32h7xx_hal_rcc.c **** 
1501:../../Drivers/STM32H7xx_HAL_Driver/Src/stm32h7xx_hal_rcc.c **** #if defined(DUAL_CORE) && defined(CORE_CM4)
1502:../../Drivers/STM32H7xx_HAL_Driver/Src/stm32h7xx_hal_rcc.c ****   SystemCoreClock = SystemD2Clock;
1503:../../Drivers/STM32H7xx_HAL_Driver/Src/stm32h7xx_hal_rcc.c **** #else
1504:../../Drivers/STM32H7xx_HAL_Driver/Src/stm32h7xx_hal_rcc.c ****   SystemCoreClock = common_system_clock;
 2950              		.loc 1 1504 3 is_stmt 1 view .LVU968
 2951              		.loc 1 1504 19 is_stmt 0 view .LVU969
 2952 002e 044A     		ldr	r2, .L243+12
 2953 0030 1360     		str	r3, [r2]
1505:../../Drivers/STM32H7xx_HAL_Driver/Src/stm32h7xx_hal_rcc.c **** #endif /* DUAL_CORE && CORE_CM4 */
1506:../../Drivers/STM32H7xx_HAL_Driver/Src/stm32h7xx_hal_rcc.c **** 
1507:../../Drivers/STM32H7xx_HAL_Driver/Src/stm32h7xx_hal_rcc.c ****   return SystemD2Clock;
 2954              		.loc 1 1507 3 is_stmt 1 view .LVU970
1508:../../Drivers/STM32H7xx_HAL_Driver/Src/stm32h7xx_hal_rcc.c **** }
 2955              		.loc 1 1508 1 is_stmt 0 view .LVU971
 2956 0032 08BD     		pop	{r3, pc}
 2957              	.LVL210:
ARM GAS  /tmp/ccooDZtA.s 			page 89


 2958              	.L244:
 2959              		.loc 1 1508 1 view .LVU972
 2960              		.align	2
 2961              	.L243:
 2962 0034 00440258 		.word	1476543488
 2963 0038 00000000 		.word	D1CorePrescTable
 2964 003c 00000000 		.word	SystemD2Clock
 2965 0040 00000000 		.word	SystemCoreClock
 2966              		.cfi_endproc
 2967              	.LFE151:
 2969              		.section	.text.HAL_RCC_GetPCLK1Freq,"ax",%progbits
 2970              		.align	1
 2971              		.global	HAL_RCC_GetPCLK1Freq
 2972              		.syntax unified
 2973              		.thumb
 2974              		.thumb_func
 2975              		.fpu fpv5-d16
 2977              	HAL_RCC_GetPCLK1Freq:
 2978              	.LFB152:
1509:../../Drivers/STM32H7xx_HAL_Driver/Src/stm32h7xx_hal_rcc.c **** 
1510:../../Drivers/STM32H7xx_HAL_Driver/Src/stm32h7xx_hal_rcc.c **** 
1511:../../Drivers/STM32H7xx_HAL_Driver/Src/stm32h7xx_hal_rcc.c **** /**
1512:../../Drivers/STM32H7xx_HAL_Driver/Src/stm32h7xx_hal_rcc.c ****   * @brief  Returns the PCLK1 frequency
1513:../../Drivers/STM32H7xx_HAL_Driver/Src/stm32h7xx_hal_rcc.c ****   * @note   Each time PCLK1 changes, this function must be called to update the
1514:../../Drivers/STM32H7xx_HAL_Driver/Src/stm32h7xx_hal_rcc.c ****   *         right PCLK1 value. Otherwise, any configuration based on this function will be incorrec
1515:../../Drivers/STM32H7xx_HAL_Driver/Src/stm32h7xx_hal_rcc.c ****   * @retval PCLK1 frequency
1516:../../Drivers/STM32H7xx_HAL_Driver/Src/stm32h7xx_hal_rcc.c ****   */
1517:../../Drivers/STM32H7xx_HAL_Driver/Src/stm32h7xx_hal_rcc.c **** uint32_t HAL_RCC_GetPCLK1Freq(void)
1518:../../Drivers/STM32H7xx_HAL_Driver/Src/stm32h7xx_hal_rcc.c **** {
 2979              		.loc 1 1518 1 is_stmt 1 view -0
 2980              		.cfi_startproc
 2981              		@ args = 0, pretend = 0, frame = 0
 2982              		@ frame_needed = 0, uses_anonymous_args = 0
 2983 0000 08B5     		push	{r3, lr}
 2984              	.LCFI16:
 2985              		.cfi_def_cfa_offset 8
 2986              		.cfi_offset 3, -8
 2987              		.cfi_offset 14, -4
1519:../../Drivers/STM32H7xx_HAL_Driver/Src/stm32h7xx_hal_rcc.c **** #if defined (RCC_D2CFGR_D2PPRE1)
1520:../../Drivers/STM32H7xx_HAL_Driver/Src/stm32h7xx_hal_rcc.c ****   /* Get HCLK source and Compute PCLK1 frequency ---------------------------*/
1521:../../Drivers/STM32H7xx_HAL_Driver/Src/stm32h7xx_hal_rcc.c ****   return (HAL_RCC_GetHCLKFreq() >> ((D1CorePrescTable[(RCC->D2CFGR & RCC_D2CFGR_D2PPRE1) >> RCC_D2C
 2988              		.loc 1 1521 3 view .LVU974
 2989              		.loc 1 1521 11 is_stmt 0 view .LVU975
 2990 0002 FFF7FEFF 		bl	HAL_RCC_GetHCLKFreq
 2991              	.LVL211:
 2992              		.loc 1 1521 59 view .LVU976
 2993 0006 054B     		ldr	r3, .L247
 2994 0008 DB69     		ldr	r3, [r3, #28]
 2995              		.loc 1 1521 90 view .LVU977
 2996 000a C3F30213 		ubfx	r3, r3, #4, #3
 2997              		.loc 1 1521 54 view .LVU978
 2998 000e 044A     		ldr	r2, .L247+4
 2999 0010 D35C     		ldrb	r3, [r2, r3]	@ zero_extendqisi2
 3000              		.loc 1 1521 118 view .LVU979
 3001 0012 03F01F03 		and	r3, r3, #31
1522:../../Drivers/STM32H7xx_HAL_Driver/Src/stm32h7xx_hal_rcc.c **** #else
1523:../../Drivers/STM32H7xx_HAL_Driver/Src/stm32h7xx_hal_rcc.c ****   /* Get HCLK source and Compute PCLK1 frequency ---------------------------*/
ARM GAS  /tmp/ccooDZtA.s 			page 90


1524:../../Drivers/STM32H7xx_HAL_Driver/Src/stm32h7xx_hal_rcc.c ****   return (HAL_RCC_GetHCLKFreq() >> ((D1CorePrescTable[(RCC->CDCFGR2 & RCC_CDCFGR2_CDPPRE1) >> RCC_C
1525:../../Drivers/STM32H7xx_HAL_Driver/Src/stm32h7xx_hal_rcc.c **** #endif
1526:../../Drivers/STM32H7xx_HAL_Driver/Src/stm32h7xx_hal_rcc.c **** }
 3002              		.loc 1 1526 1 view .LVU980
 3003 0016 D840     		lsrs	r0, r0, r3
 3004 0018 08BD     		pop	{r3, pc}
 3005              	.L248:
 3006 001a 00BF     		.align	2
 3007              	.L247:
 3008 001c 00440258 		.word	1476543488
 3009 0020 00000000 		.word	D1CorePrescTable
 3010              		.cfi_endproc
 3011              	.LFE152:
 3013              		.section	.text.HAL_RCC_GetPCLK2Freq,"ax",%progbits
 3014              		.align	1
 3015              		.global	HAL_RCC_GetPCLK2Freq
 3016              		.syntax unified
 3017              		.thumb
 3018              		.thumb_func
 3019              		.fpu fpv5-d16
 3021              	HAL_RCC_GetPCLK2Freq:
 3022              	.LFB153:
1527:../../Drivers/STM32H7xx_HAL_Driver/Src/stm32h7xx_hal_rcc.c **** 
1528:../../Drivers/STM32H7xx_HAL_Driver/Src/stm32h7xx_hal_rcc.c **** 
1529:../../Drivers/STM32H7xx_HAL_Driver/Src/stm32h7xx_hal_rcc.c **** /**
1530:../../Drivers/STM32H7xx_HAL_Driver/Src/stm32h7xx_hal_rcc.c ****   * @brief  Returns the D2 PCLK2 frequency
1531:../../Drivers/STM32H7xx_HAL_Driver/Src/stm32h7xx_hal_rcc.c ****   * @note   Each time PCLK2 changes, this function must be called to update the
1532:../../Drivers/STM32H7xx_HAL_Driver/Src/stm32h7xx_hal_rcc.c ****   *         right PCLK2 value. Otherwise, any configuration based on this function will be incorrec
1533:../../Drivers/STM32H7xx_HAL_Driver/Src/stm32h7xx_hal_rcc.c ****   * @retval PCLK1 frequency
1534:../../Drivers/STM32H7xx_HAL_Driver/Src/stm32h7xx_hal_rcc.c ****   */
1535:../../Drivers/STM32H7xx_HAL_Driver/Src/stm32h7xx_hal_rcc.c **** uint32_t HAL_RCC_GetPCLK2Freq(void)
1536:../../Drivers/STM32H7xx_HAL_Driver/Src/stm32h7xx_hal_rcc.c **** {
 3023              		.loc 1 1536 1 is_stmt 1 view -0
 3024              		.cfi_startproc
 3025              		@ args = 0, pretend = 0, frame = 0
 3026              		@ frame_needed = 0, uses_anonymous_args = 0
 3027 0000 08B5     		push	{r3, lr}
 3028              	.LCFI17:
 3029              		.cfi_def_cfa_offset 8
 3030              		.cfi_offset 3, -8
 3031              		.cfi_offset 14, -4
1537:../../Drivers/STM32H7xx_HAL_Driver/Src/stm32h7xx_hal_rcc.c ****   /* Get HCLK source and Compute PCLK1 frequency ---------------------------*/
1538:../../Drivers/STM32H7xx_HAL_Driver/Src/stm32h7xx_hal_rcc.c **** #if defined(RCC_D2CFGR_D2PPRE2)
1539:../../Drivers/STM32H7xx_HAL_Driver/Src/stm32h7xx_hal_rcc.c ****   return (HAL_RCC_GetHCLKFreq() >> ((D1CorePrescTable[(RCC->D2CFGR & RCC_D2CFGR_D2PPRE2) >> RCC_D2C
 3032              		.loc 1 1539 3 view .LVU982
 3033              		.loc 1 1539 11 is_stmt 0 view .LVU983
 3034 0002 FFF7FEFF 		bl	HAL_RCC_GetHCLKFreq
 3035              	.LVL212:
 3036              		.loc 1 1539 59 view .LVU984
 3037 0006 054B     		ldr	r3, .L251
 3038 0008 DB69     		ldr	r3, [r3, #28]
 3039              		.loc 1 1539 90 view .LVU985
 3040 000a C3F30223 		ubfx	r3, r3, #8, #3
 3041              		.loc 1 1539 54 view .LVU986
 3042 000e 044A     		ldr	r2, .L251+4
 3043 0010 D35C     		ldrb	r3, [r2, r3]	@ zero_extendqisi2
 3044              		.loc 1 1539 118 view .LVU987
ARM GAS  /tmp/ccooDZtA.s 			page 91


 3045 0012 03F01F03 		and	r3, r3, #31
1540:../../Drivers/STM32H7xx_HAL_Driver/Src/stm32h7xx_hal_rcc.c **** #else
1541:../../Drivers/STM32H7xx_HAL_Driver/Src/stm32h7xx_hal_rcc.c ****   return (HAL_RCC_GetHCLKFreq() >> ((D1CorePrescTable[(RCC->CDCFGR2 & RCC_CDCFGR2_CDPPRE2) >> RCC_C
1542:../../Drivers/STM32H7xx_HAL_Driver/Src/stm32h7xx_hal_rcc.c **** #endif
1543:../../Drivers/STM32H7xx_HAL_Driver/Src/stm32h7xx_hal_rcc.c **** }
 3046              		.loc 1 1543 1 view .LVU988
 3047 0016 D840     		lsrs	r0, r0, r3
 3048 0018 08BD     		pop	{r3, pc}
 3049              	.L252:
 3050 001a 00BF     		.align	2
 3051              	.L251:
 3052 001c 00440258 		.word	1476543488
 3053 0020 00000000 		.word	D1CorePrescTable
 3054              		.cfi_endproc
 3055              	.LFE153:
 3057              		.section	.text.HAL_RCC_GetOscConfig,"ax",%progbits
 3058              		.align	1
 3059              		.global	HAL_RCC_GetOscConfig
 3060              		.syntax unified
 3061              		.thumb
 3062              		.thumb_func
 3063              		.fpu fpv5-d16
 3065              	HAL_RCC_GetOscConfig:
 3066              	.LVL213:
 3067              	.LFB154:
1544:../../Drivers/STM32H7xx_HAL_Driver/Src/stm32h7xx_hal_rcc.c **** 
1545:../../Drivers/STM32H7xx_HAL_Driver/Src/stm32h7xx_hal_rcc.c **** /**
1546:../../Drivers/STM32H7xx_HAL_Driver/Src/stm32h7xx_hal_rcc.c ****   * @brief  Configures the RCC_OscInitStruct according to the internal
1547:../../Drivers/STM32H7xx_HAL_Driver/Src/stm32h7xx_hal_rcc.c ****   * RCC configuration registers.
1548:../../Drivers/STM32H7xx_HAL_Driver/Src/stm32h7xx_hal_rcc.c ****   * @param  RCC_OscInitStruct: pointer to an RCC_OscInitTypeDef structure that
1549:../../Drivers/STM32H7xx_HAL_Driver/Src/stm32h7xx_hal_rcc.c ****   * will be configured.
1550:../../Drivers/STM32H7xx_HAL_Driver/Src/stm32h7xx_hal_rcc.c ****   * @retval None
1551:../../Drivers/STM32H7xx_HAL_Driver/Src/stm32h7xx_hal_rcc.c ****   */
1552:../../Drivers/STM32H7xx_HAL_Driver/Src/stm32h7xx_hal_rcc.c **** void HAL_RCC_GetOscConfig(RCC_OscInitTypeDef  *RCC_OscInitStruct)
1553:../../Drivers/STM32H7xx_HAL_Driver/Src/stm32h7xx_hal_rcc.c **** {
 3068              		.loc 1 1553 1 is_stmt 1 view -0
 3069              		.cfi_startproc
 3070              		@ args = 0, pretend = 0, frame = 0
 3071              		@ frame_needed = 0, uses_anonymous_args = 0
 3072              		.loc 1 1553 1 is_stmt 0 view .LVU990
 3073 0000 10B5     		push	{r4, lr}
 3074              	.LCFI18:
 3075              		.cfi_def_cfa_offset 8
 3076              		.cfi_offset 4, -8
 3077              		.cfi_offset 14, -4
 3078 0002 0446     		mov	r4, r0
1554:../../Drivers/STM32H7xx_HAL_Driver/Src/stm32h7xx_hal_rcc.c ****   /* Set all possible values for the Oscillator type parameter ---------------*/
1555:../../Drivers/STM32H7xx_HAL_Driver/Src/stm32h7xx_hal_rcc.c ****   RCC_OscInitStruct->OscillatorType = RCC_OSCILLATORTYPE_HSE | RCC_OSCILLATORTYPE_HSI | RCC_OSCILLA
 3079              		.loc 1 1555 3 is_stmt 1 view .LVU991
 3080              		.loc 1 1555 37 is_stmt 0 view .LVU992
 3081 0004 3F23     		movs	r3, #63
 3082 0006 0360     		str	r3, [r0]
1556:../../Drivers/STM32H7xx_HAL_Driver/Src/stm32h7xx_hal_rcc.c ****                                       RCC_OSCILLATORTYPE_LSE | RCC_OSCILLATORTYPE_LSI | RCC_OSCILLA
1557:../../Drivers/STM32H7xx_HAL_Driver/Src/stm32h7xx_hal_rcc.c **** 
1558:../../Drivers/STM32H7xx_HAL_Driver/Src/stm32h7xx_hal_rcc.c ****   /* Get the HSE configuration -----------------------------------------------*/
1559:../../Drivers/STM32H7xx_HAL_Driver/Src/stm32h7xx_hal_rcc.c **** #if defined(RCC_CR_HSEEXT)
1560:../../Drivers/STM32H7xx_HAL_Driver/Src/stm32h7xx_hal_rcc.c ****   if ((RCC->CR & (RCC_CR_HSEBYP | RCC_CR_HSEEXT)) == RCC_CR_HSEBYP)
ARM GAS  /tmp/ccooDZtA.s 			page 92


1561:../../Drivers/STM32H7xx_HAL_Driver/Src/stm32h7xx_hal_rcc.c ****   {
1562:../../Drivers/STM32H7xx_HAL_Driver/Src/stm32h7xx_hal_rcc.c ****     RCC_OscInitStruct->HSEState = RCC_HSE_BYPASS;
1563:../../Drivers/STM32H7xx_HAL_Driver/Src/stm32h7xx_hal_rcc.c ****   }
1564:../../Drivers/STM32H7xx_HAL_Driver/Src/stm32h7xx_hal_rcc.c ****   else if ((RCC->CR & (RCC_CR_HSEBYP | RCC_CR_HSEEXT)) == (RCC_CR_HSEBYP | RCC_CR_HSEEXT))
1565:../../Drivers/STM32H7xx_HAL_Driver/Src/stm32h7xx_hal_rcc.c ****   {
1566:../../Drivers/STM32H7xx_HAL_Driver/Src/stm32h7xx_hal_rcc.c ****     RCC_OscInitStruct->HSEState = RCC_HSE_BYPASS_DIGITAL;
1567:../../Drivers/STM32H7xx_HAL_Driver/Src/stm32h7xx_hal_rcc.c ****   }
1568:../../Drivers/STM32H7xx_HAL_Driver/Src/stm32h7xx_hal_rcc.c ****   else if ((RCC->CR & RCC_CR_HSEON) == RCC_CR_HSEON)
1569:../../Drivers/STM32H7xx_HAL_Driver/Src/stm32h7xx_hal_rcc.c ****   {
1570:../../Drivers/STM32H7xx_HAL_Driver/Src/stm32h7xx_hal_rcc.c ****     RCC_OscInitStruct->HSEState = RCC_HSE_ON;
1571:../../Drivers/STM32H7xx_HAL_Driver/Src/stm32h7xx_hal_rcc.c ****   }
1572:../../Drivers/STM32H7xx_HAL_Driver/Src/stm32h7xx_hal_rcc.c ****   else
1573:../../Drivers/STM32H7xx_HAL_Driver/Src/stm32h7xx_hal_rcc.c ****   {
1574:../../Drivers/STM32H7xx_HAL_Driver/Src/stm32h7xx_hal_rcc.c ****     RCC_OscInitStruct->HSEState = RCC_HSE_OFF;
1575:../../Drivers/STM32H7xx_HAL_Driver/Src/stm32h7xx_hal_rcc.c ****   }
1576:../../Drivers/STM32H7xx_HAL_Driver/Src/stm32h7xx_hal_rcc.c **** #else
1577:../../Drivers/STM32H7xx_HAL_Driver/Src/stm32h7xx_hal_rcc.c ****   if ((RCC->CR & RCC_CR_HSEBYP) == RCC_CR_HSEBYP)
 3083              		.loc 1 1577 3 is_stmt 1 view .LVU993
 3084              		.loc 1 1577 11 is_stmt 0 view .LVU994
 3085 0008 514B     		ldr	r3, .L275
 3086 000a 1B68     		ldr	r3, [r3]
 3087              		.loc 1 1577 6 view .LVU995
 3088 000c 13F4802F 		tst	r3, #262144
 3089 0010 6CD0     		beq	.L254
1578:../../Drivers/STM32H7xx_HAL_Driver/Src/stm32h7xx_hal_rcc.c ****   {
1579:../../Drivers/STM32H7xx_HAL_Driver/Src/stm32h7xx_hal_rcc.c ****     RCC_OscInitStruct->HSEState = RCC_HSE_BYPASS;
 3090              		.loc 1 1579 5 is_stmt 1 view .LVU996
 3091              		.loc 1 1579 33 is_stmt 0 view .LVU997
 3092 0012 4FF4A023 		mov	r3, #327680
 3093 0016 4360     		str	r3, [r0, #4]
 3094              	.L255:
1580:../../Drivers/STM32H7xx_HAL_Driver/Src/stm32h7xx_hal_rcc.c ****   }
1581:../../Drivers/STM32H7xx_HAL_Driver/Src/stm32h7xx_hal_rcc.c ****   else if ((RCC->CR & RCC_CR_HSEON) == RCC_CR_HSEON)
1582:../../Drivers/STM32H7xx_HAL_Driver/Src/stm32h7xx_hal_rcc.c ****   {
1583:../../Drivers/STM32H7xx_HAL_Driver/Src/stm32h7xx_hal_rcc.c ****     RCC_OscInitStruct->HSEState = RCC_HSE_ON;
1584:../../Drivers/STM32H7xx_HAL_Driver/Src/stm32h7xx_hal_rcc.c ****   }
1585:../../Drivers/STM32H7xx_HAL_Driver/Src/stm32h7xx_hal_rcc.c ****   else
1586:../../Drivers/STM32H7xx_HAL_Driver/Src/stm32h7xx_hal_rcc.c ****   {
1587:../../Drivers/STM32H7xx_HAL_Driver/Src/stm32h7xx_hal_rcc.c ****     RCC_OscInitStruct->HSEState = RCC_HSE_OFF;
1588:../../Drivers/STM32H7xx_HAL_Driver/Src/stm32h7xx_hal_rcc.c ****   }
1589:../../Drivers/STM32H7xx_HAL_Driver/Src/stm32h7xx_hal_rcc.c **** #endif /* RCC_CR_HSEEXT */
1590:../../Drivers/STM32H7xx_HAL_Driver/Src/stm32h7xx_hal_rcc.c **** 
1591:../../Drivers/STM32H7xx_HAL_Driver/Src/stm32h7xx_hal_rcc.c ****   /* Get the CSI configuration -----------------------------------------------*/
1592:../../Drivers/STM32H7xx_HAL_Driver/Src/stm32h7xx_hal_rcc.c ****   if ((RCC->CR & RCC_CR_CSION) == RCC_CR_CSION)
 3095              		.loc 1 1592 3 is_stmt 1 view .LVU998
 3096              		.loc 1 1592 11 is_stmt 0 view .LVU999
 3097 0018 4D4B     		ldr	r3, .L275
 3098 001a 1B68     		ldr	r3, [r3]
 3099              		.loc 1 1592 6 view .LVU1000
 3100 001c 13F0800F 		tst	r3, #128
 3101 0020 70D0     		beq	.L257
1593:../../Drivers/STM32H7xx_HAL_Driver/Src/stm32h7xx_hal_rcc.c ****   {
1594:../../Drivers/STM32H7xx_HAL_Driver/Src/stm32h7xx_hal_rcc.c ****     RCC_OscInitStruct->CSIState = RCC_CSI_ON;
 3102              		.loc 1 1594 5 is_stmt 1 view .LVU1001
 3103              		.loc 1 1594 33 is_stmt 0 view .LVU1002
 3104 0022 8023     		movs	r3, #128
 3105 0024 E361     		str	r3, [r4, #28]
ARM GAS  /tmp/ccooDZtA.s 			page 93


 3106              	.L258:
1595:../../Drivers/STM32H7xx_HAL_Driver/Src/stm32h7xx_hal_rcc.c ****   }
1596:../../Drivers/STM32H7xx_HAL_Driver/Src/stm32h7xx_hal_rcc.c ****   else
1597:../../Drivers/STM32H7xx_HAL_Driver/Src/stm32h7xx_hal_rcc.c ****   {
1598:../../Drivers/STM32H7xx_HAL_Driver/Src/stm32h7xx_hal_rcc.c ****     RCC_OscInitStruct->CSIState = RCC_CSI_OFF;
1599:../../Drivers/STM32H7xx_HAL_Driver/Src/stm32h7xx_hal_rcc.c ****   }
1600:../../Drivers/STM32H7xx_HAL_Driver/Src/stm32h7xx_hal_rcc.c **** 
1601:../../Drivers/STM32H7xx_HAL_Driver/Src/stm32h7xx_hal_rcc.c **** #if defined(RCC_VER_X)
1602:../../Drivers/STM32H7xx_HAL_Driver/Src/stm32h7xx_hal_rcc.c ****   if (HAL_GetREVID() <= REV_ID_Y)
 3107              		.loc 1 1602 3 is_stmt 1 view .LVU1003
 3108              		.loc 1 1602 7 is_stmt 0 view .LVU1004
 3109 0026 FFF7FEFF 		bl	HAL_GetREVID
 3110              	.LVL214:
 3111              		.loc 1 1602 6 view .LVU1005
 3112 002a 41F20303 		movw	r3, #4099
 3113 002e 9842     		cmp	r0, r3
 3114 0030 6BD8     		bhi	.L259
1603:../../Drivers/STM32H7xx_HAL_Driver/Src/stm32h7xx_hal_rcc.c ****   {
1604:../../Drivers/STM32H7xx_HAL_Driver/Src/stm32h7xx_hal_rcc.c ****     RCC_OscInitStruct->CSICalibrationValue = (uint32_t)(READ_BIT(RCC->HSICFGR, HAL_RCC_REV_Y_CSITRI
 3115              		.loc 1 1604 5 is_stmt 1 view .LVU1006
 3116              		.loc 1 1604 57 is_stmt 0 view .LVU1007
 3117 0032 474B     		ldr	r3, .L275
 3118 0034 5B68     		ldr	r3, [r3, #4]
 3119              		.loc 1 1604 46 view .LVU1008
 3120 0036 C3F38463 		ubfx	r3, r3, #26, #5
 3121              		.loc 1 1604 44 view .LVU1009
 3122 003a 2362     		str	r3, [r4, #32]
 3123              	.L260:
1605:../../Drivers/STM32H7xx_HAL_Driver/Src/stm32h7xx_hal_rcc.c ****   }
1606:../../Drivers/STM32H7xx_HAL_Driver/Src/stm32h7xx_hal_rcc.c ****   else
1607:../../Drivers/STM32H7xx_HAL_Driver/Src/stm32h7xx_hal_rcc.c ****   {
1608:../../Drivers/STM32H7xx_HAL_Driver/Src/stm32h7xx_hal_rcc.c ****     RCC_OscInitStruct->CSICalibrationValue = (uint32_t)(READ_BIT(RCC->CSICFGR, RCC_CSICFGR_CSITRIM)
1609:../../Drivers/STM32H7xx_HAL_Driver/Src/stm32h7xx_hal_rcc.c ****   }
1610:../../Drivers/STM32H7xx_HAL_Driver/Src/stm32h7xx_hal_rcc.c **** #else
1611:../../Drivers/STM32H7xx_HAL_Driver/Src/stm32h7xx_hal_rcc.c ****   RCC_OscInitStruct->CSICalibrationValue = (uint32_t)(READ_BIT(RCC->CSICFGR, RCC_CSICFGR_CSITRIM) >
1612:../../Drivers/STM32H7xx_HAL_Driver/Src/stm32h7xx_hal_rcc.c **** #endif /*RCC_VER_X*/
1613:../../Drivers/STM32H7xx_HAL_Driver/Src/stm32h7xx_hal_rcc.c **** 
1614:../../Drivers/STM32H7xx_HAL_Driver/Src/stm32h7xx_hal_rcc.c ****   /* Get the HSI configuration -----------------------------------------------*/
1615:../../Drivers/STM32H7xx_HAL_Driver/Src/stm32h7xx_hal_rcc.c ****   if ((RCC->CR & RCC_CR_HSION) == RCC_CR_HSION)
 3124              		.loc 1 1615 3 is_stmt 1 view .LVU1010
 3125              		.loc 1 1615 11 is_stmt 0 view .LVU1011
 3126 003c 444B     		ldr	r3, .L275
 3127 003e 1B68     		ldr	r3, [r3]
 3128              		.loc 1 1615 6 view .LVU1012
 3129 0040 13F0010F 		tst	r3, #1
 3130 0044 67D0     		beq	.L261
1616:../../Drivers/STM32H7xx_HAL_Driver/Src/stm32h7xx_hal_rcc.c ****   {
1617:../../Drivers/STM32H7xx_HAL_Driver/Src/stm32h7xx_hal_rcc.c ****     RCC_OscInitStruct->HSIState = RCC_HSI_ON;
 3131              		.loc 1 1617 5 is_stmt 1 view .LVU1013
 3132              		.loc 1 1617 33 is_stmt 0 view .LVU1014
 3133 0046 0123     		movs	r3, #1
 3134 0048 E360     		str	r3, [r4, #12]
 3135              	.L262:
1618:../../Drivers/STM32H7xx_HAL_Driver/Src/stm32h7xx_hal_rcc.c ****   }
1619:../../Drivers/STM32H7xx_HAL_Driver/Src/stm32h7xx_hal_rcc.c ****   else
1620:../../Drivers/STM32H7xx_HAL_Driver/Src/stm32h7xx_hal_rcc.c ****   {
1621:../../Drivers/STM32H7xx_HAL_Driver/Src/stm32h7xx_hal_rcc.c ****     RCC_OscInitStruct->HSIState = RCC_HSI_OFF;
ARM GAS  /tmp/ccooDZtA.s 			page 94


1622:../../Drivers/STM32H7xx_HAL_Driver/Src/stm32h7xx_hal_rcc.c ****   }
1623:../../Drivers/STM32H7xx_HAL_Driver/Src/stm32h7xx_hal_rcc.c **** 
1624:../../Drivers/STM32H7xx_HAL_Driver/Src/stm32h7xx_hal_rcc.c **** #if defined(RCC_VER_X)
1625:../../Drivers/STM32H7xx_HAL_Driver/Src/stm32h7xx_hal_rcc.c ****   if (HAL_GetREVID() <= REV_ID_Y)
 3136              		.loc 1 1625 3 is_stmt 1 view .LVU1015
 3137              		.loc 1 1625 7 is_stmt 0 view .LVU1016
 3138 004a FFF7FEFF 		bl	HAL_GetREVID
 3139              	.LVL215:
 3140              		.loc 1 1625 6 view .LVU1017
 3141 004e 41F20303 		movw	r3, #4099
 3142 0052 9842     		cmp	r0, r3
 3143 0054 62D8     		bhi	.L263
1626:../../Drivers/STM32H7xx_HAL_Driver/Src/stm32h7xx_hal_rcc.c ****   {
1627:../../Drivers/STM32H7xx_HAL_Driver/Src/stm32h7xx_hal_rcc.c ****     RCC_OscInitStruct->HSICalibrationValue = (uint32_t)(READ_BIT(RCC->HSICFGR, HAL_RCC_REV_Y_HSITRI
 3144              		.loc 1 1627 5 is_stmt 1 view .LVU1018
 3145              		.loc 1 1627 57 is_stmt 0 view .LVU1019
 3146 0056 3E4B     		ldr	r3, .L275
 3147 0058 5B68     		ldr	r3, [r3, #4]
 3148              		.loc 1 1627 46 view .LVU1020
 3149 005a C3F30533 		ubfx	r3, r3, #12, #6
 3150              		.loc 1 1627 44 view .LVU1021
 3151 005e 2361     		str	r3, [r4, #16]
 3152              	.L264:
1628:../../Drivers/STM32H7xx_HAL_Driver/Src/stm32h7xx_hal_rcc.c ****   }
1629:../../Drivers/STM32H7xx_HAL_Driver/Src/stm32h7xx_hal_rcc.c ****   else
1630:../../Drivers/STM32H7xx_HAL_Driver/Src/stm32h7xx_hal_rcc.c ****   {
1631:../../Drivers/STM32H7xx_HAL_Driver/Src/stm32h7xx_hal_rcc.c ****     RCC_OscInitStruct->HSICalibrationValue = (uint32_t)(READ_BIT(RCC->HSICFGR, RCC_HSICFGR_HSITRIM)
1632:../../Drivers/STM32H7xx_HAL_Driver/Src/stm32h7xx_hal_rcc.c ****   }
1633:../../Drivers/STM32H7xx_HAL_Driver/Src/stm32h7xx_hal_rcc.c **** #else
1634:../../Drivers/STM32H7xx_HAL_Driver/Src/stm32h7xx_hal_rcc.c ****   RCC_OscInitStruct->HSICalibrationValue = (uint32_t)(READ_BIT(RCC->HSICFGR, RCC_HSICFGR_HSITRIM) >
1635:../../Drivers/STM32H7xx_HAL_Driver/Src/stm32h7xx_hal_rcc.c **** #endif /*RCC_VER_X*/
1636:../../Drivers/STM32H7xx_HAL_Driver/Src/stm32h7xx_hal_rcc.c **** 
1637:../../Drivers/STM32H7xx_HAL_Driver/Src/stm32h7xx_hal_rcc.c ****   /* Get the LSE configuration -----------------------------------------------*/
1638:../../Drivers/STM32H7xx_HAL_Driver/Src/stm32h7xx_hal_rcc.c **** #if defined(RCC_BDCR_LSEEXT)
1639:../../Drivers/STM32H7xx_HAL_Driver/Src/stm32h7xx_hal_rcc.c ****   if ((RCC->BDCR & (RCC_BDCR_LSEBYP | RCC_BDCR_LSEEXT)) == RCC_BDCR_LSEBYP)
1640:../../Drivers/STM32H7xx_HAL_Driver/Src/stm32h7xx_hal_rcc.c ****   {
1641:../../Drivers/STM32H7xx_HAL_Driver/Src/stm32h7xx_hal_rcc.c ****     RCC_OscInitStruct->LSEState = RCC_LSE_BYPASS;
1642:../../Drivers/STM32H7xx_HAL_Driver/Src/stm32h7xx_hal_rcc.c ****   }
1643:../../Drivers/STM32H7xx_HAL_Driver/Src/stm32h7xx_hal_rcc.c ****   else if ((RCC->BDCR & (RCC_BDCR_LSEBYP | RCC_BDCR_LSEEXT)) == (RCC_BDCR_LSEBYP | RCC_BDCR_LSEEXT)
1644:../../Drivers/STM32H7xx_HAL_Driver/Src/stm32h7xx_hal_rcc.c ****   {
1645:../../Drivers/STM32H7xx_HAL_Driver/Src/stm32h7xx_hal_rcc.c ****     RCC_OscInitStruct->LSEState = RCC_LSE_BYPASS_DIGITAL;
1646:../../Drivers/STM32H7xx_HAL_Driver/Src/stm32h7xx_hal_rcc.c ****   }
1647:../../Drivers/STM32H7xx_HAL_Driver/Src/stm32h7xx_hal_rcc.c ****   else if ((RCC->BDCR & RCC_BDCR_LSEON) == RCC_BDCR_LSEON)
1648:../../Drivers/STM32H7xx_HAL_Driver/Src/stm32h7xx_hal_rcc.c ****   {
1649:../../Drivers/STM32H7xx_HAL_Driver/Src/stm32h7xx_hal_rcc.c ****     RCC_OscInitStruct->LSEState = RCC_LSE_ON;
1650:../../Drivers/STM32H7xx_HAL_Driver/Src/stm32h7xx_hal_rcc.c ****   }
1651:../../Drivers/STM32H7xx_HAL_Driver/Src/stm32h7xx_hal_rcc.c ****   else
1652:../../Drivers/STM32H7xx_HAL_Driver/Src/stm32h7xx_hal_rcc.c ****   {
1653:../../Drivers/STM32H7xx_HAL_Driver/Src/stm32h7xx_hal_rcc.c ****     RCC_OscInitStruct->LSEState = RCC_LSE_OFF;
1654:../../Drivers/STM32H7xx_HAL_Driver/Src/stm32h7xx_hal_rcc.c ****   }
1655:../../Drivers/STM32H7xx_HAL_Driver/Src/stm32h7xx_hal_rcc.c **** #else
1656:../../Drivers/STM32H7xx_HAL_Driver/Src/stm32h7xx_hal_rcc.c ****   if ((RCC->BDCR & RCC_BDCR_LSEBYP) == RCC_BDCR_LSEBYP)
 3153              		.loc 1 1656 3 is_stmt 1 view .LVU1022
 3154              		.loc 1 1656 11 is_stmt 0 view .LVU1023
 3155 0060 3B4B     		ldr	r3, .L275
 3156 0062 1B6F     		ldr	r3, [r3, #112]
 3157              		.loc 1 1656 6 view .LVU1024
ARM GAS  /tmp/ccooDZtA.s 			page 95


 3158 0064 13F0040F 		tst	r3, #4
 3159 0068 5ED0     		beq	.L265
1657:../../Drivers/STM32H7xx_HAL_Driver/Src/stm32h7xx_hal_rcc.c ****   {
1658:../../Drivers/STM32H7xx_HAL_Driver/Src/stm32h7xx_hal_rcc.c ****     RCC_OscInitStruct->LSEState = RCC_LSE_BYPASS;
 3160              		.loc 1 1658 5 is_stmt 1 view .LVU1025
 3161              		.loc 1 1658 33 is_stmt 0 view .LVU1026
 3162 006a 0523     		movs	r3, #5
 3163 006c A360     		str	r3, [r4, #8]
 3164              	.L266:
1659:../../Drivers/STM32H7xx_HAL_Driver/Src/stm32h7xx_hal_rcc.c ****   }
1660:../../Drivers/STM32H7xx_HAL_Driver/Src/stm32h7xx_hal_rcc.c ****   else if ((RCC->BDCR & RCC_BDCR_LSEON) == RCC_BDCR_LSEON)
1661:../../Drivers/STM32H7xx_HAL_Driver/Src/stm32h7xx_hal_rcc.c ****   {
1662:../../Drivers/STM32H7xx_HAL_Driver/Src/stm32h7xx_hal_rcc.c ****     RCC_OscInitStruct->LSEState = RCC_LSE_ON;
1663:../../Drivers/STM32H7xx_HAL_Driver/Src/stm32h7xx_hal_rcc.c ****   }
1664:../../Drivers/STM32H7xx_HAL_Driver/Src/stm32h7xx_hal_rcc.c ****   else
1665:../../Drivers/STM32H7xx_HAL_Driver/Src/stm32h7xx_hal_rcc.c ****   {
1666:../../Drivers/STM32H7xx_HAL_Driver/Src/stm32h7xx_hal_rcc.c ****     RCC_OscInitStruct->LSEState = RCC_LSE_OFF;
1667:../../Drivers/STM32H7xx_HAL_Driver/Src/stm32h7xx_hal_rcc.c ****   }
1668:../../Drivers/STM32H7xx_HAL_Driver/Src/stm32h7xx_hal_rcc.c **** #endif /* RCC_BDCR_LSEEXT */
1669:../../Drivers/STM32H7xx_HAL_Driver/Src/stm32h7xx_hal_rcc.c **** 
1670:../../Drivers/STM32H7xx_HAL_Driver/Src/stm32h7xx_hal_rcc.c ****   /* Get the LSI configuration -----------------------------------------------*/
1671:../../Drivers/STM32H7xx_HAL_Driver/Src/stm32h7xx_hal_rcc.c ****   if ((RCC->CSR & RCC_CSR_LSION) == RCC_CSR_LSION)
 3165              		.loc 1 1671 3 is_stmt 1 view .LVU1027
 3166              		.loc 1 1671 11 is_stmt 0 view .LVU1028
 3167 006e 384B     		ldr	r3, .L275
 3168 0070 5B6F     		ldr	r3, [r3, #116]
 3169              		.loc 1 1671 6 view .LVU1029
 3170 0072 13F0010F 		tst	r3, #1
 3171 0076 62D0     		beq	.L268
1672:../../Drivers/STM32H7xx_HAL_Driver/Src/stm32h7xx_hal_rcc.c ****   {
1673:../../Drivers/STM32H7xx_HAL_Driver/Src/stm32h7xx_hal_rcc.c ****     RCC_OscInitStruct->LSIState = RCC_LSI_ON;
 3172              		.loc 1 1673 5 is_stmt 1 view .LVU1030
 3173              		.loc 1 1673 33 is_stmt 0 view .LVU1031
 3174 0078 0123     		movs	r3, #1
 3175 007a 6361     		str	r3, [r4, #20]
 3176              	.L269:
1674:../../Drivers/STM32H7xx_HAL_Driver/Src/stm32h7xx_hal_rcc.c ****   }
1675:../../Drivers/STM32H7xx_HAL_Driver/Src/stm32h7xx_hal_rcc.c ****   else
1676:../../Drivers/STM32H7xx_HAL_Driver/Src/stm32h7xx_hal_rcc.c ****   {
1677:../../Drivers/STM32H7xx_HAL_Driver/Src/stm32h7xx_hal_rcc.c ****     RCC_OscInitStruct->LSIState = RCC_LSI_OFF;
1678:../../Drivers/STM32H7xx_HAL_Driver/Src/stm32h7xx_hal_rcc.c ****   }
1679:../../Drivers/STM32H7xx_HAL_Driver/Src/stm32h7xx_hal_rcc.c **** 
1680:../../Drivers/STM32H7xx_HAL_Driver/Src/stm32h7xx_hal_rcc.c ****   /* Get the HSI48 configuration ---------------------------------------------*/
1681:../../Drivers/STM32H7xx_HAL_Driver/Src/stm32h7xx_hal_rcc.c ****   if ((RCC->CR & RCC_CR_HSI48ON) == RCC_CR_HSI48ON)
 3177              		.loc 1 1681 3 is_stmt 1 view .LVU1032
 3178              		.loc 1 1681 11 is_stmt 0 view .LVU1033
 3179 007c 344B     		ldr	r3, .L275
 3180 007e 1B68     		ldr	r3, [r3]
 3181              		.loc 1 1681 6 view .LVU1034
 3182 0080 13F4805F 		tst	r3, #4096
 3183 0084 5ED0     		beq	.L270
1682:../../Drivers/STM32H7xx_HAL_Driver/Src/stm32h7xx_hal_rcc.c ****   {
1683:../../Drivers/STM32H7xx_HAL_Driver/Src/stm32h7xx_hal_rcc.c ****     RCC_OscInitStruct->HSI48State = RCC_HSI48_ON;
 3184              		.loc 1 1683 5 is_stmt 1 view .LVU1035
 3185              		.loc 1 1683 35 is_stmt 0 view .LVU1036
 3186 0086 0123     		movs	r3, #1
 3187 0088 A361     		str	r3, [r4, #24]
ARM GAS  /tmp/ccooDZtA.s 			page 96


 3188              	.L271:
1684:../../Drivers/STM32H7xx_HAL_Driver/Src/stm32h7xx_hal_rcc.c ****   }
1685:../../Drivers/STM32H7xx_HAL_Driver/Src/stm32h7xx_hal_rcc.c ****   else
1686:../../Drivers/STM32H7xx_HAL_Driver/Src/stm32h7xx_hal_rcc.c ****   {
1687:../../Drivers/STM32H7xx_HAL_Driver/Src/stm32h7xx_hal_rcc.c ****     RCC_OscInitStruct->HSI48State = RCC_HSI48_OFF;
1688:../../Drivers/STM32H7xx_HAL_Driver/Src/stm32h7xx_hal_rcc.c ****   }
1689:../../Drivers/STM32H7xx_HAL_Driver/Src/stm32h7xx_hal_rcc.c **** 
1690:../../Drivers/STM32H7xx_HAL_Driver/Src/stm32h7xx_hal_rcc.c ****   /* Get the PLL configuration -----------------------------------------------*/
1691:../../Drivers/STM32H7xx_HAL_Driver/Src/stm32h7xx_hal_rcc.c ****   if ((RCC->CR & RCC_CR_PLLON) == RCC_CR_PLLON)
 3189              		.loc 1 1691 3 is_stmt 1 view .LVU1037
 3190              		.loc 1 1691 11 is_stmt 0 view .LVU1038
 3191 008a 314B     		ldr	r3, .L275
 3192 008c 1B68     		ldr	r3, [r3]
 3193              		.loc 1 1691 6 view .LVU1039
 3194 008e 13F0807F 		tst	r3, #16777216
 3195 0092 5AD0     		beq	.L272
1692:../../Drivers/STM32H7xx_HAL_Driver/Src/stm32h7xx_hal_rcc.c ****   {
1693:../../Drivers/STM32H7xx_HAL_Driver/Src/stm32h7xx_hal_rcc.c ****     RCC_OscInitStruct->PLL.PLLState = RCC_PLL_ON;
 3196              		.loc 1 1693 5 is_stmt 1 view .LVU1040
 3197              		.loc 1 1693 37 is_stmt 0 view .LVU1041
 3198 0094 0223     		movs	r3, #2
 3199 0096 6362     		str	r3, [r4, #36]
 3200              	.L273:
1694:../../Drivers/STM32H7xx_HAL_Driver/Src/stm32h7xx_hal_rcc.c ****   }
1695:../../Drivers/STM32H7xx_HAL_Driver/Src/stm32h7xx_hal_rcc.c ****   else
1696:../../Drivers/STM32H7xx_HAL_Driver/Src/stm32h7xx_hal_rcc.c ****   {
1697:../../Drivers/STM32H7xx_HAL_Driver/Src/stm32h7xx_hal_rcc.c ****     RCC_OscInitStruct->PLL.PLLState = RCC_PLL_OFF;
1698:../../Drivers/STM32H7xx_HAL_Driver/Src/stm32h7xx_hal_rcc.c ****   }
1699:../../Drivers/STM32H7xx_HAL_Driver/Src/stm32h7xx_hal_rcc.c ****   RCC_OscInitStruct->PLL.PLLSource = (uint32_t)(RCC->PLLCKSELR & RCC_PLLCKSELR_PLLSRC);
 3201              		.loc 1 1699 3 is_stmt 1 view .LVU1042
 3202              		.loc 1 1699 52 is_stmt 0 view .LVU1043
 3203 0098 2D4B     		ldr	r3, .L275
 3204 009a 9A6A     		ldr	r2, [r3, #40]
 3205              		.loc 1 1699 38 view .LVU1044
 3206 009c 02F00302 		and	r2, r2, #3
 3207              		.loc 1 1699 36 view .LVU1045
 3208 00a0 A262     		str	r2, [r4, #40]
1700:../../Drivers/STM32H7xx_HAL_Driver/Src/stm32h7xx_hal_rcc.c ****   RCC_OscInitStruct->PLL.PLLM = (uint32_t)((RCC->PLLCKSELR & RCC_PLLCKSELR_DIVM1) >> RCC_PLLCKSELR_
 3209              		.loc 1 1700 3 is_stmt 1 view .LVU1046
 3210              		.loc 1 1700 48 is_stmt 0 view .LVU1047
 3211 00a2 9A6A     		ldr	r2, [r3, #40]
 3212              		.loc 1 1700 33 view .LVU1048
 3213 00a4 C2F30512 		ubfx	r2, r2, #4, #6
 3214              		.loc 1 1700 31 view .LVU1049
 3215 00a8 E262     		str	r2, [r4, #44]
1701:../../Drivers/STM32H7xx_HAL_Driver/Src/stm32h7xx_hal_rcc.c ****   RCC_OscInitStruct->PLL.PLLN = (uint32_t)((RCC->PLL1DIVR & RCC_PLL1DIVR_N1) >> RCC_PLL1DIVR_N1_Pos
 3216              		.loc 1 1701 3 is_stmt 1 view .LVU1050
 3217              		.loc 1 1701 48 is_stmt 0 view .LVU1051
 3218 00aa 1A6B     		ldr	r2, [r3, #48]
 3219              		.loc 1 1701 33 view .LVU1052
 3220 00ac C2F30802 		ubfx	r2, r2, #0, #9
 3221              		.loc 1 1701 102 view .LVU1053
 3222 00b0 0132     		adds	r2, r2, #1
 3223              		.loc 1 1701 31 view .LVU1054
 3224 00b2 2263     		str	r2, [r4, #48]
1702:../../Drivers/STM32H7xx_HAL_Driver/Src/stm32h7xx_hal_rcc.c ****   RCC_OscInitStruct->PLL.PLLR = (uint32_t)((RCC->PLL1DIVR & RCC_PLL1DIVR_R1) >> RCC_PLL1DIVR_R1_Pos
 3225              		.loc 1 1702 3 is_stmt 1 view .LVU1055
ARM GAS  /tmp/ccooDZtA.s 			page 97


 3226              		.loc 1 1702 48 is_stmt 0 view .LVU1056
 3227 00b4 1A6B     		ldr	r2, [r3, #48]
 3228              		.loc 1 1702 33 view .LVU1057
 3229 00b6 C2F30662 		ubfx	r2, r2, #24, #7
 3230              		.loc 1 1702 102 view .LVU1058
 3231 00ba 0132     		adds	r2, r2, #1
 3232              		.loc 1 1702 31 view .LVU1059
 3233 00bc E263     		str	r2, [r4, #60]
1703:../../Drivers/STM32H7xx_HAL_Driver/Src/stm32h7xx_hal_rcc.c ****   RCC_OscInitStruct->PLL.PLLP = (uint32_t)((RCC->PLL1DIVR & RCC_PLL1DIVR_P1) >> RCC_PLL1DIVR_P1_Pos
 3234              		.loc 1 1703 3 is_stmt 1 view .LVU1060
 3235              		.loc 1 1703 48 is_stmt 0 view .LVU1061
 3236 00be 1A6B     		ldr	r2, [r3, #48]
 3237              		.loc 1 1703 33 view .LVU1062
 3238 00c0 C2F34622 		ubfx	r2, r2, #9, #7
 3239              		.loc 1 1703 102 view .LVU1063
 3240 00c4 0132     		adds	r2, r2, #1
 3241              		.loc 1 1703 31 view .LVU1064
 3242 00c6 6263     		str	r2, [r4, #52]
1704:../../Drivers/STM32H7xx_HAL_Driver/Src/stm32h7xx_hal_rcc.c ****   RCC_OscInitStruct->PLL.PLLQ = (uint32_t)((RCC->PLL1DIVR & RCC_PLL1DIVR_Q1) >> RCC_PLL1DIVR_Q1_Pos
 3243              		.loc 1 1704 3 is_stmt 1 view .LVU1065
 3244              		.loc 1 1704 48 is_stmt 0 view .LVU1066
 3245 00c8 1A6B     		ldr	r2, [r3, #48]
 3246              		.loc 1 1704 33 view .LVU1067
 3247 00ca C2F30642 		ubfx	r2, r2, #16, #7
 3248              		.loc 1 1704 102 view .LVU1068
 3249 00ce 0132     		adds	r2, r2, #1
 3250              		.loc 1 1704 31 view .LVU1069
 3251 00d0 A263     		str	r2, [r4, #56]
1705:../../Drivers/STM32H7xx_HAL_Driver/Src/stm32h7xx_hal_rcc.c ****   RCC_OscInitStruct->PLL.PLLRGE = (uint32_t)((RCC->PLLCFGR & RCC_PLLCFGR_PLL1RGE));
 3252              		.loc 1 1705 3 is_stmt 1 view .LVU1070
 3253              		.loc 1 1705 50 is_stmt 0 view .LVU1071
 3254 00d2 DA6A     		ldr	r2, [r3, #44]
 3255              		.loc 1 1705 35 view .LVU1072
 3256 00d4 02F00C02 		and	r2, r2, #12
 3257              		.loc 1 1705 33 view .LVU1073
 3258 00d8 2264     		str	r2, [r4, #64]
1706:../../Drivers/STM32H7xx_HAL_Driver/Src/stm32h7xx_hal_rcc.c ****   RCC_OscInitStruct->PLL.PLLVCOSEL = (uint32_t)((RCC->PLLCFGR & RCC_PLLCFGR_PLL1VCOSEL) >> RCC_PLLC
 3259              		.loc 1 1706 3 is_stmt 1 view .LVU1074
 3260              		.loc 1 1706 53 is_stmt 0 view .LVU1075
 3261 00da DA6A     		ldr	r2, [r3, #44]
 3262              		.loc 1 1706 38 view .LVU1076
 3263 00dc C2F34002 		ubfx	r2, r2, #1, #1
 3264              		.loc 1 1706 36 view .LVU1077
 3265 00e0 6264     		str	r2, [r4, #68]
1707:../../Drivers/STM32H7xx_HAL_Driver/Src/stm32h7xx_hal_rcc.c ****   RCC_OscInitStruct->PLL.PLLFRACN = (uint32_t)(((RCC->PLL1FRACR & RCC_PLL1FRACR_FRACN1) >> RCC_PLL1
 3266              		.loc 1 1707 3 is_stmt 1 view .LVU1078
 3267              		.loc 1 1707 53 is_stmt 0 view .LVU1079
 3268 00e2 5B6B     		ldr	r3, [r3, #52]
 3269              		.loc 1 1707 37 view .LVU1080
 3270 00e4 C3F3CC03 		ubfx	r3, r3, #3, #13
 3271              		.loc 1 1707 35 view .LVU1081
 3272 00e8 A364     		str	r3, [r4, #72]
1708:../../Drivers/STM32H7xx_HAL_Driver/Src/stm32h7xx_hal_rcc.c **** }
 3273              		.loc 1 1708 1 view .LVU1082
 3274 00ea 10BD     		pop	{r4, pc}
 3275              	.LVL216:
 3276              	.L254:
ARM GAS  /tmp/ccooDZtA.s 			page 98


1581:../../Drivers/STM32H7xx_HAL_Driver/Src/stm32h7xx_hal_rcc.c ****   {
 3277              		.loc 1 1581 8 is_stmt 1 view .LVU1083
1581:../../Drivers/STM32H7xx_HAL_Driver/Src/stm32h7xx_hal_rcc.c ****   {
 3278              		.loc 1 1581 16 is_stmt 0 view .LVU1084
 3279 00ec 184B     		ldr	r3, .L275
 3280 00ee 1B68     		ldr	r3, [r3]
1581:../../Drivers/STM32H7xx_HAL_Driver/Src/stm32h7xx_hal_rcc.c ****   {
 3281              		.loc 1 1581 11 view .LVU1085
 3282 00f0 13F4803F 		tst	r3, #65536
 3283 00f4 03D0     		beq	.L256
1583:../../Drivers/STM32H7xx_HAL_Driver/Src/stm32h7xx_hal_rcc.c ****   }
 3284              		.loc 1 1583 5 is_stmt 1 view .LVU1086
1583:../../Drivers/STM32H7xx_HAL_Driver/Src/stm32h7xx_hal_rcc.c ****   }
 3285              		.loc 1 1583 33 is_stmt 0 view .LVU1087
 3286 00f6 4FF48033 		mov	r3, #65536
 3287 00fa 4360     		str	r3, [r0, #4]
 3288 00fc 8CE7     		b	.L255
 3289              	.L256:
1587:../../Drivers/STM32H7xx_HAL_Driver/Src/stm32h7xx_hal_rcc.c ****   }
 3290              		.loc 1 1587 5 is_stmt 1 view .LVU1088
1587:../../Drivers/STM32H7xx_HAL_Driver/Src/stm32h7xx_hal_rcc.c ****   }
 3291              		.loc 1 1587 33 is_stmt 0 view .LVU1089
 3292 00fe 0023     		movs	r3, #0
 3293 0100 4360     		str	r3, [r0, #4]
 3294 0102 89E7     		b	.L255
 3295              	.L257:
1598:../../Drivers/STM32H7xx_HAL_Driver/Src/stm32h7xx_hal_rcc.c ****   }
 3296              		.loc 1 1598 5 is_stmt 1 view .LVU1090
1598:../../Drivers/STM32H7xx_HAL_Driver/Src/stm32h7xx_hal_rcc.c ****   }
 3297              		.loc 1 1598 33 is_stmt 0 view .LVU1091
 3298 0104 0023     		movs	r3, #0
 3299 0106 E361     		str	r3, [r4, #28]
 3300 0108 8DE7     		b	.L258
 3301              	.LVL217:
 3302              	.L259:
1608:../../Drivers/STM32H7xx_HAL_Driver/Src/stm32h7xx_hal_rcc.c ****   }
 3303              		.loc 1 1608 5 is_stmt 1 view .LVU1092
1608:../../Drivers/STM32H7xx_HAL_Driver/Src/stm32h7xx_hal_rcc.c ****   }
 3304              		.loc 1 1608 57 is_stmt 0 view .LVU1093
 3305 010a 114B     		ldr	r3, .L275
 3306 010c DB68     		ldr	r3, [r3, #12]
1608:../../Drivers/STM32H7xx_HAL_Driver/Src/stm32h7xx_hal_rcc.c ****   }
 3307              		.loc 1 1608 46 view .LVU1094
 3308 010e C3F30563 		ubfx	r3, r3, #24, #6
1608:../../Drivers/STM32H7xx_HAL_Driver/Src/stm32h7xx_hal_rcc.c ****   }
 3309              		.loc 1 1608 44 view .LVU1095
 3310 0112 2362     		str	r3, [r4, #32]
 3311 0114 92E7     		b	.L260
 3312              	.L261:
1621:../../Drivers/STM32H7xx_HAL_Driver/Src/stm32h7xx_hal_rcc.c ****   }
 3313              		.loc 1 1621 5 is_stmt 1 view .LVU1096
1621:../../Drivers/STM32H7xx_HAL_Driver/Src/stm32h7xx_hal_rcc.c ****   }
 3314              		.loc 1 1621 33 is_stmt 0 view .LVU1097
 3315 0116 0023     		movs	r3, #0
 3316 0118 E360     		str	r3, [r4, #12]
 3317 011a 96E7     		b	.L262
 3318              	.L263:
ARM GAS  /tmp/ccooDZtA.s 			page 99


1631:../../Drivers/STM32H7xx_HAL_Driver/Src/stm32h7xx_hal_rcc.c ****   }
 3319              		.loc 1 1631 5 is_stmt 1 view .LVU1098
1631:../../Drivers/STM32H7xx_HAL_Driver/Src/stm32h7xx_hal_rcc.c ****   }
 3320              		.loc 1 1631 57 is_stmt 0 view .LVU1099
 3321 011c 0C4B     		ldr	r3, .L275
 3322 011e 5B68     		ldr	r3, [r3, #4]
1631:../../Drivers/STM32H7xx_HAL_Driver/Src/stm32h7xx_hal_rcc.c ****   }
 3323              		.loc 1 1631 46 view .LVU1100
 3324 0120 C3F30663 		ubfx	r3, r3, #24, #7
1631:../../Drivers/STM32H7xx_HAL_Driver/Src/stm32h7xx_hal_rcc.c ****   }
 3325              		.loc 1 1631 44 view .LVU1101
 3326 0124 2361     		str	r3, [r4, #16]
 3327 0126 9BE7     		b	.L264
 3328              	.L265:
1660:../../Drivers/STM32H7xx_HAL_Driver/Src/stm32h7xx_hal_rcc.c ****   {
 3329              		.loc 1 1660 8 is_stmt 1 view .LVU1102
1660:../../Drivers/STM32H7xx_HAL_Driver/Src/stm32h7xx_hal_rcc.c ****   {
 3330              		.loc 1 1660 16 is_stmt 0 view .LVU1103
 3331 0128 094B     		ldr	r3, .L275
 3332 012a 1B6F     		ldr	r3, [r3, #112]
1660:../../Drivers/STM32H7xx_HAL_Driver/Src/stm32h7xx_hal_rcc.c ****   {
 3333              		.loc 1 1660 11 view .LVU1104
 3334 012c 13F0010F 		tst	r3, #1
 3335 0130 02D0     		beq	.L267
1662:../../Drivers/STM32H7xx_HAL_Driver/Src/stm32h7xx_hal_rcc.c ****   }
 3336              		.loc 1 1662 5 is_stmt 1 view .LVU1105
1662:../../Drivers/STM32H7xx_HAL_Driver/Src/stm32h7xx_hal_rcc.c ****   }
 3337              		.loc 1 1662 33 is_stmt 0 view .LVU1106
 3338 0132 0123     		movs	r3, #1
 3339 0134 A360     		str	r3, [r4, #8]
 3340 0136 9AE7     		b	.L266
 3341              	.L267:
1666:../../Drivers/STM32H7xx_HAL_Driver/Src/stm32h7xx_hal_rcc.c ****   }
 3342              		.loc 1 1666 5 is_stmt 1 view .LVU1107
1666:../../Drivers/STM32H7xx_HAL_Driver/Src/stm32h7xx_hal_rcc.c ****   }
 3343              		.loc 1 1666 33 is_stmt 0 view .LVU1108
 3344 0138 0023     		movs	r3, #0
 3345 013a A360     		str	r3, [r4, #8]
 3346 013c 97E7     		b	.L266
 3347              	.L268:
1677:../../Drivers/STM32H7xx_HAL_Driver/Src/stm32h7xx_hal_rcc.c ****   }
 3348              		.loc 1 1677 5 is_stmt 1 view .LVU1109
1677:../../Drivers/STM32H7xx_HAL_Driver/Src/stm32h7xx_hal_rcc.c ****   }
 3349              		.loc 1 1677 33 is_stmt 0 view .LVU1110
 3350 013e 0023     		movs	r3, #0
 3351 0140 6361     		str	r3, [r4, #20]
 3352 0142 9BE7     		b	.L269
 3353              	.L270:
1687:../../Drivers/STM32H7xx_HAL_Driver/Src/stm32h7xx_hal_rcc.c ****   }
 3354              		.loc 1 1687 5 is_stmt 1 view .LVU1111
1687:../../Drivers/STM32H7xx_HAL_Driver/Src/stm32h7xx_hal_rcc.c ****   }
 3355              		.loc 1 1687 35 is_stmt 0 view .LVU1112
 3356 0144 0023     		movs	r3, #0
 3357 0146 A361     		str	r3, [r4, #24]
 3358 0148 9FE7     		b	.L271
 3359              	.L272:
1697:../../Drivers/STM32H7xx_HAL_Driver/Src/stm32h7xx_hal_rcc.c ****   }
ARM GAS  /tmp/ccooDZtA.s 			page 100


 3360              		.loc 1 1697 5 is_stmt 1 view .LVU1113
1697:../../Drivers/STM32H7xx_HAL_Driver/Src/stm32h7xx_hal_rcc.c ****   }
 3361              		.loc 1 1697 37 is_stmt 0 view .LVU1114
 3362 014a 0123     		movs	r3, #1
 3363 014c 6362     		str	r3, [r4, #36]
 3364 014e A3E7     		b	.L273
 3365              	.L276:
 3366              		.align	2
 3367              	.L275:
 3368 0150 00440258 		.word	1476543488
 3369              		.cfi_endproc
 3370              	.LFE154:
 3372              		.section	.text.HAL_RCC_GetClockConfig,"ax",%progbits
 3373              		.align	1
 3374              		.global	HAL_RCC_GetClockConfig
 3375              		.syntax unified
 3376              		.thumb
 3377              		.thumb_func
 3378              		.fpu fpv5-d16
 3380              	HAL_RCC_GetClockConfig:
 3381              	.LVL218:
 3382              	.LFB155:
1709:../../Drivers/STM32H7xx_HAL_Driver/Src/stm32h7xx_hal_rcc.c **** 
1710:../../Drivers/STM32H7xx_HAL_Driver/Src/stm32h7xx_hal_rcc.c **** /**
1711:../../Drivers/STM32H7xx_HAL_Driver/Src/stm32h7xx_hal_rcc.c ****   * @brief  Configures the RCC_ClkInitStruct according to the internal
1712:../../Drivers/STM32H7xx_HAL_Driver/Src/stm32h7xx_hal_rcc.c ****   * RCC configuration registers.
1713:../../Drivers/STM32H7xx_HAL_Driver/Src/stm32h7xx_hal_rcc.c ****   * @param  RCC_ClkInitStruct: pointer to an RCC_ClkInitTypeDef structure that
1714:../../Drivers/STM32H7xx_HAL_Driver/Src/stm32h7xx_hal_rcc.c ****   * will be configured.
1715:../../Drivers/STM32H7xx_HAL_Driver/Src/stm32h7xx_hal_rcc.c ****   * @param  pFLatency: Pointer on the Flash Latency.
1716:../../Drivers/STM32H7xx_HAL_Driver/Src/stm32h7xx_hal_rcc.c ****   * @retval None
1717:../../Drivers/STM32H7xx_HAL_Driver/Src/stm32h7xx_hal_rcc.c ****   */
1718:../../Drivers/STM32H7xx_HAL_Driver/Src/stm32h7xx_hal_rcc.c **** void HAL_RCC_GetClockConfig(RCC_ClkInitTypeDef  *RCC_ClkInitStruct, uint32_t *pFLatency)
1719:../../Drivers/STM32H7xx_HAL_Driver/Src/stm32h7xx_hal_rcc.c **** {
 3383              		.loc 1 1719 1 is_stmt 1 view -0
 3384              		.cfi_startproc
 3385              		@ args = 0, pretend = 0, frame = 0
 3386              		@ frame_needed = 0, uses_anonymous_args = 0
 3387              		@ link register save eliminated.
1720:../../Drivers/STM32H7xx_HAL_Driver/Src/stm32h7xx_hal_rcc.c ****   /* Set all possible values for the Clock type parameter --------------------*/
1721:../../Drivers/STM32H7xx_HAL_Driver/Src/stm32h7xx_hal_rcc.c ****   RCC_ClkInitStruct->ClockType = RCC_CLOCKTYPE_SYSCLK | RCC_CLOCKTYPE_HCLK | RCC_CLOCKTYPE_D1PCLK1 
 3388              		.loc 1 1721 3 view .LVU1116
 3389              		.loc 1 1721 32 is_stmt 0 view .LVU1117
 3390 0000 3F23     		movs	r3, #63
 3391 0002 0360     		str	r3, [r0]
1722:../../Drivers/STM32H7xx_HAL_Driver/Src/stm32h7xx_hal_rcc.c ****                                  RCC_CLOCKTYPE_PCLK2 |  RCC_CLOCKTYPE_D3PCLK1  ;
1723:../../Drivers/STM32H7xx_HAL_Driver/Src/stm32h7xx_hal_rcc.c **** 
1724:../../Drivers/STM32H7xx_HAL_Driver/Src/stm32h7xx_hal_rcc.c ****   /* Get the SYSCLK configuration --------------------------------------------*/
1725:../../Drivers/STM32H7xx_HAL_Driver/Src/stm32h7xx_hal_rcc.c ****   RCC_ClkInitStruct->SYSCLKSource = (uint32_t)(RCC->CFGR & RCC_CFGR_SW);
 3392              		.loc 1 1725 3 is_stmt 1 view .LVU1118
 3393              		.loc 1 1725 51 is_stmt 0 view .LVU1119
 3394 0004 114B     		ldr	r3, .L278
 3395 0006 1A69     		ldr	r2, [r3, #16]
 3396              		.loc 1 1725 37 view .LVU1120
 3397 0008 02F00702 		and	r2, r2, #7
 3398              		.loc 1 1725 35 view .LVU1121
 3399 000c 4260     		str	r2, [r0, #4]
1726:../../Drivers/STM32H7xx_HAL_Driver/Src/stm32h7xx_hal_rcc.c **** 
ARM GAS  /tmp/ccooDZtA.s 			page 101


1727:../../Drivers/STM32H7xx_HAL_Driver/Src/stm32h7xx_hal_rcc.c **** #if defined(RCC_D1CFGR_D1CPRE)
1728:../../Drivers/STM32H7xx_HAL_Driver/Src/stm32h7xx_hal_rcc.c ****   /* Get the SYSCLK configuration ----------------------------------------------*/
1729:../../Drivers/STM32H7xx_HAL_Driver/Src/stm32h7xx_hal_rcc.c ****   RCC_ClkInitStruct->SYSCLKDivider = (uint32_t)(RCC->D1CFGR & RCC_D1CFGR_D1CPRE);
 3400              		.loc 1 1729 3 is_stmt 1 view .LVU1122
 3401              		.loc 1 1729 52 is_stmt 0 view .LVU1123
 3402 000e 9A69     		ldr	r2, [r3, #24]
 3403              		.loc 1 1729 38 view .LVU1124
 3404 0010 02F47062 		and	r2, r2, #3840
 3405              		.loc 1 1729 36 view .LVU1125
 3406 0014 8260     		str	r2, [r0, #8]
1730:../../Drivers/STM32H7xx_HAL_Driver/Src/stm32h7xx_hal_rcc.c **** 
1731:../../Drivers/STM32H7xx_HAL_Driver/Src/stm32h7xx_hal_rcc.c ****   /* Get the D1HCLK configuration ----------------------------------------------*/
1732:../../Drivers/STM32H7xx_HAL_Driver/Src/stm32h7xx_hal_rcc.c ****   RCC_ClkInitStruct->AHBCLKDivider = (uint32_t)(RCC->D1CFGR & RCC_D1CFGR_HPRE);
 3407              		.loc 1 1732 3 is_stmt 1 view .LVU1126
 3408              		.loc 1 1732 52 is_stmt 0 view .LVU1127
 3409 0016 9A69     		ldr	r2, [r3, #24]
 3410              		.loc 1 1732 38 view .LVU1128
 3411 0018 02F00F02 		and	r2, r2, #15
 3412              		.loc 1 1732 36 view .LVU1129
 3413 001c C260     		str	r2, [r0, #12]
1733:../../Drivers/STM32H7xx_HAL_Driver/Src/stm32h7xx_hal_rcc.c **** 
1734:../../Drivers/STM32H7xx_HAL_Driver/Src/stm32h7xx_hal_rcc.c ****   /* Get the APB3 configuration ----------------------------------------------*/
1735:../../Drivers/STM32H7xx_HAL_Driver/Src/stm32h7xx_hal_rcc.c ****   RCC_ClkInitStruct->APB3CLKDivider = (uint32_t)(RCC->D1CFGR & RCC_D1CFGR_D1PPRE);
 3414              		.loc 1 1735 3 is_stmt 1 view .LVU1130
 3415              		.loc 1 1735 53 is_stmt 0 view .LVU1131
 3416 001e 9A69     		ldr	r2, [r3, #24]
 3417              		.loc 1 1735 39 view .LVU1132
 3418 0020 02F07002 		and	r2, r2, #112
 3419              		.loc 1 1735 37 view .LVU1133
 3420 0024 0261     		str	r2, [r0, #16]
1736:../../Drivers/STM32H7xx_HAL_Driver/Src/stm32h7xx_hal_rcc.c **** 
1737:../../Drivers/STM32H7xx_HAL_Driver/Src/stm32h7xx_hal_rcc.c ****   /* Get the APB1 configuration ----------------------------------------------*/
1738:../../Drivers/STM32H7xx_HAL_Driver/Src/stm32h7xx_hal_rcc.c ****   RCC_ClkInitStruct->APB1CLKDivider = (uint32_t)(RCC->D2CFGR & RCC_D2CFGR_D2PPRE1);
 3421              		.loc 1 1738 3 is_stmt 1 view .LVU1134
 3422              		.loc 1 1738 53 is_stmt 0 view .LVU1135
 3423 0026 DA69     		ldr	r2, [r3, #28]
 3424              		.loc 1 1738 39 view .LVU1136
 3425 0028 02F07002 		and	r2, r2, #112
 3426              		.loc 1 1738 37 view .LVU1137
 3427 002c 4261     		str	r2, [r0, #20]
1739:../../Drivers/STM32H7xx_HAL_Driver/Src/stm32h7xx_hal_rcc.c **** 
1740:../../Drivers/STM32H7xx_HAL_Driver/Src/stm32h7xx_hal_rcc.c ****   /* Get the APB2 configuration ----------------------------------------------*/
1741:../../Drivers/STM32H7xx_HAL_Driver/Src/stm32h7xx_hal_rcc.c ****   RCC_ClkInitStruct->APB2CLKDivider = (uint32_t)(RCC->D2CFGR & RCC_D2CFGR_D2PPRE2);
 3428              		.loc 1 1741 3 is_stmt 1 view .LVU1138
 3429              		.loc 1 1741 53 is_stmt 0 view .LVU1139
 3430 002e DA69     		ldr	r2, [r3, #28]
 3431              		.loc 1 1741 39 view .LVU1140
 3432 0030 02F4E062 		and	r2, r2, #1792
 3433              		.loc 1 1741 37 view .LVU1141
 3434 0034 8261     		str	r2, [r0, #24]
1742:../../Drivers/STM32H7xx_HAL_Driver/Src/stm32h7xx_hal_rcc.c **** 
1743:../../Drivers/STM32H7xx_HAL_Driver/Src/stm32h7xx_hal_rcc.c ****   /* Get the APB4 configuration ----------------------------------------------*/
1744:../../Drivers/STM32H7xx_HAL_Driver/Src/stm32h7xx_hal_rcc.c ****   RCC_ClkInitStruct->APB4CLKDivider = (uint32_t)(RCC->D3CFGR & RCC_D3CFGR_D3PPRE);
 3435              		.loc 1 1744 3 is_stmt 1 view .LVU1142
 3436              		.loc 1 1744 53 is_stmt 0 view .LVU1143
 3437 0036 1B6A     		ldr	r3, [r3, #32]
 3438              		.loc 1 1744 39 view .LVU1144
ARM GAS  /tmp/ccooDZtA.s 			page 102


 3439 0038 03F07003 		and	r3, r3, #112
 3440              		.loc 1 1744 37 view .LVU1145
 3441 003c C361     		str	r3, [r0, #28]
1745:../../Drivers/STM32H7xx_HAL_Driver/Src/stm32h7xx_hal_rcc.c **** #else
1746:../../Drivers/STM32H7xx_HAL_Driver/Src/stm32h7xx_hal_rcc.c ****   /* Get the SYSCLK configuration ----------------------------------------------*/
1747:../../Drivers/STM32H7xx_HAL_Driver/Src/stm32h7xx_hal_rcc.c ****   RCC_ClkInitStruct->SYSCLKDivider = (uint32_t)(RCC->CDCFGR1 & RCC_CDCFGR1_CDCPRE);
1748:../../Drivers/STM32H7xx_HAL_Driver/Src/stm32h7xx_hal_rcc.c **** 
1749:../../Drivers/STM32H7xx_HAL_Driver/Src/stm32h7xx_hal_rcc.c ****   /* Get the D1HCLK configuration ----------------------------------------------*/
1750:../../Drivers/STM32H7xx_HAL_Driver/Src/stm32h7xx_hal_rcc.c ****   RCC_ClkInitStruct->AHBCLKDivider = (uint32_t)(RCC->CDCFGR1 & RCC_CDCFGR1_HPRE);
1751:../../Drivers/STM32H7xx_HAL_Driver/Src/stm32h7xx_hal_rcc.c **** 
1752:../../Drivers/STM32H7xx_HAL_Driver/Src/stm32h7xx_hal_rcc.c ****   /* Get the APB3 configuration ----------------------------------------------*/
1753:../../Drivers/STM32H7xx_HAL_Driver/Src/stm32h7xx_hal_rcc.c ****   RCC_ClkInitStruct->APB3CLKDivider = (uint32_t)(RCC->CDCFGR1 & RCC_CDCFGR1_CDPPRE);
1754:../../Drivers/STM32H7xx_HAL_Driver/Src/stm32h7xx_hal_rcc.c **** 
1755:../../Drivers/STM32H7xx_HAL_Driver/Src/stm32h7xx_hal_rcc.c ****   /* Get the APB1 configuration ----------------------------------------------*/
1756:../../Drivers/STM32H7xx_HAL_Driver/Src/stm32h7xx_hal_rcc.c ****   RCC_ClkInitStruct->APB1CLKDivider = (uint32_t)(RCC->CDCFGR2 & RCC_CDCFGR2_CDPPRE1);
1757:../../Drivers/STM32H7xx_HAL_Driver/Src/stm32h7xx_hal_rcc.c **** 
1758:../../Drivers/STM32H7xx_HAL_Driver/Src/stm32h7xx_hal_rcc.c ****   /* Get the APB2 configuration ----------------------------------------------*/
1759:../../Drivers/STM32H7xx_HAL_Driver/Src/stm32h7xx_hal_rcc.c ****   RCC_ClkInitStruct->APB2CLKDivider = (uint32_t)(RCC->CDCFGR2 & RCC_CDCFGR2_CDPPRE2);
1760:../../Drivers/STM32H7xx_HAL_Driver/Src/stm32h7xx_hal_rcc.c **** 
1761:../../Drivers/STM32H7xx_HAL_Driver/Src/stm32h7xx_hal_rcc.c ****   /* Get the APB4 configuration ----------------------------------------------*/
1762:../../Drivers/STM32H7xx_HAL_Driver/Src/stm32h7xx_hal_rcc.c ****   RCC_ClkInitStruct->APB4CLKDivider = (uint32_t)(RCC->SRDCFGR & RCC_SRDCFGR_SRDPPRE);
1763:../../Drivers/STM32H7xx_HAL_Driver/Src/stm32h7xx_hal_rcc.c **** #endif
1764:../../Drivers/STM32H7xx_HAL_Driver/Src/stm32h7xx_hal_rcc.c **** 
1765:../../Drivers/STM32H7xx_HAL_Driver/Src/stm32h7xx_hal_rcc.c ****   /* Get the Flash Wait State (Latency) configuration ------------------------*/
1766:../../Drivers/STM32H7xx_HAL_Driver/Src/stm32h7xx_hal_rcc.c ****   *pFLatency = (uint32_t)(FLASH->ACR & FLASH_ACR_LATENCY);
 3442              		.loc 1 1766 3 is_stmt 1 view .LVU1146
 3443              		.loc 1 1766 32 is_stmt 0 view .LVU1147
 3444 003e 044B     		ldr	r3, .L278+4
 3445 0040 1B68     		ldr	r3, [r3]
 3446              		.loc 1 1766 16 view .LVU1148
 3447 0042 03F00F03 		and	r3, r3, #15
 3448              		.loc 1 1766 14 view .LVU1149
 3449 0046 0B60     		str	r3, [r1]
1767:../../Drivers/STM32H7xx_HAL_Driver/Src/stm32h7xx_hal_rcc.c **** }
 3450              		.loc 1 1767 1 view .LVU1150
 3451 0048 7047     		bx	lr
 3452              	.L279:
 3453 004a 00BF     		.align	2
 3454              	.L278:
 3455 004c 00440258 		.word	1476543488
 3456 0050 00200052 		.word	1375739904
 3457              		.cfi_endproc
 3458              	.LFE155:
 3460              		.section	.text.HAL_RCC_CSSCallback,"ax",%progbits
 3461              		.align	1
 3462              		.weak	HAL_RCC_CSSCallback
 3463              		.syntax unified
 3464              		.thumb
 3465              		.thumb_func
 3466              		.fpu fpv5-d16
 3468              	HAL_RCC_CSSCallback:
 3469              	.LFB157:
1768:../../Drivers/STM32H7xx_HAL_Driver/Src/stm32h7xx_hal_rcc.c **** 
1769:../../Drivers/STM32H7xx_HAL_Driver/Src/stm32h7xx_hal_rcc.c **** /**
1770:../../Drivers/STM32H7xx_HAL_Driver/Src/stm32h7xx_hal_rcc.c ****   * @brief This function handles the RCC CSS interrupt request.
1771:../../Drivers/STM32H7xx_HAL_Driver/Src/stm32h7xx_hal_rcc.c ****   * @note This API should be called under the NMI_Handler().
1772:../../Drivers/STM32H7xx_HAL_Driver/Src/stm32h7xx_hal_rcc.c ****   * @retval None
ARM GAS  /tmp/ccooDZtA.s 			page 103


1773:../../Drivers/STM32H7xx_HAL_Driver/Src/stm32h7xx_hal_rcc.c ****   */
1774:../../Drivers/STM32H7xx_HAL_Driver/Src/stm32h7xx_hal_rcc.c **** void HAL_RCC_NMI_IRQHandler(void)
1775:../../Drivers/STM32H7xx_HAL_Driver/Src/stm32h7xx_hal_rcc.c **** {
1776:../../Drivers/STM32H7xx_HAL_Driver/Src/stm32h7xx_hal_rcc.c ****   /* Check RCC CSSF flag  */
1777:../../Drivers/STM32H7xx_HAL_Driver/Src/stm32h7xx_hal_rcc.c ****   if (__HAL_RCC_GET_IT(RCC_IT_CSS))
1778:../../Drivers/STM32H7xx_HAL_Driver/Src/stm32h7xx_hal_rcc.c ****   {
1779:../../Drivers/STM32H7xx_HAL_Driver/Src/stm32h7xx_hal_rcc.c ****     /* RCC Clock Security System interrupt user callback */
1780:../../Drivers/STM32H7xx_HAL_Driver/Src/stm32h7xx_hal_rcc.c ****     HAL_RCC_CSSCallback();
1781:../../Drivers/STM32H7xx_HAL_Driver/Src/stm32h7xx_hal_rcc.c **** 
1782:../../Drivers/STM32H7xx_HAL_Driver/Src/stm32h7xx_hal_rcc.c ****     /* Clear RCC CSS pending bit */
1783:../../Drivers/STM32H7xx_HAL_Driver/Src/stm32h7xx_hal_rcc.c ****     __HAL_RCC_CLEAR_IT(RCC_IT_CSS);
1784:../../Drivers/STM32H7xx_HAL_Driver/Src/stm32h7xx_hal_rcc.c ****   }
1785:../../Drivers/STM32H7xx_HAL_Driver/Src/stm32h7xx_hal_rcc.c **** }
1786:../../Drivers/STM32H7xx_HAL_Driver/Src/stm32h7xx_hal_rcc.c **** 
1787:../../Drivers/STM32H7xx_HAL_Driver/Src/stm32h7xx_hal_rcc.c **** /**
1788:../../Drivers/STM32H7xx_HAL_Driver/Src/stm32h7xx_hal_rcc.c ****   * @brief  RCC Clock Security System interrupt callback
1789:../../Drivers/STM32H7xx_HAL_Driver/Src/stm32h7xx_hal_rcc.c ****   * @retval none
1790:../../Drivers/STM32H7xx_HAL_Driver/Src/stm32h7xx_hal_rcc.c ****   */
1791:../../Drivers/STM32H7xx_HAL_Driver/Src/stm32h7xx_hal_rcc.c **** __weak void HAL_RCC_CSSCallback(void)
1792:../../Drivers/STM32H7xx_HAL_Driver/Src/stm32h7xx_hal_rcc.c **** {
 3470              		.loc 1 1792 1 is_stmt 1 view -0
 3471              		.cfi_startproc
 3472              		@ args = 0, pretend = 0, frame = 0
 3473              		@ frame_needed = 0, uses_anonymous_args = 0
 3474              		@ link register save eliminated.
1793:../../Drivers/STM32H7xx_HAL_Driver/Src/stm32h7xx_hal_rcc.c ****   /* NOTE : This function Should not be modified, when the callback is needed,
1794:../../Drivers/STM32H7xx_HAL_Driver/Src/stm32h7xx_hal_rcc.c ****             the HAL_RCC_CSSCallback could be implemented in the user file
1795:../../Drivers/STM32H7xx_HAL_Driver/Src/stm32h7xx_hal_rcc.c ****    */
1796:../../Drivers/STM32H7xx_HAL_Driver/Src/stm32h7xx_hal_rcc.c **** }
 3475              		.loc 1 1796 1 view .LVU1152
 3476 0000 7047     		bx	lr
 3477              		.cfi_endproc
 3478              	.LFE157:
 3480              		.section	.text.HAL_RCC_NMI_IRQHandler,"ax",%progbits
 3481              		.align	1
 3482              		.global	HAL_RCC_NMI_IRQHandler
 3483              		.syntax unified
 3484              		.thumb
 3485              		.thumb_func
 3486              		.fpu fpv5-d16
 3488              	HAL_RCC_NMI_IRQHandler:
 3489              	.LFB156:
1775:../../Drivers/STM32H7xx_HAL_Driver/Src/stm32h7xx_hal_rcc.c ****   /* Check RCC CSSF flag  */
 3490              		.loc 1 1775 1 view -0
 3491              		.cfi_startproc
 3492              		@ args = 0, pretend = 0, frame = 0
 3493              		@ frame_needed = 0, uses_anonymous_args = 0
 3494 0000 08B5     		push	{r3, lr}
 3495              	.LCFI19:
 3496              		.cfi_def_cfa_offset 8
 3497              		.cfi_offset 3, -8
 3498              		.cfi_offset 14, -4
1777:../../Drivers/STM32H7xx_HAL_Driver/Src/stm32h7xx_hal_rcc.c ****   {
 3499              		.loc 1 1777 3 view .LVU1154
1777:../../Drivers/STM32H7xx_HAL_Driver/Src/stm32h7xx_hal_rcc.c ****   {
 3500              		.loc 1 1777 7 is_stmt 0 view .LVU1155
 3501 0002 064B     		ldr	r3, .L285
ARM GAS  /tmp/ccooDZtA.s 			page 104


 3502 0004 5B6E     		ldr	r3, [r3, #100]
1777:../../Drivers/STM32H7xx_HAL_Driver/Src/stm32h7xx_hal_rcc.c ****   {
 3503              		.loc 1 1777 6 view .LVU1156
 3504 0006 13F4806F 		tst	r3, #1024
 3505 000a 00D1     		bne	.L284
 3506              	.L281:
1785:../../Drivers/STM32H7xx_HAL_Driver/Src/stm32h7xx_hal_rcc.c **** 
 3507              		.loc 1 1785 1 view .LVU1157
 3508 000c 08BD     		pop	{r3, pc}
 3509              	.L284:
1780:../../Drivers/STM32H7xx_HAL_Driver/Src/stm32h7xx_hal_rcc.c **** 
 3510              		.loc 1 1780 5 is_stmt 1 view .LVU1158
 3511 000e FFF7FEFF 		bl	HAL_RCC_CSSCallback
 3512              	.LVL219:
1783:../../Drivers/STM32H7xx_HAL_Driver/Src/stm32h7xx_hal_rcc.c ****   }
 3513              		.loc 1 1783 5 view .LVU1159
 3514 0012 024B     		ldr	r3, .L285
 3515 0014 4FF48062 		mov	r2, #1024
 3516 0018 9A66     		str	r2, [r3, #104]
1785:../../Drivers/STM32H7xx_HAL_Driver/Src/stm32h7xx_hal_rcc.c **** 
 3517              		.loc 1 1785 1 is_stmt 0 view .LVU1160
 3518 001a F7E7     		b	.L281
 3519              	.L286:
 3520              		.align	2
 3521              	.L285:
 3522 001c 00440258 		.word	1476543488
 3523              		.cfi_endproc
 3524              	.LFE156:
 3526              		.text
 3527              	.Letext0:
 3528              		.file 2 "/usr/lib/gcc/arm-none-eabi/10.3.1/include/stdint.h"
 3529              		.file 3 "../../Drivers/CMSIS/Device/ST/STM32H7xx/Include/system_stm32h7xx.h"
 3530              		.file 4 "../../Drivers/CMSIS/Device/ST/STM32H7xx/Include/stm32h755xx.h"
 3531              		.file 5 "/usr/include/newlib/math.h"
 3532              		.file 6 "../../Drivers/STM32H7xx_HAL_Driver/Inc/stm32h7xx_hal_def.h"
 3533              		.file 7 "../../Drivers/STM32H7xx_HAL_Driver/Inc/stm32h7xx_hal_rcc.h"
 3534              		.file 8 "../../Drivers/STM32H7xx_HAL_Driver/Inc/stm32h7xx_hal_gpio.h"
 3535              		.file 9 "../../Drivers/STM32H7xx_HAL_Driver/Inc/stm32h7xx_hal.h"
ARM GAS  /tmp/ccooDZtA.s 			page 105


DEFINED SYMBOLS
                            *ABS*:0000000000000000 stm32h7xx_hal_rcc.c
     /tmp/ccooDZtA.s:17     .text.HAL_RCC_DeInit:0000000000000000 $t
     /tmp/ccooDZtA.s:25     .text.HAL_RCC_DeInit:0000000000000000 HAL_RCC_DeInit
     /tmp/ccooDZtA.s:372    .text.HAL_RCC_DeInit:00000000000001a4 $d
     /tmp/ccooDZtA.s:386    .text.HAL_RCC_OscConfig:0000000000000000 $t
     /tmp/ccooDZtA.s:393    .text.HAL_RCC_OscConfig:0000000000000000 HAL_RCC_OscConfig
     /tmp/ccooDZtA.s:906    .text.HAL_RCC_OscConfig:0000000000000264 $d
     /tmp/ccooDZtA.s:913    .text.HAL_RCC_OscConfig:0000000000000268 $t
     /tmp/ccooDZtA.s:1417   .text.HAL_RCC_OscConfig:00000000000004f8 $d
     /tmp/ccooDZtA.s:1431   .text.HAL_RCC_OscConfig:0000000000000500 $t
     /tmp/ccooDZtA.s:1796   .text.HAL_RCC_OscConfig:00000000000006a8 $d
     /tmp/ccooDZtA.s:1803   .text.HAL_RCC_MCOConfig:0000000000000000 $t
     /tmp/ccooDZtA.s:1810   .text.HAL_RCC_MCOConfig:0000000000000000 HAL_RCC_MCOConfig
     /tmp/ccooDZtA.s:1960   .text.HAL_RCC_MCOConfig:0000000000000098 $d
     /tmp/ccooDZtA.s:1967   .text.HAL_RCC_EnableCSS:0000000000000000 $t
     /tmp/ccooDZtA.s:1974   .text.HAL_RCC_EnableCSS:0000000000000000 HAL_RCC_EnableCSS
     /tmp/ccooDZtA.s:1991   .text.HAL_RCC_EnableCSS:000000000000000c $d
     /tmp/ccooDZtA.s:1996   .text.HAL_RCC_DisableCSS:0000000000000000 $t
     /tmp/ccooDZtA.s:2003   .text.HAL_RCC_DisableCSS:0000000000000000 HAL_RCC_DisableCSS
     /tmp/ccooDZtA.s:2020   .text.HAL_RCC_DisableCSS:000000000000000c $d
     /tmp/ccooDZtA.s:2025   .text.HAL_RCC_GetSysClockFreq:0000000000000000 $t
     /tmp/ccooDZtA.s:2032   .text.HAL_RCC_GetSysClockFreq:0000000000000000 HAL_RCC_GetSysClockFreq
     /tmp/ccooDZtA.s:2345   .text.HAL_RCC_GetSysClockFreq:00000000000001d4 $d
     /tmp/ccooDZtA.s:2357   .text.HAL_RCC_ClockConfig:0000000000000000 $t
     /tmp/ccooDZtA.s:2364   .text.HAL_RCC_ClockConfig:0000000000000000 HAL_RCC_ClockConfig
     /tmp/ccooDZtA.s:2890   .text.HAL_RCC_ClockConfig:000000000000027c $d
     /tmp/ccooDZtA.s:2900   .text.HAL_RCC_GetHCLKFreq:0000000000000000 $t
     /tmp/ccooDZtA.s:2907   .text.HAL_RCC_GetHCLKFreq:0000000000000000 HAL_RCC_GetHCLKFreq
     /tmp/ccooDZtA.s:2962   .text.HAL_RCC_GetHCLKFreq:0000000000000034 $d
     /tmp/ccooDZtA.s:2970   .text.HAL_RCC_GetPCLK1Freq:0000000000000000 $t
     /tmp/ccooDZtA.s:2977   .text.HAL_RCC_GetPCLK1Freq:0000000000000000 HAL_RCC_GetPCLK1Freq
     /tmp/ccooDZtA.s:3008   .text.HAL_RCC_GetPCLK1Freq:000000000000001c $d
     /tmp/ccooDZtA.s:3014   .text.HAL_RCC_GetPCLK2Freq:0000000000000000 $t
     /tmp/ccooDZtA.s:3021   .text.HAL_RCC_GetPCLK2Freq:0000000000000000 HAL_RCC_GetPCLK2Freq
     /tmp/ccooDZtA.s:3052   .text.HAL_RCC_GetPCLK2Freq:000000000000001c $d
     /tmp/ccooDZtA.s:3058   .text.HAL_RCC_GetOscConfig:0000000000000000 $t
     /tmp/ccooDZtA.s:3065   .text.HAL_RCC_GetOscConfig:0000000000000000 HAL_RCC_GetOscConfig
     /tmp/ccooDZtA.s:3368   .text.HAL_RCC_GetOscConfig:0000000000000150 $d
     /tmp/ccooDZtA.s:3373   .text.HAL_RCC_GetClockConfig:0000000000000000 $t
     /tmp/ccooDZtA.s:3380   .text.HAL_RCC_GetClockConfig:0000000000000000 HAL_RCC_GetClockConfig
     /tmp/ccooDZtA.s:3455   .text.HAL_RCC_GetClockConfig:000000000000004c $d
     /tmp/ccooDZtA.s:3461   .text.HAL_RCC_CSSCallback:0000000000000000 $t
     /tmp/ccooDZtA.s:3468   .text.HAL_RCC_CSSCallback:0000000000000000 HAL_RCC_CSSCallback
     /tmp/ccooDZtA.s:3481   .text.HAL_RCC_NMI_IRQHandler:0000000000000000 $t
     /tmp/ccooDZtA.s:3488   .text.HAL_RCC_NMI_IRQHandler:0000000000000000 HAL_RCC_NMI_IRQHandler
     /tmp/ccooDZtA.s:3522   .text.HAL_RCC_NMI_IRQHandler:000000000000001c $d

UNDEFINED SYMBOLS
HAL_GetTick
HAL_InitTick
SystemCoreClock
SystemD2Clock
uwTickPrio
HAL_GetREVID
HAL_GPIO_Init
D1CorePrescTable
ARM GAS  /tmp/ccooDZtA.s 			page 106


